   1              		.syntax unified
   2              		.cpu cortex-m3
   3              		.fpu softvfp
   4              		.eabi_attribute 20, 1
   5              		.eabi_attribute 21, 1
   6              		.eabi_attribute 23, 3
   7              		.eabi_attribute 24, 1
   8              		.eabi_attribute 25, 1
   9              		.eabi_attribute 26, 1
  10              		.eabi_attribute 30, 6
  11              		.eabi_attribute 34, 1
  12              		.eabi_attribute 18, 4
  13              		.thumb
  14              		.file	"sixtop.c"
  15              		.text
  16              	.Ltext0:
  17              		.cfi_sections	.debug_frame
  18              		.section	.rodata
  19              		.align	2
  22              	rreg_uriquery:
  23 0000 683D7563 		.ascii	"h=ucb\000"
  23      6200
  24 0006 0000     		.align	2
  27              	infoBoardname:
  28 0008 43433235 		.ascii	"CC2538\000"
  28      333800
  29 000f 00       		.align	2
  32              	infouCName:
  33 0010 43433235 		.ascii	"CC2538\000"
  33      333800
  34 0017 00       		.align	2
  37              	infoRadioName:
  38 0018 43433235 		.ascii	"CC2538 SoC\000"
  38      33382053 
  38      6F4300
  39 0023 00       		.align	2
  42              	infoStackName:
  43 0024 4F70656E 		.ascii	"OpenWSN \000"
  43      57534E20 
  43      00
  44 002d 000000   		.align	2
  47              	all_routers_multicast:
  48 0030 FF       		.byte	-1
  49 0031 02       		.byte	2
  50 0032 00       		.byte	0
  51 0033 00       		.byte	0
  52 0034 00       		.byte	0
  53 0035 00       		.byte	0
  54 0036 00       		.byte	0
  55 0037 00       		.byte	0
  56 0038 00       		.byte	0
  57 0039 00       		.byte	0
  58 003a 00       		.byte	0
  59 003b 00       		.byte	0
  60 003c 00       		.byte	0
  61 003d 00       		.byte	0
  62 003e 00       		.byte	0
  63 003f 1A       		.byte	26
  64              		.align	2
  67              	chTemplate_default:
  68 0040 05       		.byte	5
  69 0041 06       		.byte	6
  70 0042 0C       		.byte	12
  71 0043 07       		.byte	7
  72 0044 0F       		.byte	15
  73 0045 04       		.byte	4
  74 0046 0E       		.byte	14
  75 0047 0B       		.byte	11
  76 0048 08       		.byte	8
  77 0049 00       		.byte	0
  78 004a 01       		.byte	1
  79 004b 02       		.byte	2
  80 004c 0D       		.byte	13
  81 004d 03       		.byte	3
  82 004e 09       		.byte	9
  83 004f 0A       		.byte	10
  84              		.comm	sixtop_vars,18,4
  85              		.text
  86              		.align	2
  87              		.global	sixtop_init
  88              		.thumb
  89              		.thumb_func
  91              	sixtop_init:
  92              	.LFB0:
  93              		.file 1 "build/openmote-cc2538_armgcc/openstack/02b-MAChigh/sixtop.c"
   1:build/openmote-cc2538_armgcc/openstack/02b-MAChigh/sixtop.c **** #include "opendefs.h"
   2:build/openmote-cc2538_armgcc/openstack/02b-MAChigh/sixtop.c **** #include "sixtop.h"
   3:build/openmote-cc2538_armgcc/openstack/02b-MAChigh/sixtop.c **** #include "openserial.h"
   4:build/openmote-cc2538_armgcc/openstack/02b-MAChigh/sixtop.c **** #include "openqueue.h"
   5:build/openmote-cc2538_armgcc/openstack/02b-MAChigh/sixtop.c **** #include "neighbors.h"
   6:build/openmote-cc2538_armgcc/openstack/02b-MAChigh/sixtop.c **** #include "IEEE802154E.h"
   7:build/openmote-cc2538_armgcc/openstack/02b-MAChigh/sixtop.c **** #include "iphc.h"
   8:build/openmote-cc2538_armgcc/openstack/02b-MAChigh/sixtop.c **** #include "sf0.h"
   9:build/openmote-cc2538_armgcc/openstack/02b-MAChigh/sixtop.c **** #include "packetfunctions.h"
  10:build/openmote-cc2538_armgcc/openstack/02b-MAChigh/sixtop.c **** #include "openrandom.h"
  11:build/openmote-cc2538_armgcc/openstack/02b-MAChigh/sixtop.c **** #include "scheduler.h"
  12:build/openmote-cc2538_armgcc/openstack/02b-MAChigh/sixtop.c **** #include "opentimers.h"
  13:build/openmote-cc2538_armgcc/openstack/02b-MAChigh/sixtop.c **** #include "debugpins.h"
  14:build/openmote-cc2538_armgcc/openstack/02b-MAChigh/sixtop.c **** #include "leds.h"
  15:build/openmote-cc2538_armgcc/openstack/02b-MAChigh/sixtop.c **** #include "processIE.h"
  16:build/openmote-cc2538_armgcc/openstack/02b-MAChigh/sixtop.c **** #include "IEEE802154.h"
  17:build/openmote-cc2538_armgcc/openstack/02b-MAChigh/sixtop.c **** #include "IEEE802154_security.h"
  18:build/openmote-cc2538_armgcc/openstack/02b-MAChigh/sixtop.c **** #include "idmanager.h"
  19:build/openmote-cc2538_armgcc/openstack/02b-MAChigh/sixtop.c **** #include "schedule.h"
  20:build/openmote-cc2538_armgcc/openstack/02b-MAChigh/sixtop.c **** 
  21:build/openmote-cc2538_armgcc/openstack/02b-MAChigh/sixtop.c **** //=========================== define ==========================================
  22:build/openmote-cc2538_armgcc/openstack/02b-MAChigh/sixtop.c **** 
  23:build/openmote-cc2538_armgcc/openstack/02b-MAChigh/sixtop.c **** // in seconds: sixtop maintaince is called every 30 seconds
  24:build/openmote-cc2538_armgcc/openstack/02b-MAChigh/sixtop.c **** #define MAINTENANCE_PERIOD        30
  25:build/openmote-cc2538_armgcc/openstack/02b-MAChigh/sixtop.c **** // in miliseconds: the real EBPERIOD will be randomized chosen between {EBPERIOD-EBPERIOD_RANDOM_RA
  26:build/openmote-cc2538_armgcc/openstack/02b-MAChigh/sixtop.c **** #define EBPERIOD_RANDOM_RANG     500
  27:build/openmote-cc2538_armgcc/openstack/02b-MAChigh/sixtop.c **** 
  28:build/openmote-cc2538_armgcc/openstack/02b-MAChigh/sixtop.c **** //=========================== variables =======================================
  29:build/openmote-cc2538_armgcc/openstack/02b-MAChigh/sixtop.c **** 
  30:build/openmote-cc2538_armgcc/openstack/02b-MAChigh/sixtop.c **** sixtop_vars_t sixtop_vars;
  31:build/openmote-cc2538_armgcc/openstack/02b-MAChigh/sixtop.c **** 
  32:build/openmote-cc2538_armgcc/openstack/02b-MAChigh/sixtop.c **** //=========================== prototypes ======================================
  33:build/openmote-cc2538_armgcc/openstack/02b-MAChigh/sixtop.c **** 
  34:build/openmote-cc2538_armgcc/openstack/02b-MAChigh/sixtop.c **** // send internal
  35:build/openmote-cc2538_armgcc/openstack/02b-MAChigh/sixtop.c **** owerror_t     sixtop_send_internal(
  36:build/openmote-cc2538_armgcc/openstack/02b-MAChigh/sixtop.c ****    OpenQueueEntry_t*    msg,
  37:build/openmote-cc2538_armgcc/openstack/02b-MAChigh/sixtop.c ****    bool                 payloadIEPresent
  38:build/openmote-cc2538_armgcc/openstack/02b-MAChigh/sixtop.c **** );
  39:build/openmote-cc2538_armgcc/openstack/02b-MAChigh/sixtop.c **** 
  40:build/openmote-cc2538_armgcc/openstack/02b-MAChigh/sixtop.c **** // timer interrupt callbacks
  41:build/openmote-cc2538_armgcc/openstack/02b-MAChigh/sixtop.c **** void          sixtop_maintenance_timer_cb(opentimer_id_t id);
  42:build/openmote-cc2538_armgcc/openstack/02b-MAChigh/sixtop.c **** void          sixtop_timeout_timer_cb(opentimer_id_t id);
  43:build/openmote-cc2538_armgcc/openstack/02b-MAChigh/sixtop.c **** void          sixtop_sendingEb_timer_cb(opentimer_id_t id);
  44:build/openmote-cc2538_armgcc/openstack/02b-MAChigh/sixtop.c **** 
  45:build/openmote-cc2538_armgcc/openstack/02b-MAChigh/sixtop.c **** //=== EB/KA task
  46:build/openmote-cc2538_armgcc/openstack/02b-MAChigh/sixtop.c **** 
  47:build/openmote-cc2538_armgcc/openstack/02b-MAChigh/sixtop.c **** void          timer_sixtop_sendEb_fired(void);
  48:build/openmote-cc2538_armgcc/openstack/02b-MAChigh/sixtop.c **** void          timer_sixtop_management_fired(void);
  49:build/openmote-cc2538_armgcc/openstack/02b-MAChigh/sixtop.c **** void          sixtop_sendEB(void);
  50:build/openmote-cc2538_armgcc/openstack/02b-MAChigh/sixtop.c **** void          sixtop_sendKA(void);
  51:build/openmote-cc2538_armgcc/openstack/02b-MAChigh/sixtop.c **** 
  52:build/openmote-cc2538_armgcc/openstack/02b-MAChigh/sixtop.c **** //=== six2six task
  53:build/openmote-cc2538_armgcc/openstack/02b-MAChigh/sixtop.c **** 
  54:build/openmote-cc2538_armgcc/openstack/02b-MAChigh/sixtop.c **** void          timer_sixtop_six2six_timeout_fired(void);
  55:build/openmote-cc2538_armgcc/openstack/02b-MAChigh/sixtop.c **** void          sixtop_six2six_sendDone(
  56:build/openmote-cc2538_armgcc/openstack/02b-MAChigh/sixtop.c ****    OpenQueueEntry_t*    msg,
  57:build/openmote-cc2538_armgcc/openstack/02b-MAChigh/sixtop.c ****    owerror_t            error
  58:build/openmote-cc2538_armgcc/openstack/02b-MAChigh/sixtop.c **** );
  59:build/openmote-cc2538_armgcc/openstack/02b-MAChigh/sixtop.c **** bool          sixtop_processIEs(
  60:build/openmote-cc2538_armgcc/openstack/02b-MAChigh/sixtop.c ****    OpenQueueEntry_t*    pkt,
  61:build/openmote-cc2538_armgcc/openstack/02b-MAChigh/sixtop.c ****    uint16_t*            lenIE
  62:build/openmote-cc2538_armgcc/openstack/02b-MAChigh/sixtop.c **** );
  63:build/openmote-cc2538_armgcc/openstack/02b-MAChigh/sixtop.c **** void sixtop_notifyReceiveCommand(
  64:build/openmote-cc2538_armgcc/openstack/02b-MAChigh/sixtop.c ****    uint8_t              version, 
  65:build/openmote-cc2538_armgcc/openstack/02b-MAChigh/sixtop.c ****    uint8_t              commandId, 
  66:build/openmote-cc2538_armgcc/openstack/02b-MAChigh/sixtop.c ****    uint8_t              sfId,
  67:build/openmote-cc2538_armgcc/openstack/02b-MAChigh/sixtop.c ****    uint8_t              ptr,
  68:build/openmote-cc2538_armgcc/openstack/02b-MAChigh/sixtop.c ****    uint8_t              length,
  69:build/openmote-cc2538_armgcc/openstack/02b-MAChigh/sixtop.c ****    OpenQueueEntry_t*    pkt
  70:build/openmote-cc2538_armgcc/openstack/02b-MAChigh/sixtop.c **** );
  71:build/openmote-cc2538_armgcc/openstack/02b-MAChigh/sixtop.c **** 
  72:build/openmote-cc2538_armgcc/openstack/02b-MAChigh/sixtop.c **** uint8_t sixtop_getCelllist(
  73:build/openmote-cc2538_armgcc/openstack/02b-MAChigh/sixtop.c ****    uint8_t             frameID,
  74:build/openmote-cc2538_armgcc/openstack/02b-MAChigh/sixtop.c ****    open_addr_t*         neighbor,
  75:build/openmote-cc2538_armgcc/openstack/02b-MAChigh/sixtop.c ****    cellInfo_ht*         cellList
  76:build/openmote-cc2538_armgcc/openstack/02b-MAChigh/sixtop.c **** );
  77:build/openmote-cc2538_armgcc/openstack/02b-MAChigh/sixtop.c **** 
  78:build/openmote-cc2538_armgcc/openstack/02b-MAChigh/sixtop.c **** //=== helper functions
  79:build/openmote-cc2538_armgcc/openstack/02b-MAChigh/sixtop.c **** 
  80:build/openmote-cc2538_armgcc/openstack/02b-MAChigh/sixtop.c **** bool          sixtop_candidateAddCellList(
  81:build/openmote-cc2538_armgcc/openstack/02b-MAChigh/sixtop.c ****    uint8_t*             frameID,
  82:build/openmote-cc2538_armgcc/openstack/02b-MAChigh/sixtop.c ****    cellInfo_ht*         cellList,
  83:build/openmote-cc2538_armgcc/openstack/02b-MAChigh/sixtop.c ****    uint8_t              requiredCells
  84:build/openmote-cc2538_armgcc/openstack/02b-MAChigh/sixtop.c **** );
  85:build/openmote-cc2538_armgcc/openstack/02b-MAChigh/sixtop.c **** bool          sixtop_candidateRemoveCellList(
  86:build/openmote-cc2538_armgcc/openstack/02b-MAChigh/sixtop.c ****    uint8_t*             frameID,
  87:build/openmote-cc2538_armgcc/openstack/02b-MAChigh/sixtop.c ****    cellInfo_ht*         cellList,
  88:build/openmote-cc2538_armgcc/openstack/02b-MAChigh/sixtop.c ****    open_addr_t*         neighbor,
  89:build/openmote-cc2538_armgcc/openstack/02b-MAChigh/sixtop.c ****    uint8_t              requiredCells
  90:build/openmote-cc2538_armgcc/openstack/02b-MAChigh/sixtop.c **** );
  91:build/openmote-cc2538_armgcc/openstack/02b-MAChigh/sixtop.c **** void          sixtop_addCellsByState(
  92:build/openmote-cc2538_armgcc/openstack/02b-MAChigh/sixtop.c ****    uint8_t              slotframeID,
  93:build/openmote-cc2538_armgcc/openstack/02b-MAChigh/sixtop.c ****    cellInfo_ht*         cellList,
  94:build/openmote-cc2538_armgcc/openstack/02b-MAChigh/sixtop.c ****    open_addr_t*         previousHop,
  95:build/openmote-cc2538_armgcc/openstack/02b-MAChigh/sixtop.c ****    uint8_t              state
  96:build/openmote-cc2538_armgcc/openstack/02b-MAChigh/sixtop.c **** );
  97:build/openmote-cc2538_armgcc/openstack/02b-MAChigh/sixtop.c **** void          sixtop_removeCellsByState(
  98:build/openmote-cc2538_armgcc/openstack/02b-MAChigh/sixtop.c ****    uint8_t              slotframeID,
  99:build/openmote-cc2538_armgcc/openstack/02b-MAChigh/sixtop.c ****    cellInfo_ht*         cellList,
 100:build/openmote-cc2538_armgcc/openstack/02b-MAChigh/sixtop.c ****    open_addr_t*         previousHop
 101:build/openmote-cc2538_armgcc/openstack/02b-MAChigh/sixtop.c **** );
 102:build/openmote-cc2538_armgcc/openstack/02b-MAChigh/sixtop.c **** bool          sixtop_areAvailableCellsToBeScheduled(
 103:build/openmote-cc2538_armgcc/openstack/02b-MAChigh/sixtop.c ****     uint8_t              frameID, 
 104:build/openmote-cc2538_armgcc/openstack/02b-MAChigh/sixtop.c ****     uint8_t              numOfCells, 
 105:build/openmote-cc2538_armgcc/openstack/02b-MAChigh/sixtop.c ****     cellInfo_ht*         cellList
 106:build/openmote-cc2538_armgcc/openstack/02b-MAChigh/sixtop.c **** );
 107:build/openmote-cc2538_armgcc/openstack/02b-MAChigh/sixtop.c **** bool sixtop_areAvailableCellsToBeRemoved(      
 108:build/openmote-cc2538_armgcc/openstack/02b-MAChigh/sixtop.c ****     uint8_t      frameID, 
 109:build/openmote-cc2538_armgcc/openstack/02b-MAChigh/sixtop.c ****     uint8_t      numOfCells, 
 110:build/openmote-cc2538_armgcc/openstack/02b-MAChigh/sixtop.c ****     cellInfo_ht* cellList,
 111:build/openmote-cc2538_armgcc/openstack/02b-MAChigh/sixtop.c ****     open_addr_t* neighbor
 112:build/openmote-cc2538_armgcc/openstack/02b-MAChigh/sixtop.c **** );
 113:build/openmote-cc2538_armgcc/openstack/02b-MAChigh/sixtop.c **** 
 114:build/openmote-cc2538_armgcc/openstack/02b-MAChigh/sixtop.c **** //=========================== public ==========================================
 115:build/openmote-cc2538_armgcc/openstack/02b-MAChigh/sixtop.c **** 
 116:build/openmote-cc2538_armgcc/openstack/02b-MAChigh/sixtop.c **** void sixtop_init() {
  94              		.loc 1 116 0
  95              		.cfi_startproc
  96              		@ args = 0, pretend = 0, frame = 0
  97              		@ frame_needed = 1, uses_anonymous_args = 0
  98 0000 98B5     		push	{r3, r4, r7, lr}
  99              		.cfi_def_cfa_offset 16
 100              		.cfi_offset 3, -16
 101              		.cfi_offset 4, -12
 102              		.cfi_offset 7, -8
 103              		.cfi_offset 14, -4
 104 0002 00AF     		add	r7, sp, #0
 105              		.cfi_def_cfa_register 7
 117:build/openmote-cc2538_armgcc/openstack/02b-MAChigh/sixtop.c ****     
 118:build/openmote-cc2538_armgcc/openstack/02b-MAChigh/sixtop.c ****     sixtop_vars.periodMaintenance  = 872 +(openrandom_get16b()&0xff);
 106              		.loc 1 118 0
 107 0004 FFF7FEFF 		bl	openrandom_get16b
 108 0008 0346     		mov	r3, r0
 109 000a DBB2     		uxtb	r3, r3
 110 000c 9BB2     		uxth	r3, r3
 111 000e 03F55A73 		add	r3, r3, #872
 112 0012 9AB2     		uxth	r2, r3
 113 0014 40F20003 		movw	r3, #:lower16:sixtop_vars
 114 0018 C0F20003 		movt	r3, #:upper16:sixtop_vars
 115 001c 1A80     		strh	r2, [r3]	@ movhi
 119:build/openmote-cc2538_armgcc/openstack/02b-MAChigh/sixtop.c ****     sixtop_vars.busySendingKA      = FALSE;
 116              		.loc 1 119 0
 117 001e 40F20003 		movw	r3, #:lower16:sixtop_vars
 118 0022 C0F20003 		movt	r3, #:upper16:sixtop_vars
 119 0026 0022     		movs	r2, #0
 120 0028 9A70     		strb	r2, [r3, #2]
 120:build/openmote-cc2538_armgcc/openstack/02b-MAChigh/sixtop.c ****     sixtop_vars.busySendingEB      = FALSE;
 121              		.loc 1 120 0
 122 002a 40F20003 		movw	r3, #:lower16:sixtop_vars
 123 002e C0F20003 		movt	r3, #:upper16:sixtop_vars
 124 0032 0022     		movs	r2, #0
 125 0034 DA70     		strb	r2, [r3, #3]
 121:build/openmote-cc2538_armgcc/openstack/02b-MAChigh/sixtop.c ****     sixtop_vars.dsn                = 0;
 126              		.loc 1 121 0
 127 0036 40F20003 		movw	r3, #:lower16:sixtop_vars
 128 003a C0F20003 		movt	r3, #:upper16:sixtop_vars
 129 003e 0022     		movs	r2, #0
 130 0040 1A71     		strb	r2, [r3, #4]
 122:build/openmote-cc2538_armgcc/openstack/02b-MAChigh/sixtop.c ****     sixtop_vars.mgtTaskCounter     = 0;
 131              		.loc 1 122 0
 132 0042 40F20003 		movw	r3, #:lower16:sixtop_vars
 133 0046 C0F20003 		movt	r3, #:upper16:sixtop_vars
 134 004a 0022     		movs	r2, #0
 135 004c 5A71     		strb	r2, [r3, #5]
 123:build/openmote-cc2538_armgcc/openstack/02b-MAChigh/sixtop.c ****     sixtop_vars.kaPeriod           = MAXKAPERIOD;
 136              		.loc 1 123 0
 137 004e 40F20003 		movw	r3, #:lower16:sixtop_vars
 138 0052 C0F20003 		movt	r3, #:upper16:sixtop_vars
 139 0056 4FF4FA62 		mov	r2, #2000
 140 005a 5A81     		strh	r2, [r3, #10]	@ movhi
 124:build/openmote-cc2538_armgcc/openstack/02b-MAChigh/sixtop.c ****     sixtop_vars.ebPeriod           = EBPERIOD;
 141              		.loc 1 124 0
 142 005c 40F20003 		movw	r3, #:lower16:sixtop_vars
 143 0060 C0F20003 		movt	r3, #:upper16:sixtop_vars
 144 0064 4FF4FA62 		mov	r2, #2000
 145 0068 9A81     		strh	r2, [r3, #12]	@ movhi
 125:build/openmote-cc2538_armgcc/openstack/02b-MAChigh/sixtop.c ****     sixtop_vars.isResponseEnabled  = TRUE;
 146              		.loc 1 125 0
 147 006a 40F20003 		movw	r3, #:lower16:sixtop_vars
 148 006e C0F20003 		movt	r3, #:upper16:sixtop_vars
 149 0072 0122     		movs	r2, #1
 150 0074 5A74     		strb	r2, [r3, #17]
 126:build/openmote-cc2538_armgcc/openstack/02b-MAChigh/sixtop.c ****     sixtop_vars.handler            = SIX_HANDLER_NONE;
 151              		.loc 1 126 0
 152 0076 40F20003 		movw	r3, #:lower16:sixtop_vars
 153 007a C0F20003 		movt	r3, #:upper16:sixtop_vars
 154 007e 0022     		movs	r2, #0
 155 0080 1A74     		strb	r2, [r3, #16]
 127:build/openmote-cc2538_armgcc/openstack/02b-MAChigh/sixtop.c ****     sixtop_vars.six2six_state      = SIX_STATE_IDLE;
 156              		.loc 1 127 0
 157 0082 40F20003 		movw	r3, #:lower16:sixtop_vars
 158 0086 C0F20003 		movt	r3, #:upper16:sixtop_vars
 159 008a 0022     		movs	r2, #0
 160 008c 9A73     		strb	r2, [r3, #14]
 128:build/openmote-cc2538_armgcc/openstack/02b-MAChigh/sixtop.c ****     
 129:build/openmote-cc2538_armgcc/openstack/02b-MAChigh/sixtop.c ****     sixtop_vars.ebSendingTimerId   = opentimers_start(
 130:build/openmote-cc2538_armgcc/openstack/02b-MAChigh/sixtop.c ****         (sixtop_vars.ebPeriod-EBPERIOD_RANDOM_RANG+(openrandom_get16b()%(2*EBPERIOD_RANDOM_RANG))),
 161              		.loc 1 130 0
 162 008e 40F20003 		movw	r3, #:lower16:sixtop_vars
 163 0092 C0F20003 		movt	r3, #:upper16:sixtop_vars
 164 0096 9B89     		ldrh	r3, [r3, #12]
 165 0098 A3F5FA74 		sub	r4, r3, #500
 166 009c FFF7FEFF 		bl	openrandom_get16b
 167 00a0 0346     		mov	r3, r0
 168 00a2 1A46     		mov	r2, r3
 169 00a4 44F6D353 		movw	r3, #19923
 170 00a8 C1F26203 		movt	r3, 4194
 171 00ac A3FB0213 		umull	r1, r3, r3, r2
 172 00b0 9B09     		lsrs	r3, r3, #6
 173 00b2 4FF47A71 		mov	r1, #1000
 174 00b6 01FB03F3 		mul	r3, r1, r3
 175 00ba D31A     		subs	r3, r2, r3
 176 00bc 9BB2     		uxth	r3, r3
 177 00be 2344     		add	r3, r3, r4
 129:build/openmote-cc2538_armgcc/openstack/02b-MAChigh/sixtop.c ****         (sixtop_vars.ebPeriod-EBPERIOD_RANDOM_RANG+(openrandom_get16b()%(2*EBPERIOD_RANDOM_RANG))),
 178              		.loc 1 129 0
 179 00c0 1846     		mov	r0, r3
 180 00c2 0021     		movs	r1, #0
 181 00c4 0022     		movs	r2, #0
 182 00c6 40F20003 		movw	r3, #:lower16:sixtop_sendingEb_timer_cb
 183 00ca C0F20003 		movt	r3, #:upper16:sixtop_sendingEb_timer_cb
 184 00ce FFF7FEFF 		bl	opentimers_start
 185 00d2 0346     		mov	r3, r0
 186 00d4 1A46     		mov	r2, r3
 187 00d6 40F20003 		movw	r3, #:lower16:sixtop_vars
 188 00da C0F20003 		movt	r3, #:upper16:sixtop_vars
 189 00de 9A71     		strb	r2, [r3, #6]
 131:build/openmote-cc2538_armgcc/openstack/02b-MAChigh/sixtop.c ****         TIMER_PERIODIC,
 132:build/openmote-cc2538_armgcc/openstack/02b-MAChigh/sixtop.c ****         TIME_MS,
 133:build/openmote-cc2538_armgcc/openstack/02b-MAChigh/sixtop.c ****         sixtop_sendingEb_timer_cb
 134:build/openmote-cc2538_armgcc/openstack/02b-MAChigh/sixtop.c ****     );
 135:build/openmote-cc2538_armgcc/openstack/02b-MAChigh/sixtop.c ****     
 136:build/openmote-cc2538_armgcc/openstack/02b-MAChigh/sixtop.c ****     sixtop_vars.maintenanceTimerId  = opentimers_start(
 137:build/openmote-cc2538_armgcc/openstack/02b-MAChigh/sixtop.c ****         sixtop_vars.periodMaintenance,
 190              		.loc 1 137 0
 191 00e0 40F20003 		movw	r3, #:lower16:sixtop_vars
 192 00e4 C0F20003 		movt	r3, #:upper16:sixtop_vars
 193 00e8 1B88     		ldrh	r3, [r3]
 136:build/openmote-cc2538_armgcc/openstack/02b-MAChigh/sixtop.c ****         sixtop_vars.periodMaintenance,
 194              		.loc 1 136 0
 195 00ea 1846     		mov	r0, r3
 196 00ec 0021     		movs	r1, #0
 197 00ee 0022     		movs	r2, #0
 198 00f0 40F20003 		movw	r3, #:lower16:sixtop_maintenance_timer_cb
 199 00f4 C0F20003 		movt	r3, #:upper16:sixtop_maintenance_timer_cb
 200 00f8 FFF7FEFF 		bl	opentimers_start
 201 00fc 0346     		mov	r3, r0
 202 00fe 1A46     		mov	r2, r3
 203 0100 40F20003 		movw	r3, #:lower16:sixtop_vars
 204 0104 C0F20003 		movt	r3, #:upper16:sixtop_vars
 205 0108 DA71     		strb	r2, [r3, #7]
 138:build/openmote-cc2538_armgcc/openstack/02b-MAChigh/sixtop.c ****         TIMER_PERIODIC,
 139:build/openmote-cc2538_armgcc/openstack/02b-MAChigh/sixtop.c ****         TIME_MS,
 140:build/openmote-cc2538_armgcc/openstack/02b-MAChigh/sixtop.c ****         sixtop_maintenance_timer_cb
 141:build/openmote-cc2538_armgcc/openstack/02b-MAChigh/sixtop.c ****     );
 142:build/openmote-cc2538_armgcc/openstack/02b-MAChigh/sixtop.c ****     
 143:build/openmote-cc2538_armgcc/openstack/02b-MAChigh/sixtop.c ****     sixtop_vars.timeoutTimerId      = opentimers_start(
 206              		.loc 1 143 0
 207 010a 4FF47A60 		mov	r0, #4000
 208 010e 0121     		movs	r1, #1
 209 0110 0022     		movs	r2, #0
 210 0112 40F20003 		movw	r3, #:lower16:sixtop_timeout_timer_cb
 211 0116 C0F20003 		movt	r3, #:upper16:sixtop_timeout_timer_cb
 212 011a FFF7FEFF 		bl	opentimers_start
 213 011e 0346     		mov	r3, r0
 214 0120 1A46     		mov	r2, r3
 215 0122 40F20003 		movw	r3, #:lower16:sixtop_vars
 216 0126 C0F20003 		movt	r3, #:upper16:sixtop_vars
 217 012a 1A72     		strb	r2, [r3, #8]
 144:build/openmote-cc2538_armgcc/openstack/02b-MAChigh/sixtop.c ****         SIX2SIX_TIMEOUT_MS,
 145:build/openmote-cc2538_armgcc/openstack/02b-MAChigh/sixtop.c ****         TIMER_ONESHOT,
 146:build/openmote-cc2538_armgcc/openstack/02b-MAChigh/sixtop.c ****         TIME_MS,
 147:build/openmote-cc2538_armgcc/openstack/02b-MAChigh/sixtop.c ****         sixtop_timeout_timer_cb
 148:build/openmote-cc2538_armgcc/openstack/02b-MAChigh/sixtop.c ****     );
 149:build/openmote-cc2538_armgcc/openstack/02b-MAChigh/sixtop.c **** }
 218              		.loc 1 149 0
 219 012c 98BD     		pop	{r3, r4, r7, pc}
 220              		.cfi_endproc
 221              	.LFE0:
 223 012e 00BF     		.align	2
 224              		.global	sixtop_setKaPeriod
 225              		.thumb
 226              		.thumb_func
 228              	sixtop_setKaPeriod:
 229              	.LFB1:
 150:build/openmote-cc2538_armgcc/openstack/02b-MAChigh/sixtop.c **** 
 151:build/openmote-cc2538_armgcc/openstack/02b-MAChigh/sixtop.c **** void sixtop_setKaPeriod(uint16_t kaPeriod) {
 230              		.loc 1 151 0
 231              		.cfi_startproc
 232              		@ args = 0, pretend = 0, frame = 8
 233              		@ frame_needed = 1, uses_anonymous_args = 0
 234              		@ link register save eliminated.
 235 0130 80B4     		push	{r7}
 236              		.cfi_def_cfa_offset 4
 237              		.cfi_offset 7, -4
 238 0132 83B0     		sub	sp, sp, #12
 239              		.cfi_def_cfa_offset 16
 240 0134 00AF     		add	r7, sp, #0
 241              		.cfi_def_cfa_register 7
 242 0136 0346     		mov	r3, r0
 243 0138 FB80     		strh	r3, [r7, #6]	@ movhi
 152:build/openmote-cc2538_armgcc/openstack/02b-MAChigh/sixtop.c ****    if(kaPeriod > MAXKAPERIOD) {
 244              		.loc 1 152 0
 245 013a FB88     		ldrh	r3, [r7, #6]
 246 013c B3F5FA6F 		cmp	r3, #2000
 247 0140 07D9     		bls	.L3
 153:build/openmote-cc2538_armgcc/openstack/02b-MAChigh/sixtop.c ****       sixtop_vars.kaPeriod = MAXKAPERIOD;
 248              		.loc 1 153 0
 249 0142 40F20003 		movw	r3, #:lower16:sixtop_vars
 250 0146 C0F20003 		movt	r3, #:upper16:sixtop_vars
 251 014a 4FF4FA62 		mov	r2, #2000
 252 014e 5A81     		strh	r2, [r3, #10]	@ movhi
 253 0150 05E0     		b	.L2
 254              	.L3:
 154:build/openmote-cc2538_armgcc/openstack/02b-MAChigh/sixtop.c ****    } else {
 155:build/openmote-cc2538_armgcc/openstack/02b-MAChigh/sixtop.c ****       sixtop_vars.kaPeriod = kaPeriod;
 255              		.loc 1 155 0
 256 0152 40F20003 		movw	r3, #:lower16:sixtop_vars
 257 0156 C0F20003 		movt	r3, #:upper16:sixtop_vars
 258 015a FA88     		ldrh	r2, [r7, #6]	@ movhi
 259 015c 5A81     		strh	r2, [r3, #10]	@ movhi
 260              	.L2:
 156:build/openmote-cc2538_armgcc/openstack/02b-MAChigh/sixtop.c ****    } 
 157:build/openmote-cc2538_armgcc/openstack/02b-MAChigh/sixtop.c **** }
 261              		.loc 1 157 0
 262 015e 0C37     		adds	r7, r7, #12
 263 0160 BD46     		mov	sp, r7
 264              		@ sp needed
 265 0162 5DF8047B 		ldr	r7, [sp], #4
 266 0166 7047     		bx	lr
 267              		.cfi_endproc
 268              	.LFE1:
 270              		.align	2
 271              		.global	sixtop_setEBPeriod
 272              		.thumb
 273              		.thumb_func
 275              	sixtop_setEBPeriod:
 276              	.LFB2:
 158:build/openmote-cc2538_armgcc/openstack/02b-MAChigh/sixtop.c **** 
 159:build/openmote-cc2538_armgcc/openstack/02b-MAChigh/sixtop.c **** void sixtop_setEBPeriod(uint8_t ebPeriod) {
 277              		.loc 1 159 0
 278              		.cfi_startproc
 279              		@ args = 0, pretend = 0, frame = 8
 280              		@ frame_needed = 1, uses_anonymous_args = 0
 281              		@ link register save eliminated.
 282 0168 80B4     		push	{r7}
 283              		.cfi_def_cfa_offset 4
 284              		.cfi_offset 7, -4
 285 016a 83B0     		sub	sp, sp, #12
 286              		.cfi_def_cfa_offset 16
 287 016c 00AF     		add	r7, sp, #0
 288              		.cfi_def_cfa_register 7
 289 016e 0346     		mov	r3, r0
 290 0170 FB71     		strb	r3, [r7, #7]
 160:build/openmote-cc2538_armgcc/openstack/02b-MAChigh/sixtop.c ****     if(ebPeriod != 0) {
 291              		.loc 1 160 0
 292 0172 FB79     		ldrb	r3, [r7, #7]	@ zero_extendqisi2
 293 0174 002B     		cmp	r3, #0
 294 0176 0DD0     		beq	.L5
 161:build/openmote-cc2538_armgcc/openstack/02b-MAChigh/sixtop.c ****         // convert parameter to miliseconds
 162:build/openmote-cc2538_armgcc/openstack/02b-MAChigh/sixtop.c ****         sixtop_vars.ebPeriod = ebPeriod*1000;
 295              		.loc 1 162 0
 296 0178 FB79     		ldrb	r3, [r7, #7]	@ zero_extendqisi2
 297 017a 9BB2     		uxth	r3, r3
 298 017c 1A46     		mov	r2, r3	@ movhi
 299 017e 5201     		lsls	r2, r2, #5
 300 0180 D21A     		subs	r2, r2, r3
 301 0182 9200     		lsls	r2, r2, #2
 302 0184 1344     		add	r3, r3, r2
 303 0186 DB00     		lsls	r3, r3, #3
 304 0188 9AB2     		uxth	r2, r3
 305 018a 40F20003 		movw	r3, #:lower16:sixtop_vars
 306 018e C0F20003 		movt	r3, #:upper16:sixtop_vars
 307 0192 9A81     		strh	r2, [r3, #12]	@ movhi
 308              	.L5:
 163:build/openmote-cc2538_armgcc/openstack/02b-MAChigh/sixtop.c ****     }
 164:build/openmote-cc2538_armgcc/openstack/02b-MAChigh/sixtop.c **** }
 309              		.loc 1 164 0
 310 0194 0C37     		adds	r7, r7, #12
 311 0196 BD46     		mov	sp, r7
 312              		@ sp needed
 313 0198 5DF8047B 		ldr	r7, [sp], #4
 314 019c 7047     		bx	lr
 315              		.cfi_endproc
 316              	.LFE2:
 318 019e 00BF     		.align	2
 319              		.global	sixtop_setHandler
 320              		.thumb
 321              		.thumb_func
 323              	sixtop_setHandler:
 324              	.LFB3:
 165:build/openmote-cc2538_armgcc/openstack/02b-MAChigh/sixtop.c **** 
 166:build/openmote-cc2538_armgcc/openstack/02b-MAChigh/sixtop.c **** bool sixtop_setHandler(six2six_handler_t handler) {
 325              		.loc 1 166 0
 326              		.cfi_startproc
 327              		@ args = 0, pretend = 0, frame = 8
 328              		@ frame_needed = 1, uses_anonymous_args = 0
 329              		@ link register save eliminated.
 330 01a0 80B4     		push	{r7}
 331              		.cfi_def_cfa_offset 4
 332              		.cfi_offset 7, -4
 333 01a2 83B0     		sub	sp, sp, #12
 334              		.cfi_def_cfa_offset 16
 335 01a4 00AF     		add	r7, sp, #0
 336              		.cfi_def_cfa_register 7
 337 01a6 0346     		mov	r3, r0
 338 01a8 FB71     		strb	r3, [r7, #7]
 167:build/openmote-cc2538_armgcc/openstack/02b-MAChigh/sixtop.c ****     if (
 168:build/openmote-cc2538_armgcc/openstack/02b-MAChigh/sixtop.c ****         sixtop_vars.handler       == SIX_HANDLER_NONE &&
 339              		.loc 1 168 0
 340 01aa 40F20003 		movw	r3, #:lower16:sixtop_vars
 341 01ae C0F20003 		movt	r3, #:upper16:sixtop_vars
 342 01b2 1B7C     		ldrb	r3, [r3, #16]	@ zero_extendqisi2
 167:build/openmote-cc2538_armgcc/openstack/02b-MAChigh/sixtop.c ****     if (
 343              		.loc 1 167 0
 344 01b4 002B     		cmp	r3, #0
 345 01b6 0ED1     		bne	.L8
 169:build/openmote-cc2538_armgcc/openstack/02b-MAChigh/sixtop.c ****         sixtop_vars.six2six_state == SIX_STATE_IDLE
 346              		.loc 1 169 0
 347 01b8 40F20003 		movw	r3, #:lower16:sixtop_vars
 348 01bc C0F20003 		movt	r3, #:upper16:sixtop_vars
 349 01c0 9B7B     		ldrb	r3, [r3, #14]	@ zero_extendqisi2
 168:build/openmote-cc2538_armgcc/openstack/02b-MAChigh/sixtop.c ****         sixtop_vars.six2six_state == SIX_STATE_IDLE
 350              		.loc 1 168 0
 351 01c2 002B     		cmp	r3, #0
 352 01c4 07D1     		bne	.L8
 170:build/openmote-cc2538_armgcc/openstack/02b-MAChigh/sixtop.c ****     ){
 171:build/openmote-cc2538_armgcc/openstack/02b-MAChigh/sixtop.c ****         sixtop_vars.handler = handler;
 353              		.loc 1 171 0
 354 01c6 40F20003 		movw	r3, #:lower16:sixtop_vars
 355 01ca C0F20003 		movt	r3, #:upper16:sixtop_vars
 356 01ce FA79     		ldrb	r2, [r7, #7]
 357 01d0 1A74     		strb	r2, [r3, #16]
 172:build/openmote-cc2538_armgcc/openstack/02b-MAChigh/sixtop.c ****         return TRUE;
 358              		.loc 1 172 0
 359 01d2 0123     		movs	r3, #1
 360 01d4 00E0     		b	.L9
 361              	.L8:
 173:build/openmote-cc2538_armgcc/openstack/02b-MAChigh/sixtop.c ****     } else {
 174:build/openmote-cc2538_armgcc/openstack/02b-MAChigh/sixtop.c ****         // another handler is using sixtop
 175:build/openmote-cc2538_armgcc/openstack/02b-MAChigh/sixtop.c ****         return FALSE;
 362              		.loc 1 175 0
 363 01d6 0023     		movs	r3, #0
 364              	.L9:
 176:build/openmote-cc2538_armgcc/openstack/02b-MAChigh/sixtop.c ****         
 177:build/openmote-cc2538_armgcc/openstack/02b-MAChigh/sixtop.c ****     }
 178:build/openmote-cc2538_armgcc/openstack/02b-MAChigh/sixtop.c **** }
 365              		.loc 1 178 0
 366 01d8 1846     		mov	r0, r3
 367 01da 0C37     		adds	r7, r7, #12
 368 01dc BD46     		mov	sp, r7
 369              		@ sp needed
 370 01de 5DF8047B 		ldr	r7, [sp], #4
 371 01e2 7047     		bx	lr
 372              		.cfi_endproc
 373              	.LFE3:
 375              		.align	2
 376              		.global	sixtop_request
 377              		.thumb
 378              		.thumb_func
 380              	sixtop_request:
 381              	.LFB4:
 179:build/openmote-cc2538_armgcc/openstack/02b-MAChigh/sixtop.c **** 
 180:build/openmote-cc2538_armgcc/openstack/02b-MAChigh/sixtop.c **** //======= scheduling
 181:build/openmote-cc2538_armgcc/openstack/02b-MAChigh/sixtop.c **** 
 182:build/openmote-cc2538_armgcc/openstack/02b-MAChigh/sixtop.c **** void sixtop_request(uint8_t code, open_addr_t* neighbor, uint8_t numCells){
 382              		.loc 1 182 0
 383              		.cfi_startproc
 384              		@ args = 0, pretend = 0, frame = 32
 385              		@ frame_needed = 1, uses_anonymous_args = 0
 386 01e4 80B5     		push	{r7, lr}
 387              		.cfi_def_cfa_offset 8
 388              		.cfi_offset 7, -8
 389              		.cfi_offset 14, -4
 390 01e6 88B0     		sub	sp, sp, #32
 391              		.cfi_def_cfa_offset 40
 392 01e8 00AF     		add	r7, sp, #0
 393              		.cfi_def_cfa_register 7
 394 01ea 3960     		str	r1, [r7]
 395 01ec 1346     		mov	r3, r2
 396 01ee 0246     		mov	r2, r0
 397 01f0 FA71     		strb	r2, [r7, #7]
 398 01f2 BB71     		strb	r3, [r7, #6]
 183:build/openmote-cc2538_armgcc/openstack/02b-MAChigh/sixtop.c ****     OpenQueueEntry_t* pkt;
 184:build/openmote-cc2538_armgcc/openstack/02b-MAChigh/sixtop.c ****     uint8_t           len;
 185:build/openmote-cc2538_armgcc/openstack/02b-MAChigh/sixtop.c ****     uint8_t           container;
 186:build/openmote-cc2538_armgcc/openstack/02b-MAChigh/sixtop.c ****     uint8_t           frameID;
 187:build/openmote-cc2538_armgcc/openstack/02b-MAChigh/sixtop.c ****     cellInfo_ht       cellList[SCHEDULEIEMAXNUMCELLS];
 188:build/openmote-cc2538_armgcc/openstack/02b-MAChigh/sixtop.c ****    
 189:build/openmote-cc2538_armgcc/openstack/02b-MAChigh/sixtop.c ****     memset(cellList,0,sizeof(cellList));
 399              		.loc 1 189 0
 400 01f4 07F10803 		add	r3, r7, #8
 401 01f8 1846     		mov	r0, r3
 402 01fa 0021     		movs	r1, #0
 403 01fc 0F22     		movs	r2, #15
 404 01fe FFF7FEFF 		bl	memset
 190:build/openmote-cc2538_armgcc/openstack/02b-MAChigh/sixtop.c ****    
 191:build/openmote-cc2538_armgcc/openstack/02b-MAChigh/sixtop.c ****     // filter parameters: handler, status and neighbor
 192:build/openmote-cc2538_armgcc/openstack/02b-MAChigh/sixtop.c ****     if(
 193:build/openmote-cc2538_armgcc/openstack/02b-MAChigh/sixtop.c ****         sixtop_vars.handler       == SIX_HANDLER_NONE ||
 405              		.loc 1 193 0
 406 0202 40F20003 		movw	r3, #:lower16:sixtop_vars
 407 0206 C0F20003 		movt	r3, #:upper16:sixtop_vars
 408 020a 1B7C     		ldrb	r3, [r3, #16]	@ zero_extendqisi2
 192:build/openmote-cc2538_armgcc/openstack/02b-MAChigh/sixtop.c ****         sixtop_vars.handler       == SIX_HANDLER_NONE ||
 409              		.loc 1 192 0
 410 020c 002B     		cmp	r3, #0
 411 020e 09D0     		beq	.L11
 194:build/openmote-cc2538_armgcc/openstack/02b-MAChigh/sixtop.c ****         sixtop_vars.six2six_state != SIX_STATE_IDLE   ||
 412              		.loc 1 194 0
 413 0210 40F20003 		movw	r3, #:lower16:sixtop_vars
 414 0214 C0F20003 		movt	r3, #:upper16:sixtop_vars
 415 0218 9B7B     		ldrb	r3, [r3, #14]	@ zero_extendqisi2
 193:build/openmote-cc2538_armgcc/openstack/02b-MAChigh/sixtop.c ****         sixtop_vars.six2six_state != SIX_STATE_IDLE   ||
 416              		.loc 1 193 0
 417 021a 002B     		cmp	r3, #0
 418 021c 02D1     		bne	.L11
 419              		.loc 1 194 0
 420 021e 3B68     		ldr	r3, [r7]
 421 0220 002B     		cmp	r3, #0
 422 0222 00D1     		bne	.L12
 423              	.L11:
 195:build/openmote-cc2538_armgcc/openstack/02b-MAChigh/sixtop.c ****         neighbor                  == NULL
 196:build/openmote-cc2538_armgcc/openstack/02b-MAChigh/sixtop.c ****     ){
 197:build/openmote-cc2538_armgcc/openstack/02b-MAChigh/sixtop.c ****         // parameters are wrong
 198:build/openmote-cc2538_armgcc/openstack/02b-MAChigh/sixtop.c ****         // DONOT change sixtop status for the new transaction
 199:build/openmote-cc2538_armgcc/openstack/02b-MAChigh/sixtop.c ****         return;
 424              		.loc 1 199 0
 425 0224 FBE0     		b	.L10
 426              	.L12:
 200:build/openmote-cc2538_armgcc/openstack/02b-MAChigh/sixtop.c ****     }
 201:build/openmote-cc2538_armgcc/openstack/02b-MAChigh/sixtop.c ****       
 202:build/openmote-cc2538_armgcc/openstack/02b-MAChigh/sixtop.c ****     // new transaction parameter checking passed.
 203:build/openmote-cc2538_armgcc/openstack/02b-MAChigh/sixtop.c ****     
 204:build/openmote-cc2538_armgcc/openstack/02b-MAChigh/sixtop.c ****     // check whether free entries are enough for reserving more cells
 205:build/openmote-cc2538_armgcc/openstack/02b-MAChigh/sixtop.c ****     if (code==IANA_6TOP_CMD_ADD && schedule_getNumberOfFreeEntries() < numCells){
 427              		.loc 1 205 0
 428 0226 FB79     		ldrb	r3, [r7, #7]	@ zero_extendqisi2
 429 0228 012B     		cmp	r3, #1
 430 022a 12D1     		bne	.L14
 431              		.loc 1 205 0 is_stmt 0 discriminator 1
 432 022c FFF7FEFF 		bl	schedule_getNumberOfFreeEntries
 433 0230 0346     		mov	r3, r0
 434 0232 BA79     		ldrb	r2, [r7, #6]	@ zero_extendqisi2
 435 0234 9A42     		cmp	r2, r3
 436 0236 0CD9     		bls	.L14
 206:build/openmote-cc2538_armgcc/openstack/02b-MAChigh/sixtop.c ****         // no enough free buffer for adding more cells, reset handler 
 207:build/openmote-cc2538_armgcc/openstack/02b-MAChigh/sixtop.c ****         sixtop_vars.handler = SIX_HANDLER_NONE;
 437              		.loc 1 207 0 is_stmt 1
 438 0238 40F20003 		movw	r3, #:lower16:sixtop_vars
 439 023c C0F20003 		movt	r3, #:upper16:sixtop_vars
 440 0240 0022     		movs	r2, #0
 441 0242 1A74     		strb	r2, [r3, #16]
 208:build/openmote-cc2538_armgcc/openstack/02b-MAChigh/sixtop.c ****         // print out error information 
 209:build/openmote-cc2538_armgcc/openstack/02b-MAChigh/sixtop.c ****         openserial_printError(
 442              		.loc 1 209 0
 443 0244 0C20     		movs	r0, #12
 444 0246 1721     		movs	r1, #23
 445 0248 0022     		movs	r2, #0
 446 024a 0023     		movs	r3, #0
 447 024c FFF7FEFF 		bl	openserial_printError
 210:build/openmote-cc2538_armgcc/openstack/02b-MAChigh/sixtop.c ****             COMPONENT_SIXTOP,ERR_SCHEDULE_OVERFLOWN,
 211:build/openmote-cc2538_armgcc/openstack/02b-MAChigh/sixtop.c ****             (errorparameter_t)0,
 212:build/openmote-cc2538_armgcc/openstack/02b-MAChigh/sixtop.c ****             (errorparameter_t)0
 213:build/openmote-cc2538_armgcc/openstack/02b-MAChigh/sixtop.c ****         );
 214:build/openmote-cc2538_armgcc/openstack/02b-MAChigh/sixtop.c ****         return ;
 448              		.loc 1 214 0
 449 0250 E5E0     		b	.L10
 450              	.L14:
 215:build/openmote-cc2538_armgcc/openstack/02b-MAChigh/sixtop.c ****     }
 216:build/openmote-cc2538_armgcc/openstack/02b-MAChigh/sixtop.c **** 
 217:build/openmote-cc2538_armgcc/openstack/02b-MAChigh/sixtop.c ****     // generate candidate cell list
 218:build/openmote-cc2538_armgcc/openstack/02b-MAChigh/sixtop.c ****     if (code == IANA_6TOP_CMD_ADD){
 451              		.loc 1 218 0
 452 0252 FB79     		ldrb	r3, [r7, #7]	@ zero_extendqisi2
 453 0254 012B     		cmp	r3, #1
 454 0256 16D1     		bne	.L15
 219:build/openmote-cc2538_armgcc/openstack/02b-MAChigh/sixtop.c ****         if (sixtop_candidateAddCellList(&frameID,cellList,numCells)==FALSE){
 455              		.loc 1 219 0
 456 0258 07F11701 		add	r1, r7, #23
 457 025c 07F10802 		add	r2, r7, #8
 458 0260 BB79     		ldrb	r3, [r7, #6]	@ zero_extendqisi2
 459 0262 0846     		mov	r0, r1
 460 0264 1146     		mov	r1, r2
 461 0266 1A46     		mov	r2, r3
 462 0268 FFF7FEFF 		bl	sixtop_candidateAddCellList
 463 026c 0346     		mov	r3, r0
 464 026e 83F00103 		eor	r3, r3, #1
 465 0272 DBB2     		uxtb	r3, r3
 466 0274 002B     		cmp	r3, #0
 467 0276 06D0     		beq	.L15
 220:build/openmote-cc2538_armgcc/openstack/02b-MAChigh/sixtop.c ****               sixtop_vars.handler = SIX_HANDLER_NONE;
 468              		.loc 1 220 0
 469 0278 40F20003 		movw	r3, #:lower16:sixtop_vars
 470 027c C0F20003 		movt	r3, #:upper16:sixtop_vars
 471 0280 0022     		movs	r2, #0
 472 0282 1A74     		strb	r2, [r3, #16]
 221:build/openmote-cc2538_armgcc/openstack/02b-MAChigh/sixtop.c ****               return;
 473              		.loc 1 221 0
 474 0284 CBE0     		b	.L10
 475              	.L15:
 222:build/openmote-cc2538_armgcc/openstack/02b-MAChigh/sixtop.c ****         }
 223:build/openmote-cc2538_armgcc/openstack/02b-MAChigh/sixtop.c ****     }
 224:build/openmote-cc2538_armgcc/openstack/02b-MAChigh/sixtop.c ****     if (code == IANA_6TOP_CMD_DELETE){
 476              		.loc 1 224 0
 477 0286 FB79     		ldrb	r3, [r7, #7]	@ zero_extendqisi2
 478 0288 022B     		cmp	r3, #2
 479 028a 16D1     		bne	.L16
 225:build/openmote-cc2538_armgcc/openstack/02b-MAChigh/sixtop.c ****         if (sixtop_candidateRemoveCellList(&frameID,cellList,neighbor,numCells)==FALSE){
 480              		.loc 1 225 0
 481 028c 07F11701 		add	r1, r7, #23
 482 0290 07F10802 		add	r2, r7, #8
 483 0294 BB79     		ldrb	r3, [r7, #6]	@ zero_extendqisi2
 484 0296 0846     		mov	r0, r1
 485 0298 1146     		mov	r1, r2
 486 029a 3A68     		ldr	r2, [r7]
 487 029c FFF7FEFF 		bl	sixtop_candidateRemoveCellList
 488 02a0 0346     		mov	r3, r0
 489 02a2 83F00103 		eor	r3, r3, #1
 490 02a6 DBB2     		uxtb	r3, r3
 491 02a8 002B     		cmp	r3, #0
 492 02aa 06D0     		beq	.L16
 226:build/openmote-cc2538_armgcc/openstack/02b-MAChigh/sixtop.c ****               sixtop_vars.handler = SIX_HANDLER_NONE;
 493              		.loc 1 226 0
 494 02ac 40F20003 		movw	r3, #:lower16:sixtop_vars
 495 02b0 C0F20003 		movt	r3, #:upper16:sixtop_vars
 496 02b4 0022     		movs	r2, #0
 497 02b6 1A74     		strb	r2, [r3, #16]
 227:build/openmote-cc2538_armgcc/openstack/02b-MAChigh/sixtop.c ****               return;
 498              		.loc 1 227 0
 499 02b8 B1E0     		b	.L10
 500              	.L16:
 228:build/openmote-cc2538_armgcc/openstack/02b-MAChigh/sixtop.c ****         }
 229:build/openmote-cc2538_armgcc/openstack/02b-MAChigh/sixtop.c ****     }
 230:build/openmote-cc2538_armgcc/openstack/02b-MAChigh/sixtop.c ****     
 231:build/openmote-cc2538_armgcc/openstack/02b-MAChigh/sixtop.c ****     // container to be define by SF, currently equals to frameID
 232:build/openmote-cc2538_armgcc/openstack/02b-MAChigh/sixtop.c ****     frameID        = SCHEDULE_MINIMAL_6TISCH_DEFAULT_SLOTFRAME_HANDLE;
 501              		.loc 1 232 0
 502 02ba 0123     		movs	r3, #1
 503 02bc FB75     		strb	r3, [r7, #23]
 233:build/openmote-cc2538_armgcc/openstack/02b-MAChigh/sixtop.c ****     container      = frameID;
 504              		.loc 1 233 0
 505 02be FB7D     		ldrb	r3, [r7, #23]
 506 02c0 BB77     		strb	r3, [r7, #30]
 234:build/openmote-cc2538_armgcc/openstack/02b-MAChigh/sixtop.c ****     
 235:build/openmote-cc2538_armgcc/openstack/02b-MAChigh/sixtop.c ****     // get a free packet buffer
 236:build/openmote-cc2538_armgcc/openstack/02b-MAChigh/sixtop.c ****     pkt = openqueue_getFreePacketBuffer(COMPONENT_SIXTOP_RES);
 507              		.loc 1 236 0
 508 02c2 0F20     		movs	r0, #15
 509 02c4 FFF7FEFF 		bl	openqueue_getFreePacketBuffer
 510 02c8 B861     		str	r0, [r7, #24]
 237:build/openmote-cc2538_armgcc/openstack/02b-MAChigh/sixtop.c ****     if (pkt==NULL) {
 511              		.loc 1 237 0
 512 02ca BB69     		ldr	r3, [r7, #24]
 513 02cc 002B     		cmp	r3, #0
 514 02ce 0CD1     		bne	.L17
 238:build/openmote-cc2538_armgcc/openstack/02b-MAChigh/sixtop.c ****         sixtop_vars.handler = SIX_HANDLER_NONE;
 515              		.loc 1 238 0
 516 02d0 40F20003 		movw	r3, #:lower16:sixtop_vars
 517 02d4 C0F20003 		movt	r3, #:upper16:sixtop_vars
 518 02d8 0022     		movs	r2, #0
 519 02da 1A74     		strb	r2, [r3, #16]
 239:build/openmote-cc2538_armgcc/openstack/02b-MAChigh/sixtop.c ****         openserial_printError(
 520              		.loc 1 239 0
 521 02dc 0F20     		movs	r0, #15
 522 02de 2C21     		movs	r1, #44
 523 02e0 0022     		movs	r2, #0
 524 02e2 0023     		movs	r3, #0
 525 02e4 FFF7FEFF 		bl	openserial_printError
 240:build/openmote-cc2538_armgcc/openstack/02b-MAChigh/sixtop.c ****             COMPONENT_SIXTOP_RES,
 241:build/openmote-cc2538_armgcc/openstack/02b-MAChigh/sixtop.c ****             ERR_NO_FREE_PACKET_BUFFER,
 242:build/openmote-cc2538_armgcc/openstack/02b-MAChigh/sixtop.c ****             (errorparameter_t)0,
 243:build/openmote-cc2538_armgcc/openstack/02b-MAChigh/sixtop.c ****             (errorparameter_t)0
 244:build/openmote-cc2538_armgcc/openstack/02b-MAChigh/sixtop.c ****         );
 245:build/openmote-cc2538_armgcc/openstack/02b-MAChigh/sixtop.c ****         return;
 526              		.loc 1 245 0
 527 02e8 99E0     		b	.L10
 528              	.L17:
 246:build/openmote-cc2538_armgcc/openstack/02b-MAChigh/sixtop.c ****     }
 247:build/openmote-cc2538_armgcc/openstack/02b-MAChigh/sixtop.c ****    
 248:build/openmote-cc2538_armgcc/openstack/02b-MAChigh/sixtop.c ****     // update state
 249:build/openmote-cc2538_armgcc/openstack/02b-MAChigh/sixtop.c ****     sixtop_vars.six2six_state  = SIX_STATE_SENDING_REQUEST;
 529              		.loc 1 249 0
 530 02ea 40F20003 		movw	r3, #:lower16:sixtop_vars
 531 02ee C0F20003 		movt	r3, #:upper16:sixtop_vars
 532 02f2 0122     		movs	r2, #1
 533 02f4 9A73     		strb	r2, [r3, #14]
 250:build/openmote-cc2538_armgcc/openstack/02b-MAChigh/sixtop.c ****    
 251:build/openmote-cc2538_armgcc/openstack/02b-MAChigh/sixtop.c ****     // take ownership
 252:build/openmote-cc2538_armgcc/openstack/02b-MAChigh/sixtop.c ****     pkt->creator = COMPONENT_SIXTOP_RES;
 534              		.loc 1 252 0
 535 02f6 BB69     		ldr	r3, [r7, #24]
 536 02f8 0F22     		movs	r2, #15
 537 02fa 1A70     		strb	r2, [r3]
 253:build/openmote-cc2538_armgcc/openstack/02b-MAChigh/sixtop.c ****     pkt->owner   = COMPONENT_SIXTOP_RES;
 538              		.loc 1 253 0
 539 02fc BB69     		ldr	r3, [r7, #24]
 540 02fe 0F22     		movs	r2, #15
 541 0300 5A70     		strb	r2, [r3, #1]
 254:build/openmote-cc2538_armgcc/openstack/02b-MAChigh/sixtop.c ****    
 255:build/openmote-cc2538_armgcc/openstack/02b-MAChigh/sixtop.c ****     memcpy(&(pkt->l2_nextORpreviousHop),neighbor,sizeof(open_addr_t));
 542              		.loc 1 255 0
 543 0302 BB69     		ldr	r3, [r7, #24]
 544 0304 3833     		adds	r3, r3, #56
 545 0306 1846     		mov	r0, r3
 546 0308 3968     		ldr	r1, [r7]
 547 030a 1122     		movs	r2, #17
 548 030c FFF7FEFF 		bl	memcpy
 256:build/openmote-cc2538_armgcc/openstack/02b-MAChigh/sixtop.c ****    
 257:build/openmote-cc2538_armgcc/openstack/02b-MAChigh/sixtop.c ****     // create packet
 258:build/openmote-cc2538_armgcc/openstack/02b-MAChigh/sixtop.c ****     len  = 0;
 549              		.loc 1 258 0
 550 0310 0023     		movs	r3, #0
 551 0312 FB77     		strb	r3, [r7, #31]
 259:build/openmote-cc2538_armgcc/openstack/02b-MAChigh/sixtop.c ****     if (code == IANA_6TOP_CMD_ADD || code == IANA_6TOP_CMD_DELETE){
 552              		.loc 1 259 0
 553 0314 FB79     		ldrb	r3, [r7, #7]	@ zero_extendqisi2
 554 0316 012B     		cmp	r3, #1
 555 0318 02D0     		beq	.L18
 556              		.loc 1 259 0 is_stmt 0 discriminator 1
 557 031a FB79     		ldrb	r3, [r7, #7]	@ zero_extendqisi2
 558 031c 022B     		cmp	r3, #2
 559 031e 21D1     		bne	.L19
 560              	.L18:
 260:build/openmote-cc2538_armgcc/openstack/02b-MAChigh/sixtop.c ****         len += processIE_prepend_sixCelllist(pkt,cellList);
 561              		.loc 1 260 0 is_stmt 1
 562 0320 07F10803 		add	r3, r7, #8
 563 0324 B869     		ldr	r0, [r7, #24]
 564 0326 1946     		mov	r1, r3
 565 0328 FFF7FEFF 		bl	processIE_prepend_sixCelllist
 566 032c 0346     		mov	r3, r0
 567 032e 1A46     		mov	r2, r3
 568 0330 FB7F     		ldrb	r3, [r7, #31]
 569 0332 1344     		add	r3, r3, r2
 570 0334 FB77     		strb	r3, [r7, #31]
 261:build/openmote-cc2538_armgcc/openstack/02b-MAChigh/sixtop.c ****         // reserve space for container
 262:build/openmote-cc2538_armgcc/openstack/02b-MAChigh/sixtop.c ****         packetfunctions_reserveHeaderSize(pkt,sizeof(uint8_t));
 571              		.loc 1 262 0
 572 0336 B869     		ldr	r0, [r7, #24]
 573 0338 0121     		movs	r1, #1
 574 033a FFF7FEFF 		bl	packetfunctions_reserveHeaderSize
 263:build/openmote-cc2538_armgcc/openstack/02b-MAChigh/sixtop.c ****         // write header
 264:build/openmote-cc2538_armgcc/openstack/02b-MAChigh/sixtop.c ****         *((uint8_t*)(pkt->payload)) = container;
 575              		.loc 1 264 0
 576 033e BB69     		ldr	r3, [r7, #24]
 577 0340 5B68     		ldr	r3, [r3, #4]
 578 0342 BA7F     		ldrb	r2, [r7, #30]
 579 0344 1A70     		strb	r2, [r3]
 265:build/openmote-cc2538_armgcc/openstack/02b-MAChigh/sixtop.c ****         len+=1;
 580              		.loc 1 265 0
 581 0346 FB7F     		ldrb	r3, [r7, #31]
 582 0348 0133     		adds	r3, r3, #1
 583 034a FB77     		strb	r3, [r7, #31]
 266:build/openmote-cc2538_armgcc/openstack/02b-MAChigh/sixtop.c ****         // reserve space for numCells
 267:build/openmote-cc2538_armgcc/openstack/02b-MAChigh/sixtop.c ****         packetfunctions_reserveHeaderSize(pkt,sizeof(uint8_t));
 584              		.loc 1 267 0
 585 034c B869     		ldr	r0, [r7, #24]
 586 034e 0121     		movs	r1, #1
 587 0350 FFF7FEFF 		bl	packetfunctions_reserveHeaderSize
 268:build/openmote-cc2538_armgcc/openstack/02b-MAChigh/sixtop.c ****         // write header
 269:build/openmote-cc2538_armgcc/openstack/02b-MAChigh/sixtop.c ****         *((uint8_t*)(pkt->payload)) = numCells;
 588              		.loc 1 269 0
 589 0354 BB69     		ldr	r3, [r7, #24]
 590 0356 5B68     		ldr	r3, [r3, #4]
 591 0358 BA79     		ldrb	r2, [r7, #6]
 592 035a 1A70     		strb	r2, [r3]
 270:build/openmote-cc2538_armgcc/openstack/02b-MAChigh/sixtop.c ****         len+=1;
 593              		.loc 1 270 0
 594 035c FB7F     		ldrb	r3, [r7, #31]
 595 035e 0133     		adds	r3, r3, #1
 596 0360 FB77     		strb	r3, [r7, #31]
 597 0362 0AE0     		b	.L20
 598              	.L19:
 271:build/openmote-cc2538_armgcc/openstack/02b-MAChigh/sixtop.c ****     } else {
 272:build/openmote-cc2538_armgcc/openstack/02b-MAChigh/sixtop.c ****         // reserve space for container
 273:build/openmote-cc2538_armgcc/openstack/02b-MAChigh/sixtop.c ****         packetfunctions_reserveHeaderSize(pkt,sizeof(uint8_t));
 599              		.loc 1 273 0
 600 0364 B869     		ldr	r0, [r7, #24]
 601 0366 0121     		movs	r1, #1
 602 0368 FFF7FEFF 		bl	packetfunctions_reserveHeaderSize
 274:build/openmote-cc2538_armgcc/openstack/02b-MAChigh/sixtop.c ****         // write header
 275:build/openmote-cc2538_armgcc/openstack/02b-MAChigh/sixtop.c ****         *((uint8_t*)(pkt->payload)) = container;
 603              		.loc 1 275 0
 604 036c BB69     		ldr	r3, [r7, #24]
 605 036e 5B68     		ldr	r3, [r3, #4]
 606 0370 BA7F     		ldrb	r2, [r7, #30]
 607 0372 1A70     		strb	r2, [r3]
 276:build/openmote-cc2538_armgcc/openstack/02b-MAChigh/sixtop.c ****         len+=1;
 608              		.loc 1 276 0
 609 0374 FB7F     		ldrb	r3, [r7, #31]
 610 0376 0133     		adds	r3, r3, #1
 611 0378 FB77     		strb	r3, [r7, #31]
 612              	.L20:
 277:build/openmote-cc2538_armgcc/openstack/02b-MAChigh/sixtop.c ****     }
 278:build/openmote-cc2538_armgcc/openstack/02b-MAChigh/sixtop.c ****     
 279:build/openmote-cc2538_armgcc/openstack/02b-MAChigh/sixtop.c ****     len += processIE_prepend_sixGeneralMessage(pkt,code);
 613              		.loc 1 279 0
 614 037a FB79     		ldrb	r3, [r7, #7]	@ zero_extendqisi2
 615 037c B869     		ldr	r0, [r7, #24]
 616 037e 1946     		mov	r1, r3
 617 0380 FFF7FEFF 		bl	processIE_prepend_sixGeneralMessage
 618 0384 0346     		mov	r3, r0
 619 0386 1A46     		mov	r2, r3
 620 0388 FB7F     		ldrb	r3, [r7, #31]
 621 038a 1344     		add	r3, r3, r2
 622 038c FB77     		strb	r3, [r7, #31]
 280:build/openmote-cc2538_armgcc/openstack/02b-MAChigh/sixtop.c ****     len += processIE_prepend_sixSubID(pkt);
 623              		.loc 1 280 0
 624 038e B869     		ldr	r0, [r7, #24]
 625 0390 FFF7FEFF 		bl	processIE_prepend_sixSubID
 626 0394 0346     		mov	r3, r0
 627 0396 1A46     		mov	r2, r3
 628 0398 FB7F     		ldrb	r3, [r7, #31]
 629 039a 1344     		add	r3, r3, r2
 630 039c FB77     		strb	r3, [r7, #31]
 281:build/openmote-cc2538_armgcc/openstack/02b-MAChigh/sixtop.c ****     processIE_prepend_sixtopIE(pkt,len);
 631              		.loc 1 281 0
 632 039e FB7F     		ldrb	r3, [r7, #31]	@ zero_extendqisi2
 633 03a0 B869     		ldr	r0, [r7, #24]
 634 03a2 1946     		mov	r1, r3
 635 03a4 FFF7FEFF 		bl	processIE_prepend_sixtopIE
 282:build/openmote-cc2538_armgcc/openstack/02b-MAChigh/sixtop.c ****    
 283:build/openmote-cc2538_armgcc/openstack/02b-MAChigh/sixtop.c ****     // indicate IEs present
 284:build/openmote-cc2538_armgcc/openstack/02b-MAChigh/sixtop.c ****     pkt->l2_payloadIEpresent = TRUE;
 636              		.loc 1 284 0
 637 03a8 BB69     		ldr	r3, [r7, #24]
 638 03aa 0122     		movs	r2, #1
 639 03ac 83F86620 		strb	r2, [r3, #102]
 285:build/openmote-cc2538_armgcc/openstack/02b-MAChigh/sixtop.c ****    
 286:build/openmote-cc2538_armgcc/openstack/02b-MAChigh/sixtop.c ****     // send packet
 287:build/openmote-cc2538_armgcc/openstack/02b-MAChigh/sixtop.c ****     sixtop_send(pkt);
 640              		.loc 1 287 0
 641 03b0 B869     		ldr	r0, [r7, #24]
 642 03b2 FFF7FEFF 		bl	sixtop_send
 288:build/openmote-cc2538_armgcc/openstack/02b-MAChigh/sixtop.c ****     
 289:build/openmote-cc2538_armgcc/openstack/02b-MAChigh/sixtop.c ****     //update states
 290:build/openmote-cc2538_armgcc/openstack/02b-MAChigh/sixtop.c ****     switch(code){
 643              		.loc 1 290 0
 644 03b6 FB79     		ldrb	r3, [r7, #7]	@ zero_extendqisi2
 645 03b8 013B     		subs	r3, r3, #1
 646 03ba 042B     		cmp	r3, #4
 647 03bc 2FD8     		bhi	.L10
 648 03be 01A2     		adr	r2, .L23
 649 03c0 52F823F0 		ldr	pc, [r2, r3, lsl #2]
 650              		.p2align 2
 651              	.L23:
 652 03c4 D9030000 		.word	.L22+1
 653 03c8 E7030000 		.word	.L24+1
 654 03cc F5030000 		.word	.L25+1
 655 03d0 03040000 		.word	.L26+1
 656 03d4 11040000 		.word	.L27+1
 657              	.L22:
 291:build/openmote-cc2538_armgcc/openstack/02b-MAChigh/sixtop.c ****     case IANA_6TOP_CMD_ADD:
 292:build/openmote-cc2538_armgcc/openstack/02b-MAChigh/sixtop.c ****         sixtop_vars.six2six_state = SIX_STATE_WAIT_ADDREQUEST_SENDDONE;
 658              		.loc 1 292 0
 659 03d8 40F20003 		movw	r3, #:lower16:sixtop_vars
 660 03dc C0F20003 		movt	r3, #:upper16:sixtop_vars
 661 03e0 0222     		movs	r2, #2
 662 03e2 9A73     		strb	r2, [r3, #14]
 293:build/openmote-cc2538_armgcc/openstack/02b-MAChigh/sixtop.c ****         break;
 663              		.loc 1 293 0
 664 03e4 1BE0     		b	.L21
 665              	.L24:
 294:build/openmote-cc2538_armgcc/openstack/02b-MAChigh/sixtop.c ****     case IANA_6TOP_CMD_DELETE:
 295:build/openmote-cc2538_armgcc/openstack/02b-MAChigh/sixtop.c ****         sixtop_vars.six2six_state = SIX_STATE_WAIT_DELETEREQUEST_SENDDONE;
 666              		.loc 1 295 0
 667 03e6 40F20003 		movw	r3, #:lower16:sixtop_vars
 668 03ea C0F20003 		movt	r3, #:upper16:sixtop_vars
 669 03ee 0322     		movs	r2, #3
 670 03f0 9A73     		strb	r2, [r3, #14]
 296:build/openmote-cc2538_armgcc/openstack/02b-MAChigh/sixtop.c ****         break;
 671              		.loc 1 296 0
 672 03f2 14E0     		b	.L21
 673              	.L25:
 297:build/openmote-cc2538_armgcc/openstack/02b-MAChigh/sixtop.c ****     case IANA_6TOP_CMD_COUNT:
 298:build/openmote-cc2538_armgcc/openstack/02b-MAChigh/sixtop.c ****         sixtop_vars.six2six_state = SIX_STATE_WAIT_COUNTREQUEST_SENDDONE;
 674              		.loc 1 298 0
 675 03f4 40F20003 		movw	r3, #:lower16:sixtop_vars
 676 03f8 C0F20003 		movt	r3, #:upper16:sixtop_vars
 677 03fc 0422     		movs	r2, #4
 678 03fe 9A73     		strb	r2, [r3, #14]
 299:build/openmote-cc2538_armgcc/openstack/02b-MAChigh/sixtop.c ****         break;
 679              		.loc 1 299 0
 680 0400 0DE0     		b	.L21
 681              	.L26:
 300:build/openmote-cc2538_armgcc/openstack/02b-MAChigh/sixtop.c ****     case IANA_6TOP_CMD_LIST:
 301:build/openmote-cc2538_armgcc/openstack/02b-MAChigh/sixtop.c ****         sixtop_vars.six2six_state = SIX_STATE_WAIT_LISTREQUEST_SENDDONE;
 682              		.loc 1 301 0
 683 0402 40F20003 		movw	r3, #:lower16:sixtop_vars
 684 0406 C0F20003 		movt	r3, #:upper16:sixtop_vars
 685 040a 0522     		movs	r2, #5
 686 040c 9A73     		strb	r2, [r3, #14]
 302:build/openmote-cc2538_armgcc/openstack/02b-MAChigh/sixtop.c ****         break;
 687              		.loc 1 302 0
 688 040e 06E0     		b	.L21
 689              	.L27:
 303:build/openmote-cc2538_armgcc/openstack/02b-MAChigh/sixtop.c ****     case IANA_6TOP_CMD_CLEAR:
 304:build/openmote-cc2538_armgcc/openstack/02b-MAChigh/sixtop.c ****         sixtop_vars.six2six_state = SIX_STATE_WAIT_CLEARREQUEST_SENDDONE;
 690              		.loc 1 304 0
 691 0410 40F20003 		movw	r3, #:lower16:sixtop_vars
 692 0414 C0F20003 		movt	r3, #:upper16:sixtop_vars
 693 0418 0622     		movs	r2, #6
 694 041a 9A73     		strb	r2, [r3, #14]
 305:build/openmote-cc2538_armgcc/openstack/02b-MAChigh/sixtop.c ****         break;
 695              		.loc 1 305 0
 696 041c 00BF     		nop
 697              	.L21:
 698              	.L10:
 306:build/openmote-cc2538_armgcc/openstack/02b-MAChigh/sixtop.c ****     }
 307:build/openmote-cc2538_armgcc/openstack/02b-MAChigh/sixtop.c **** }
 699              		.loc 1 307 0
 700 041e 2037     		adds	r7, r7, #32
 701 0420 BD46     		mov	sp, r7
 702              		@ sp needed
 703 0422 80BD     		pop	{r7, pc}
 704              		.cfi_endproc
 705              	.LFE4:
 707              		.align	2
 708              		.global	sixtop_addORremoveCellByInfo
 709              		.thumb
 710              		.thumb_func
 712              	sixtop_addORremoveCellByInfo:
 713              	.LFB5:
 308:build/openmote-cc2538_armgcc/openstack/02b-MAChigh/sixtop.c **** 
 309:build/openmote-cc2538_armgcc/openstack/02b-MAChigh/sixtop.c **** void sixtop_addORremoveCellByInfo(uint8_t code,open_addr_t* neighbor,cellInfo_ht* cellInfo){
 714              		.loc 1 309 0
 715              		.cfi_startproc
 716              		@ args = 0, pretend = 0, frame = 40
 717              		@ frame_needed = 1, uses_anonymous_args = 0
 718 0424 80B5     		push	{r7, lr}
 719              		.cfi_def_cfa_offset 8
 720              		.cfi_offset 7, -8
 721              		.cfi_offset 14, -4
 722 0426 8AB0     		sub	sp, sp, #40
 723              		.cfi_def_cfa_offset 48
 724 0428 00AF     		add	r7, sp, #0
 725              		.cfi_def_cfa_register 7
 726 042a 0346     		mov	r3, r0
 727 042c B960     		str	r1, [r7, #8]
 728 042e 7A60     		str	r2, [r7, #4]
 729 0430 FB73     		strb	r3, [r7, #15]
 310:build/openmote-cc2538_armgcc/openstack/02b-MAChigh/sixtop.c ****     OpenQueueEntry_t* pkt;
 311:build/openmote-cc2538_armgcc/openstack/02b-MAChigh/sixtop.c ****     uint8_t           len;
 312:build/openmote-cc2538_armgcc/openstack/02b-MAChigh/sixtop.c ****     uint8_t           frameID;
 313:build/openmote-cc2538_armgcc/openstack/02b-MAChigh/sixtop.c ****     uint8_t           container;
 314:build/openmote-cc2538_armgcc/openstack/02b-MAChigh/sixtop.c ****     cellInfo_ht       cellList[SCHEDULEIEMAXNUMCELLS];
 315:build/openmote-cc2538_armgcc/openstack/02b-MAChigh/sixtop.c ****    
 316:build/openmote-cc2538_armgcc/openstack/02b-MAChigh/sixtop.c ****     memset(cellList,0,sizeof(cellList));
 730              		.loc 1 316 0
 731 0432 07F11003 		add	r3, r7, #16
 732 0436 1846     		mov	r0, r3
 733 0438 0021     		movs	r1, #0
 734 043a 0F22     		movs	r2, #15
 735 043c FFF7FEFF 		bl	memset
 317:build/openmote-cc2538_armgcc/openstack/02b-MAChigh/sixtop.c ****    
 318:build/openmote-cc2538_armgcc/openstack/02b-MAChigh/sixtop.c ****     // filter parameters: handler, status and neighbor
 319:build/openmote-cc2538_armgcc/openstack/02b-MAChigh/sixtop.c ****     if(
 320:build/openmote-cc2538_armgcc/openstack/02b-MAChigh/sixtop.c ****         sixtop_vars.handler       == SIX_HANDLER_NONE ||
 736              		.loc 1 320 0
 737 0440 40F20003 		movw	r3, #:lower16:sixtop_vars
 738 0444 C0F20003 		movt	r3, #:upper16:sixtop_vars
 739 0448 1B7C     		ldrb	r3, [r3, #16]	@ zero_extendqisi2
 319:build/openmote-cc2538_armgcc/openstack/02b-MAChigh/sixtop.c ****         sixtop_vars.handler       == SIX_HANDLER_NONE ||
 740              		.loc 1 319 0
 741 044a 002B     		cmp	r3, #0
 742 044c 09D0     		beq	.L30
 321:build/openmote-cc2538_armgcc/openstack/02b-MAChigh/sixtop.c ****         sixtop_vars.six2six_state != SIX_STATE_IDLE   ||
 743              		.loc 1 321 0
 744 044e 40F20003 		movw	r3, #:lower16:sixtop_vars
 745 0452 C0F20003 		movt	r3, #:upper16:sixtop_vars
 746 0456 9B7B     		ldrb	r3, [r3, #14]	@ zero_extendqisi2
 320:build/openmote-cc2538_armgcc/openstack/02b-MAChigh/sixtop.c ****         sixtop_vars.six2six_state != SIX_STATE_IDLE   ||
 747              		.loc 1 320 0
 748 0458 002B     		cmp	r3, #0
 749 045a 02D1     		bne	.L30
 750              		.loc 1 321 0
 751 045c BB68     		ldr	r3, [r7, #8]
 752 045e 002B     		cmp	r3, #0
 753 0460 00D1     		bne	.L31
 754              	.L30:
 322:build/openmote-cc2538_armgcc/openstack/02b-MAChigh/sixtop.c ****         neighbor                  == NULL
 323:build/openmote-cc2538_armgcc/openstack/02b-MAChigh/sixtop.c ****     ){
 324:build/openmote-cc2538_armgcc/openstack/02b-MAChigh/sixtop.c ****         // parameters are wrong
 325:build/openmote-cc2538_armgcc/openstack/02b-MAChigh/sixtop.c ****         // DONOT change sixtop status for the new transaction
 326:build/openmote-cc2538_armgcc/openstack/02b-MAChigh/sixtop.c ****         return;
 755              		.loc 1 326 0
 756 0462 8AE0     		b	.L29
 757              	.L31:
 327:build/openmote-cc2538_armgcc/openstack/02b-MAChigh/sixtop.c ****     }
 328:build/openmote-cc2538_armgcc/openstack/02b-MAChigh/sixtop.c ****       
 329:build/openmote-cc2538_armgcc/openstack/02b-MAChigh/sixtop.c ****     // new transaction parameter checking passed.
 330:build/openmote-cc2538_armgcc/openstack/02b-MAChigh/sixtop.c ****    
 331:build/openmote-cc2538_armgcc/openstack/02b-MAChigh/sixtop.c ****     // set cell list (only first one is to be removed)
 332:build/openmote-cc2538_armgcc/openstack/02b-MAChigh/sixtop.c ****     frameID        = SCHEDULE_MINIMAL_6TISCH_DEFAULT_SLOTFRAME_HANDLE;
 758              		.loc 1 332 0
 759 0464 0123     		movs	r3, #1
 760 0466 87F82730 		strb	r3, [r7, #39]
 333:build/openmote-cc2538_armgcc/openstack/02b-MAChigh/sixtop.c ****     container      = frameID;
 761              		.loc 1 333 0
 762 046a 97F82730 		ldrb	r3, [r7, #39]
 763 046e 87F82630 		strb	r3, [r7, #38]
 334:build/openmote-cc2538_armgcc/openstack/02b-MAChigh/sixtop.c ****     memcpy(&(cellList[0]),cellInfo,sizeof(cellList));
 764              		.loc 1 334 0
 765 0472 07F11003 		add	r3, r7, #16
 766 0476 1846     		mov	r0, r3
 767 0478 7968     		ldr	r1, [r7, #4]
 768 047a 0F22     		movs	r2, #15
 769 047c FFF7FEFF 		bl	memcpy
 335:build/openmote-cc2538_armgcc/openstack/02b-MAChigh/sixtop.c ****    
 336:build/openmote-cc2538_armgcc/openstack/02b-MAChigh/sixtop.c ****    
 337:build/openmote-cc2538_armgcc/openstack/02b-MAChigh/sixtop.c ****     // get a free packet buffer
 338:build/openmote-cc2538_armgcc/openstack/02b-MAChigh/sixtop.c ****     pkt = openqueue_getFreePacketBuffer(COMPONENT_SIXTOP_RES);
 770              		.loc 1 338 0
 771 0480 0F20     		movs	r0, #15
 772 0482 FFF7FEFF 		bl	openqueue_getFreePacketBuffer
 773 0486 3862     		str	r0, [r7, #32]
 339:build/openmote-cc2538_armgcc/openstack/02b-MAChigh/sixtop.c ****     if(pkt==NULL) {
 774              		.loc 1 339 0
 775 0488 3B6A     		ldr	r3, [r7, #32]
 776 048a 002B     		cmp	r3, #0
 777 048c 0CD1     		bne	.L33
 340:build/openmote-cc2538_armgcc/openstack/02b-MAChigh/sixtop.c ****         sixtop_vars.handler = SIX_HANDLER_NONE;
 778              		.loc 1 340 0
 779 048e 40F20003 		movw	r3, #:lower16:sixtop_vars
 780 0492 C0F20003 		movt	r3, #:upper16:sixtop_vars
 781 0496 0022     		movs	r2, #0
 782 0498 1A74     		strb	r2, [r3, #16]
 341:build/openmote-cc2538_armgcc/openstack/02b-MAChigh/sixtop.c ****         openserial_printError(
 783              		.loc 1 341 0
 784 049a 0F20     		movs	r0, #15
 785 049c 2C21     		movs	r1, #44
 786 049e 0022     		movs	r2, #0
 787 04a0 0023     		movs	r3, #0
 788 04a2 FFF7FEFF 		bl	openserial_printError
 342:build/openmote-cc2538_armgcc/openstack/02b-MAChigh/sixtop.c ****             COMPONENT_SIXTOP_RES,
 343:build/openmote-cc2538_armgcc/openstack/02b-MAChigh/sixtop.c ****             ERR_NO_FREE_PACKET_BUFFER,
 344:build/openmote-cc2538_armgcc/openstack/02b-MAChigh/sixtop.c ****             (errorparameter_t)0,
 345:build/openmote-cc2538_armgcc/openstack/02b-MAChigh/sixtop.c ****             (errorparameter_t)0
 346:build/openmote-cc2538_armgcc/openstack/02b-MAChigh/sixtop.c ****         );
 347:build/openmote-cc2538_armgcc/openstack/02b-MAChigh/sixtop.c ****         return;
 789              		.loc 1 347 0
 790 04a6 68E0     		b	.L29
 791              	.L33:
 348:build/openmote-cc2538_armgcc/openstack/02b-MAChigh/sixtop.c ****     }
 349:build/openmote-cc2538_armgcc/openstack/02b-MAChigh/sixtop.c ****    
 350:build/openmote-cc2538_armgcc/openstack/02b-MAChigh/sixtop.c ****     // update state
 351:build/openmote-cc2538_armgcc/openstack/02b-MAChigh/sixtop.c ****     sixtop_vars.six2six_state = SIX_STATE_SENDING_REQUEST;
 792              		.loc 1 351 0
 793 04a8 40F20003 		movw	r3, #:lower16:sixtop_vars
 794 04ac C0F20003 		movt	r3, #:upper16:sixtop_vars
 795 04b0 0122     		movs	r2, #1
 796 04b2 9A73     		strb	r2, [r3, #14]
 352:build/openmote-cc2538_armgcc/openstack/02b-MAChigh/sixtop.c ****    
 353:build/openmote-cc2538_armgcc/openstack/02b-MAChigh/sixtop.c ****     // declare ownership over that packet
 354:build/openmote-cc2538_armgcc/openstack/02b-MAChigh/sixtop.c ****     pkt->creator = COMPONENT_SIXTOP_RES;
 797              		.loc 1 354 0
 798 04b4 3B6A     		ldr	r3, [r7, #32]
 799 04b6 0F22     		movs	r2, #15
 800 04b8 1A70     		strb	r2, [r3]
 355:build/openmote-cc2538_armgcc/openstack/02b-MAChigh/sixtop.c ****     pkt->owner   = COMPONENT_SIXTOP_RES;
 801              		.loc 1 355 0
 802 04ba 3B6A     		ldr	r3, [r7, #32]
 803 04bc 0F22     		movs	r2, #15
 804 04be 5A70     		strb	r2, [r3, #1]
 356:build/openmote-cc2538_armgcc/openstack/02b-MAChigh/sixtop.c ****       
 357:build/openmote-cc2538_armgcc/openstack/02b-MAChigh/sixtop.c ****     memcpy(&(pkt->l2_nextORpreviousHop),neighbor,sizeof(open_addr_t));
 805              		.loc 1 357 0
 806 04c0 3B6A     		ldr	r3, [r7, #32]
 807 04c2 3833     		adds	r3, r3, #56
 808 04c4 1846     		mov	r0, r3
 809 04c6 B968     		ldr	r1, [r7, #8]
 810 04c8 1122     		movs	r2, #17
 811 04ca FFF7FEFF 		bl	memcpy
 358:build/openmote-cc2538_armgcc/openstack/02b-MAChigh/sixtop.c ****     
 359:build/openmote-cc2538_armgcc/openstack/02b-MAChigh/sixtop.c ****     len  = 0;
 812              		.loc 1 359 0
 813 04ce 0023     		movs	r3, #0
 814 04d0 FB77     		strb	r3, [r7, #31]
 360:build/openmote-cc2538_armgcc/openstack/02b-MAChigh/sixtop.c ****     len += processIE_prepend_sixCelllist(pkt,cellList);
 815              		.loc 1 360 0
 816 04d2 07F11003 		add	r3, r7, #16
 817 04d6 386A     		ldr	r0, [r7, #32]
 818 04d8 1946     		mov	r1, r3
 819 04da FFF7FEFF 		bl	processIE_prepend_sixCelllist
 820 04de 0346     		mov	r3, r0
 821 04e0 1A46     		mov	r2, r3
 822 04e2 FB7F     		ldrb	r3, [r7, #31]
 823 04e4 1344     		add	r3, r3, r2
 824 04e6 FB77     		strb	r3, [r7, #31]
 361:build/openmote-cc2538_armgcc/openstack/02b-MAChigh/sixtop.c ****     // reserve space for container
 362:build/openmote-cc2538_armgcc/openstack/02b-MAChigh/sixtop.c ****     packetfunctions_reserveHeaderSize(pkt,sizeof(uint8_t));
 825              		.loc 1 362 0
 826 04e8 386A     		ldr	r0, [r7, #32]
 827 04ea 0121     		movs	r1, #1
 828 04ec FFF7FEFF 		bl	packetfunctions_reserveHeaderSize
 363:build/openmote-cc2538_armgcc/openstack/02b-MAChigh/sixtop.c ****     // write header
 364:build/openmote-cc2538_armgcc/openstack/02b-MAChigh/sixtop.c ****     *((uint8_t*)(pkt->payload)) = container;
 829              		.loc 1 364 0
 830 04f0 3B6A     		ldr	r3, [r7, #32]
 831 04f2 5B68     		ldr	r3, [r3, #4]
 832 04f4 97F82620 		ldrb	r2, [r7, #38]
 833 04f8 1A70     		strb	r2, [r3]
 365:build/openmote-cc2538_armgcc/openstack/02b-MAChigh/sixtop.c ****     len+=1;
 834              		.loc 1 365 0
 835 04fa FB7F     		ldrb	r3, [r7, #31]
 836 04fc 0133     		adds	r3, r3, #1
 837 04fe FB77     		strb	r3, [r7, #31]
 366:build/openmote-cc2538_armgcc/openstack/02b-MAChigh/sixtop.c ****     // reserve space for numCells
 367:build/openmote-cc2538_armgcc/openstack/02b-MAChigh/sixtop.c ****     packetfunctions_reserveHeaderSize(pkt,sizeof(uint8_t));
 838              		.loc 1 367 0
 839 0500 386A     		ldr	r0, [r7, #32]
 840 0502 0121     		movs	r1, #1
 841 0504 FFF7FEFF 		bl	packetfunctions_reserveHeaderSize
 368:build/openmote-cc2538_armgcc/openstack/02b-MAChigh/sixtop.c ****     // write header
 369:build/openmote-cc2538_armgcc/openstack/02b-MAChigh/sixtop.c ****     *((uint8_t*)(pkt->payload)) = 1;
 842              		.loc 1 369 0
 843 0508 3B6A     		ldr	r3, [r7, #32]
 844 050a 5B68     		ldr	r3, [r3, #4]
 845 050c 0122     		movs	r2, #1
 846 050e 1A70     		strb	r2, [r3]
 370:build/openmote-cc2538_armgcc/openstack/02b-MAChigh/sixtop.c ****     len+=1;
 847              		.loc 1 370 0
 848 0510 FB7F     		ldrb	r3, [r7, #31]
 849 0512 0133     		adds	r3, r3, #1
 850 0514 FB77     		strb	r3, [r7, #31]
 371:build/openmote-cc2538_armgcc/openstack/02b-MAChigh/sixtop.c ****     
 372:build/openmote-cc2538_armgcc/openstack/02b-MAChigh/sixtop.c ****     len += processIE_prepend_sixGeneralMessage(pkt,code);
 851              		.loc 1 372 0
 852 0516 FB7B     		ldrb	r3, [r7, #15]	@ zero_extendqisi2
 853 0518 386A     		ldr	r0, [r7, #32]
 854 051a 1946     		mov	r1, r3
 855 051c FFF7FEFF 		bl	processIE_prepend_sixGeneralMessage
 856 0520 0346     		mov	r3, r0
 857 0522 1A46     		mov	r2, r3
 858 0524 FB7F     		ldrb	r3, [r7, #31]
 859 0526 1344     		add	r3, r3, r2
 860 0528 FB77     		strb	r3, [r7, #31]
 373:build/openmote-cc2538_armgcc/openstack/02b-MAChigh/sixtop.c ****     len += processIE_prepend_sixSubID(pkt);
 861              		.loc 1 373 0
 862 052a 386A     		ldr	r0, [r7, #32]
 863 052c FFF7FEFF 		bl	processIE_prepend_sixSubID
 864 0530 0346     		mov	r3, r0
 865 0532 1A46     		mov	r2, r3
 866 0534 FB7F     		ldrb	r3, [r7, #31]
 867 0536 1344     		add	r3, r3, r2
 868 0538 FB77     		strb	r3, [r7, #31]
 374:build/openmote-cc2538_armgcc/openstack/02b-MAChigh/sixtop.c ****     processIE_prepend_sixtopIE(pkt,len);
 869              		.loc 1 374 0
 870 053a FB7F     		ldrb	r3, [r7, #31]	@ zero_extendqisi2
 871 053c 386A     		ldr	r0, [r7, #32]
 872 053e 1946     		mov	r1, r3
 873 0540 FFF7FEFF 		bl	processIE_prepend_sixtopIE
 375:build/openmote-cc2538_armgcc/openstack/02b-MAChigh/sixtop.c ****    
 376:build/openmote-cc2538_armgcc/openstack/02b-MAChigh/sixtop.c ****     // indicate IEs present
 377:build/openmote-cc2538_armgcc/openstack/02b-MAChigh/sixtop.c ****     pkt->l2_payloadIEpresent = TRUE;
 874              		.loc 1 377 0
 875 0544 3B6A     		ldr	r3, [r7, #32]
 876 0546 0122     		movs	r2, #1
 877 0548 83F86620 		strb	r2, [r3, #102]
 378:build/openmote-cc2538_armgcc/openstack/02b-MAChigh/sixtop.c ****    
 379:build/openmote-cc2538_armgcc/openstack/02b-MAChigh/sixtop.c ****     // send packet
 380:build/openmote-cc2538_armgcc/openstack/02b-MAChigh/sixtop.c ****     sixtop_send(pkt);
 878              		.loc 1 380 0
 879 054c 386A     		ldr	r0, [r7, #32]
 880 054e FFF7FEFF 		bl	sixtop_send
 381:build/openmote-cc2538_armgcc/openstack/02b-MAChigh/sixtop.c ****    
 382:build/openmote-cc2538_armgcc/openstack/02b-MAChigh/sixtop.c ****     //update states
 383:build/openmote-cc2538_armgcc/openstack/02b-MAChigh/sixtop.c ****     switch(code){
 881              		.loc 1 383 0
 882 0552 FB7B     		ldrb	r3, [r7, #15]	@ zero_extendqisi2
 883 0554 012B     		cmp	r3, #1
 884 0556 02D0     		beq	.L35
 885 0558 022B     		cmp	r3, #2
 886 055a 07D0     		beq	.L36
 887 055c 0DE0     		b	.L29
 888              	.L35:
 384:build/openmote-cc2538_armgcc/openstack/02b-MAChigh/sixtop.c ****     case IANA_6TOP_CMD_ADD:
 385:build/openmote-cc2538_armgcc/openstack/02b-MAChigh/sixtop.c ****         sixtop_vars.six2six_state = SIX_STATE_WAIT_ADDREQUEST_SENDDONE;
 889              		.loc 1 385 0
 890 055e 40F20003 		movw	r3, #:lower16:sixtop_vars
 891 0562 C0F20003 		movt	r3, #:upper16:sixtop_vars
 892 0566 0222     		movs	r2, #2
 893 0568 9A73     		strb	r2, [r3, #14]
 386:build/openmote-cc2538_armgcc/openstack/02b-MAChigh/sixtop.c ****         break;
 894              		.loc 1 386 0
 895 056a 06E0     		b	.L34
 896              	.L36:
 387:build/openmote-cc2538_armgcc/openstack/02b-MAChigh/sixtop.c ****     case IANA_6TOP_CMD_DELETE:
 388:build/openmote-cc2538_armgcc/openstack/02b-MAChigh/sixtop.c ****         sixtop_vars.six2six_state = SIX_STATE_WAIT_DELETEREQUEST_SENDDONE;
 897              		.loc 1 388 0
 898 056c 40F20003 		movw	r3, #:lower16:sixtop_vars
 899 0570 C0F20003 		movt	r3, #:upper16:sixtop_vars
 900 0574 0322     		movs	r2, #3
 901 0576 9A73     		strb	r2, [r3, #14]
 389:build/openmote-cc2538_armgcc/openstack/02b-MAChigh/sixtop.c ****         break;
 902              		.loc 1 389 0
 903 0578 00BF     		nop
 904              	.L34:
 905              	.L29:
 390:build/openmote-cc2538_armgcc/openstack/02b-MAChigh/sixtop.c ****     }
 391:build/openmote-cc2538_armgcc/openstack/02b-MAChigh/sixtop.c **** }
 906              		.loc 1 391 0
 907 057a 2837     		adds	r7, r7, #40
 908 057c BD46     		mov	sp, r7
 909              		@ sp needed
 910 057e 80BD     		pop	{r7, pc}
 911              		.cfi_endproc
 912              	.LFE5:
 914              		.align	2
 915              		.global	sixtop_send
 916              		.thumb
 917              		.thumb_func
 919              	sixtop_send:
 920              	.LFB6:
 392:build/openmote-cc2538_armgcc/openstack/02b-MAChigh/sixtop.c **** 
 393:build/openmote-cc2538_armgcc/openstack/02b-MAChigh/sixtop.c **** //======= from upper layer
 394:build/openmote-cc2538_armgcc/openstack/02b-MAChigh/sixtop.c **** 
 395:build/openmote-cc2538_armgcc/openstack/02b-MAChigh/sixtop.c **** owerror_t sixtop_send(OpenQueueEntry_t *msg) {
 921              		.loc 1 395 0
 922              		.cfi_startproc
 923              		@ args = 0, pretend = 0, frame = 8
 924              		@ frame_needed = 1, uses_anonymous_args = 0
 925 0580 80B5     		push	{r7, lr}
 926              		.cfi_def_cfa_offset 8
 927              		.cfi_offset 7, -8
 928              		.cfi_offset 14, -4
 929 0582 82B0     		sub	sp, sp, #8
 930              		.cfi_def_cfa_offset 16
 931 0584 00AF     		add	r7, sp, #0
 932              		.cfi_def_cfa_register 7
 933 0586 7860     		str	r0, [r7, #4]
 396:build/openmote-cc2538_armgcc/openstack/02b-MAChigh/sixtop.c ****    
 397:build/openmote-cc2538_armgcc/openstack/02b-MAChigh/sixtop.c ****    // set metadata
 398:build/openmote-cc2538_armgcc/openstack/02b-MAChigh/sixtop.c ****    msg->owner        = COMPONENT_SIXTOP;
 934              		.loc 1 398 0
 935 0588 7B68     		ldr	r3, [r7, #4]
 936 058a 0C22     		movs	r2, #12
 937 058c 5A70     		strb	r2, [r3, #1]
 399:build/openmote-cc2538_armgcc/openstack/02b-MAChigh/sixtop.c ****    msg->l2_frameType = IEEE154_TYPE_DATA;
 938              		.loc 1 399 0
 939 058e 7B68     		ldr	r3, [r7, #4]
 940 0590 0122     		movs	r2, #1
 941 0592 83F84920 		strb	r2, [r3, #73]
 400:build/openmote-cc2538_armgcc/openstack/02b-MAChigh/sixtop.c **** 
 401:build/openmote-cc2538_armgcc/openstack/02b-MAChigh/sixtop.c ****    // set l2-security attributes
 402:build/openmote-cc2538_armgcc/openstack/02b-MAChigh/sixtop.c ****    msg->l2_securityLevel   = IEEE802154_SECURITY_LEVEL;
 942              		.loc 1 402 0
 943 0596 7B68     		ldr	r3, [r7, #4]
 944 0598 0022     		movs	r2, #0
 945 059a 83F86C20 		strb	r2, [r3, #108]
 403:build/openmote-cc2538_armgcc/openstack/02b-MAChigh/sixtop.c ****    msg->l2_keyIdMode       = IEEE802154_SECURITY_KEYIDMODE; 
 946              		.loc 1 403 0
 947 059e 7B68     		ldr	r3, [r7, #4]
 948 05a0 0022     		movs	r2, #0
 949 05a2 83F86D20 		strb	r2, [r3, #109]
 404:build/openmote-cc2538_armgcc/openstack/02b-MAChigh/sixtop.c ****    msg->l2_keyIndex        = IEEE802154_SECURITY_K2_KEY_INDEX;
 950              		.loc 1 404 0
 951 05a6 7B68     		ldr	r3, [r7, #4]
 952 05a8 0022     		movs	r2, #0
 953 05aa 83F86E20 		strb	r2, [r3, #110]
 405:build/openmote-cc2538_armgcc/openstack/02b-MAChigh/sixtop.c **** 
 406:build/openmote-cc2538_armgcc/openstack/02b-MAChigh/sixtop.c ****    if (msg->l2_payloadIEpresent == FALSE) {
 954              		.loc 1 406 0
 955 05ae 7B68     		ldr	r3, [r7, #4]
 956 05b0 93F86630 		ldrb	r3, [r3, #102]	@ zero_extendqisi2
 957 05b4 83F00103 		eor	r3, r3, #1
 958 05b8 DBB2     		uxtb	r3, r3
 959 05ba 002B     		cmp	r3, #0
 960 05bc 05D0     		beq	.L39
 407:build/openmote-cc2538_armgcc/openstack/02b-MAChigh/sixtop.c ****       return sixtop_send_internal(
 961              		.loc 1 407 0
 962 05be 7868     		ldr	r0, [r7, #4]
 963 05c0 0021     		movs	r1, #0
 964 05c2 FFF7FEFF 		bl	sixtop_send_internal
 965 05c6 0346     		mov	r3, r0
 966 05c8 04E0     		b	.L40
 967              	.L39:
 408:build/openmote-cc2538_armgcc/openstack/02b-MAChigh/sixtop.c ****          msg,
 409:build/openmote-cc2538_armgcc/openstack/02b-MAChigh/sixtop.c ****          FALSE
 410:build/openmote-cc2538_armgcc/openstack/02b-MAChigh/sixtop.c ****       );
 411:build/openmote-cc2538_armgcc/openstack/02b-MAChigh/sixtop.c ****    } else {
 412:build/openmote-cc2538_armgcc/openstack/02b-MAChigh/sixtop.c ****       return sixtop_send_internal(
 968              		.loc 1 412 0
 969 05ca 7868     		ldr	r0, [r7, #4]
 970 05cc 0121     		movs	r1, #1
 971 05ce FFF7FEFF 		bl	sixtop_send_internal
 972 05d2 0346     		mov	r3, r0
 973              	.L40:
 413:build/openmote-cc2538_armgcc/openstack/02b-MAChigh/sixtop.c ****          msg,
 414:build/openmote-cc2538_armgcc/openstack/02b-MAChigh/sixtop.c ****          TRUE
 415:build/openmote-cc2538_armgcc/openstack/02b-MAChigh/sixtop.c ****       );
 416:build/openmote-cc2538_armgcc/openstack/02b-MAChigh/sixtop.c ****    }
 417:build/openmote-cc2538_armgcc/openstack/02b-MAChigh/sixtop.c **** }
 974              		.loc 1 417 0
 975 05d4 1846     		mov	r0, r3
 976 05d6 0837     		adds	r7, r7, #8
 977 05d8 BD46     		mov	sp, r7
 978              		@ sp needed
 979 05da 80BD     		pop	{r7, pc}
 980              		.cfi_endproc
 981              	.LFE6:
 983              		.align	2
 984              		.global	task_sixtopNotifSendDone
 985              		.thumb
 986              		.thumb_func
 988              	task_sixtopNotifSendDone:
 989              	.LFB7:
 418:build/openmote-cc2538_armgcc/openstack/02b-MAChigh/sixtop.c **** 
 419:build/openmote-cc2538_armgcc/openstack/02b-MAChigh/sixtop.c **** //======= from lower layer
 420:build/openmote-cc2538_armgcc/openstack/02b-MAChigh/sixtop.c **** 
 421:build/openmote-cc2538_armgcc/openstack/02b-MAChigh/sixtop.c **** void task_sixtopNotifSendDone() {
 990              		.loc 1 421 0
 991              		.cfi_startproc
 992              		@ args = 0, pretend = 0, frame = 8
 993              		@ frame_needed = 1, uses_anonymous_args = 0
 994 05dc B0B5     		push	{r4, r5, r7, lr}
 995              		.cfi_def_cfa_offset 16
 996              		.cfi_offset 4, -16
 997              		.cfi_offset 5, -12
 998              		.cfi_offset 7, -8
 999              		.cfi_offset 14, -4
 1000 05de 82B0     		sub	sp, sp, #8
 1001              		.cfi_def_cfa_offset 24
 1002 05e0 00AF     		add	r7, sp, #0
 1003              		.cfi_def_cfa_register 7
 422:build/openmote-cc2538_armgcc/openstack/02b-MAChigh/sixtop.c ****    OpenQueueEntry_t* msg;
 423:build/openmote-cc2538_armgcc/openstack/02b-MAChigh/sixtop.c ****    
 424:build/openmote-cc2538_armgcc/openstack/02b-MAChigh/sixtop.c ****    // get recently-sent packet from openqueue
 425:build/openmote-cc2538_armgcc/openstack/02b-MAChigh/sixtop.c ****    msg = openqueue_sixtopGetSentPacket();
 1004              		.loc 1 425 0
 1005 05e2 FFF7FEFF 		bl	openqueue_sixtopGetSentPacket
 1006 05e6 7860     		str	r0, [r7, #4]
 426:build/openmote-cc2538_armgcc/openstack/02b-MAChigh/sixtop.c ****    if (msg==NULL) {
 1007              		.loc 1 426 0
 1008 05e8 7B68     		ldr	r3, [r7, #4]
 1009 05ea 002B     		cmp	r3, #0
 1010 05ec 06D1     		bne	.L42
 427:build/openmote-cc2538_armgcc/openstack/02b-MAChigh/sixtop.c ****       openserial_printCritical(
 1011              		.loc 1 427 0
 1012 05ee 0C20     		movs	r0, #12
 1013 05f0 1521     		movs	r1, #21
 1014 05f2 0022     		movs	r2, #0
 1015 05f4 0023     		movs	r3, #0
 1016 05f6 FFF7FEFF 		bl	openserial_printCritical
 428:build/openmote-cc2538_armgcc/openstack/02b-MAChigh/sixtop.c ****          COMPONENT_SIXTOP,
 429:build/openmote-cc2538_armgcc/openstack/02b-MAChigh/sixtop.c ****          ERR_NO_SENT_PACKET,
 430:build/openmote-cc2538_armgcc/openstack/02b-MAChigh/sixtop.c ****          (errorparameter_t)0,
 431:build/openmote-cc2538_armgcc/openstack/02b-MAChigh/sixtop.c ****          (errorparameter_t)0
 432:build/openmote-cc2538_armgcc/openstack/02b-MAChigh/sixtop.c ****       );
 433:build/openmote-cc2538_armgcc/openstack/02b-MAChigh/sixtop.c ****       return;
 1017              		.loc 1 433 0
 1018 05fa 8EE0     		b	.L41
 1019              	.L42:
 434:build/openmote-cc2538_armgcc/openstack/02b-MAChigh/sixtop.c ****    }
 435:build/openmote-cc2538_armgcc/openstack/02b-MAChigh/sixtop.c ****    
 436:build/openmote-cc2538_armgcc/openstack/02b-MAChigh/sixtop.c ****    // take ownership
 437:build/openmote-cc2538_armgcc/openstack/02b-MAChigh/sixtop.c ****    msg->owner = COMPONENT_SIXTOP;
 1020              		.loc 1 437 0
 1021 05fc 7B68     		ldr	r3, [r7, #4]
 1022 05fe 0C22     		movs	r2, #12
 1023 0600 5A70     		strb	r2, [r3, #1]
 438:build/openmote-cc2538_armgcc/openstack/02b-MAChigh/sixtop.c ****    
 439:build/openmote-cc2538_armgcc/openstack/02b-MAChigh/sixtop.c ****    // update neighbor statistics
 440:build/openmote-cc2538_armgcc/openstack/02b-MAChigh/sixtop.c ****    if (msg->l2_sendDoneError==E_SUCCESS) {
 1024              		.loc 1 440 0
 1025 0602 7B68     		ldr	r3, [r7, #4]
 1026 0604 93F83730 		ldrb	r3, [r3, #55]	@ zero_extendqisi2
 1027 0608 002B     		cmp	r3, #0
 1028 060a 0DD1     		bne	.L44
 441:build/openmote-cc2538_armgcc/openstack/02b-MAChigh/sixtop.c ****       neighbors_indicateTx(
 1029              		.loc 1 441 0
 1030 060c 7B68     		ldr	r3, [r7, #4]
 1031 060e 03F13801 		add	r1, r3, #56
 1032 0612 7B68     		ldr	r3, [r7, #4]
 1033 0614 93F84C20 		ldrb	r2, [r3, #76]	@ zero_extendqisi2
 1034 0618 7B68     		ldr	r3, [r7, #4]
 1035 061a 4D33     		adds	r3, r3, #77
 1036 061c 0846     		mov	r0, r1
 1037 061e 1146     		mov	r1, r2
 1038 0620 0122     		movs	r2, #1
 1039 0622 FFF7FEFF 		bl	neighbors_indicateTx
 1040 0626 0CE0     		b	.L45
 1041              	.L44:
 442:build/openmote-cc2538_armgcc/openstack/02b-MAChigh/sixtop.c ****          &(msg->l2_nextORpreviousHop),
 443:build/openmote-cc2538_armgcc/openstack/02b-MAChigh/sixtop.c ****          msg->l2_numTxAttempts,
 444:build/openmote-cc2538_armgcc/openstack/02b-MAChigh/sixtop.c ****          TRUE,
 445:build/openmote-cc2538_armgcc/openstack/02b-MAChigh/sixtop.c ****          &msg->l2_asn
 446:build/openmote-cc2538_armgcc/openstack/02b-MAChigh/sixtop.c ****       );
 447:build/openmote-cc2538_armgcc/openstack/02b-MAChigh/sixtop.c ****    } else {
 448:build/openmote-cc2538_armgcc/openstack/02b-MAChigh/sixtop.c ****       neighbors_indicateTx(
 1042              		.loc 1 448 0
 1043 0628 7B68     		ldr	r3, [r7, #4]
 1044 062a 03F13801 		add	r1, r3, #56
 1045 062e 7B68     		ldr	r3, [r7, #4]
 1046 0630 93F84C20 		ldrb	r2, [r3, #76]	@ zero_extendqisi2
 1047 0634 7B68     		ldr	r3, [r7, #4]
 1048 0636 4D33     		adds	r3, r3, #77
 1049 0638 0846     		mov	r0, r1
 1050 063a 1146     		mov	r1, r2
 1051 063c 0022     		movs	r2, #0
 1052 063e FFF7FEFF 		bl	neighbors_indicateTx
 1053              	.L45:
 449:build/openmote-cc2538_armgcc/openstack/02b-MAChigh/sixtop.c ****          &(msg->l2_nextORpreviousHop),
 450:build/openmote-cc2538_armgcc/openstack/02b-MAChigh/sixtop.c ****          msg->l2_numTxAttempts,
 451:build/openmote-cc2538_armgcc/openstack/02b-MAChigh/sixtop.c ****          FALSE,
 452:build/openmote-cc2538_armgcc/openstack/02b-MAChigh/sixtop.c ****          &msg->l2_asn
 453:build/openmote-cc2538_armgcc/openstack/02b-MAChigh/sixtop.c ****       );
 454:build/openmote-cc2538_armgcc/openstack/02b-MAChigh/sixtop.c ****    }
 455:build/openmote-cc2538_armgcc/openstack/02b-MAChigh/sixtop.c ****    
 456:build/openmote-cc2538_armgcc/openstack/02b-MAChigh/sixtop.c ****    // send the packet to where it belongs
 457:build/openmote-cc2538_armgcc/openstack/02b-MAChigh/sixtop.c ****    switch (msg->creator) {
 1054              		.loc 1 457 0
 1055 0642 7B68     		ldr	r3, [r7, #4]
 1056 0644 1B78     		ldrb	r3, [r3]	@ zero_extendqisi2
 1057 0646 0C2B     		cmp	r3, #12
 1058 0648 02D0     		beq	.L47
 1059 064a 0F2B     		cmp	r3, #15
 1060 064c 55D0     		beq	.L48
 1061 064e 5CE0     		b	.L51
 1062              	.L47:
 458:build/openmote-cc2538_armgcc/openstack/02b-MAChigh/sixtop.c ****       
 459:build/openmote-cc2538_armgcc/openstack/02b-MAChigh/sixtop.c ****       case COMPONENT_SIXTOP:
 460:build/openmote-cc2538_armgcc/openstack/02b-MAChigh/sixtop.c ****          if (msg->l2_frameType==IEEE154_TYPE_BEACON) {
 1063              		.loc 1 460 0
 1064 0650 7B68     		ldr	r3, [r7, #4]
 1065 0652 93F84930 		ldrb	r3, [r3, #73]	@ zero_extendqisi2
 1066 0656 002B     		cmp	r3, #0
 1067 0658 29D1     		bne	.L49
 461:build/openmote-cc2538_armgcc/openstack/02b-MAChigh/sixtop.c ****             // this is a EB
 462:build/openmote-cc2538_armgcc/openstack/02b-MAChigh/sixtop.c ****             
 463:build/openmote-cc2538_armgcc/openstack/02b-MAChigh/sixtop.c ****             // not busy sending EB anymore
 464:build/openmote-cc2538_armgcc/openstack/02b-MAChigh/sixtop.c ****             sixtop_vars.busySendingEB = FALSE;
 1068              		.loc 1 464 0
 1069 065a 40F20003 		movw	r3, #:lower16:sixtop_vars
 1070 065e C0F20003 		movt	r3, #:upper16:sixtop_vars
 1071 0662 0022     		movs	r2, #0
 1072 0664 DA70     		strb	r2, [r3, #3]
 465:build/openmote-cc2538_armgcc/openstack/02b-MAChigh/sixtop.c ****             opentimers_setPeriod(
 1073              		.loc 1 465 0
 1074 0666 40F20003 		movw	r3, #:lower16:sixtop_vars
 1075 066a C0F20003 		movt	r3, #:upper16:sixtop_vars
 1076 066e 9C79     		ldrb	r4, [r3, #6]	@ zero_extendqisi2
 466:build/openmote-cc2538_armgcc/openstack/02b-MAChigh/sixtop.c ****                 sixtop_vars.ebSendingTimerId,
 467:build/openmote-cc2538_armgcc/openstack/02b-MAChigh/sixtop.c ****                 TIME_MS,
 468:build/openmote-cc2538_armgcc/openstack/02b-MAChigh/sixtop.c ****                 (sixtop_vars.ebPeriod-EBPERIOD_RANDOM_RANG+(openrandom_get16b()%(2*EBPERIOD_RANDOM_
 1077              		.loc 1 468 0
 1078 0670 40F20003 		movw	r3, #:lower16:sixtop_vars
 1079 0674 C0F20003 		movt	r3, #:upper16:sixtop_vars
 1080 0678 9B89     		ldrh	r3, [r3, #12]
 1081 067a A3F5FA75 		sub	r5, r3, #500
 1082 067e FFF7FEFF 		bl	openrandom_get16b
 1083 0682 0346     		mov	r3, r0
 1084 0684 1A46     		mov	r2, r3
 1085 0686 44F6D353 		movw	r3, #19923
 1086 068a C1F26203 		movt	r3, 4194
 1087 068e A3FB0213 		umull	r1, r3, r3, r2
 1088 0692 9B09     		lsrs	r3, r3, #6
 1089 0694 4FF47A71 		mov	r1, #1000
 1090 0698 01FB03F3 		mul	r3, r1, r3
 1091 069c D31A     		subs	r3, r2, r3
 1092 069e 9BB2     		uxth	r3, r3
 1093 06a0 2B44     		add	r3, r3, r5
 465:build/openmote-cc2538_armgcc/openstack/02b-MAChigh/sixtop.c ****             opentimers_setPeriod(
 1094              		.loc 1 465 0
 1095 06a2 2046     		mov	r0, r4
 1096 06a4 0021     		movs	r1, #0
 1097 06a6 1A46     		mov	r2, r3
 1098 06a8 FFF7FEFF 		bl	opentimers_setPeriod
 1099 06ac 05E0     		b	.L50
 1100              	.L49:
 469:build/openmote-cc2538_armgcc/openstack/02b-MAChigh/sixtop.c ****             );
 470:build/openmote-cc2538_armgcc/openstack/02b-MAChigh/sixtop.c ****          } else {
 471:build/openmote-cc2538_armgcc/openstack/02b-MAChigh/sixtop.c ****             // this is a KA
 472:build/openmote-cc2538_armgcc/openstack/02b-MAChigh/sixtop.c ****             
 473:build/openmote-cc2538_armgcc/openstack/02b-MAChigh/sixtop.c ****             // not busy sending KA anymore
 474:build/openmote-cc2538_armgcc/openstack/02b-MAChigh/sixtop.c ****             sixtop_vars.busySendingKA = FALSE;
 1101              		.loc 1 474 0
 1102 06ae 40F20003 		movw	r3, #:lower16:sixtop_vars
 1103 06b2 C0F20003 		movt	r3, #:upper16:sixtop_vars
 1104 06b6 0022     		movs	r2, #0
 1105 06b8 9A70     		strb	r2, [r3, #2]
 1106              	.L50:
 475:build/openmote-cc2538_armgcc/openstack/02b-MAChigh/sixtop.c ****          }
 476:build/openmote-cc2538_armgcc/openstack/02b-MAChigh/sixtop.c ****          // discard packets
 477:build/openmote-cc2538_armgcc/openstack/02b-MAChigh/sixtop.c ****          openqueue_freePacketBuffer(msg);
 1107              		.loc 1 477 0
 1108 06ba 7868     		ldr	r0, [r7, #4]
 1109 06bc FFF7FEFF 		bl	openqueue_freePacketBuffer
 478:build/openmote-cc2538_armgcc/openstack/02b-MAChigh/sixtop.c ****          
 479:build/openmote-cc2538_armgcc/openstack/02b-MAChigh/sixtop.c ****          // restart a random timer
 480:build/openmote-cc2538_armgcc/openstack/02b-MAChigh/sixtop.c ****          sixtop_vars.periodMaintenance = 872+(openrandom_get16b()&0xff);
 1110              		.loc 1 480 0
 1111 06c0 FFF7FEFF 		bl	openrandom_get16b
 1112 06c4 0346     		mov	r3, r0
 1113 06c6 DBB2     		uxtb	r3, r3
 1114 06c8 9BB2     		uxth	r3, r3
 1115 06ca 03F55A73 		add	r3, r3, #872
 1116 06ce 9AB2     		uxth	r2, r3
 1117 06d0 40F20003 		movw	r3, #:lower16:sixtop_vars
 1118 06d4 C0F20003 		movt	r3, #:upper16:sixtop_vars
 1119 06d8 1A80     		strh	r2, [r3]	@ movhi
 481:build/openmote-cc2538_armgcc/openstack/02b-MAChigh/sixtop.c ****          opentimers_setPeriod(
 1120              		.loc 1 481 0
 1121 06da 40F20003 		movw	r3, #:lower16:sixtop_vars
 1122 06de C0F20003 		movt	r3, #:upper16:sixtop_vars
 1123 06e2 DA79     		ldrb	r2, [r3, #7]	@ zero_extendqisi2
 482:build/openmote-cc2538_armgcc/openstack/02b-MAChigh/sixtop.c ****             sixtop_vars.maintenanceTimerId,
 483:build/openmote-cc2538_armgcc/openstack/02b-MAChigh/sixtop.c ****             TIME_MS,
 484:build/openmote-cc2538_armgcc/openstack/02b-MAChigh/sixtop.c ****             sixtop_vars.periodMaintenance
 1124              		.loc 1 484 0
 1125 06e4 40F20003 		movw	r3, #:lower16:sixtop_vars
 1126 06e8 C0F20003 		movt	r3, #:upper16:sixtop_vars
 1127 06ec 1B88     		ldrh	r3, [r3]
 481:build/openmote-cc2538_armgcc/openstack/02b-MAChigh/sixtop.c ****          opentimers_setPeriod(
 1128              		.loc 1 481 0
 1129 06ee 1046     		mov	r0, r2
 1130 06f0 0021     		movs	r1, #0
 1131 06f2 1A46     		mov	r2, r3
 1132 06f4 FFF7FEFF 		bl	opentimers_setPeriod
 485:build/openmote-cc2538_armgcc/openstack/02b-MAChigh/sixtop.c ****          );
 486:build/openmote-cc2538_armgcc/openstack/02b-MAChigh/sixtop.c ****          break;
 1133              		.loc 1 486 0
 1134 06f8 0FE0     		b	.L41
 1135              	.L48:
 487:build/openmote-cc2538_armgcc/openstack/02b-MAChigh/sixtop.c ****       
 488:build/openmote-cc2538_armgcc/openstack/02b-MAChigh/sixtop.c ****       case COMPONENT_SIXTOP_RES:
 489:build/openmote-cc2538_armgcc/openstack/02b-MAChigh/sixtop.c ****          sixtop_six2six_sendDone(msg,msg->l2_sendDoneError);
 1136              		.loc 1 489 0
 1137 06fa 7B68     		ldr	r3, [r7, #4]
 1138 06fc 93F83730 		ldrb	r3, [r3, #55]	@ zero_extendqisi2
 1139 0700 7868     		ldr	r0, [r7, #4]
 1140 0702 1946     		mov	r1, r3
 1141 0704 FFF7FEFF 		bl	sixtop_six2six_sendDone
 490:build/openmote-cc2538_armgcc/openstack/02b-MAChigh/sixtop.c ****          break;
 1142              		.loc 1 490 0
 1143 0708 07E0     		b	.L41
 1144              	.L51:
 491:build/openmote-cc2538_armgcc/openstack/02b-MAChigh/sixtop.c ****       
 492:build/openmote-cc2538_armgcc/openstack/02b-MAChigh/sixtop.c ****       default:
 493:build/openmote-cc2538_armgcc/openstack/02b-MAChigh/sixtop.c ****          // send the rest up the stack
 494:build/openmote-cc2538_armgcc/openstack/02b-MAChigh/sixtop.c ****          iphc_sendDone(msg,msg->l2_sendDoneError);
 1145              		.loc 1 494 0
 1146 070a 7B68     		ldr	r3, [r7, #4]
 1147 070c 93F83730 		ldrb	r3, [r3, #55]	@ zero_extendqisi2
 1148 0710 7868     		ldr	r0, [r7, #4]
 1149 0712 1946     		mov	r1, r3
 1150 0714 FFF7FEFF 		bl	iphc_sendDone
 495:build/openmote-cc2538_armgcc/openstack/02b-MAChigh/sixtop.c ****          break;
 1151              		.loc 1 495 0
 1152 0718 00BF     		nop
 1153              	.L41:
 496:build/openmote-cc2538_armgcc/openstack/02b-MAChigh/sixtop.c ****    }
 497:build/openmote-cc2538_armgcc/openstack/02b-MAChigh/sixtop.c **** }
 1154              		.loc 1 497 0
 1155 071a 0837     		adds	r7, r7, #8
 1156 071c BD46     		mov	sp, r7
 1157              		@ sp needed
 1158 071e B0BD     		pop	{r4, r5, r7, pc}
 1159              		.cfi_endproc
 1160              	.LFE7:
 1162              		.align	2
 1163              		.global	task_sixtopNotifReceive
 1164              		.thumb
 1165              		.thumb_func
 1167              	task_sixtopNotifReceive:
 1168              	.LFB8:
 498:build/openmote-cc2538_armgcc/openstack/02b-MAChigh/sixtop.c **** 
 499:build/openmote-cc2538_armgcc/openstack/02b-MAChigh/sixtop.c **** void task_sixtopNotifReceive() {
 1169              		.loc 1 499 0
 1170              		.cfi_startproc
 1171              		@ args = 0, pretend = 0, frame = 8
 1172              		@ frame_needed = 1, uses_anonymous_args = 0
 1173 0720 90B5     		push	{r4, r7, lr}
 1174              		.cfi_def_cfa_offset 12
 1175              		.cfi_offset 4, -12
 1176              		.cfi_offset 7, -8
 1177              		.cfi_offset 14, -4
 1178 0722 85B0     		sub	sp, sp, #20
 1179              		.cfi_def_cfa_offset 32
 1180 0724 02AF     		add	r7, sp, #8
 1181              		.cfi_def_cfa 7, 24
 500:build/openmote-cc2538_armgcc/openstack/02b-MAChigh/sixtop.c ****     OpenQueueEntry_t* msg;
 501:build/openmote-cc2538_armgcc/openstack/02b-MAChigh/sixtop.c ****     uint16_t          lenIE;
 502:build/openmote-cc2538_armgcc/openstack/02b-MAChigh/sixtop.c ****     // get received packet from openqueue
 503:build/openmote-cc2538_armgcc/openstack/02b-MAChigh/sixtop.c ****     msg = openqueue_sixtopGetReceivedPacket();
 1182              		.loc 1 503 0
 1183 0726 FFF7FEFF 		bl	openqueue_sixtopGetReceivedPacket
 1184 072a 7860     		str	r0, [r7, #4]
 504:build/openmote-cc2538_armgcc/openstack/02b-MAChigh/sixtop.c ****     if (msg==NULL) {
 1185              		.loc 1 504 0
 1186 072c 7B68     		ldr	r3, [r7, #4]
 1187 072e 002B     		cmp	r3, #0
 1188 0730 06D1     		bne	.L53
 505:build/openmote-cc2538_armgcc/openstack/02b-MAChigh/sixtop.c ****         openserial_printCritical(
 1189              		.loc 1 505 0
 1190 0732 0C20     		movs	r0, #12
 1191 0734 1621     		movs	r1, #22
 1192 0736 0022     		movs	r2, #0
 1193 0738 0023     		movs	r3, #0
 1194 073a FFF7FEFF 		bl	openserial_printCritical
 506:build/openmote-cc2538_armgcc/openstack/02b-MAChigh/sixtop.c ****             COMPONENT_SIXTOP,
 507:build/openmote-cc2538_armgcc/openstack/02b-MAChigh/sixtop.c ****             ERR_NO_RECEIVED_PACKET,
 508:build/openmote-cc2538_armgcc/openstack/02b-MAChigh/sixtop.c ****             (errorparameter_t)0,
 509:build/openmote-cc2538_armgcc/openstack/02b-MAChigh/sixtop.c ****             (errorparameter_t)0
 510:build/openmote-cc2538_armgcc/openstack/02b-MAChigh/sixtop.c ****         );
 511:build/openmote-cc2538_armgcc/openstack/02b-MAChigh/sixtop.c ****         return;
 1195              		.loc 1 511 0
 1196 073e 5CE0     		b	.L52
 1197              	.L53:
 512:build/openmote-cc2538_armgcc/openstack/02b-MAChigh/sixtop.c ****     }
 513:build/openmote-cc2538_armgcc/openstack/02b-MAChigh/sixtop.c ****    
 514:build/openmote-cc2538_armgcc/openstack/02b-MAChigh/sixtop.c ****     // take ownership
 515:build/openmote-cc2538_armgcc/openstack/02b-MAChigh/sixtop.c ****     msg->owner = COMPONENT_SIXTOP;
 1198              		.loc 1 515 0
 1199 0740 7B68     		ldr	r3, [r7, #4]
 1200 0742 0C22     		movs	r2, #12
 1201 0744 5A70     		strb	r2, [r3, #1]
 516:build/openmote-cc2538_armgcc/openstack/02b-MAChigh/sixtop.c ****    
 517:build/openmote-cc2538_armgcc/openstack/02b-MAChigh/sixtop.c ****     // process the header IEs
 518:build/openmote-cc2538_armgcc/openstack/02b-MAChigh/sixtop.c ****     lenIE=0;
 1202              		.loc 1 518 0
 1203 0746 0023     		movs	r3, #0
 1204 0748 7B80     		strh	r3, [r7, #2]	@ movhi
 519:build/openmote-cc2538_armgcc/openstack/02b-MAChigh/sixtop.c ****     if(
 520:build/openmote-cc2538_armgcc/openstack/02b-MAChigh/sixtop.c ****         msg->l2_frameType              == IEEE154_TYPE_DATA  &&
 1205              		.loc 1 520 0
 1206 074a 7B68     		ldr	r3, [r7, #4]
 1207 074c 93F84930 		ldrb	r3, [r3, #73]	@ zero_extendqisi2
 519:build/openmote-cc2538_armgcc/openstack/02b-MAChigh/sixtop.c ****     if(
 1208              		.loc 1 519 0
 1209 0750 012B     		cmp	r3, #1
 1210 0752 13D1     		bne	.L55
 521:build/openmote-cc2538_armgcc/openstack/02b-MAChigh/sixtop.c ****         msg->l2_payloadIEpresent       == TRUE               &&
 1211              		.loc 1 521 0
 1212 0754 7B68     		ldr	r3, [r7, #4]
 1213 0756 93F86630 		ldrb	r3, [r3, #102]	@ zero_extendqisi2
 520:build/openmote-cc2538_armgcc/openstack/02b-MAChigh/sixtop.c ****         msg->l2_payloadIEpresent       == TRUE               &&
 1214              		.loc 1 520 0
 1215 075a 002B     		cmp	r3, #0
 1216 075c 0ED0     		beq	.L55
 522:build/openmote-cc2538_armgcc/openstack/02b-MAChigh/sixtop.c ****         sixtop_processIEs(msg, &lenIE) == FALSE
 1217              		.loc 1 522 0
 1218 075e BB1C     		adds	r3, r7, #2
 1219 0760 7868     		ldr	r0, [r7, #4]
 1220 0762 1946     		mov	r1, r3
 1221 0764 FFF7FEFF 		bl	sixtop_processIEs
 1222 0768 0346     		mov	r3, r0
 1223 076a 83F00103 		eor	r3, r3, #1
 1224 076e DBB2     		uxtb	r3, r3
 521:build/openmote-cc2538_armgcc/openstack/02b-MAChigh/sixtop.c ****         msg->l2_payloadIEpresent       == TRUE               &&
 1225              		.loc 1 521 0
 1226 0770 002B     		cmp	r3, #0
 1227 0772 03D0     		beq	.L55
 523:build/openmote-cc2538_armgcc/openstack/02b-MAChigh/sixtop.c ****     ) {
 524:build/openmote-cc2538_armgcc/openstack/02b-MAChigh/sixtop.c ****         // free the packet's RAM memory
 525:build/openmote-cc2538_armgcc/openstack/02b-MAChigh/sixtop.c ****         openqueue_freePacketBuffer(msg);
 1228              		.loc 1 525 0
 1229 0774 7868     		ldr	r0, [r7, #4]
 1230 0776 FFF7FEFF 		bl	openqueue_freePacketBuffer
 526:build/openmote-cc2538_armgcc/openstack/02b-MAChigh/sixtop.c ****         //log error
 527:build/openmote-cc2538_armgcc/openstack/02b-MAChigh/sixtop.c ****         return;
 1231              		.loc 1 527 0
 1232 077a 3EE0     		b	.L52
 1233              	.L55:
 528:build/openmote-cc2538_armgcc/openstack/02b-MAChigh/sixtop.c ****     }
 529:build/openmote-cc2538_armgcc/openstack/02b-MAChigh/sixtop.c ****    
 530:build/openmote-cc2538_armgcc/openstack/02b-MAChigh/sixtop.c ****     // toss the header IEs
 531:build/openmote-cc2538_armgcc/openstack/02b-MAChigh/sixtop.c ****     packetfunctions_tossHeader(msg,lenIE);
 1234              		.loc 1 531 0
 1235 077c 7B88     		ldrh	r3, [r7, #2]
 1236 077e DBB2     		uxtb	r3, r3
 1237 0780 7868     		ldr	r0, [r7, #4]
 1238 0782 1946     		mov	r1, r3
 1239 0784 FFF7FEFF 		bl	packetfunctions_tossHeader
 532:build/openmote-cc2538_armgcc/openstack/02b-MAChigh/sixtop.c ****    
 533:build/openmote-cc2538_armgcc/openstack/02b-MAChigh/sixtop.c ****     // update neighbor statistics
 534:build/openmote-cc2538_armgcc/openstack/02b-MAChigh/sixtop.c ****     neighbors_indicateRx(
 1240              		.loc 1 534 0
 1241 0788 7B68     		ldr	r3, [r7, #4]
 1242 078a 03F13800 		add	r0, r3, #56
 1243 078e 7B68     		ldr	r3, [r7, #4]
 1244 0790 93F88910 		ldrb	r1, [r3, #137]	@ zero_extendqisi2
 1245 0794 7B68     		ldr	r3, [r7, #4]
 1246 0796 03F14D02 		add	r2, r3, #77
 1247 079a 7B68     		ldr	r3, [r7, #4]
 1248 079c 93F86730 		ldrb	r3, [r3, #103]	@ zero_extendqisi2
 1249 07a0 7C68     		ldr	r4, [r7, #4]
 1250 07a2 94F86440 		ldrb	r4, [r4, #100]	@ zero_extendqisi2
 1251 07a6 49B2     		sxtb	r1, r1
 1252 07a8 0094     		str	r4, [sp]
 1253 07aa FFF7FEFF 		bl	neighbors_indicateRx
 535:build/openmote-cc2538_armgcc/openstack/02b-MAChigh/sixtop.c ****         &(msg->l2_nextORpreviousHop),
 536:build/openmote-cc2538_armgcc/openstack/02b-MAChigh/sixtop.c ****         msg->l1_rssi,
 537:build/openmote-cc2538_armgcc/openstack/02b-MAChigh/sixtop.c ****         &msg->l2_asn,
 538:build/openmote-cc2538_armgcc/openstack/02b-MAChigh/sixtop.c ****         msg->l2_joinPriorityPresent,
 539:build/openmote-cc2538_armgcc/openstack/02b-MAChigh/sixtop.c ****         msg->l2_joinPriority
 540:build/openmote-cc2538_armgcc/openstack/02b-MAChigh/sixtop.c ****     );
 541:build/openmote-cc2538_armgcc/openstack/02b-MAChigh/sixtop.c ****    
 542:build/openmote-cc2538_armgcc/openstack/02b-MAChigh/sixtop.c ****     // reset it to avoid race conditions with this var.
 543:build/openmote-cc2538_armgcc/openstack/02b-MAChigh/sixtop.c ****     msg->l2_joinPriorityPresent = FALSE; 
 1254              		.loc 1 543 0
 1255 07ae 7B68     		ldr	r3, [r7, #4]
 1256 07b0 0022     		movs	r2, #0
 1257 07b2 83F86720 		strb	r2, [r3, #103]
 544:build/openmote-cc2538_armgcc/openstack/02b-MAChigh/sixtop.c ****    
 545:build/openmote-cc2538_armgcc/openstack/02b-MAChigh/sixtop.c ****     // send the packet up the stack, if it qualifies
 546:build/openmote-cc2538_armgcc/openstack/02b-MAChigh/sixtop.c ****     switch (msg->l2_frameType) {
 1258              		.loc 1 546 0
 1259 07b6 7B68     		ldr	r3, [r7, #4]
 1260 07b8 93F84930 		ldrb	r3, [r3, #73]	@ zero_extendqisi2
 1261 07bc 002B     		cmp	r3, #0
 1262 07be 0FDB     		blt	.L56
 1263 07c0 012B     		cmp	r3, #1
 1264 07c2 01DD     		ble	.L57
 1265 07c4 032B     		cmp	r3, #3
 1266 07c6 0BD1     		bne	.L56
 1267              	.L57:
 547:build/openmote-cc2538_armgcc/openstack/02b-MAChigh/sixtop.c ****     case IEEE154_TYPE_BEACON:
 548:build/openmote-cc2538_armgcc/openstack/02b-MAChigh/sixtop.c ****     case IEEE154_TYPE_DATA:
 549:build/openmote-cc2538_armgcc/openstack/02b-MAChigh/sixtop.c ****     case IEEE154_TYPE_CMD:
 550:build/openmote-cc2538_armgcc/openstack/02b-MAChigh/sixtop.c ****         if (msg->length>0) {
 1268              		.loc 1 550 0
 1269 07c8 7B68     		ldr	r3, [r7, #4]
 1270 07ca 1B7A     		ldrb	r3, [r3, #8]	@ zero_extendqisi2
 1271 07cc 002B     		cmp	r3, #0
 1272 07ce 03D0     		beq	.L58
 551:build/openmote-cc2538_armgcc/openstack/02b-MAChigh/sixtop.c ****             // send to upper layer
 552:build/openmote-cc2538_armgcc/openstack/02b-MAChigh/sixtop.c ****             iphc_receive(msg);
 1273              		.loc 1 552 0
 1274 07d0 7868     		ldr	r0, [r7, #4]
 1275 07d2 FFF7FEFF 		bl	iphc_receive
 553:build/openmote-cc2538_armgcc/openstack/02b-MAChigh/sixtop.c ****         } else {
 554:build/openmote-cc2538_armgcc/openstack/02b-MAChigh/sixtop.c ****             // free up the RAM
 555:build/openmote-cc2538_armgcc/openstack/02b-MAChigh/sixtop.c ****             openqueue_freePacketBuffer(msg);
 556:build/openmote-cc2538_armgcc/openstack/02b-MAChigh/sixtop.c ****         }
 557:build/openmote-cc2538_armgcc/openstack/02b-MAChigh/sixtop.c ****         break;
 1276              		.loc 1 557 0
 1277 07d6 10E0     		b	.L60
 1278              	.L58:
 555:build/openmote-cc2538_armgcc/openstack/02b-MAChigh/sixtop.c ****         }
 1279              		.loc 1 555 0
 1280 07d8 7868     		ldr	r0, [r7, #4]
 1281 07da FFF7FEFF 		bl	openqueue_freePacketBuffer
 1282              		.loc 1 557 0
 1283 07de 0CE0     		b	.L60
 1284              	.L56:
 558:build/openmote-cc2538_armgcc/openstack/02b-MAChigh/sixtop.c ****     case IEEE154_TYPE_ACK:
 559:build/openmote-cc2538_armgcc/openstack/02b-MAChigh/sixtop.c ****     default:
 560:build/openmote-cc2538_armgcc/openstack/02b-MAChigh/sixtop.c ****         // free the packet's RAM memory
 561:build/openmote-cc2538_armgcc/openstack/02b-MAChigh/sixtop.c ****         openqueue_freePacketBuffer(msg);
 1285              		.loc 1 561 0
 1286 07e0 7868     		ldr	r0, [r7, #4]
 1287 07e2 FFF7FEFF 		bl	openqueue_freePacketBuffer
 562:build/openmote-cc2538_armgcc/openstack/02b-MAChigh/sixtop.c ****         // log the error
 563:build/openmote-cc2538_armgcc/openstack/02b-MAChigh/sixtop.c ****         openserial_printError(
 564:build/openmote-cc2538_armgcc/openstack/02b-MAChigh/sixtop.c ****             COMPONENT_SIXTOP,
 565:build/openmote-cc2538_armgcc/openstack/02b-MAChigh/sixtop.c ****             ERR_MSG_UNKNOWN_TYPE,
 566:build/openmote-cc2538_armgcc/openstack/02b-MAChigh/sixtop.c ****             (errorparameter_t)msg->l2_frameType,
 1288              		.loc 1 566 0
 1289 07e6 7B68     		ldr	r3, [r7, #4]
 1290 07e8 93F84930 		ldrb	r3, [r3, #73]	@ zero_extendqisi2
 563:build/openmote-cc2538_armgcc/openstack/02b-MAChigh/sixtop.c ****             COMPONENT_SIXTOP,
 1291              		.loc 1 563 0
 1292 07ec 0C20     		movs	r0, #12
 1293 07ee 3021     		movs	r1, #48
 1294 07f0 1A46     		mov	r2, r3
 1295 07f2 0023     		movs	r3, #0
 1296 07f4 FFF7FEFF 		bl	openserial_printError
 567:build/openmote-cc2538_armgcc/openstack/02b-MAChigh/sixtop.c ****             (errorparameter_t)0
 568:build/openmote-cc2538_armgcc/openstack/02b-MAChigh/sixtop.c ****         );
 569:build/openmote-cc2538_armgcc/openstack/02b-MAChigh/sixtop.c ****         break;
 1297              		.loc 1 569 0
 1298 07f8 00BF     		nop
 1299              	.L60:
 1300              	.L52:
 570:build/openmote-cc2538_armgcc/openstack/02b-MAChigh/sixtop.c ****     }
 571:build/openmote-cc2538_armgcc/openstack/02b-MAChigh/sixtop.c **** }
 1301              		.loc 1 571 0
 1302 07fa 0C37     		adds	r7, r7, #12
 1303 07fc BD46     		mov	sp, r7
 1304              		@ sp needed
 1305 07fe 90BD     		pop	{r4, r7, pc}
 1306              		.cfi_endproc
 1307              	.LFE8:
 1309              		.align	2
 1310              		.global	debugPrint_myDAGrank
 1311              		.thumb
 1312              		.thumb_func
 1314              	debugPrint_myDAGrank:
 1315              	.LFB9:
 572:build/openmote-cc2538_armgcc/openstack/02b-MAChigh/sixtop.c **** 
 573:build/openmote-cc2538_armgcc/openstack/02b-MAChigh/sixtop.c **** //======= debugging
 574:build/openmote-cc2538_armgcc/openstack/02b-MAChigh/sixtop.c **** 
 575:build/openmote-cc2538_armgcc/openstack/02b-MAChigh/sixtop.c **** /**
 576:build/openmote-cc2538_armgcc/openstack/02b-MAChigh/sixtop.c **** \brief Trigger this module to print status information, over serial.
 577:build/openmote-cc2538_armgcc/openstack/02b-MAChigh/sixtop.c **** 
 578:build/openmote-cc2538_armgcc/openstack/02b-MAChigh/sixtop.c **** debugPrint_* functions are used by the openserial module to continuously print
 579:build/openmote-cc2538_armgcc/openstack/02b-MAChigh/sixtop.c **** status information about several modules in the OpenWSN stack.
 580:build/openmote-cc2538_armgcc/openstack/02b-MAChigh/sixtop.c **** 
 581:build/openmote-cc2538_armgcc/openstack/02b-MAChigh/sixtop.c **** \returns TRUE if this function printed something, FALSE otherwise.
 582:build/openmote-cc2538_armgcc/openstack/02b-MAChigh/sixtop.c **** */
 583:build/openmote-cc2538_armgcc/openstack/02b-MAChigh/sixtop.c **** bool debugPrint_myDAGrank() {
 1316              		.loc 1 583 0
 1317              		.cfi_startproc
 1318              		@ args = 0, pretend = 0, frame = 8
 1319              		@ frame_needed = 1, uses_anonymous_args = 0
 1320 0800 80B5     		push	{r7, lr}
 1321              		.cfi_def_cfa_offset 8
 1322              		.cfi_offset 7, -8
 1323              		.cfi_offset 14, -4
 1324 0802 82B0     		sub	sp, sp, #8
 1325              		.cfi_def_cfa_offset 16
 1326 0804 00AF     		add	r7, sp, #0
 1327              		.cfi_def_cfa_register 7
 584:build/openmote-cc2538_armgcc/openstack/02b-MAChigh/sixtop.c ****    uint16_t output;
 585:build/openmote-cc2538_armgcc/openstack/02b-MAChigh/sixtop.c ****    
 586:build/openmote-cc2538_armgcc/openstack/02b-MAChigh/sixtop.c ****    output = 0;
 1328              		.loc 1 586 0
 1329 0806 0023     		movs	r3, #0
 1330 0808 FB80     		strh	r3, [r7, #6]	@ movhi
 587:build/openmote-cc2538_armgcc/openstack/02b-MAChigh/sixtop.c ****    
 588:build/openmote-cc2538_armgcc/openstack/02b-MAChigh/sixtop.c ****    output = icmpv6rpl_getMyDAGrank();
 1331              		.loc 1 588 0
 1332 080a FFF7FEFF 		bl	icmpv6rpl_getMyDAGrank
 1333 080e 0346     		mov	r3, r0
 1334 0810 FB80     		strh	r3, [r7, #6]	@ movhi
 589:build/openmote-cc2538_armgcc/openstack/02b-MAChigh/sixtop.c ****    openserial_printStatus(STATUS_DAGRANK,(uint8_t*)&output,sizeof(uint16_t));
 1335              		.loc 1 589 0
 1336 0812 BB1D     		adds	r3, r7, #6
 1337 0814 0220     		movs	r0, #2
 1338 0816 1946     		mov	r1, r3
 1339 0818 0222     		movs	r2, #2
 1340 081a FFF7FEFF 		bl	openserial_printStatus
 590:build/openmote-cc2538_armgcc/openstack/02b-MAChigh/sixtop.c ****    return TRUE;
 1341              		.loc 1 590 0
 1342 081e 0123     		movs	r3, #1
 591:build/openmote-cc2538_armgcc/openstack/02b-MAChigh/sixtop.c **** }
 1343              		.loc 1 591 0
 1344 0820 1846     		mov	r0, r3
 1345 0822 0837     		adds	r7, r7, #8
 1346 0824 BD46     		mov	sp, r7
 1347              		@ sp needed
 1348 0826 80BD     		pop	{r7, pc}
 1349              		.cfi_endproc
 1350              	.LFE9:
 1352              		.align	2
 1353              		.global	debugPrint_kaPeriod
 1354              		.thumb
 1355              		.thumb_func
 1357              	debugPrint_kaPeriod:
 1358              	.LFB10:
 592:build/openmote-cc2538_armgcc/openstack/02b-MAChigh/sixtop.c **** 
 593:build/openmote-cc2538_armgcc/openstack/02b-MAChigh/sixtop.c **** /**
 594:build/openmote-cc2538_armgcc/openstack/02b-MAChigh/sixtop.c **** \brief Trigger this module to print status information, over serial.
 595:build/openmote-cc2538_armgcc/openstack/02b-MAChigh/sixtop.c **** 
 596:build/openmote-cc2538_armgcc/openstack/02b-MAChigh/sixtop.c **** debugPrint_* functions are used by the openserial module to continuously print
 597:build/openmote-cc2538_armgcc/openstack/02b-MAChigh/sixtop.c **** status information about several modules in the OpenWSN stack.
 598:build/openmote-cc2538_armgcc/openstack/02b-MAChigh/sixtop.c **** 
 599:build/openmote-cc2538_armgcc/openstack/02b-MAChigh/sixtop.c **** \returns TRUE if this function printed something, FALSE otherwise.
 600:build/openmote-cc2538_armgcc/openstack/02b-MAChigh/sixtop.c **** */
 601:build/openmote-cc2538_armgcc/openstack/02b-MAChigh/sixtop.c **** bool debugPrint_kaPeriod() {
 1359              		.loc 1 601 0
 1360              		.cfi_startproc
 1361              		@ args = 0, pretend = 0, frame = 8
 1362              		@ frame_needed = 1, uses_anonymous_args = 0
 1363 0828 80B5     		push	{r7, lr}
 1364              		.cfi_def_cfa_offset 8
 1365              		.cfi_offset 7, -8
 1366              		.cfi_offset 14, -4
 1367 082a 82B0     		sub	sp, sp, #8
 1368              		.cfi_def_cfa_offset 16
 1369 082c 00AF     		add	r7, sp, #0
 1370              		.cfi_def_cfa_register 7
 602:build/openmote-cc2538_armgcc/openstack/02b-MAChigh/sixtop.c ****    uint16_t output;
 603:build/openmote-cc2538_armgcc/openstack/02b-MAChigh/sixtop.c ****    
 604:build/openmote-cc2538_armgcc/openstack/02b-MAChigh/sixtop.c ****    output = sixtop_vars.kaPeriod;
 1371              		.loc 1 604 0
 1372 082e 40F20003 		movw	r3, #:lower16:sixtop_vars
 1373 0832 C0F20003 		movt	r3, #:upper16:sixtop_vars
 1374 0836 5B89     		ldrh	r3, [r3, #10]
 1375 0838 FB80     		strh	r3, [r7, #6]	@ movhi
 605:build/openmote-cc2538_armgcc/openstack/02b-MAChigh/sixtop.c ****    
 606:build/openmote-cc2538_armgcc/openstack/02b-MAChigh/sixtop.c ****    openserial_printStatus(
 1376              		.loc 1 606 0
 1377 083a BB1D     		adds	r3, r7, #6
 1378 083c 0A20     		movs	r0, #10
 1379 083e 1946     		mov	r1, r3
 1380 0840 0222     		movs	r2, #2
 1381 0842 FFF7FEFF 		bl	openserial_printStatus
 607:build/openmote-cc2538_armgcc/openstack/02b-MAChigh/sixtop.c ****        STATUS_KAPERIOD,
 608:build/openmote-cc2538_armgcc/openstack/02b-MAChigh/sixtop.c ****        (uint8_t*)&output,
 609:build/openmote-cc2538_armgcc/openstack/02b-MAChigh/sixtop.c ****        sizeof(output)
 610:build/openmote-cc2538_armgcc/openstack/02b-MAChigh/sixtop.c ****    );
 611:build/openmote-cc2538_armgcc/openstack/02b-MAChigh/sixtop.c ****    return TRUE;
 1382              		.loc 1 611 0
 1383 0846 0123     		movs	r3, #1
 612:build/openmote-cc2538_armgcc/openstack/02b-MAChigh/sixtop.c **** }
 1384              		.loc 1 612 0
 1385 0848 1846     		mov	r0, r3
 1386 084a 0837     		adds	r7, r7, #8
 1387 084c BD46     		mov	sp, r7
 1388              		@ sp needed
 1389 084e 80BD     		pop	{r7, pc}
 1390              		.cfi_endproc
 1391              	.LFE10:
 1393              		.align	2
 1394              		.global	sixtop_setIsResponseEnabled
 1395              		.thumb
 1396              		.thumb_func
 1398              	sixtop_setIsResponseEnabled:
 1399              	.LFB11:
 613:build/openmote-cc2538_armgcc/openstack/02b-MAChigh/sixtop.c **** 
 614:build/openmote-cc2538_armgcc/openstack/02b-MAChigh/sixtop.c **** void sixtop_setIsResponseEnabled(bool isEnabled){
 1400              		.loc 1 614 0
 1401              		.cfi_startproc
 1402              		@ args = 0, pretend = 0, frame = 8
 1403              		@ frame_needed = 1, uses_anonymous_args = 0
 1404              		@ link register save eliminated.
 1405 0850 80B4     		push	{r7}
 1406              		.cfi_def_cfa_offset 4
 1407              		.cfi_offset 7, -4
 1408 0852 83B0     		sub	sp, sp, #12
 1409              		.cfi_def_cfa_offset 16
 1410 0854 00AF     		add	r7, sp, #0
 1411              		.cfi_def_cfa_register 7
 1412 0856 0346     		mov	r3, r0
 1413 0858 FB71     		strb	r3, [r7, #7]
 615:build/openmote-cc2538_armgcc/openstack/02b-MAChigh/sixtop.c ****     sixtop_vars.isResponseEnabled = isEnabled;
 1414              		.loc 1 615 0
 1415 085a 40F20003 		movw	r3, #:lower16:sixtop_vars
 1416 085e C0F20003 		movt	r3, #:upper16:sixtop_vars
 1417 0862 FA79     		ldrb	r2, [r7, #7]
 1418 0864 5A74     		strb	r2, [r3, #17]
 616:build/openmote-cc2538_armgcc/openstack/02b-MAChigh/sixtop.c **** }
 1419              		.loc 1 616 0
 1420 0866 0C37     		adds	r7, r7, #12
 1421 0868 BD46     		mov	sp, r7
 1422              		@ sp needed
 1423 086a 5DF8047B 		ldr	r7, [sp], #4
 1424 086e 7047     		bx	lr
 1425              		.cfi_endproc
 1426              	.LFE11:
 1428              		.align	2
 1429              		.global	sixtop_send_internal
 1430              		.thumb
 1431              		.thumb_func
 1433              	sixtop_send_internal:
 1434              	.LFB12:
 617:build/openmote-cc2538_armgcc/openstack/02b-MAChigh/sixtop.c **** 
 618:build/openmote-cc2538_armgcc/openstack/02b-MAChigh/sixtop.c **** //=========================== private =========================================
 619:build/openmote-cc2538_armgcc/openstack/02b-MAChigh/sixtop.c **** 
 620:build/openmote-cc2538_armgcc/openstack/02b-MAChigh/sixtop.c **** /**
 621:build/openmote-cc2538_armgcc/openstack/02b-MAChigh/sixtop.c **** \brief Transfer packet to MAC.
 622:build/openmote-cc2538_armgcc/openstack/02b-MAChigh/sixtop.c **** 
 623:build/openmote-cc2538_armgcc/openstack/02b-MAChigh/sixtop.c **** This function adds a IEEE802.15.4 header to the packet and leaves it the 
 624:build/openmote-cc2538_armgcc/openstack/02b-MAChigh/sixtop.c **** OpenQueue buffer. The very last thing it does is assigning this packet to the 
 625:build/openmote-cc2538_armgcc/openstack/02b-MAChigh/sixtop.c **** virtual component COMPONENT_SIXTOP_TO_IEEE802154E. Whenever it gets a change,
 626:build/openmote-cc2538_armgcc/openstack/02b-MAChigh/sixtop.c **** IEEE802154E will handle the packet.
 627:build/openmote-cc2538_armgcc/openstack/02b-MAChigh/sixtop.c **** 
 628:build/openmote-cc2538_armgcc/openstack/02b-MAChigh/sixtop.c **** \param[in] msg The packet to the transmitted
 629:build/openmote-cc2538_armgcc/openstack/02b-MAChigh/sixtop.c **** \param[in] payloadIEPresent Indicates wheter an Information Element is present in the
 630:build/openmote-cc2538_armgcc/openstack/02b-MAChigh/sixtop.c ****    packet.
 631:build/openmote-cc2538_armgcc/openstack/02b-MAChigh/sixtop.c **** 
 632:build/openmote-cc2538_armgcc/openstack/02b-MAChigh/sixtop.c **** \returns E_SUCCESS iff successful.
 633:build/openmote-cc2538_armgcc/openstack/02b-MAChigh/sixtop.c **** */
 634:build/openmote-cc2538_armgcc/openstack/02b-MAChigh/sixtop.c **** owerror_t sixtop_send_internal(
 635:build/openmote-cc2538_armgcc/openstack/02b-MAChigh/sixtop.c ****    OpenQueueEntry_t* msg, 
 636:build/openmote-cc2538_armgcc/openstack/02b-MAChigh/sixtop.c ****    bool    payloadIEPresent) {
 1435              		.loc 1 636 0
 1436              		.cfi_startproc
 1437              		@ args = 0, pretend = 0, frame = 8
 1438              		@ frame_needed = 1, uses_anonymous_args = 0
 1439 0870 80B5     		push	{r7, lr}
 1440              		.cfi_def_cfa_offset 8
 1441              		.cfi_offset 7, -8
 1442              		.cfi_offset 14, -4
 1443 0872 84B0     		sub	sp, sp, #16
 1444              		.cfi_def_cfa_offset 24
 1445 0874 02AF     		add	r7, sp, #8
 1446              		.cfi_def_cfa 7, 16
 1447 0876 7860     		str	r0, [r7, #4]
 1448 0878 0B46     		mov	r3, r1
 1449 087a FB70     		strb	r3, [r7, #3]
 637:build/openmote-cc2538_armgcc/openstack/02b-MAChigh/sixtop.c **** 
 638:build/openmote-cc2538_armgcc/openstack/02b-MAChigh/sixtop.c ****    // assign a number of retries
 639:build/openmote-cc2538_armgcc/openstack/02b-MAChigh/sixtop.c ****    if (
 640:build/openmote-cc2538_armgcc/openstack/02b-MAChigh/sixtop.c ****       packetfunctions_isBroadcastMulticast(&(msg->l2_nextORpreviousHop))==TRUE
 1450              		.loc 1 640 0
 1451 087c 7B68     		ldr	r3, [r7, #4]
 1452 087e 3833     		adds	r3, r3, #56
 1453 0880 1846     		mov	r0, r3
 1454 0882 FFF7FEFF 		bl	packetfunctions_isBroadcastMulticast
 1455 0886 0346     		mov	r3, r0
 639:build/openmote-cc2538_armgcc/openstack/02b-MAChigh/sixtop.c ****       packetfunctions_isBroadcastMulticast(&(msg->l2_nextORpreviousHop))==TRUE
 1456              		.loc 1 639 0
 1457 0888 002B     		cmp	r3, #0
 1458 088a 04D0     		beq	.L68
 641:build/openmote-cc2538_armgcc/openstack/02b-MAChigh/sixtop.c ****       ) {
 642:build/openmote-cc2538_armgcc/openstack/02b-MAChigh/sixtop.c ****       msg->l2_retriesLeft = 1;
 1459              		.loc 1 642 0
 1460 088c 7B68     		ldr	r3, [r7, #4]
 1461 088e 0122     		movs	r2, #1
 1462 0890 83F84B20 		strb	r2, [r3, #75]
 1463 0894 03E0     		b	.L69
 1464              	.L68:
 643:build/openmote-cc2538_armgcc/openstack/02b-MAChigh/sixtop.c ****    } else {
 644:build/openmote-cc2538_armgcc/openstack/02b-MAChigh/sixtop.c ****       msg->l2_retriesLeft = TXRETRIES + 1;
 1465              		.loc 1 644 0
 1466 0896 7B68     		ldr	r3, [r7, #4]
 1467 0898 0422     		movs	r2, #4
 1468 089a 83F84B20 		strb	r2, [r3, #75]
 1469              	.L69:
 645:build/openmote-cc2538_armgcc/openstack/02b-MAChigh/sixtop.c ****    }
 646:build/openmote-cc2538_armgcc/openstack/02b-MAChigh/sixtop.c ****    // record this packet's dsn (for matching the ACK)
 647:build/openmote-cc2538_armgcc/openstack/02b-MAChigh/sixtop.c ****    msg->l2_dsn = sixtop_vars.dsn++;
 1470              		.loc 1 647 0
 1471 089e 40F20003 		movw	r3, #:lower16:sixtop_vars
 1472 08a2 C0F20003 		movt	r3, #:upper16:sixtop_vars
 1473 08a6 1A79     		ldrb	r2, [r3, #4]	@ zero_extendqisi2
 1474 08a8 531C     		adds	r3, r2, #1
 1475 08aa D9B2     		uxtb	r1, r3
 1476 08ac 40F20003 		movw	r3, #:lower16:sixtop_vars
 1477 08b0 C0F20003 		movt	r3, #:upper16:sixtop_vars
 1478 08b4 1971     		strb	r1, [r3, #4]
 1479 08b6 7B68     		ldr	r3, [r7, #4]
 1480 08b8 83F84A20 		strb	r2, [r3, #74]
 648:build/openmote-cc2538_armgcc/openstack/02b-MAChigh/sixtop.c ****    // this is a new packet which I never attempted to send
 649:build/openmote-cc2538_armgcc/openstack/02b-MAChigh/sixtop.c ****    msg->l2_numTxAttempts = 0;
 1481              		.loc 1 649 0
 1482 08bc 7B68     		ldr	r3, [r7, #4]
 1483 08be 0022     		movs	r2, #0
 1484 08c0 83F84C20 		strb	r2, [r3, #76]
 650:build/openmote-cc2538_armgcc/openstack/02b-MAChigh/sixtop.c ****    // transmit with the default TX power
 651:build/openmote-cc2538_armgcc/openstack/02b-MAChigh/sixtop.c ****    msg->l1_txPower = TX_POWER;
 1485              		.loc 1 651 0
 1486 08c4 7B68     		ldr	r3, [r7, #4]
 1487 08c6 1F22     		movs	r2, #31
 1488 08c8 83F88820 		strb	r2, [r3, #136]
 652:build/openmote-cc2538_armgcc/openstack/02b-MAChigh/sixtop.c ****    // add a IEEE802.15.4 header
 653:build/openmote-cc2538_armgcc/openstack/02b-MAChigh/sixtop.c ****    ieee802154_prependHeader(msg,
 1489              		.loc 1 653 0
 1490 08cc 7B68     		ldr	r3, [r7, #4]
 1491 08ce 93F84910 		ldrb	r1, [r3, #73]	@ zero_extendqisi2
 1492 08d2 7B68     		ldr	r3, [r7, #4]
 1493 08d4 93F84A30 		ldrb	r3, [r3, #74]	@ zero_extendqisi2
 1494 08d8 7A68     		ldr	r2, [r7, #4]
 1495 08da 02F13800 		add	r0, r2, #56
 1496 08de FA78     		ldrb	r2, [r7, #3]	@ zero_extendqisi2
 1497 08e0 0090     		str	r0, [sp]
 1498 08e2 7868     		ldr	r0, [r7, #4]
 1499 08e4 FFF7FEFF 		bl	ieee802154_prependHeader
 654:build/openmote-cc2538_armgcc/openstack/02b-MAChigh/sixtop.c ****                             msg->l2_frameType,
 655:build/openmote-cc2538_armgcc/openstack/02b-MAChigh/sixtop.c ****                             payloadIEPresent,
 656:build/openmote-cc2538_armgcc/openstack/02b-MAChigh/sixtop.c ****                             msg->l2_dsn,
 657:build/openmote-cc2538_armgcc/openstack/02b-MAChigh/sixtop.c ****                             &(msg->l2_nextORpreviousHop)
 658:build/openmote-cc2538_armgcc/openstack/02b-MAChigh/sixtop.c ****                             );
 659:build/openmote-cc2538_armgcc/openstack/02b-MAChigh/sixtop.c ****    // change owner to IEEE802154E fetches it from queue
 660:build/openmote-cc2538_armgcc/openstack/02b-MAChigh/sixtop.c ****    msg->owner  = COMPONENT_SIXTOP_TO_IEEE802154E;
 1500              		.loc 1 660 0
 1501 08e8 7B68     		ldr	r3, [r7, #4]
 1502 08ea 0A22     		movs	r2, #10
 1503 08ec 5A70     		strb	r2, [r3, #1]
 661:build/openmote-cc2538_armgcc/openstack/02b-MAChigh/sixtop.c ****    return E_SUCCESS;
 1504              		.loc 1 661 0
 1505 08ee 0023     		movs	r3, #0
 662:build/openmote-cc2538_armgcc/openstack/02b-MAChigh/sixtop.c **** }
 1506              		.loc 1 662 0
 1507 08f0 1846     		mov	r0, r3
 1508 08f2 0837     		adds	r7, r7, #8
 1509 08f4 BD46     		mov	sp, r7
 1510              		@ sp needed
 1511 08f6 80BD     		pop	{r7, pc}
 1512              		.cfi_endproc
 1513              	.LFE12:
 1515              		.align	2
 1516              		.global	sixtop_sendingEb_timer_cb
 1517              		.thumb
 1518              		.thumb_func
 1520              	sixtop_sendingEb_timer_cb:
 1521              	.LFB13:
 663:build/openmote-cc2538_armgcc/openstack/02b-MAChigh/sixtop.c **** 
 664:build/openmote-cc2538_armgcc/openstack/02b-MAChigh/sixtop.c **** // timer interrupt callbacks
 665:build/openmote-cc2538_armgcc/openstack/02b-MAChigh/sixtop.c **** void sixtop_sendingEb_timer_cb(opentimer_id_t id){
 1522              		.loc 1 665 0
 1523              		.cfi_startproc
 1524              		@ args = 0, pretend = 0, frame = 8
 1525              		@ frame_needed = 1, uses_anonymous_args = 0
 1526 08f8 80B5     		push	{r7, lr}
 1527              		.cfi_def_cfa_offset 8
 1528              		.cfi_offset 7, -8
 1529              		.cfi_offset 14, -4
 1530 08fa 82B0     		sub	sp, sp, #8
 1531              		.cfi_def_cfa_offset 16
 1532 08fc 00AF     		add	r7, sp, #0
 1533              		.cfi_def_cfa_register 7
 1534 08fe 0346     		mov	r3, r0
 1535 0900 FB71     		strb	r3, [r7, #7]
 666:build/openmote-cc2538_armgcc/openstack/02b-MAChigh/sixtop.c ****    scheduler_push_task(timer_sixtop_sendEb_fired,TASKPRIO_SIXTOP);
 1536              		.loc 1 666 0
 1537 0902 40F20000 		movw	r0, #:lower16:timer_sixtop_sendEb_fired
 1538 0906 C0F20000 		movt	r0, #:upper16:timer_sixtop_sendEb_fired
 1539 090a 0321     		movs	r1, #3
 1540 090c FFF7FEFF 		bl	scheduler_push_task
 667:build/openmote-cc2538_armgcc/openstack/02b-MAChigh/sixtop.c **** }
 1541              		.loc 1 667 0
 1542 0910 0837     		adds	r7, r7, #8
 1543 0912 BD46     		mov	sp, r7
 1544              		@ sp needed
 1545 0914 80BD     		pop	{r7, pc}
 1546              		.cfi_endproc
 1547              	.LFE13:
 1549 0916 00BF     		.align	2
 1550              		.global	sixtop_maintenance_timer_cb
 1551              		.thumb
 1552              		.thumb_func
 1554              	sixtop_maintenance_timer_cb:
 1555              	.LFB14:
 668:build/openmote-cc2538_armgcc/openstack/02b-MAChigh/sixtop.c **** 
 669:build/openmote-cc2538_armgcc/openstack/02b-MAChigh/sixtop.c **** void sixtop_maintenance_timer_cb(opentimer_id_t id) {
 1556              		.loc 1 669 0
 1557              		.cfi_startproc
 1558              		@ args = 0, pretend = 0, frame = 8
 1559              		@ frame_needed = 1, uses_anonymous_args = 0
 1560 0918 80B5     		push	{r7, lr}
 1561              		.cfi_def_cfa_offset 8
 1562              		.cfi_offset 7, -8
 1563              		.cfi_offset 14, -4
 1564 091a 82B0     		sub	sp, sp, #8
 1565              		.cfi_def_cfa_offset 16
 1566 091c 00AF     		add	r7, sp, #0
 1567              		.cfi_def_cfa_register 7
 1568 091e 0346     		mov	r3, r0
 1569 0920 FB71     		strb	r3, [r7, #7]
 670:build/openmote-cc2538_armgcc/openstack/02b-MAChigh/sixtop.c ****    scheduler_push_task(timer_sixtop_management_fired,TASKPRIO_SIXTOP);
 1570              		.loc 1 670 0
 1571 0922 40F20000 		movw	r0, #:lower16:timer_sixtop_management_fired
 1572 0926 C0F20000 		movt	r0, #:upper16:timer_sixtop_management_fired
 1573 092a 0321     		movs	r1, #3
 1574 092c FFF7FEFF 		bl	scheduler_push_task
 671:build/openmote-cc2538_armgcc/openstack/02b-MAChigh/sixtop.c **** }
 1575              		.loc 1 671 0
 1576 0930 0837     		adds	r7, r7, #8
 1577 0932 BD46     		mov	sp, r7
 1578              		@ sp needed
 1579 0934 80BD     		pop	{r7, pc}
 1580              		.cfi_endproc
 1581              	.LFE14:
 1583 0936 00BF     		.align	2
 1584              		.global	sixtop_timeout_timer_cb
 1585              		.thumb
 1586              		.thumb_func
 1588              	sixtop_timeout_timer_cb:
 1589              	.LFB15:
 672:build/openmote-cc2538_armgcc/openstack/02b-MAChigh/sixtop.c **** 
 673:build/openmote-cc2538_armgcc/openstack/02b-MAChigh/sixtop.c **** void sixtop_timeout_timer_cb(opentimer_id_t id) {
 1590              		.loc 1 673 0
 1591              		.cfi_startproc
 1592              		@ args = 0, pretend = 0, frame = 8
 1593              		@ frame_needed = 1, uses_anonymous_args = 0
 1594 0938 80B5     		push	{r7, lr}
 1595              		.cfi_def_cfa_offset 8
 1596              		.cfi_offset 7, -8
 1597              		.cfi_offset 14, -4
 1598 093a 82B0     		sub	sp, sp, #8
 1599              		.cfi_def_cfa_offset 16
 1600 093c 00AF     		add	r7, sp, #0
 1601              		.cfi_def_cfa_register 7
 1602 093e 0346     		mov	r3, r0
 1603 0940 FB71     		strb	r3, [r7, #7]
 674:build/openmote-cc2538_armgcc/openstack/02b-MAChigh/sixtop.c ****    scheduler_push_task(timer_sixtop_six2six_timeout_fired,TASKPRIO_SIXTOP_TIMEOUT);
 1604              		.loc 1 674 0
 1605 0942 40F20000 		movw	r0, #:lower16:timer_sixtop_six2six_timeout_fired
 1606 0946 C0F20000 		movt	r0, #:upper16:timer_sixtop_six2six_timeout_fired
 1607 094a 0A21     		movs	r1, #10
 1608 094c FFF7FEFF 		bl	scheduler_push_task
 675:build/openmote-cc2538_armgcc/openstack/02b-MAChigh/sixtop.c **** }
 1609              		.loc 1 675 0
 1610 0950 0837     		adds	r7, r7, #8
 1611 0952 BD46     		mov	sp, r7
 1612              		@ sp needed
 1613 0954 80BD     		pop	{r7, pc}
 1614              		.cfi_endproc
 1615              	.LFE15:
 1617 0956 00BF     		.align	2
 1618              		.global	timer_sixtop_sendEb_fired
 1619              		.thumb
 1620              		.thumb_func
 1622              	timer_sixtop_sendEb_fired:
 1623              	.LFB16:
 676:build/openmote-cc2538_armgcc/openstack/02b-MAChigh/sixtop.c **** 
 677:build/openmote-cc2538_armgcc/openstack/02b-MAChigh/sixtop.c **** //======= EB/KA task
 678:build/openmote-cc2538_armgcc/openstack/02b-MAChigh/sixtop.c **** 
 679:build/openmote-cc2538_armgcc/openstack/02b-MAChigh/sixtop.c **** void timer_sixtop_sendEb_fired(){
 1624              		.loc 1 679 0
 1625              		.cfi_startproc
 1626              		@ args = 0, pretend = 0, frame = 0
 1627              		@ frame_needed = 1, uses_anonymous_args = 0
 1628 0958 80B5     		push	{r7, lr}
 1629              		.cfi_def_cfa_offset 8
 1630              		.cfi_offset 7, -8
 1631              		.cfi_offset 14, -4
 1632 095a 00AF     		add	r7, sp, #0
 1633              		.cfi_def_cfa_register 7
 680:build/openmote-cc2538_armgcc/openstack/02b-MAChigh/sixtop.c ****     sixtop_sendEB();
 1634              		.loc 1 680 0
 1635 095c FFF7FEFF 		bl	sixtop_sendEB
 681:build/openmote-cc2538_armgcc/openstack/02b-MAChigh/sixtop.c **** }
 1636              		.loc 1 681 0
 1637 0960 80BD     		pop	{r7, pc}
 1638              		.cfi_endproc
 1639              	.LFE16:
 1641 0962 00BF     		.align	2
 1642              		.global	timer_sixtop_management_fired
 1643              		.thumb
 1644              		.thumb_func
 1646              	timer_sixtop_management_fired:
 1647              	.LFB17:
 682:build/openmote-cc2538_armgcc/openstack/02b-MAChigh/sixtop.c **** 
 683:build/openmote-cc2538_armgcc/openstack/02b-MAChigh/sixtop.c **** /**
 684:build/openmote-cc2538_armgcc/openstack/02b-MAChigh/sixtop.c **** \brief Timer handlers which triggers MAC management task.
 685:build/openmote-cc2538_armgcc/openstack/02b-MAChigh/sixtop.c **** 
 686:build/openmote-cc2538_armgcc/openstack/02b-MAChigh/sixtop.c **** This function is called in task context by the scheduler after the RES timer
 687:build/openmote-cc2538_armgcc/openstack/02b-MAChigh/sixtop.c **** has fired. This timer is set to fire every second, on average.
 688:build/openmote-cc2538_armgcc/openstack/02b-MAChigh/sixtop.c **** 
 689:build/openmote-cc2538_armgcc/openstack/02b-MAChigh/sixtop.c **** The body of this function executes one of the MAC management task.
 690:build/openmote-cc2538_armgcc/openstack/02b-MAChigh/sixtop.c **** */
 691:build/openmote-cc2538_armgcc/openstack/02b-MAChigh/sixtop.c **** void timer_sixtop_management_fired(void) {
 1648              		.loc 1 691 0
 1649              		.cfi_startproc
 1650              		@ args = 0, pretend = 0, frame = 0
 1651              		@ frame_needed = 1, uses_anonymous_args = 0
 1652 0964 80B5     		push	{r7, lr}
 1653              		.cfi_def_cfa_offset 8
 1654              		.cfi_offset 7, -8
 1655              		.cfi_offset 14, -4
 1656 0966 00AF     		add	r7, sp, #0
 1657              		.cfi_def_cfa_register 7
 692:build/openmote-cc2538_armgcc/openstack/02b-MAChigh/sixtop.c ****    
 693:build/openmote-cc2538_armgcc/openstack/02b-MAChigh/sixtop.c ****    sixtop_vars.mgtTaskCounter = (sixtop_vars.mgtTaskCounter+1)%MAINTENANCE_PERIOD;
 1658              		.loc 1 693 0
 1659 0968 40F20003 		movw	r3, #:lower16:sixtop_vars
 1660 096c C0F20003 		movt	r3, #:upper16:sixtop_vars
 1661 0970 5B79     		ldrb	r3, [r3, #5]	@ zero_extendqisi2
 1662 0972 591C     		adds	r1, r3, #1
 1663 0974 48F68903 		movw	r3, #34953
 1664 0978 C8F68803 		movt	r3, 34952
 1665 097c 83FB0123 		smull	r2, r3, r3, r1
 1666 0980 0B44     		add	r3, r3, r1
 1667 0982 1A11     		asrs	r2, r3, #4
 1668 0984 CB17     		asrs	r3, r1, #31
 1669 0986 D21A     		subs	r2, r2, r3
 1670 0988 1346     		mov	r3, r2
 1671 098a 1B01     		lsls	r3, r3, #4
 1672 098c 9B1A     		subs	r3, r3, r2
 1673 098e 5B00     		lsls	r3, r3, #1
 1674 0990 CA1A     		subs	r2, r1, r3
 1675 0992 D2B2     		uxtb	r2, r2
 1676 0994 40F20003 		movw	r3, #:lower16:sixtop_vars
 1677 0998 C0F20003 		movt	r3, #:upper16:sixtop_vars
 1678 099c 5A71     		strb	r2, [r3, #5]
 694:build/openmote-cc2538_armgcc/openstack/02b-MAChigh/sixtop.c ****    
 695:build/openmote-cc2538_armgcc/openstack/02b-MAChigh/sixtop.c ****    switch (sixtop_vars.mgtTaskCounter) {
 1679              		.loc 1 695 0
 1680 099e 40F20003 		movw	r3, #:lower16:sixtop_vars
 1681 09a2 C0F20003 		movt	r3, #:upper16:sixtop_vars
 1682 09a6 5B79     		ldrb	r3, [r3, #5]	@ zero_extendqisi2
 1683 09a8 002B     		cmp	r3, #0
 1684 09aa 04D1     		bne	.L79
 696:build/openmote-cc2538_armgcc/openstack/02b-MAChigh/sixtop.c ****       case 0:
 697:build/openmote-cc2538_armgcc/openstack/02b-MAChigh/sixtop.c ****          // called every MAINTENANCE_PERIOD seconds
 698:build/openmote-cc2538_armgcc/openstack/02b-MAChigh/sixtop.c ****          neighbors_removeOld();
 1685              		.loc 1 698 0
 1686 09ac FFF7FEFF 		bl	neighbors_removeOld
 699:build/openmote-cc2538_armgcc/openstack/02b-MAChigh/sixtop.c ****          schedule_housekeeping();
 1687              		.loc 1 699 0
 1688 09b0 FFF7FEFF 		bl	schedule_housekeeping
 700:build/openmote-cc2538_armgcc/openstack/02b-MAChigh/sixtop.c ****          break;
 1689              		.loc 1 700 0
 1690 09b4 02E0     		b	.L75
 1691              	.L79:
 701:build/openmote-cc2538_armgcc/openstack/02b-MAChigh/sixtop.c ****       default:
 702:build/openmote-cc2538_armgcc/openstack/02b-MAChigh/sixtop.c ****          // called every second, except once every MAINTENANCE_PERIOD seconds
 703:build/openmote-cc2538_armgcc/openstack/02b-MAChigh/sixtop.c ****          sixtop_sendKA();
 1692              		.loc 1 703 0
 1693 09b6 FFF7FEFF 		bl	sixtop_sendKA
 704:build/openmote-cc2538_armgcc/openstack/02b-MAChigh/sixtop.c ****          break;
 1694              		.loc 1 704 0
 1695 09ba 00BF     		nop
 1696              	.L75:
 705:build/openmote-cc2538_armgcc/openstack/02b-MAChigh/sixtop.c ****    }
 706:build/openmote-cc2538_armgcc/openstack/02b-MAChigh/sixtop.c **** }
 1697              		.loc 1 706 0
 1698 09bc 80BD     		pop	{r7, pc}
 1699              		.cfi_endproc
 1700              	.LFE17:
 1702 09be 00BF     		.align	2
 1703              		.global	sixtop_sendEB
 1704              		.thumb
 1705              		.thumb_func
 1707              	sixtop_sendEB:
 1708              	.LFB18:
 707:build/openmote-cc2538_armgcc/openstack/02b-MAChigh/sixtop.c **** 
 708:build/openmote-cc2538_armgcc/openstack/02b-MAChigh/sixtop.c **** /**
 709:build/openmote-cc2538_armgcc/openstack/02b-MAChigh/sixtop.c **** \brief Send an EB.
 710:build/openmote-cc2538_armgcc/openstack/02b-MAChigh/sixtop.c **** 
 711:build/openmote-cc2538_armgcc/openstack/02b-MAChigh/sixtop.c **** This is one of the MAC management tasks. This function inlines in the
 712:build/openmote-cc2538_armgcc/openstack/02b-MAChigh/sixtop.c **** timers_res_fired() function, but is declared as a separate function for better
 713:build/openmote-cc2538_armgcc/openstack/02b-MAChigh/sixtop.c **** readability of the code.
 714:build/openmote-cc2538_armgcc/openstack/02b-MAChigh/sixtop.c **** */
 715:build/openmote-cc2538_armgcc/openstack/02b-MAChigh/sixtop.c **** port_INLINE void sixtop_sendEB() {
 1709              		.loc 1 715 0
 1710              		.cfi_startproc
 1711              		@ args = 0, pretend = 0, frame = 8
 1712              		@ frame_needed = 1, uses_anonymous_args = 0
 1713 09c0 80B5     		push	{r7, lr}
 1714              		.cfi_def_cfa_offset 8
 1715              		.cfi_offset 7, -8
 1716              		.cfi_offset 14, -4
 1717 09c2 82B0     		sub	sp, sp, #8
 1718              		.cfi_def_cfa_offset 16
 1719 09c4 00AF     		add	r7, sp, #0
 1720              		.cfi_def_cfa_register 7
 716:build/openmote-cc2538_armgcc/openstack/02b-MAChigh/sixtop.c ****    OpenQueueEntry_t* eb;
 717:build/openmote-cc2538_armgcc/openstack/02b-MAChigh/sixtop.c ****    uint8_t len;
 718:build/openmote-cc2538_armgcc/openstack/02b-MAChigh/sixtop.c ****    
 719:build/openmote-cc2538_armgcc/openstack/02b-MAChigh/sixtop.c ****    len = 0;
 1721              		.loc 1 719 0
 1722 09c6 0023     		movs	r3, #0
 1723 09c8 FB71     		strb	r3, [r7, #7]
 720:build/openmote-cc2538_armgcc/openstack/02b-MAChigh/sixtop.c ****    
 721:build/openmote-cc2538_armgcc/openstack/02b-MAChigh/sixtop.c ****    if ((ieee154e_isSynch()==FALSE) || (icmpv6rpl_getMyDAGrank()==DEFAULTDAGRANK)){
 1724              		.loc 1 721 0
 1725 09ca FFF7FEFF 		bl	ieee154e_isSynch
 1726 09ce 0346     		mov	r3, r0
 1727 09d0 83F00103 		eor	r3, r3, #1
 1728 09d4 DBB2     		uxtb	r3, r3
 1729 09d6 002B     		cmp	r3, #0
 1730 09d8 07D1     		bne	.L81
 1731              		.loc 1 721 0 is_stmt 0 discriminator 1
 1732 09da FFF7FEFF 		bl	icmpv6rpl_getMyDAGrank
 1733 09de 0346     		mov	r3, r0
 1734 09e0 1A46     		mov	r2, r3
 1735 09e2 4FF6FF73 		movw	r3, #65535
 1736 09e6 9A42     		cmp	r2, r3
 1737 09e8 0FD1     		bne	.L82
 1738              	.L81:
 722:build/openmote-cc2538_armgcc/openstack/02b-MAChigh/sixtop.c ****       // I'm not sync'ed or I did not acquire a DAGrank
 723:build/openmote-cc2538_armgcc/openstack/02b-MAChigh/sixtop.c ****       
 724:build/openmote-cc2538_armgcc/openstack/02b-MAChigh/sixtop.c ****       // delete packets genereted by this module (EB and KA) from openqueue
 725:build/openmote-cc2538_armgcc/openstack/02b-MAChigh/sixtop.c ****       openqueue_removeAllCreatedBy(COMPONENT_SIXTOP);
 1739              		.loc 1 725 0 is_stmt 1
 1740 09ea 0C20     		movs	r0, #12
 1741 09ec FFF7FEFF 		bl	openqueue_removeAllCreatedBy
 726:build/openmote-cc2538_armgcc/openstack/02b-MAChigh/sixtop.c ****       
 727:build/openmote-cc2538_armgcc/openstack/02b-MAChigh/sixtop.c ****       // I'm not busy sending an EB or KA
 728:build/openmote-cc2538_armgcc/openstack/02b-MAChigh/sixtop.c ****       sixtop_vars.busySendingEB = FALSE;
 1742              		.loc 1 728 0
 1743 09f0 40F20003 		movw	r3, #:lower16:sixtop_vars
 1744 09f4 C0F20003 		movt	r3, #:upper16:sixtop_vars
 1745 09f8 0022     		movs	r2, #0
 1746 09fa DA70     		strb	r2, [r3, #3]
 729:build/openmote-cc2538_armgcc/openstack/02b-MAChigh/sixtop.c ****       sixtop_vars.busySendingKA = FALSE;
 1747              		.loc 1 729 0
 1748 09fc 40F20003 		movw	r3, #:lower16:sixtop_vars
 1749 0a00 C0F20003 		movt	r3, #:upper16:sixtop_vars
 1750 0a04 0022     		movs	r2, #0
 1751 0a06 9A70     		strb	r2, [r3, #2]
 730:build/openmote-cc2538_armgcc/openstack/02b-MAChigh/sixtop.c ****       
 731:build/openmote-cc2538_armgcc/openstack/02b-MAChigh/sixtop.c ****       // stop here
 732:build/openmote-cc2538_armgcc/openstack/02b-MAChigh/sixtop.c ****       return;
 1752              		.loc 1 732 0
 1753 0a08 6DE0     		b	.L80
 1754              	.L82:
 733:build/openmote-cc2538_armgcc/openstack/02b-MAChigh/sixtop.c ****    }
 734:build/openmote-cc2538_armgcc/openstack/02b-MAChigh/sixtop.c ****    
 735:build/openmote-cc2538_armgcc/openstack/02b-MAChigh/sixtop.c ****    if (sixtop_vars.busySendingEB==TRUE) {
 1755              		.loc 1 735 0
 1756 0a0a 40F20003 		movw	r3, #:lower16:sixtop_vars
 1757 0a0e C0F20003 		movt	r3, #:upper16:sixtop_vars
 1758 0a12 DB78     		ldrb	r3, [r3, #3]	@ zero_extendqisi2
 1759 0a14 002B     		cmp	r3, #0
 1760 0a16 00D0     		beq	.L84
 736:build/openmote-cc2538_armgcc/openstack/02b-MAChigh/sixtop.c ****       // don't continue if I'm still sending a previous EB
 737:build/openmote-cc2538_armgcc/openstack/02b-MAChigh/sixtop.c ****       return;
 1761              		.loc 1 737 0
 1762 0a18 65E0     		b	.L80
 1763              	.L84:
 738:build/openmote-cc2538_armgcc/openstack/02b-MAChigh/sixtop.c ****    }
 739:build/openmote-cc2538_armgcc/openstack/02b-MAChigh/sixtop.c ****    
 740:build/openmote-cc2538_armgcc/openstack/02b-MAChigh/sixtop.c ****    // if I get here, I will send an EB
 741:build/openmote-cc2538_armgcc/openstack/02b-MAChigh/sixtop.c ****    
 742:build/openmote-cc2538_armgcc/openstack/02b-MAChigh/sixtop.c ****    // get a free packet buffer
 743:build/openmote-cc2538_armgcc/openstack/02b-MAChigh/sixtop.c ****    eb = openqueue_getFreePacketBuffer(COMPONENT_SIXTOP);
 1764              		.loc 1 743 0
 1765 0a1a 0C20     		movs	r0, #12
 1766 0a1c FFF7FEFF 		bl	openqueue_getFreePacketBuffer
 1767 0a20 3860     		str	r0, [r7]
 744:build/openmote-cc2538_armgcc/openstack/02b-MAChigh/sixtop.c ****    if (eb==NULL) {
 1768              		.loc 1 744 0
 1769 0a22 3B68     		ldr	r3, [r7]
 1770 0a24 002B     		cmp	r3, #0
 1771 0a26 06D1     		bne	.L85
 745:build/openmote-cc2538_armgcc/openstack/02b-MAChigh/sixtop.c ****       openserial_printError(COMPONENT_SIXTOP,ERR_NO_FREE_PACKET_BUFFER,
 1772              		.loc 1 745 0
 1773 0a28 0C20     		movs	r0, #12
 1774 0a2a 2C21     		movs	r1, #44
 1775 0a2c 0022     		movs	r2, #0
 1776 0a2e 0023     		movs	r3, #0
 1777 0a30 FFF7FEFF 		bl	openserial_printError
 746:build/openmote-cc2538_armgcc/openstack/02b-MAChigh/sixtop.c ****                             (errorparameter_t)0,
 747:build/openmote-cc2538_armgcc/openstack/02b-MAChigh/sixtop.c ****                             (errorparameter_t)0);
 748:build/openmote-cc2538_armgcc/openstack/02b-MAChigh/sixtop.c ****       return;
 1778              		.loc 1 748 0
 1779 0a34 57E0     		b	.L80
 1780              	.L85:
 749:build/openmote-cc2538_armgcc/openstack/02b-MAChigh/sixtop.c ****    }
 750:build/openmote-cc2538_armgcc/openstack/02b-MAChigh/sixtop.c ****    
 751:build/openmote-cc2538_armgcc/openstack/02b-MAChigh/sixtop.c ****    // declare ownership over that packet
 752:build/openmote-cc2538_armgcc/openstack/02b-MAChigh/sixtop.c ****    eb->creator = COMPONENT_SIXTOP;
 1781              		.loc 1 752 0
 1782 0a36 3B68     		ldr	r3, [r7]
 1783 0a38 0C22     		movs	r2, #12
 1784 0a3a 1A70     		strb	r2, [r3]
 753:build/openmote-cc2538_armgcc/openstack/02b-MAChigh/sixtop.c ****    eb->owner   = COMPONENT_SIXTOP;
 1785              		.loc 1 753 0
 1786 0a3c 3B68     		ldr	r3, [r7]
 1787 0a3e 0C22     		movs	r2, #12
 1788 0a40 5A70     		strb	r2, [r3, #1]
 754:build/openmote-cc2538_armgcc/openstack/02b-MAChigh/sixtop.c ****    
 755:build/openmote-cc2538_armgcc/openstack/02b-MAChigh/sixtop.c ****    // reserve space for EB-specific header
 756:build/openmote-cc2538_armgcc/openstack/02b-MAChigh/sixtop.c ****    // reserving for IEs.
 757:build/openmote-cc2538_armgcc/openstack/02b-MAChigh/sixtop.c ****    len += processIE_prependSlotframeLinkIE(eb);
 1789              		.loc 1 757 0
 1790 0a42 3868     		ldr	r0, [r7]
 1791 0a44 FFF7FEFF 		bl	processIE_prependSlotframeLinkIE
 1792 0a48 0346     		mov	r3, r0
 1793 0a4a 1A46     		mov	r2, r3
 1794 0a4c FB79     		ldrb	r3, [r7, #7]
 1795 0a4e 1344     		add	r3, r3, r2
 1796 0a50 FB71     		strb	r3, [r7, #7]
 758:build/openmote-cc2538_armgcc/openstack/02b-MAChigh/sixtop.c ****    len += processIE_prependChannelHoppingIE(eb);
 1797              		.loc 1 758 0
 1798 0a52 3868     		ldr	r0, [r7]
 1799 0a54 FFF7FEFF 		bl	processIE_prependChannelHoppingIE
 1800 0a58 0346     		mov	r3, r0
 1801 0a5a 1A46     		mov	r2, r3
 1802 0a5c FB79     		ldrb	r3, [r7, #7]
 1803 0a5e 1344     		add	r3, r3, r2
 1804 0a60 FB71     		strb	r3, [r7, #7]
 759:build/openmote-cc2538_armgcc/openstack/02b-MAChigh/sixtop.c ****    len += processIE_prependTSCHTimeslotIE(eb);
 1805              		.loc 1 759 0
 1806 0a62 3868     		ldr	r0, [r7]
 1807 0a64 FFF7FEFF 		bl	processIE_prependTSCHTimeslotIE
 1808 0a68 0346     		mov	r3, r0
 1809 0a6a 1A46     		mov	r2, r3
 1810 0a6c FB79     		ldrb	r3, [r7, #7]
 1811 0a6e 1344     		add	r3, r3, r2
 1812 0a70 FB71     		strb	r3, [r7, #7]
 760:build/openmote-cc2538_armgcc/openstack/02b-MAChigh/sixtop.c ****    len += processIE_prependSyncIE(eb);
 1813              		.loc 1 760 0
 1814 0a72 3868     		ldr	r0, [r7]
 1815 0a74 FFF7FEFF 		bl	processIE_prependSyncIE
 1816 0a78 0346     		mov	r3, r0
 1817 0a7a 1A46     		mov	r2, r3
 1818 0a7c FB79     		ldrb	r3, [r7, #7]
 1819 0a7e 1344     		add	r3, r3, r2
 1820 0a80 FB71     		strb	r3, [r7, #7]
 761:build/openmote-cc2538_armgcc/openstack/02b-MAChigh/sixtop.c ****    
 762:build/openmote-cc2538_armgcc/openstack/02b-MAChigh/sixtop.c ****    //add IE header 
 763:build/openmote-cc2538_armgcc/openstack/02b-MAChigh/sixtop.c ****    processIE_prependMLMEIE(eb,len);
 1821              		.loc 1 763 0
 1822 0a82 FB79     		ldrb	r3, [r7, #7]	@ zero_extendqisi2
 1823 0a84 3868     		ldr	r0, [r7]
 1824 0a86 1946     		mov	r1, r3
 1825 0a88 FFF7FEFF 		bl	processIE_prependMLMEIE
 764:build/openmote-cc2538_armgcc/openstack/02b-MAChigh/sixtop.c ****   
 765:build/openmote-cc2538_armgcc/openstack/02b-MAChigh/sixtop.c ****    // some l2 information about this packet
 766:build/openmote-cc2538_armgcc/openstack/02b-MAChigh/sixtop.c ****    eb->l2_frameType                     = IEEE154_TYPE_BEACON;
 1826              		.loc 1 766 0
 1827 0a8c 3B68     		ldr	r3, [r7]
 1828 0a8e 0022     		movs	r2, #0
 1829 0a90 83F84920 		strb	r2, [r3, #73]
 767:build/openmote-cc2538_armgcc/openstack/02b-MAChigh/sixtop.c ****    eb->l2_nextORpreviousHop.type        = ADDR_16B;
 1830              		.loc 1 767 0
 1831 0a94 3B68     		ldr	r3, [r7]
 1832 0a96 0122     		movs	r2, #1
 1833 0a98 83F83820 		strb	r2, [r3, #56]
 768:build/openmote-cc2538_armgcc/openstack/02b-MAChigh/sixtop.c ****    eb->l2_nextORpreviousHop.addr_16b[0] = 0xff;
 1834              		.loc 1 768 0
 1835 0a9c 3B68     		ldr	r3, [r7]
 1836 0a9e FF22     		movs	r2, #255
 1837 0aa0 83F83920 		strb	r2, [r3, #57]
 769:build/openmote-cc2538_armgcc/openstack/02b-MAChigh/sixtop.c ****    eb->l2_nextORpreviousHop.addr_16b[1] = 0xff;
 1838              		.loc 1 769 0
 1839 0aa4 3B68     		ldr	r3, [r7]
 1840 0aa6 FF22     		movs	r2, #255
 1841 0aa8 83F83A20 		strb	r2, [r3, #58]
 770:build/openmote-cc2538_armgcc/openstack/02b-MAChigh/sixtop.c ****    
 771:build/openmote-cc2538_armgcc/openstack/02b-MAChigh/sixtop.c ****    //I has an IE in my payload
 772:build/openmote-cc2538_armgcc/openstack/02b-MAChigh/sixtop.c ****    eb->l2_payloadIEpresent = TRUE;
 1842              		.loc 1 772 0
 1843 0aac 3B68     		ldr	r3, [r7]
 1844 0aae 0122     		movs	r2, #1
 1845 0ab0 83F86620 		strb	r2, [r3, #102]
 773:build/openmote-cc2538_armgcc/openstack/02b-MAChigh/sixtop.c **** 
 774:build/openmote-cc2538_armgcc/openstack/02b-MAChigh/sixtop.c ****    // set l2-security attributes
 775:build/openmote-cc2538_armgcc/openstack/02b-MAChigh/sixtop.c ****    eb->l2_securityLevel   = IEEE802154_SECURITY_LEVEL_BEACON;
 1846              		.loc 1 775 0
 1847 0ab4 3B68     		ldr	r3, [r7]
 1848 0ab6 0022     		movs	r2, #0
 1849 0ab8 83F86C20 		strb	r2, [r3, #108]
 776:build/openmote-cc2538_armgcc/openstack/02b-MAChigh/sixtop.c ****    eb->l2_keyIdMode       = IEEE802154_SECURITY_KEYIDMODE;
 1850              		.loc 1 776 0
 1851 0abc 3B68     		ldr	r3, [r7]
 1852 0abe 0022     		movs	r2, #0
 1853 0ac0 83F86D20 		strb	r2, [r3, #109]
 777:build/openmote-cc2538_armgcc/openstack/02b-MAChigh/sixtop.c ****    eb->l2_keyIndex        = IEEE802154_SECURITY_K1_KEY_INDEX;
 1854              		.loc 1 777 0
 1855 0ac4 3B68     		ldr	r3, [r7]
 1856 0ac6 0022     		movs	r2, #0
 1857 0ac8 83F86E20 		strb	r2, [r3, #110]
 778:build/openmote-cc2538_armgcc/openstack/02b-MAChigh/sixtop.c **** 
 779:build/openmote-cc2538_armgcc/openstack/02b-MAChigh/sixtop.c ****    // put in queue for MAC to handle
 780:build/openmote-cc2538_armgcc/openstack/02b-MAChigh/sixtop.c ****    sixtop_send_internal(eb,eb->l2_payloadIEpresent);
 1858              		.loc 1 780 0
 1859 0acc 3B68     		ldr	r3, [r7]
 1860 0ace 93F86630 		ldrb	r3, [r3, #102]	@ zero_extendqisi2
 1861 0ad2 3868     		ldr	r0, [r7]
 1862 0ad4 1946     		mov	r1, r3
 1863 0ad6 FFF7FEFF 		bl	sixtop_send_internal
 781:build/openmote-cc2538_armgcc/openstack/02b-MAChigh/sixtop.c ****    
 782:build/openmote-cc2538_armgcc/openstack/02b-MAChigh/sixtop.c ****    // I'm now busy sending an EB
 783:build/openmote-cc2538_armgcc/openstack/02b-MAChigh/sixtop.c ****    sixtop_vars.busySendingEB = TRUE;
 1864              		.loc 1 783 0
 1865 0ada 40F20003 		movw	r3, #:lower16:sixtop_vars
 1866 0ade C0F20003 		movt	r3, #:upper16:sixtop_vars
 1867 0ae2 0122     		movs	r2, #1
 1868 0ae4 DA70     		strb	r2, [r3, #3]
 1869              	.L80:
 784:build/openmote-cc2538_armgcc/openstack/02b-MAChigh/sixtop.c **** }
 1870              		.loc 1 784 0
 1871 0ae6 0837     		adds	r7, r7, #8
 1872 0ae8 BD46     		mov	sp, r7
 1873              		@ sp needed
 1874 0aea 80BD     		pop	{r7, pc}
 1875              		.cfi_endproc
 1876              	.LFE18:
 1878              		.align	2
 1879              		.global	sixtop_sendKA
 1880              		.thumb
 1881              		.thumb_func
 1883              	sixtop_sendKA:
 1884              	.LFB19:
 785:build/openmote-cc2538_armgcc/openstack/02b-MAChigh/sixtop.c **** 
 786:build/openmote-cc2538_armgcc/openstack/02b-MAChigh/sixtop.c **** /**
 787:build/openmote-cc2538_armgcc/openstack/02b-MAChigh/sixtop.c **** \brief Send an keep-alive message, if necessary.
 788:build/openmote-cc2538_armgcc/openstack/02b-MAChigh/sixtop.c **** 
 789:build/openmote-cc2538_armgcc/openstack/02b-MAChigh/sixtop.c **** This is one of the MAC management tasks. This function inlines in the
 790:build/openmote-cc2538_armgcc/openstack/02b-MAChigh/sixtop.c **** timers_res_fired() function, but is declared as a separate function for better
 791:build/openmote-cc2538_armgcc/openstack/02b-MAChigh/sixtop.c **** readability of the code.
 792:build/openmote-cc2538_armgcc/openstack/02b-MAChigh/sixtop.c **** */
 793:build/openmote-cc2538_armgcc/openstack/02b-MAChigh/sixtop.c **** port_INLINE void sixtop_sendKA() {
 1885              		.loc 1 793 0
 1886              		.cfi_startproc
 1887              		@ args = 0, pretend = 0, frame = 8
 1888              		@ frame_needed = 1, uses_anonymous_args = 0
 1889 0aec 80B5     		push	{r7, lr}
 1890              		.cfi_def_cfa_offset 8
 1891              		.cfi_offset 7, -8
 1892              		.cfi_offset 14, -4
 1893 0aee 82B0     		sub	sp, sp, #8
 1894              		.cfi_def_cfa_offset 16
 1895 0af0 00AF     		add	r7, sp, #0
 1896              		.cfi_def_cfa_register 7
 794:build/openmote-cc2538_armgcc/openstack/02b-MAChigh/sixtop.c ****    OpenQueueEntry_t* kaPkt;
 795:build/openmote-cc2538_armgcc/openstack/02b-MAChigh/sixtop.c ****    open_addr_t*      kaNeighAddr;
 796:build/openmote-cc2538_armgcc/openstack/02b-MAChigh/sixtop.c ****    
 797:build/openmote-cc2538_armgcc/openstack/02b-MAChigh/sixtop.c ****    if (ieee154e_isSynch()==FALSE) {
 1897              		.loc 1 797 0
 1898 0af2 FFF7FEFF 		bl	ieee154e_isSynch
 1899 0af6 0346     		mov	r3, r0
 1900 0af8 83F00103 		eor	r3, r3, #1
 1901 0afc DBB2     		uxtb	r3, r3
 1902 0afe 002B     		cmp	r3, #0
 1903 0b00 0FD0     		beq	.L87
 798:build/openmote-cc2538_armgcc/openstack/02b-MAChigh/sixtop.c ****       // I'm not sync'ed
 799:build/openmote-cc2538_armgcc/openstack/02b-MAChigh/sixtop.c ****       
 800:build/openmote-cc2538_armgcc/openstack/02b-MAChigh/sixtop.c ****       // delete packets genereted by this module (EB and KA) from openqueue
 801:build/openmote-cc2538_armgcc/openstack/02b-MAChigh/sixtop.c ****       openqueue_removeAllCreatedBy(COMPONENT_SIXTOP);
 1904              		.loc 1 801 0
 1905 0b02 0C20     		movs	r0, #12
 1906 0b04 FFF7FEFF 		bl	openqueue_removeAllCreatedBy
 802:build/openmote-cc2538_armgcc/openstack/02b-MAChigh/sixtop.c ****       
 803:build/openmote-cc2538_armgcc/openstack/02b-MAChigh/sixtop.c ****       // I'm not busy sending an EB or KA
 804:build/openmote-cc2538_armgcc/openstack/02b-MAChigh/sixtop.c ****       sixtop_vars.busySendingEB = FALSE;
 1907              		.loc 1 804 0
 1908 0b08 40F20003 		movw	r3, #:lower16:sixtop_vars
 1909 0b0c C0F20003 		movt	r3, #:upper16:sixtop_vars
 1910 0b10 0022     		movs	r2, #0
 1911 0b12 DA70     		strb	r2, [r3, #3]
 805:build/openmote-cc2538_armgcc/openstack/02b-MAChigh/sixtop.c ****       sixtop_vars.busySendingKA = FALSE;
 1912              		.loc 1 805 0
 1913 0b14 40F20003 		movw	r3, #:lower16:sixtop_vars
 1914 0b18 C0F20003 		movt	r3, #:upper16:sixtop_vars
 1915 0b1c 0022     		movs	r2, #0
 1916 0b1e 9A70     		strb	r2, [r3, #2]
 806:build/openmote-cc2538_armgcc/openstack/02b-MAChigh/sixtop.c ****       
 807:build/openmote-cc2538_armgcc/openstack/02b-MAChigh/sixtop.c ****       // stop here
 808:build/openmote-cc2538_armgcc/openstack/02b-MAChigh/sixtop.c ****       return;
 1917              		.loc 1 808 0
 1918 0b20 49E0     		b	.L86
 1919              	.L87:
 809:build/openmote-cc2538_armgcc/openstack/02b-MAChigh/sixtop.c ****    }
 810:build/openmote-cc2538_armgcc/openstack/02b-MAChigh/sixtop.c ****    
 811:build/openmote-cc2538_armgcc/openstack/02b-MAChigh/sixtop.c ****    if (sixtop_vars.busySendingKA==TRUE) {
 1920              		.loc 1 811 0
 1921 0b22 40F20003 		movw	r3, #:lower16:sixtop_vars
 1922 0b26 C0F20003 		movt	r3, #:upper16:sixtop_vars
 1923 0b2a 9B78     		ldrb	r3, [r3, #2]	@ zero_extendqisi2
 1924 0b2c 002B     		cmp	r3, #0
 1925 0b2e 00D0     		beq	.L89
 812:build/openmote-cc2538_armgcc/openstack/02b-MAChigh/sixtop.c ****       // don't proceed if I'm still sending a KA
 813:build/openmote-cc2538_armgcc/openstack/02b-MAChigh/sixtop.c ****       return;
 1926              		.loc 1 813 0
 1927 0b30 41E0     		b	.L86
 1928              	.L89:
 814:build/openmote-cc2538_armgcc/openstack/02b-MAChigh/sixtop.c ****    }
 815:build/openmote-cc2538_armgcc/openstack/02b-MAChigh/sixtop.c ****    
 816:build/openmote-cc2538_armgcc/openstack/02b-MAChigh/sixtop.c ****    kaNeighAddr = neighbors_getKANeighbor(sixtop_vars.kaPeriod);
 1929              		.loc 1 816 0
 1930 0b32 40F20003 		movw	r3, #:lower16:sixtop_vars
 1931 0b36 C0F20003 		movt	r3, #:upper16:sixtop_vars
 1932 0b3a 5B89     		ldrh	r3, [r3, #10]
 1933 0b3c 1846     		mov	r0, r3
 1934 0b3e FFF7FEFF 		bl	neighbors_getKANeighbor
 1935 0b42 7860     		str	r0, [r7, #4]
 817:build/openmote-cc2538_armgcc/openstack/02b-MAChigh/sixtop.c ****    if (kaNeighAddr==NULL) {
 1936              		.loc 1 817 0
 1937 0b44 7B68     		ldr	r3, [r7, #4]
 1938 0b46 002B     		cmp	r3, #0
 1939 0b48 00D1     		bne	.L90
 818:build/openmote-cc2538_armgcc/openstack/02b-MAChigh/sixtop.c ****       // don't proceed if I have no neighbor I need to send a KA to
 819:build/openmote-cc2538_armgcc/openstack/02b-MAChigh/sixtop.c ****       return;
 1940              		.loc 1 819 0
 1941 0b4a 34E0     		b	.L86
 1942              	.L90:
 820:build/openmote-cc2538_armgcc/openstack/02b-MAChigh/sixtop.c ****    }
 821:build/openmote-cc2538_armgcc/openstack/02b-MAChigh/sixtop.c ****    
 822:build/openmote-cc2538_armgcc/openstack/02b-MAChigh/sixtop.c ****    // if I get here, I will send a KA
 823:build/openmote-cc2538_armgcc/openstack/02b-MAChigh/sixtop.c ****    
 824:build/openmote-cc2538_armgcc/openstack/02b-MAChigh/sixtop.c ****    // get a free packet buffer
 825:build/openmote-cc2538_armgcc/openstack/02b-MAChigh/sixtop.c ****    kaPkt = openqueue_getFreePacketBuffer(COMPONENT_SIXTOP);
 1943              		.loc 1 825 0
 1944 0b4c 0C20     		movs	r0, #12
 1945 0b4e FFF7FEFF 		bl	openqueue_getFreePacketBuffer
 1946 0b52 3860     		str	r0, [r7]
 826:build/openmote-cc2538_armgcc/openstack/02b-MAChigh/sixtop.c ****    if (kaPkt==NULL) {
 1947              		.loc 1 826 0
 1948 0b54 3B68     		ldr	r3, [r7]
 1949 0b56 002B     		cmp	r3, #0
 1950 0b58 06D1     		bne	.L91
 827:build/openmote-cc2538_armgcc/openstack/02b-MAChigh/sixtop.c ****       openserial_printError(COMPONENT_SIXTOP,ERR_NO_FREE_PACKET_BUFFER,
 1951              		.loc 1 827 0
 1952 0b5a 0C20     		movs	r0, #12
 1953 0b5c 2C21     		movs	r1, #44
 1954 0b5e 0122     		movs	r2, #1
 1955 0b60 0023     		movs	r3, #0
 1956 0b62 FFF7FEFF 		bl	openserial_printError
 828:build/openmote-cc2538_armgcc/openstack/02b-MAChigh/sixtop.c ****                             (errorparameter_t)1,
 829:build/openmote-cc2538_armgcc/openstack/02b-MAChigh/sixtop.c ****                             (errorparameter_t)0);
 830:build/openmote-cc2538_armgcc/openstack/02b-MAChigh/sixtop.c ****       return;
 1957              		.loc 1 830 0
 1958 0b66 26E0     		b	.L86
 1959              	.L91:
 831:build/openmote-cc2538_armgcc/openstack/02b-MAChigh/sixtop.c ****    }
 832:build/openmote-cc2538_armgcc/openstack/02b-MAChigh/sixtop.c ****    
 833:build/openmote-cc2538_armgcc/openstack/02b-MAChigh/sixtop.c ****    // declare ownership over that packet
 834:build/openmote-cc2538_armgcc/openstack/02b-MAChigh/sixtop.c ****    kaPkt->creator = COMPONENT_SIXTOP;
 1960              		.loc 1 834 0
 1961 0b68 3B68     		ldr	r3, [r7]
 1962 0b6a 0C22     		movs	r2, #12
 1963 0b6c 1A70     		strb	r2, [r3]
 835:build/openmote-cc2538_armgcc/openstack/02b-MAChigh/sixtop.c ****    kaPkt->owner   = COMPONENT_SIXTOP;
 1964              		.loc 1 835 0
 1965 0b6e 3B68     		ldr	r3, [r7]
 1966 0b70 0C22     		movs	r2, #12
 1967 0b72 5A70     		strb	r2, [r3, #1]
 836:build/openmote-cc2538_armgcc/openstack/02b-MAChigh/sixtop.c ****    
 837:build/openmote-cc2538_armgcc/openstack/02b-MAChigh/sixtop.c ****    // some l2 information about this packet
 838:build/openmote-cc2538_armgcc/openstack/02b-MAChigh/sixtop.c ****    kaPkt->l2_frameType = IEEE154_TYPE_DATA;
 1968              		.loc 1 838 0
 1969 0b74 3B68     		ldr	r3, [r7]
 1970 0b76 0122     		movs	r2, #1
 1971 0b78 83F84920 		strb	r2, [r3, #73]
 839:build/openmote-cc2538_armgcc/openstack/02b-MAChigh/sixtop.c ****    memcpy(&(kaPkt->l2_nextORpreviousHop),kaNeighAddr,sizeof(open_addr_t));
 1972              		.loc 1 839 0
 1973 0b7c 3B68     		ldr	r3, [r7]
 1974 0b7e 3833     		adds	r3, r3, #56
 1975 0b80 1846     		mov	r0, r3
 1976 0b82 7968     		ldr	r1, [r7, #4]
 1977 0b84 1122     		movs	r2, #17
 1978 0b86 FFF7FEFF 		bl	memcpy
 840:build/openmote-cc2538_armgcc/openstack/02b-MAChigh/sixtop.c ****    
 841:build/openmote-cc2538_armgcc/openstack/02b-MAChigh/sixtop.c ****    // set l2-security attributes
 842:build/openmote-cc2538_armgcc/openstack/02b-MAChigh/sixtop.c ****    kaPkt->l2_securityLevel   = IEEE802154_SECURITY_LEVEL;
 1979              		.loc 1 842 0
 1980 0b8a 3B68     		ldr	r3, [r7]
 1981 0b8c 0022     		movs	r2, #0
 1982 0b8e 83F86C20 		strb	r2, [r3, #108]
 843:build/openmote-cc2538_armgcc/openstack/02b-MAChigh/sixtop.c ****    kaPkt->l2_keyIdMode       = IEEE802154_SECURITY_KEYIDMODE;
 1983              		.loc 1 843 0
 1984 0b92 3B68     		ldr	r3, [r7]
 1985 0b94 0022     		movs	r2, #0
 1986 0b96 83F86D20 		strb	r2, [r3, #109]
 844:build/openmote-cc2538_armgcc/openstack/02b-MAChigh/sixtop.c ****    kaPkt->l2_keyIndex        = IEEE802154_SECURITY_K2_KEY_INDEX;
 1987              		.loc 1 844 0
 1988 0b9a 3B68     		ldr	r3, [r7]
 1989 0b9c 0022     		movs	r2, #0
 1990 0b9e 83F86E20 		strb	r2, [r3, #110]
 845:build/openmote-cc2538_armgcc/openstack/02b-MAChigh/sixtop.c **** 
 846:build/openmote-cc2538_armgcc/openstack/02b-MAChigh/sixtop.c ****    // put in queue for MAC to handle
 847:build/openmote-cc2538_armgcc/openstack/02b-MAChigh/sixtop.c ****    sixtop_send_internal(kaPkt,FALSE);
 1991              		.loc 1 847 0
 1992 0ba2 3868     		ldr	r0, [r7]
 1993 0ba4 0021     		movs	r1, #0
 1994 0ba6 FFF7FEFF 		bl	sixtop_send_internal
 848:build/openmote-cc2538_armgcc/openstack/02b-MAChigh/sixtop.c ****    
 849:build/openmote-cc2538_armgcc/openstack/02b-MAChigh/sixtop.c ****    // I'm now busy sending a KA
 850:build/openmote-cc2538_armgcc/openstack/02b-MAChigh/sixtop.c ****    sixtop_vars.busySendingKA = TRUE;
 1995              		.loc 1 850 0
 1996 0baa 40F20003 		movw	r3, #:lower16:sixtop_vars
 1997 0bae C0F20003 		movt	r3, #:upper16:sixtop_vars
 1998 0bb2 0122     		movs	r2, #1
 1999 0bb4 9A70     		strb	r2, [r3, #2]
 2000              	.L86:
 851:build/openmote-cc2538_armgcc/openstack/02b-MAChigh/sixtop.c **** 
 852:build/openmote-cc2538_armgcc/openstack/02b-MAChigh/sixtop.c **** #ifdef OPENSIM
 853:build/openmote-cc2538_armgcc/openstack/02b-MAChigh/sixtop.c ****    debugpins_ka_set();
 854:build/openmote-cc2538_armgcc/openstack/02b-MAChigh/sixtop.c ****    debugpins_ka_clr();
 855:build/openmote-cc2538_armgcc/openstack/02b-MAChigh/sixtop.c **** #endif
 856:build/openmote-cc2538_armgcc/openstack/02b-MAChigh/sixtop.c **** }
 2001              		.loc 1 856 0
 2002 0bb6 0837     		adds	r7, r7, #8
 2003 0bb8 BD46     		mov	sp, r7
 2004              		@ sp needed
 2005 0bba 80BD     		pop	{r7, pc}
 2006              		.cfi_endproc
 2007              	.LFE19:
 2009              		.align	2
 2010              		.global	timer_sixtop_six2six_timeout_fired
 2011              		.thumb
 2012              		.thumb_func
 2014              	timer_sixtop_six2six_timeout_fired:
 2015              	.LFB20:
 857:build/openmote-cc2538_armgcc/openstack/02b-MAChigh/sixtop.c **** 
 858:build/openmote-cc2538_armgcc/openstack/02b-MAChigh/sixtop.c **** //======= six2six task
 859:build/openmote-cc2538_armgcc/openstack/02b-MAChigh/sixtop.c **** 
 860:build/openmote-cc2538_armgcc/openstack/02b-MAChigh/sixtop.c **** void timer_sixtop_six2six_timeout_fired(void) {
 2016              		.loc 1 860 0
 2017              		.cfi_startproc
 2018              		@ args = 0, pretend = 0, frame = 0
 2019              		@ frame_needed = 1, uses_anonymous_args = 0
 2020 0bbc 80B5     		push	{r7, lr}
 2021              		.cfi_def_cfa_offset 8
 2022              		.cfi_offset 7, -8
 2023              		.cfi_offset 14, -4
 2024 0bbe 00AF     		add	r7, sp, #0
 2025              		.cfi_def_cfa_register 7
 861:build/openmote-cc2538_armgcc/openstack/02b-MAChigh/sixtop.c ****    // timeout timer fired, reset the state of sixtop to idle
 862:build/openmote-cc2538_armgcc/openstack/02b-MAChigh/sixtop.c ****    sixtop_vars.six2six_state = SIX_STATE_IDLE;
 2026              		.loc 1 862 0
 2027 0bc0 40F20003 		movw	r3, #:lower16:sixtop_vars
 2028 0bc4 C0F20003 		movt	r3, #:upper16:sixtop_vars
 2029 0bc8 0022     		movs	r2, #0
 2030 0bca 9A73     		strb	r2, [r3, #14]
 863:build/openmote-cc2538_armgcc/openstack/02b-MAChigh/sixtop.c ****    sixtop_vars.handler = SIX_HANDLER_NONE;
 2031              		.loc 1 863 0
 2032 0bcc 40F20003 		movw	r3, #:lower16:sixtop_vars
 2033 0bd0 C0F20003 		movt	r3, #:upper16:sixtop_vars
 2034 0bd4 0022     		movs	r2, #0
 2035 0bd6 1A74     		strb	r2, [r3, #16]
 864:build/openmote-cc2538_armgcc/openstack/02b-MAChigh/sixtop.c ****    opentimers_stop(sixtop_vars.timeoutTimerId);
 2036              		.loc 1 864 0
 2037 0bd8 40F20003 		movw	r3, #:lower16:sixtop_vars
 2038 0bdc C0F20003 		movt	r3, #:upper16:sixtop_vars
 2039 0be0 1B7A     		ldrb	r3, [r3, #8]	@ zero_extendqisi2
 2040 0be2 1846     		mov	r0, r3
 2041 0be4 FFF7FEFF 		bl	opentimers_stop
 865:build/openmote-cc2538_armgcc/openstack/02b-MAChigh/sixtop.c **** }
 2042              		.loc 1 865 0
 2043 0be8 80BD     		pop	{r7, pc}
 2044              		.cfi_endproc
 2045              	.LFE20:
 2047 0bea 00BF     		.align	2
 2048              		.global	sixtop_six2six_sendDone
 2049              		.thumb
 2050              		.thumb_func
 2052              	sixtop_six2six_sendDone:
 2053              	.LFB21:
 866:build/openmote-cc2538_armgcc/openstack/02b-MAChigh/sixtop.c **** 
 867:build/openmote-cc2538_armgcc/openstack/02b-MAChigh/sixtop.c **** void sixtop_six2six_sendDone(OpenQueueEntry_t* msg, owerror_t error){
 2054              		.loc 1 867 0
 2055              		.cfi_startproc
 2056              		@ args = 0, pretend = 0, frame = 32
 2057              		@ frame_needed = 1, uses_anonymous_args = 0
 2058 0bec 80B5     		push	{r7, lr}
 2059              		.cfi_def_cfa_offset 8
 2060              		.cfi_offset 7, -8
 2061              		.cfi_offset 14, -4
 2062 0bee 88B0     		sub	sp, sp, #32
 2063              		.cfi_def_cfa_offset 40
 2064 0bf0 00AF     		add	r7, sp, #0
 2065              		.cfi_def_cfa_register 7
 2066 0bf2 7860     		str	r0, [r7, #4]
 2067 0bf4 0B46     		mov	r3, r1
 2068 0bf6 FB70     		strb	r3, [r7, #3]
 868:build/openmote-cc2538_armgcc/openstack/02b-MAChigh/sixtop.c ****     uint8_t i,numOfCells;
 869:build/openmote-cc2538_armgcc/openstack/02b-MAChigh/sixtop.c ****     uint8_t* ptr;
 870:build/openmote-cc2538_armgcc/openstack/02b-MAChigh/sixtop.c ****     cellInfo_ht cellList[SCHEDULEIEMAXNUMCELLS];
 871:build/openmote-cc2538_armgcc/openstack/02b-MAChigh/sixtop.c **** 
 872:build/openmote-cc2538_armgcc/openstack/02b-MAChigh/sixtop.c ****     memset(cellList,0,SCHEDULEIEMAXNUMCELLS*sizeof(cellInfo_ht));
 2069              		.loc 1 872 0
 2070 0bf8 07F10803 		add	r3, r7, #8
 2071 0bfc 1846     		mov	r0, r3
 2072 0bfe 0021     		movs	r1, #0
 2073 0c00 0F22     		movs	r2, #15
 2074 0c02 FFF7FEFF 		bl	memset
 873:build/openmote-cc2538_armgcc/openstack/02b-MAChigh/sixtop.c **** 
 874:build/openmote-cc2538_armgcc/openstack/02b-MAChigh/sixtop.c ****     ptr = msg->l2_sixtop_cellObjects;
 2075              		.loc 1 874 0
 2076 0c06 7B68     		ldr	r3, [r7, #4]
 2077 0c08 9B6D     		ldr	r3, [r3, #88]
 2078 0c0a BB61     		str	r3, [r7, #24]
 875:build/openmote-cc2538_armgcc/openstack/02b-MAChigh/sixtop.c ****     numOfCells = msg->l2_sixtop_numOfCells;
 2079              		.loc 1 875 0
 2080 0c0c 7B68     		ldr	r3, [r7, #4]
 2081 0c0e 93F85C30 		ldrb	r3, [r3, #92]
 2082 0c12 FB75     		strb	r3, [r7, #23]
 876:build/openmote-cc2538_armgcc/openstack/02b-MAChigh/sixtop.c ****     msg->owner = COMPONENT_SIXTOP_RES;
 2083              		.loc 1 876 0
 2084 0c14 7B68     		ldr	r3, [r7, #4]
 2085 0c16 0F22     		movs	r2, #15
 2086 0c18 5A70     		strb	r2, [r3, #1]
 877:build/openmote-cc2538_armgcc/openstack/02b-MAChigh/sixtop.c ****     // if this is a response send done
 878:build/openmote-cc2538_armgcc/openstack/02b-MAChigh/sixtop.c ****     if (
 879:build/openmote-cc2538_armgcc/openstack/02b-MAChigh/sixtop.c ****         msg->l2_sixtop_returnCode == IANA_6TOP_RC_ERR_VER   ||
 2087              		.loc 1 879 0
 2088 0c1a 7B68     		ldr	r3, [r7, #4]
 2089 0c1c 93F85F30 		ldrb	r3, [r3, #95]	@ zero_extendqisi2
 878:build/openmote-cc2538_armgcc/openstack/02b-MAChigh/sixtop.c ****         msg->l2_sixtop_returnCode == IANA_6TOP_RC_ERR_VER   ||
 2090              		.loc 1 878 0
 2091 0c20 072B     		cmp	r3, #7
 2092 0c22 18D0     		beq	.L94
 880:build/openmote-cc2538_armgcc/openstack/02b-MAChigh/sixtop.c ****         msg->l2_sixtop_returnCode == IANA_6TOP_RC_ERR_SFID  ||
 2093              		.loc 1 880 0
 2094 0c24 7B68     		ldr	r3, [r7, #4]
 2095 0c26 93F85F30 		ldrb	r3, [r3, #95]	@ zero_extendqisi2
 879:build/openmote-cc2538_armgcc/openstack/02b-MAChigh/sixtop.c ****         msg->l2_sixtop_returnCode == IANA_6TOP_RC_ERR_SFID  ||
 2096              		.loc 1 879 0
 2097 0c2a 082B     		cmp	r3, #8
 2098 0c2c 13D0     		beq	.L94
 881:build/openmote-cc2538_armgcc/openstack/02b-MAChigh/sixtop.c ****         msg->l2_sixtop_returnCode == IANA_6TOP_RC_ERR_BUSY  ||
 2099              		.loc 1 881 0
 2100 0c2e 7B68     		ldr	r3, [r7, #4]
 2101 0c30 93F85F30 		ldrb	r3, [r3, #95]	@ zero_extendqisi2
 880:build/openmote-cc2538_armgcc/openstack/02b-MAChigh/sixtop.c ****         msg->l2_sixtop_returnCode == IANA_6TOP_RC_ERR_SFID  ||
 2102              		.loc 1 880 0
 2103 0c34 092B     		cmp	r3, #9
 2104 0c36 0ED0     		beq	.L94
 882:build/openmote-cc2538_armgcc/openstack/02b-MAChigh/sixtop.c ****         msg->l2_sixtop_returnCode == IANA_6TOP_RC_ERR_NORES ||
 2105              		.loc 1 882 0
 2106 0c38 7B68     		ldr	r3, [r7, #4]
 2107 0c3a 93F85F30 		ldrb	r3, [r3, #95]	@ zero_extendqisi2
 881:build/openmote-cc2538_armgcc/openstack/02b-MAChigh/sixtop.c ****         msg->l2_sixtop_returnCode == IANA_6TOP_RC_ERR_BUSY  ||
 2108              		.loc 1 881 0
 2109 0c3e 0A2B     		cmp	r3, #10
 2110 0c40 09D0     		beq	.L94
 883:build/openmote-cc2538_armgcc/openstack/02b-MAChigh/sixtop.c ****         msg->l2_sixtop_returnCode == IANA_6TOP_RC_ERR_RESET ||
 2111              		.loc 1 883 0
 2112 0c42 7B68     		ldr	r3, [r7, #4]
 2113 0c44 93F85F30 		ldrb	r3, [r3, #95]	@ zero_extendqisi2
 882:build/openmote-cc2538_armgcc/openstack/02b-MAChigh/sixtop.c ****         msg->l2_sixtop_returnCode == IANA_6TOP_RC_ERR_NORES ||
 2114              		.loc 1 882 0
 2115 0c48 0B2B     		cmp	r3, #11
 2116 0c4a 04D0     		beq	.L94
 884:build/openmote-cc2538_armgcc/openstack/02b-MAChigh/sixtop.c ****         msg->l2_sixtop_returnCode == IANA_6TOP_RC_ERR
 2117              		.loc 1 884 0
 2118 0c4c 7B68     		ldr	r3, [r7, #4]
 2119 0c4e 93F85F30 		ldrb	r3, [r3, #95]	@ zero_extendqisi2
 883:build/openmote-cc2538_armgcc/openstack/02b-MAChigh/sixtop.c ****         msg->l2_sixtop_returnCode == IANA_6TOP_RC_ERR_RESET ||
 2120              		.loc 1 883 0
 2121 0c52 0C2B     		cmp	r3, #12
 2122 0c54 03D1     		bne	.L95
 2123              	.L94:
 885:build/openmote-cc2538_armgcc/openstack/02b-MAChigh/sixtop.c ****     ){
 886:build/openmote-cc2538_armgcc/openstack/02b-MAChigh/sixtop.c ****         // no matter successfully being sent out or failed with 
 887:build/openmote-cc2538_armgcc/openstack/02b-MAChigh/sixtop.c ****         // 3 times retries, if this is a sixtop response, free 
 888:build/openmote-cc2538_armgcc/openstack/02b-MAChigh/sixtop.c ****         // the buffer and end the transcation on my side.
 889:build/openmote-cc2538_armgcc/openstack/02b-MAChigh/sixtop.c ****         openqueue_freePacketBuffer(msg);
 2124              		.loc 1 889 0
 2125 0c56 7868     		ldr	r0, [r7, #4]
 2126 0c58 FFF7FEFF 		bl	openqueue_freePacketBuffer
 890:build/openmote-cc2538_armgcc/openstack/02b-MAChigh/sixtop.c ****         return;
 2127              		.loc 1 890 0
 2128 0c5c 59E1     		b	.L93
 2129              	.L95:
 891:build/openmote-cc2538_armgcc/openstack/02b-MAChigh/sixtop.c ****     }
 892:build/openmote-cc2538_armgcc/openstack/02b-MAChigh/sixtop.c ****     // if this is a request send done
 893:build/openmote-cc2538_armgcc/openstack/02b-MAChigh/sixtop.c ****     if(error == E_FAIL) {
 2130              		.loc 1 893 0
 2131 0c5e FB78     		ldrb	r3, [r7, #3]	@ zero_extendqisi2
 2132 0c60 012B     		cmp	r3, #1
 2133 0c62 32D1     		bne	.L97
 894:build/openmote-cc2538_armgcc/openstack/02b-MAChigh/sixtop.c ****         if (
 895:build/openmote-cc2538_armgcc/openstack/02b-MAChigh/sixtop.c ****             sixtop_vars.six2six_state == SIX_STATE_WAIT_ADDREQUEST_SENDDONE    ||
 2134              		.loc 1 895 0
 2135 0c64 40F20003 		movw	r3, #:lower16:sixtop_vars
 2136 0c68 C0F20003 		movt	r3, #:upper16:sixtop_vars
 2137 0c6c 9B7B     		ldrb	r3, [r3, #14]	@ zero_extendqisi2
 894:build/openmote-cc2538_armgcc/openstack/02b-MAChigh/sixtop.c ****         if (
 2138              		.loc 1 894 0
 2139 0c6e 022B     		cmp	r3, #2
 2140 0c70 1BD0     		beq	.L98
 896:build/openmote-cc2538_armgcc/openstack/02b-MAChigh/sixtop.c ****             sixtop_vars.six2six_state == SIX_STATE_WAIT_DELETEREQUEST_SENDDONE ||
 2141              		.loc 1 896 0
 2142 0c72 40F20003 		movw	r3, #:lower16:sixtop_vars
 2143 0c76 C0F20003 		movt	r3, #:upper16:sixtop_vars
 2144 0c7a 9B7B     		ldrb	r3, [r3, #14]	@ zero_extendqisi2
 895:build/openmote-cc2538_armgcc/openstack/02b-MAChigh/sixtop.c ****             sixtop_vars.six2six_state == SIX_STATE_WAIT_DELETEREQUEST_SENDDONE ||
 2145              		.loc 1 895 0
 2146 0c7c 032B     		cmp	r3, #3
 2147 0c7e 14D0     		beq	.L98
 897:build/openmote-cc2538_armgcc/openstack/02b-MAChigh/sixtop.c ****             sixtop_vars.six2six_state == SIX_STATE_WAIT_LISTREQUEST_SENDDONE   ||
 2148              		.loc 1 897 0
 2149 0c80 40F20003 		movw	r3, #:lower16:sixtop_vars
 2150 0c84 C0F20003 		movt	r3, #:upper16:sixtop_vars
 2151 0c88 9B7B     		ldrb	r3, [r3, #14]	@ zero_extendqisi2
 896:build/openmote-cc2538_armgcc/openstack/02b-MAChigh/sixtop.c ****             sixtop_vars.six2six_state == SIX_STATE_WAIT_DELETEREQUEST_SENDDONE ||
 2152              		.loc 1 896 0
 2153 0c8a 052B     		cmp	r3, #5
 2154 0c8c 0DD0     		beq	.L98
 898:build/openmote-cc2538_armgcc/openstack/02b-MAChigh/sixtop.c ****             sixtop_vars.six2six_state == SIX_STATE_WAIT_COUNTREQUEST_SENDDONE  ||
 2155              		.loc 1 898 0
 2156 0c8e 40F20003 		movw	r3, #:lower16:sixtop_vars
 2157 0c92 C0F20003 		movt	r3, #:upper16:sixtop_vars
 2158 0c96 9B7B     		ldrb	r3, [r3, #14]	@ zero_extendqisi2
 897:build/openmote-cc2538_armgcc/openstack/02b-MAChigh/sixtop.c ****             sixtop_vars.six2six_state == SIX_STATE_WAIT_LISTREQUEST_SENDDONE   ||
 2159              		.loc 1 897 0
 2160 0c98 042B     		cmp	r3, #4
 2161 0c9a 06D0     		beq	.L98
 899:build/openmote-cc2538_armgcc/openstack/02b-MAChigh/sixtop.c ****             sixtop_vars.six2six_state == SIX_STATE_WAIT_CLEARREQUEST_SENDDONE
 2162              		.loc 1 899 0
 2163 0c9c 40F20003 		movw	r3, #:lower16:sixtop_vars
 2164 0ca0 C0F20003 		movt	r3, #:upper16:sixtop_vars
 2165 0ca4 9B7B     		ldrb	r3, [r3, #14]	@ zero_extendqisi2
 898:build/openmote-cc2538_armgcc/openstack/02b-MAChigh/sixtop.c ****             sixtop_vars.six2six_state == SIX_STATE_WAIT_COUNTREQUEST_SENDDONE  ||
 2166              		.loc 1 898 0
 2167 0ca6 062B     		cmp	r3, #6
 2168 0ca8 0BD1     		bne	.L99
 2169              	.L98:
 900:build/openmote-cc2538_armgcc/openstack/02b-MAChigh/sixtop.c ****         ){
 901:build/openmote-cc2538_armgcc/openstack/02b-MAChigh/sixtop.c ****             // reset handler and state if the request is failed to send out
 902:build/openmote-cc2538_armgcc/openstack/02b-MAChigh/sixtop.c ****             sixtop_vars.six2six_state = SIX_STATE_IDLE;
 2170              		.loc 1 902 0
 2171 0caa 40F20003 		movw	r3, #:lower16:sixtop_vars
 2172 0cae C0F20003 		movt	r3, #:upper16:sixtop_vars
 2173 0cb2 0022     		movs	r2, #0
 2174 0cb4 9A73     		strb	r2, [r3, #14]
 903:build/openmote-cc2538_armgcc/openstack/02b-MAChigh/sixtop.c ****             sixtop_vars.handler       = SIX_HANDLER_NONE;
 2175              		.loc 1 903 0
 2176 0cb6 40F20003 		movw	r3, #:lower16:sixtop_vars
 2177 0cba C0F20003 		movt	r3, #:upper16:sixtop_vars
 2178 0cbe 0022     		movs	r2, #0
 2179 0cc0 1A74     		strb	r2, [r3, #16]
 2180              	.L99:
 904:build/openmote-cc2538_armgcc/openstack/02b-MAChigh/sixtop.c ****         }
 905:build/openmote-cc2538_armgcc/openstack/02b-MAChigh/sixtop.c ****         openqueue_freePacketBuffer(msg);
 2181              		.loc 1 905 0
 2182 0cc2 7868     		ldr	r0, [r7, #4]
 2183 0cc4 FFF7FEFF 		bl	openqueue_freePacketBuffer
 906:build/openmote-cc2538_armgcc/openstack/02b-MAChigh/sixtop.c ****         return;
 2184              		.loc 1 906 0
 2185 0cc8 23E1     		b	.L93
 2186              	.L97:
 907:build/openmote-cc2538_armgcc/openstack/02b-MAChigh/sixtop.c ****     }
 908:build/openmote-cc2538_armgcc/openstack/02b-MAChigh/sixtop.c ****     // the packet has been sent out successfully
 909:build/openmote-cc2538_armgcc/openstack/02b-MAChigh/sixtop.c ****     switch (sixtop_vars.six2six_state) {
 2187              		.loc 1 909 0
 2188 0cca 40F20003 		movw	r3, #:lower16:sixtop_vars
 2189 0cce C0F20003 		movt	r3, #:upper16:sixtop_vars
 2190 0cd2 9B7B     		ldrb	r3, [r3, #14]	@ zero_extendqisi2
 2191 0cd4 023B     		subs	r3, r3, #2
 2192 0cd6 042B     		cmp	r3, #4
 2193 0cd8 2FD8     		bhi	.L118
 2194 0cda 01A1     		adr	r1, .L102
 2195 0cdc 51F823F0 		ldr	pc, [r1, r3, lsl #2]
 2196              		.p2align 2
 2197              	.L102:
 2198 0ce0 F50C0000 		.word	.L101+1
 2199 0ce4 030D0000 		.word	.L103+1
 2200 0ce8 1F0D0000 		.word	.L104+1
 2201 0cec 110D0000 		.word	.L105+1
 2202 0cf0 2D0D0000 		.word	.L106+1
 2203              	.L101:
 910:build/openmote-cc2538_armgcc/openstack/02b-MAChigh/sixtop.c ****     case SIX_STATE_WAIT_ADDREQUEST_SENDDONE:
 911:build/openmote-cc2538_armgcc/openstack/02b-MAChigh/sixtop.c ****         sixtop_vars.six2six_state = SIX_STATE_WAIT_ADDRESPONSE;
 2204              		.loc 1 911 0
 2205 0cf4 40F20003 		movw	r3, #:lower16:sixtop_vars
 2206 0cf8 C0F20003 		movt	r3, #:upper16:sixtop_vars
 2207 0cfc 0722     		movs	r2, #7
 2208 0cfe 9A73     		strb	r2, [r3, #14]
 912:build/openmote-cc2538_armgcc/openstack/02b-MAChigh/sixtop.c ****         break;
 2209              		.loc 1 912 0
 2210 0d00 1CE0     		b	.L107
 2211              	.L103:
 913:build/openmote-cc2538_armgcc/openstack/02b-MAChigh/sixtop.c ****     case SIX_STATE_WAIT_DELETEREQUEST_SENDDONE:
 914:build/openmote-cc2538_armgcc/openstack/02b-MAChigh/sixtop.c ****         sixtop_vars.six2six_state = SIX_STATE_WAIT_DELETERESPONSE;
 2212              		.loc 1 914 0
 2213 0d02 40F20003 		movw	r3, #:lower16:sixtop_vars
 2214 0d06 C0F20003 		movt	r3, #:upper16:sixtop_vars
 2215 0d0a 0822     		movs	r2, #8
 2216 0d0c 9A73     		strb	r2, [r3, #14]
 915:build/openmote-cc2538_armgcc/openstack/02b-MAChigh/sixtop.c ****         break;
 2217              		.loc 1 915 0
 2218 0d0e 15E0     		b	.L107
 2219              	.L105:
 916:build/openmote-cc2538_armgcc/openstack/02b-MAChigh/sixtop.c ****     case SIX_STATE_WAIT_LISTREQUEST_SENDDONE:
 917:build/openmote-cc2538_armgcc/openstack/02b-MAChigh/sixtop.c ****         sixtop_vars.six2six_state = SIX_STATE_WAIT_LISTRESPONSE;
 2220              		.loc 1 917 0
 2221 0d10 40F20003 		movw	r3, #:lower16:sixtop_vars
 2222 0d14 C0F20003 		movt	r3, #:upper16:sixtop_vars
 2223 0d18 0A22     		movs	r2, #10
 2224 0d1a 9A73     		strb	r2, [r3, #14]
 918:build/openmote-cc2538_armgcc/openstack/02b-MAChigh/sixtop.c ****         break;
 2225              		.loc 1 918 0
 2226 0d1c 0EE0     		b	.L107
 2227              	.L104:
 919:build/openmote-cc2538_armgcc/openstack/02b-MAChigh/sixtop.c ****     case SIX_STATE_WAIT_COUNTREQUEST_SENDDONE:
 920:build/openmote-cc2538_armgcc/openstack/02b-MAChigh/sixtop.c ****         sixtop_vars.six2six_state = SIX_STATE_WAIT_COUNTRESPONSE;
 2228              		.loc 1 920 0
 2229 0d1e 40F20003 		movw	r3, #:lower16:sixtop_vars
 2230 0d22 C0F20003 		movt	r3, #:upper16:sixtop_vars
 2231 0d26 0922     		movs	r2, #9
 2232 0d28 9A73     		strb	r2, [r3, #14]
 921:build/openmote-cc2538_armgcc/openstack/02b-MAChigh/sixtop.c ****         break;
 2233              		.loc 1 921 0
 2234 0d2a 07E0     		b	.L107
 2235              	.L106:
 922:build/openmote-cc2538_armgcc/openstack/02b-MAChigh/sixtop.c ****     case SIX_STATE_WAIT_CLEARREQUEST_SENDDONE:
 923:build/openmote-cc2538_armgcc/openstack/02b-MAChigh/sixtop.c ****         sixtop_vars.six2six_state = SIX_STATE_WAIT_CLEARRESPONSE;
 2236              		.loc 1 923 0
 2237 0d2c 40F20003 		movw	r3, #:lower16:sixtop_vars
 2238 0d30 C0F20003 		movt	r3, #:upper16:sixtop_vars
 2239 0d34 0B22     		movs	r2, #11
 2240 0d36 9A73     		strb	r2, [r3, #14]
 924:build/openmote-cc2538_armgcc/openstack/02b-MAChigh/sixtop.c ****         break;
 2241              		.loc 1 924 0
 2242 0d38 00E0     		b	.L107
 2243              	.L118:
 925:build/openmote-cc2538_armgcc/openstack/02b-MAChigh/sixtop.c ****     default:
 926:build/openmote-cc2538_armgcc/openstack/02b-MAChigh/sixtop.c ****         break;
 2244              		.loc 1 926 0
 2245 0d3a 00BF     		nop
 2246              	.L107:
 927:build/openmote-cc2538_armgcc/openstack/02b-MAChigh/sixtop.c ****     }
 928:build/openmote-cc2538_armgcc/openstack/02b-MAChigh/sixtop.c ****     
 929:build/openmote-cc2538_armgcc/openstack/02b-MAChigh/sixtop.c ****     // in case a response is sent out, check the return code
 930:build/openmote-cc2538_armgcc/openstack/02b-MAChigh/sixtop.c ****     if (msg->l2_sixtop_returnCode == IANA_6TOP_RC_SUCCESS){
 2247              		.loc 1 930 0
 2248 0d3c 7B68     		ldr	r3, [r7, #4]
 2249 0d3e 93F85F30 		ldrb	r3, [r3, #95]	@ zero_extendqisi2
 2250 0d42 062B     		cmp	r3, #6
 2251 0d44 40F0AC80 		bne	.L108
 931:build/openmote-cc2538_armgcc/openstack/02b-MAChigh/sixtop.c ****         if (
 932:build/openmote-cc2538_armgcc/openstack/02b-MAChigh/sixtop.c ****             msg->l2_sixtop_requestCommand == IANA_6TOP_CMD_ADD ||
 2252              		.loc 1 932 0
 2253 0d48 7B68     		ldr	r3, [r7, #4]
 2254 0d4a 93F85E30 		ldrb	r3, [r3, #94]	@ zero_extendqisi2
 931:build/openmote-cc2538_armgcc/openstack/02b-MAChigh/sixtop.c ****         if (
 2255              		.loc 1 931 0
 2256 0d4e 012B     		cmp	r3, #1
 2257 0d50 05D0     		beq	.L109
 933:build/openmote-cc2538_armgcc/openstack/02b-MAChigh/sixtop.c ****             msg->l2_sixtop_requestCommand == IANA_6TOP_CMD_DELETE
 2258              		.loc 1 933 0
 2259 0d52 7B68     		ldr	r3, [r7, #4]
 2260 0d54 93F85E30 		ldrb	r3, [r3, #94]	@ zero_extendqisi2
 932:build/openmote-cc2538_armgcc/openstack/02b-MAChigh/sixtop.c ****             msg->l2_sixtop_requestCommand == IANA_6TOP_CMD_DELETE
 2261              		.loc 1 932 0
 2262 0d58 022B     		cmp	r3, #2
 2263 0d5a 40F09380 		bne	.L110
 2264              	.L109:
 934:build/openmote-cc2538_armgcc/openstack/02b-MAChigh/sixtop.c ****         ){
 935:build/openmote-cc2538_armgcc/openstack/02b-MAChigh/sixtop.c ****             if (numOfCells>0){
 2265              		.loc 1 935 0
 2266 0d5e FB7D     		ldrb	r3, [r7, #23]	@ zero_extendqisi2
 2267 0d60 002B     		cmp	r3, #0
 2268 0d62 00F08E80 		beq	.L111
 936:build/openmote-cc2538_armgcc/openstack/02b-MAChigh/sixtop.c ****                 for (i=0;i<numOfCells;i++){
 2269              		.loc 1 936 0
 2270 0d66 0023     		movs	r3, #0
 2271 0d68 FB77     		strb	r3, [r7, #31]
 2272 0d6a 64E0     		b	.L112
 2273              	.L113:
 937:build/openmote-cc2538_armgcc/openstack/02b-MAChigh/sixtop.c ****                     //TimeSlot 2B
 938:build/openmote-cc2538_armgcc/openstack/02b-MAChigh/sixtop.c ****                     cellList[i].tsNum       = *(ptr);
 2274              		.loc 1 938 0 discriminator 2
 2275 0d6c FA7F     		ldrb	r2, [r7, #31]	@ zero_extendqisi2
 2276 0d6e BB69     		ldr	r3, [r7, #24]
 2277 0d70 1B78     		ldrb	r3, [r3]	@ zero_extendqisi2
 2278 0d72 1946     		mov	r1, r3
 2279 0d74 1346     		mov	r3, r2
 2280 0d76 9B00     		lsls	r3, r3, #2
 2281 0d78 1344     		add	r3, r3, r2
 2282 0d7a 07F12002 		add	r2, r7, #32
 2283 0d7e 1344     		add	r3, r3, r2
 2284 0d80 183B     		subs	r3, r3, #24
 2285 0d82 0A46     		mov	r2, r1	@ movhi
 2286 0d84 1A80     		strh	r2, [r3]	@ unaligned
 939:build/openmote-cc2538_armgcc/openstack/02b-MAChigh/sixtop.c ****                     cellList[i].tsNum      |= (*(ptr+1))<<8;
 2287              		.loc 1 939 0 discriminator 2
 2288 0d86 FA7F     		ldrb	r2, [r7, #31]	@ zero_extendqisi2
 2289 0d88 F97F     		ldrb	r1, [r7, #31]	@ zero_extendqisi2
 2290 0d8a 0B46     		mov	r3, r1
 2291 0d8c 9B00     		lsls	r3, r3, #2
 2292 0d8e 0B44     		add	r3, r3, r1
 2293 0d90 07F12001 		add	r1, r7, #32
 2294 0d94 0B44     		add	r3, r3, r1
 2295 0d96 183B     		subs	r3, r3, #24
 2296 0d98 1B88     		ldrh	r3, [r3]	@ unaligned
 2297 0d9a 9BB2     		uxth	r3, r3
 2298 0d9c 99B2     		uxth	r1, r3
 2299 0d9e BB69     		ldr	r3, [r7, #24]
 2300 0da0 0133     		adds	r3, r3, #1
 2301 0da2 1B78     		ldrb	r3, [r3]	@ zero_extendqisi2
 2302 0da4 1B02     		lsls	r3, r3, #8
 2303 0da6 9BB2     		uxth	r3, r3
 2304 0da8 0B43     		orrs	r3, r3, r1
 2305 0daa 9BB2     		uxth	r3, r3
 2306 0dac 99B2     		uxth	r1, r3
 2307 0dae 1346     		mov	r3, r2
 2308 0db0 9B00     		lsls	r3, r3, #2
 2309 0db2 1344     		add	r3, r3, r2
 2310 0db4 07F12002 		add	r2, r7, #32
 2311 0db8 1344     		add	r3, r3, r2
 2312 0dba 183B     		subs	r3, r3, #24
 2313 0dbc 0A46     		mov	r2, r1	@ movhi
 2314 0dbe 1A80     		strh	r2, [r3]	@ unaligned
 940:build/openmote-cc2538_armgcc/openstack/02b-MAChigh/sixtop.c ****                     //Ch.Offset 2B
 941:build/openmote-cc2538_armgcc/openstack/02b-MAChigh/sixtop.c ****                     cellList[i].choffset    = *(ptr+2);
 2315              		.loc 1 941 0 discriminator 2
 2316 0dc0 FA7F     		ldrb	r2, [r7, #31]	@ zero_extendqisi2
 2317 0dc2 BB69     		ldr	r3, [r7, #24]
 2318 0dc4 0233     		adds	r3, r3, #2
 2319 0dc6 1B78     		ldrb	r3, [r3]	@ zero_extendqisi2
 2320 0dc8 1946     		mov	r1, r3
 2321 0dca 1346     		mov	r3, r2
 2322 0dcc 9B00     		lsls	r3, r3, #2
 2323 0dce 1344     		add	r3, r3, r2
 2324 0dd0 07F12002 		add	r2, r7, #32
 2325 0dd4 1344     		add	r3, r3, r2
 2326 0dd6 183B     		subs	r3, r3, #24
 2327 0dd8 0A46     		mov	r2, r1	@ movhi
 2328 0dda 5A80     		strh	r2, [r3, #2]	@ unaligned
 942:build/openmote-cc2538_armgcc/openstack/02b-MAChigh/sixtop.c ****                     cellList[i].choffset   |= (*(ptr+3))<<8;
 2329              		.loc 1 942 0 discriminator 2
 2330 0ddc FA7F     		ldrb	r2, [r7, #31]	@ zero_extendqisi2
 2331 0dde F97F     		ldrb	r1, [r7, #31]	@ zero_extendqisi2
 2332 0de0 0B46     		mov	r3, r1
 2333 0de2 9B00     		lsls	r3, r3, #2
 2334 0de4 0B44     		add	r3, r3, r1
 2335 0de6 07F12001 		add	r1, r7, #32
 2336 0dea 0B44     		add	r3, r3, r1
 2337 0dec 183B     		subs	r3, r3, #24
 2338 0dee 5B88     		ldrh	r3, [r3, #2]	@ unaligned
 2339 0df0 9BB2     		uxth	r3, r3
 2340 0df2 99B2     		uxth	r1, r3
 2341 0df4 BB69     		ldr	r3, [r7, #24]
 2342 0df6 0333     		adds	r3, r3, #3
 2343 0df8 1B78     		ldrb	r3, [r3]	@ zero_extendqisi2
 2344 0dfa 1B02     		lsls	r3, r3, #8
 2345 0dfc 9BB2     		uxth	r3, r3
 2346 0dfe 0B43     		orrs	r3, r3, r1
 2347 0e00 9BB2     		uxth	r3, r3
 2348 0e02 99B2     		uxth	r1, r3
 2349 0e04 1346     		mov	r3, r2
 2350 0e06 9B00     		lsls	r3, r3, #2
 2351 0e08 1344     		add	r3, r3, r2
 2352 0e0a 07F12002 		add	r2, r7, #32
 2353 0e0e 1344     		add	r3, r3, r2
 2354 0e10 183B     		subs	r3, r3, #24
 2355 0e12 0A46     		mov	r2, r1	@ movhi
 2356 0e14 5A80     		strh	r2, [r3, #2]	@ unaligned
 943:build/openmote-cc2538_armgcc/openstack/02b-MAChigh/sixtop.c ****                     ptr += 4;
 2357              		.loc 1 943 0 discriminator 2
 2358 0e16 BB69     		ldr	r3, [r7, #24]
 2359 0e18 0433     		adds	r3, r3, #4
 2360 0e1a BB61     		str	r3, [r7, #24]
 944:build/openmote-cc2538_armgcc/openstack/02b-MAChigh/sixtop.c ****                     // mark with linkoptions as ocuppied
 945:build/openmote-cc2538_armgcc/openstack/02b-MAChigh/sixtop.c ****                     cellList[i].linkoptions = CELLTYPE_RX;
 2361              		.loc 1 945 0 discriminator 2
 2362 0e1c FA7F     		ldrb	r2, [r7, #31]	@ zero_extendqisi2
 2363 0e1e 1346     		mov	r3, r2
 2364 0e20 9B00     		lsls	r3, r3, #2
 2365 0e22 1344     		add	r3, r3, r2
 2366 0e24 07F12001 		add	r1, r7, #32
 2367 0e28 0B44     		add	r3, r3, r1
 2368 0e2a 183B     		subs	r3, r3, #24
 2369 0e2c 0222     		movs	r2, #2
 2370 0e2e 1A71     		strb	r2, [r3, #4]
 936:build/openmote-cc2538_armgcc/openstack/02b-MAChigh/sixtop.c ****                     //TimeSlot 2B
 2371              		.loc 1 936 0 discriminator 2
 2372 0e30 FB7F     		ldrb	r3, [r7, #31]	@ zero_extendqisi2
 2373 0e32 0133     		adds	r3, r3, #1
 2374 0e34 FB77     		strb	r3, [r7, #31]
 2375              	.L112:
 936:build/openmote-cc2538_armgcc/openstack/02b-MAChigh/sixtop.c ****                     //TimeSlot 2B
 2376              		.loc 1 936 0 is_stmt 0 discriminator 1
 2377 0e36 FA7F     		ldrb	r2, [r7, #31]	@ zero_extendqisi2
 2378 0e38 FB7D     		ldrb	r3, [r7, #23]	@ zero_extendqisi2
 2379 0e3a 9A42     		cmp	r2, r3
 2380 0e3c 96D3     		bcc	.L113
 946:build/openmote-cc2538_armgcc/openstack/02b-MAChigh/sixtop.c ****                 }
 947:build/openmote-cc2538_armgcc/openstack/02b-MAChigh/sixtop.c ****                 if (msg->l2_sixtop_requestCommand == IANA_6TOP_CMD_ADD){
 2381              		.loc 1 947 0 is_stmt 1
 2382 0e3e 7B68     		ldr	r3, [r7, #4]
 2383 0e40 93F85E30 		ldrb	r3, [r3, #94]	@ zero_extendqisi2
 2384 0e44 012B     		cmp	r3, #1
 2385 0e46 0FD1     		bne	.L114
 948:build/openmote-cc2538_armgcc/openstack/02b-MAChigh/sixtop.c ****                      sixtop_addCellsByState(
 2386              		.loc 1 948 0
 2387 0e48 7B68     		ldr	r3, [r7, #4]
 2388 0e4a 93F85D00 		ldrb	r0, [r3, #93]	@ zero_extendqisi2
 2389 0e4e 7B68     		ldr	r3, [r7, #4]
 2390 0e50 03F13802 		add	r2, r3, #56
 949:build/openmote-cc2538_armgcc/openstack/02b-MAChigh/sixtop.c ****                           msg->l2_sixtop_frameID,
 950:build/openmote-cc2538_armgcc/openstack/02b-MAChigh/sixtop.c ****                           cellList,
 951:build/openmote-cc2538_armgcc/openstack/02b-MAChigh/sixtop.c ****                           &(msg->l2_nextORpreviousHop),
 952:build/openmote-cc2538_armgcc/openstack/02b-MAChigh/sixtop.c ****                           sixtop_vars.six2six_state);
 2391              		.loc 1 952 0
 2392 0e54 40F20003 		movw	r3, #:lower16:sixtop_vars
 2393 0e58 C0F20003 		movt	r3, #:upper16:sixtop_vars
 2394 0e5c 9B7B     		ldrb	r3, [r3, #14]	@ zero_extendqisi2
 948:build/openmote-cc2538_armgcc/openstack/02b-MAChigh/sixtop.c ****                      sixtop_addCellsByState(
 2395              		.loc 1 948 0
 2396 0e5e 07F10801 		add	r1, r7, #8
 2397 0e62 FFF7FEFF 		bl	sixtop_addCellsByState
 2398 0e66 0CE0     		b	.L111
 2399              	.L114:
 953:build/openmote-cc2538_armgcc/openstack/02b-MAChigh/sixtop.c ****                 } else {
 954:build/openmote-cc2538_armgcc/openstack/02b-MAChigh/sixtop.c ****                       sixtop_removeCellsByState(
 2400              		.loc 1 954 0
 2401 0e68 7B68     		ldr	r3, [r7, #4]
 2402 0e6a 93F85D10 		ldrb	r1, [r3, #93]	@ zero_extendqisi2
 2403 0e6e 7B68     		ldr	r3, [r7, #4]
 2404 0e70 3833     		adds	r3, r3, #56
 2405 0e72 07F10802 		add	r2, r7, #8
 2406 0e76 0846     		mov	r0, r1
 2407 0e78 1146     		mov	r1, r2
 2408 0e7a 1A46     		mov	r2, r3
 2409 0e7c FFF7FEFF 		bl	sixtop_removeCellsByState
 935:build/openmote-cc2538_armgcc/openstack/02b-MAChigh/sixtop.c ****                 for (i=0;i<numOfCells;i++){
 2410              		.loc 1 935 0
 2411 0e80 0EE0     		b	.L108
 2412              	.L111:
 935:build/openmote-cc2538_armgcc/openstack/02b-MAChigh/sixtop.c ****                 for (i=0;i<numOfCells;i++){
 2413              		.loc 1 935 0 is_stmt 0 discriminator 1
 2414 0e82 0DE0     		b	.L108
 2415              	.L110:
 955:build/openmote-cc2538_armgcc/openstack/02b-MAChigh/sixtop.c ****                           msg->l2_sixtop_frameID,
 956:build/openmote-cc2538_armgcc/openstack/02b-MAChigh/sixtop.c ****                           cellList,
 957:build/openmote-cc2538_armgcc/openstack/02b-MAChigh/sixtop.c ****                           &(msg->l2_nextORpreviousHop));
 958:build/openmote-cc2538_armgcc/openstack/02b-MAChigh/sixtop.c ****                 }
 959:build/openmote-cc2538_armgcc/openstack/02b-MAChigh/sixtop.c ****             }
 960:build/openmote-cc2538_armgcc/openstack/02b-MAChigh/sixtop.c ****         } else {
 961:build/openmote-cc2538_armgcc/openstack/02b-MAChigh/sixtop.c ****             if (msg->l2_sixtop_requestCommand == IANA_6TOP_CMD_CLEAR){
 2416              		.loc 1 961 0 is_stmt 1
 2417 0e84 7B68     		ldr	r3, [r7, #4]
 2418 0e86 93F85E30 		ldrb	r3, [r3, #94]	@ zero_extendqisi2
 2419 0e8a 052B     		cmp	r3, #5
 2420 0e8c 08D1     		bne	.L108
 962:build/openmote-cc2538_armgcc/openstack/02b-MAChigh/sixtop.c ****                 schedule_removeAllCells(msg->l2_sixtop_frameID,
 2421              		.loc 1 962 0
 2422 0e8e 7B68     		ldr	r3, [r7, #4]
 2423 0e90 93F85D20 		ldrb	r2, [r3, #93]	@ zero_extendqisi2
 2424 0e94 7B68     		ldr	r3, [r7, #4]
 2425 0e96 3833     		adds	r3, r3, #56
 2426 0e98 1046     		mov	r0, r2
 2427 0e9a 1946     		mov	r1, r3
 2428 0e9c FFF7FEFF 		bl	schedule_removeAllCells
 2429              	.L108:
 963:build/openmote-cc2538_armgcc/openstack/02b-MAChigh/sixtop.c ****                                       &(msg->l2_nextORpreviousHop));
 964:build/openmote-cc2538_armgcc/openstack/02b-MAChigh/sixtop.c ****             } else {
 965:build/openmote-cc2538_armgcc/openstack/02b-MAChigh/sixtop.c ****                 // for the request command of List or Count, there
 966:build/openmote-cc2538_armgcc/openstack/02b-MAChigh/sixtop.c ****                 // is no need to handle on response side.
 967:build/openmote-cc2538_armgcc/openstack/02b-MAChigh/sixtop.c ****             }
 968:build/openmote-cc2538_armgcc/openstack/02b-MAChigh/sixtop.c ****         }
 969:build/openmote-cc2538_armgcc/openstack/02b-MAChigh/sixtop.c ****     }
 970:build/openmote-cc2538_armgcc/openstack/02b-MAChigh/sixtop.c ****   
 971:build/openmote-cc2538_armgcc/openstack/02b-MAChigh/sixtop.c ****     if (
 972:build/openmote-cc2538_armgcc/openstack/02b-MAChigh/sixtop.c ****         sixtop_vars.six2six_state == SIX_STATE_WAIT_ADDRESPONSE        ||
 2430              		.loc 1 972 0
 2431 0ea0 40F20003 		movw	r3, #:lower16:sixtop_vars
 2432 0ea4 C0F20003 		movt	r3, #:upper16:sixtop_vars
 2433 0ea8 9B7B     		ldrb	r3, [r3, #14]	@ zero_extendqisi2
 971:build/openmote-cc2538_armgcc/openstack/02b-MAChigh/sixtop.c ****         sixtop_vars.six2six_state == SIX_STATE_WAIT_ADDRESPONSE        ||
 2434              		.loc 1 971 0
 2435 0eaa 072B     		cmp	r3, #7
 2436 0eac 1BD0     		beq	.L115
 973:build/openmote-cc2538_armgcc/openstack/02b-MAChigh/sixtop.c ****         sixtop_vars.six2six_state == SIX_STATE_WAIT_DELETERESPONSE     ||
 2437              		.loc 1 973 0
 2438 0eae 40F20003 		movw	r3, #:lower16:sixtop_vars
 2439 0eb2 C0F20003 		movt	r3, #:upper16:sixtop_vars
 2440 0eb6 9B7B     		ldrb	r3, [r3, #14]	@ zero_extendqisi2
 972:build/openmote-cc2538_armgcc/openstack/02b-MAChigh/sixtop.c ****         sixtop_vars.six2six_state == SIX_STATE_WAIT_DELETERESPONSE     ||
 2441              		.loc 1 972 0
 2442 0eb8 082B     		cmp	r3, #8
 2443 0eba 14D0     		beq	.L115
 974:build/openmote-cc2538_armgcc/openstack/02b-MAChigh/sixtop.c ****         sixtop_vars.six2six_state == SIX_STATE_WAIT_COUNTRESPONSE      ||
 2444              		.loc 1 974 0
 2445 0ebc 40F20003 		movw	r3, #:lower16:sixtop_vars
 2446 0ec0 C0F20003 		movt	r3, #:upper16:sixtop_vars
 2447 0ec4 9B7B     		ldrb	r3, [r3, #14]	@ zero_extendqisi2
 973:build/openmote-cc2538_armgcc/openstack/02b-MAChigh/sixtop.c ****         sixtop_vars.six2six_state == SIX_STATE_WAIT_DELETERESPONSE     ||
 2448              		.loc 1 973 0
 2449 0ec6 092B     		cmp	r3, #9
 2450 0ec8 0DD0     		beq	.L115
 975:build/openmote-cc2538_armgcc/openstack/02b-MAChigh/sixtop.c ****         sixtop_vars.six2six_state == SIX_STATE_WAIT_LISTRESPONSE       ||
 2451              		.loc 1 975 0
 2452 0eca 40F20003 		movw	r3, #:lower16:sixtop_vars
 2453 0ece C0F20003 		movt	r3, #:upper16:sixtop_vars
 2454 0ed2 9B7B     		ldrb	r3, [r3, #14]	@ zero_extendqisi2
 974:build/openmote-cc2538_armgcc/openstack/02b-MAChigh/sixtop.c ****         sixtop_vars.six2six_state == SIX_STATE_WAIT_COUNTRESPONSE      ||
 2455              		.loc 1 974 0
 2456 0ed4 0A2B     		cmp	r3, #10
 2457 0ed6 06D0     		beq	.L115
 976:build/openmote-cc2538_armgcc/openstack/02b-MAChigh/sixtop.c ****         sixtop_vars.six2six_state == SIX_STATE_WAIT_CLEARRESPONSE
 2458              		.loc 1 976 0
 2459 0ed8 40F20003 		movw	r3, #:lower16:sixtop_vars
 2460 0edc C0F20003 		movt	r3, #:upper16:sixtop_vars
 2461 0ee0 9B7B     		ldrb	r3, [r3, #14]	@ zero_extendqisi2
 975:build/openmote-cc2538_armgcc/openstack/02b-MAChigh/sixtop.c ****         sixtop_vars.six2six_state == SIX_STATE_WAIT_LISTRESPONSE       ||
 2462              		.loc 1 975 0
 2463 0ee2 0B2B     		cmp	r3, #11
 2464 0ee4 12D1     		bne	.L116
 2465              	.L115:
 977:build/openmote-cc2538_armgcc/openstack/02b-MAChigh/sixtop.c ****     ){
 978:build/openmote-cc2538_armgcc/openstack/02b-MAChigh/sixtop.c ****         // start timeout timer if I am waiting for a response
 979:build/openmote-cc2538_armgcc/openstack/02b-MAChigh/sixtop.c ****         opentimers_setPeriod(
 2466              		.loc 1 979 0
 2467 0ee6 40F20003 		movw	r3, #:lower16:sixtop_vars
 2468 0eea C0F20003 		movt	r3, #:upper16:sixtop_vars
 2469 0eee 1B7A     		ldrb	r3, [r3, #8]	@ zero_extendqisi2
 2470 0ef0 1846     		mov	r0, r3
 2471 0ef2 0021     		movs	r1, #0
 2472 0ef4 4FF47A62 		mov	r2, #4000
 2473 0ef8 FFF7FEFF 		bl	opentimers_setPeriod
 980:build/openmote-cc2538_armgcc/openstack/02b-MAChigh/sixtop.c ****             sixtop_vars.timeoutTimerId,
 981:build/openmote-cc2538_armgcc/openstack/02b-MAChigh/sixtop.c ****             TIME_MS,
 982:build/openmote-cc2538_armgcc/openstack/02b-MAChigh/sixtop.c ****             SIX2SIX_TIMEOUT_MS
 983:build/openmote-cc2538_armgcc/openstack/02b-MAChigh/sixtop.c ****         );
 984:build/openmote-cc2538_armgcc/openstack/02b-MAChigh/sixtop.c ****         opentimers_restart(sixtop_vars.timeoutTimerId);
 2474              		.loc 1 984 0
 2475 0efc 40F20003 		movw	r3, #:lower16:sixtop_vars
 2476 0f00 C0F20003 		movt	r3, #:upper16:sixtop_vars
 2477 0f04 1B7A     		ldrb	r3, [r3, #8]	@ zero_extendqisi2
 2478 0f06 1846     		mov	r0, r3
 2479 0f08 FFF7FEFF 		bl	opentimers_restart
 2480              	.L116:
 985:build/openmote-cc2538_armgcc/openstack/02b-MAChigh/sixtop.c ****     }
 986:build/openmote-cc2538_armgcc/openstack/02b-MAChigh/sixtop.c ****     // discard reservation packets this component has created
 987:build/openmote-cc2538_armgcc/openstack/02b-MAChigh/sixtop.c ****     openqueue_freePacketBuffer(msg);
 2481              		.loc 1 987 0
 2482 0f0c 7868     		ldr	r0, [r7, #4]
 2483 0f0e FFF7FEFF 		bl	openqueue_freePacketBuffer
 2484              	.L93:
 988:build/openmote-cc2538_armgcc/openstack/02b-MAChigh/sixtop.c **** }
 2485              		.loc 1 988 0
 2486 0f12 2037     		adds	r7, r7, #32
 2487 0f14 BD46     		mov	sp, r7
 2488              		@ sp needed
 2489 0f16 80BD     		pop	{r7, pc}
 2490              		.cfi_endproc
 2491              	.LFE21:
 2493              		.align	2
 2494              		.global	sixtop_processIEs
 2495              		.thumb
 2496              		.thumb_func
 2498              	sixtop_processIEs:
 2499              	.LFB22:
 989:build/openmote-cc2538_armgcc/openstack/02b-MAChigh/sixtop.c **** 
 990:build/openmote-cc2538_armgcc/openstack/02b-MAChigh/sixtop.c **** port_INLINE bool sixtop_processIEs(OpenQueueEntry_t* pkt, uint16_t * lenIE) {
 2500              		.loc 1 990 0
 2501              		.cfi_startproc
 2502              		@ args = 0, pretend = 0, frame = 24
 2503              		@ frame_needed = 1, uses_anonymous_args = 0
 2504 0f18 90B5     		push	{r4, r7, lr}
 2505              		.cfi_def_cfa_offset 12
 2506              		.cfi_offset 4, -12
 2507              		.cfi_offset 7, -8
 2508              		.cfi_offset 14, -4
 2509 0f1a 89B0     		sub	sp, sp, #36
 2510              		.cfi_def_cfa_offset 48
 2511 0f1c 02AF     		add	r7, sp, #8
 2512              		.cfi_def_cfa 7, 40
 2513 0f1e 7860     		str	r0, [r7, #4]
 2514 0f20 3960     		str	r1, [r7]
 991:build/openmote-cc2538_armgcc/openstack/02b-MAChigh/sixtop.c ****     uint8_t ptr;
 992:build/openmote-cc2538_armgcc/openstack/02b-MAChigh/sixtop.c ****     uint8_t temp_8b,gr_elem_id,subid;
 993:build/openmote-cc2538_armgcc/openstack/02b-MAChigh/sixtop.c ****     uint16_t temp_16b,len,sublen;
 994:build/openmote-cc2538_armgcc/openstack/02b-MAChigh/sixtop.c ****     uint8_t version,commandIdORcode;
 995:build/openmote-cc2538_armgcc/openstack/02b-MAChigh/sixtop.c ****     uint8_t sfId;
 996:build/openmote-cc2538_armgcc/openstack/02b-MAChigh/sixtop.c ****    
 997:build/openmote-cc2538_armgcc/openstack/02b-MAChigh/sixtop.c ****     ptr=0;  
 2515              		.loc 1 997 0
 2516 0f22 0023     		movs	r3, #0
 2517 0f24 FB74     		strb	r3, [r7, #19]
 998:build/openmote-cc2538_armgcc/openstack/02b-MAChigh/sixtop.c ****   
 999:build/openmote-cc2538_armgcc/openstack/02b-MAChigh/sixtop.c ****     //candidate IE header  if type ==0 header IE if type==1 payload IE
1000:build/openmote-cc2538_armgcc/openstack/02b-MAChigh/sixtop.c ****     temp_8b = *((uint8_t*)(pkt->payload)+ptr);
 2518              		.loc 1 1000 0
 2519 0f26 7B68     		ldr	r3, [r7, #4]
 2520 0f28 5A68     		ldr	r2, [r3, #4]
 2521 0f2a FB7C     		ldrb	r3, [r7, #19]	@ zero_extendqisi2
 2522 0f2c 1344     		add	r3, r3, r2
 2523 0f2e 1B78     		ldrb	r3, [r3]
 2524 0f30 BB74     		strb	r3, [r7, #18]
1001:build/openmote-cc2538_armgcc/openstack/02b-MAChigh/sixtop.c ****     ptr++;
 2525              		.loc 1 1001 0
 2526 0f32 FB7C     		ldrb	r3, [r7, #19]	@ zero_extendqisi2
 2527 0f34 0133     		adds	r3, r3, #1
 2528 0f36 FB74     		strb	r3, [r7, #19]
1002:build/openmote-cc2538_armgcc/openstack/02b-MAChigh/sixtop.c ****     temp_16b = temp_8b + ((*((uint8_t*)(pkt->payload)+ptr))<<8);
 2529              		.loc 1 1002 0
 2530 0f38 BB7C     		ldrb	r3, [r7, #18]	@ zero_extendqisi2
 2531 0f3a 9AB2     		uxth	r2, r3
 2532 0f3c 7B68     		ldr	r3, [r7, #4]
 2533 0f3e 5968     		ldr	r1, [r3, #4]
 2534 0f40 FB7C     		ldrb	r3, [r7, #19]	@ zero_extendqisi2
 2535 0f42 0B44     		add	r3, r3, r1
 2536 0f44 1B78     		ldrb	r3, [r3]	@ zero_extendqisi2
 2537 0f46 1B02     		lsls	r3, r3, #8
 2538 0f48 9BB2     		uxth	r3, r3
 2539 0f4a 1344     		add	r3, r3, r2
 2540 0f4c 3B82     		strh	r3, [r7, #16]	@ movhi
1003:build/openmote-cc2538_armgcc/openstack/02b-MAChigh/sixtop.c ****     ptr++;
 2541              		.loc 1 1003 0
 2542 0f4e FB7C     		ldrb	r3, [r7, #19]	@ zero_extendqisi2
 2543 0f50 0133     		adds	r3, r3, #1
 2544 0f52 FB74     		strb	r3, [r7, #19]
1004:build/openmote-cc2538_armgcc/openstack/02b-MAChigh/sixtop.c ****     *lenIE = ptr;
 2545              		.loc 1 1004 0
 2546 0f54 FB7C     		ldrb	r3, [r7, #19]	@ zero_extendqisi2
 2547 0f56 9AB2     		uxth	r2, r3
 2548 0f58 3B68     		ldr	r3, [r7]
 2549 0f5a 1A80     		strh	r2, [r3]	@ movhi
1005:build/openmote-cc2538_armgcc/openstack/02b-MAChigh/sixtop.c ****     if(
1006:build/openmote-cc2538_armgcc/openstack/02b-MAChigh/sixtop.c ****         (temp_16b & IEEE802154E_DESC_TYPE_PAYLOAD_IE) == 
 2550              		.loc 1 1006 0
 2551 0f5c 3B8A     		ldrh	r3, [r7, #16]
1005:build/openmote-cc2538_armgcc/openstack/02b-MAChigh/sixtop.c ****     if(
 2552              		.loc 1 1005 0
 2553 0f5e 1BB2     		sxth	r3, r3
 2554 0f60 002B     		cmp	r3, #0
 2555 0f62 09DA     		bge	.L120
1007:build/openmote-cc2538_armgcc/openstack/02b-MAChigh/sixtop.c ****         IEEE802154E_DESC_TYPE_PAYLOAD_IE
1008:build/openmote-cc2538_armgcc/openstack/02b-MAChigh/sixtop.c ****     ){
1009:build/openmote-cc2538_armgcc/openstack/02b-MAChigh/sixtop.c ****         //payload IE - last bit is 1
1010:build/openmote-cc2538_armgcc/openstack/02b-MAChigh/sixtop.c ****         len = temp_16b & IEEE802154E_DESC_LEN_PAYLOAD_IE_MASK;
 2556              		.loc 1 1010 0
 2557 0f64 3B8A     		ldrh	r3, [r7, #16]	@ movhi
 2558 0f66 C3F30A03 		ubfx	r3, r3, #0, #11
 2559 0f6a BB82     		strh	r3, [r7, #20]	@ movhi
1011:build/openmote-cc2538_armgcc/openstack/02b-MAChigh/sixtop.c ****         gr_elem_id = 
1012:build/openmote-cc2538_armgcc/openstack/02b-MAChigh/sixtop.c ****             (temp_16b & IEEE802154E_DESC_GROUPID_PAYLOAD_IE_MASK)>>
 2560              		.loc 1 1012 0
 2561 0f6c 3B8A     		ldrh	r3, [r7, #16]
 2562 0f6e 03F4F043 		and	r3, r3, #30720
 2563 0f72 DB12     		asrs	r3, r3, #11
1011:build/openmote-cc2538_armgcc/openstack/02b-MAChigh/sixtop.c ****         gr_elem_id = 
 2564              		.loc 1 1011 0
 2565 0f74 FB75     		strb	r3, [r7, #23]
 2566 0f76 08E0     		b	.L121
 2567              	.L120:
1013:build/openmote-cc2538_armgcc/openstack/02b-MAChigh/sixtop.c ****             IEEE802154E_DESC_GROUPID_PAYLOAD_IE_SHIFT;
1014:build/openmote-cc2538_armgcc/openstack/02b-MAChigh/sixtop.c ****     }else {
1015:build/openmote-cc2538_armgcc/openstack/02b-MAChigh/sixtop.c ****         //header IE - last bit is 0
1016:build/openmote-cc2538_armgcc/openstack/02b-MAChigh/sixtop.c ****         len = temp_16b & IEEE802154E_DESC_LEN_HEADER_IE_MASK;
 2568              		.loc 1 1016 0
 2569 0f78 3B8A     		ldrh	r3, [r7, #16]	@ movhi
 2570 0f7a 03F07F03 		and	r3, r3, #127
 2571 0f7e BB82     		strh	r3, [r7, #20]	@ movhi
1017:build/openmote-cc2538_armgcc/openstack/02b-MAChigh/sixtop.c ****         gr_elem_id = (temp_16b & IEEE802154E_DESC_ELEMENTID_HEADER_IE_MASK)>>
 2572              		.loc 1 1017 0
 2573 0f80 3B8A     		ldrh	r3, [r7, #16]
 2574 0f82 03F4FF43 		and	r3, r3, #32640
 2575 0f86 DB11     		asrs	r3, r3, #7
 2576 0f88 FB75     		strb	r3, [r7, #23]
 2577              	.L121:
1018:build/openmote-cc2538_armgcc/openstack/02b-MAChigh/sixtop.c ****             IEEE802154E_DESC_ELEMENTID_HEADER_IE_SHIFT; 
1019:build/openmote-cc2538_armgcc/openstack/02b-MAChigh/sixtop.c ****     }
1020:build/openmote-cc2538_armgcc/openstack/02b-MAChigh/sixtop.c ****   
1021:build/openmote-cc2538_armgcc/openstack/02b-MAChigh/sixtop.c ****     *lenIE += len;
 2578              		.loc 1 1021 0
 2579 0f8a 3B68     		ldr	r3, [r7]
 2580 0f8c 1A88     		ldrh	r2, [r3]
 2581 0f8e BB8A     		ldrh	r3, [r7, #20]	@ movhi
 2582 0f90 1344     		add	r3, r3, r2
 2583 0f92 9AB2     		uxth	r2, r3
 2584 0f94 3B68     		ldr	r3, [r7]
 2585 0f96 1A80     		strh	r2, [r3]	@ movhi
1022:build/openmote-cc2538_armgcc/openstack/02b-MAChigh/sixtop.c ****     //now determine sub elements if any
1023:build/openmote-cc2538_armgcc/openstack/02b-MAChigh/sixtop.c ****     switch(gr_elem_id){
 2586              		.loc 1 1023 0
 2587 0f98 FB7D     		ldrb	r3, [r7, #23]	@ zero_extendqisi2
 2588 0f9a 052B     		cmp	r3, #5
 2589 0f9c 44D1     		bne	.L130
1024:build/openmote-cc2538_armgcc/openstack/02b-MAChigh/sixtop.c ****     case SIXTOP_IE_GROUPID:
1025:build/openmote-cc2538_armgcc/openstack/02b-MAChigh/sixtop.c ****         subid = *((uint8_t*)(pkt->payload)+ptr);
 2590              		.loc 1 1025 0
 2591 0f9e 7B68     		ldr	r3, [r7, #4]
 2592 0fa0 5A68     		ldr	r2, [r3, #4]
 2593 0fa2 FB7C     		ldrb	r3, [r7, #19]	@ zero_extendqisi2
 2594 0fa4 1344     		add	r3, r3, r2
 2595 0fa6 1B78     		ldrb	r3, [r3]
 2596 0fa8 FB73     		strb	r3, [r7, #15]
1026:build/openmote-cc2538_armgcc/openstack/02b-MAChigh/sixtop.c ****         ptr += 1;
 2597              		.loc 1 1026 0
 2598 0faa FB7C     		ldrb	r3, [r7, #19]
 2599 0fac 0133     		adds	r3, r3, #1
 2600 0fae FB74     		strb	r3, [r7, #19]
1027:build/openmote-cc2538_armgcc/openstack/02b-MAChigh/sixtop.c ****         sublen = len - 1;
 2601              		.loc 1 1027 0
 2602 0fb0 BB8A     		ldrh	r3, [r7, #20]	@ movhi
 2603 0fb2 013B     		subs	r3, r3, #1
 2604 0fb4 BB81     		strh	r3, [r7, #12]	@ movhi
1028:build/openmote-cc2538_armgcc/openstack/02b-MAChigh/sixtop.c ****         switch(subid){
 2605              		.loc 1 1028 0
 2606 0fb6 FB7B     		ldrb	r3, [r7, #15]	@ zero_extendqisi2
 2607 0fb8 C92B     		cmp	r3, #201
 2608 0fba 33D1     		bne	.L131
1029:build/openmote-cc2538_armgcc/openstack/02b-MAChigh/sixtop.c ****             case IANA_6TOP_SUBIE_ID:
1030:build/openmote-cc2538_armgcc/openstack/02b-MAChigh/sixtop.c ****                 temp_8b = *((uint8_t*)(pkt->payload)+ptr);
 2609              		.loc 1 1030 0
 2610 0fbc 7B68     		ldr	r3, [r7, #4]
 2611 0fbe 5A68     		ldr	r2, [r3, #4]
 2612 0fc0 FB7C     		ldrb	r3, [r7, #19]	@ zero_extendqisi2
 2613 0fc2 1344     		add	r3, r3, r2
 2614 0fc4 1B78     		ldrb	r3, [r3]
 2615 0fc6 BB74     		strb	r3, [r7, #18]
1031:build/openmote-cc2538_armgcc/openstack/02b-MAChigh/sixtop.c ****                 ptr = ptr + 1;
 2616              		.loc 1 1031 0
 2617 0fc8 FB7C     		ldrb	r3, [r7, #19]
 2618 0fca 0133     		adds	r3, r3, #1
 2619 0fcc FB74     		strb	r3, [r7, #19]
1032:build/openmote-cc2538_armgcc/openstack/02b-MAChigh/sixtop.c ****                 // get 6P version and command ID
1033:build/openmote-cc2538_armgcc/openstack/02b-MAChigh/sixtop.c ****                 version   = temp_8b & 0x0f;
 2620              		.loc 1 1033 0
 2621 0fce BB7C     		ldrb	r3, [r7, #18]
 2622 0fd0 03F00F03 		and	r3, r3, #15
 2623 0fd4 FB72     		strb	r3, [r7, #11]
1034:build/openmote-cc2538_armgcc/openstack/02b-MAChigh/sixtop.c ****                 commandIdORcode = (temp_8b >> 4) & 0x0f;
 2624              		.loc 1 1034 0
 2625 0fd6 BB7C     		ldrb	r3, [r7, #18]	@ zero_extendqisi2
 2626 0fd8 1B09     		lsrs	r3, r3, #4
 2627 0fda BB72     		strb	r3, [r7, #10]
1035:build/openmote-cc2538_armgcc/openstack/02b-MAChigh/sixtop.c ****                 // get sf_id
1036:build/openmote-cc2538_armgcc/openstack/02b-MAChigh/sixtop.c ****                 sfId = *((uint8_t*)(pkt->payload)+ptr);
 2628              		.loc 1 1036 0
 2629 0fdc 7B68     		ldr	r3, [r7, #4]
 2630 0fde 5A68     		ldr	r2, [r3, #4]
 2631 0fe0 FB7C     		ldrb	r3, [r7, #19]	@ zero_extendqisi2
 2632 0fe2 1344     		add	r3, r3, r2
 2633 0fe4 1B78     		ldrb	r3, [r3]
 2634 0fe6 7B72     		strb	r3, [r7, #9]
1037:build/openmote-cc2538_armgcc/openstack/02b-MAChigh/sixtop.c ****                 ptr = ptr + 1;
 2635              		.loc 1 1037 0
 2636 0fe8 FB7C     		ldrb	r3, [r7, #19]
 2637 0fea 0133     		adds	r3, r3, #1
 2638 0fec FB74     		strb	r3, [r7, #19]
1038:build/openmote-cc2538_armgcc/openstack/02b-MAChigh/sixtop.c ****                 sixtop_notifyReceiveCommand(version,commandIdORcode,sfId,ptr,sublen-2,pkt);
 2639              		.loc 1 1038 0
 2640 0fee BB89     		ldrh	r3, [r7, #12]	@ movhi
 2641 0ff0 DBB2     		uxtb	r3, r3
 2642 0ff2 023B     		subs	r3, r3, #2
 2643 0ff4 DCB2     		uxtb	r4, r3
 2644 0ff6 F87A     		ldrb	r0, [r7, #11]	@ zero_extendqisi2
 2645 0ff8 B97A     		ldrb	r1, [r7, #10]	@ zero_extendqisi2
 2646 0ffa 7A7A     		ldrb	r2, [r7, #9]	@ zero_extendqisi2
 2647 0ffc FB7C     		ldrb	r3, [r7, #19]	@ zero_extendqisi2
 2648 0ffe 0094     		str	r4, [sp]
 2649 1000 7C68     		ldr	r4, [r7, #4]
 2650 1002 0194     		str	r4, [sp, #4]
 2651 1004 FFF7FEFF 		bl	sixtop_notifyReceiveCommand
1039:build/openmote-cc2538_armgcc/openstack/02b-MAChigh/sixtop.c ****                 ptr += sublen-2;
 2652              		.loc 1 1039 0
 2653 1008 BB89     		ldrh	r3, [r7, #12]	@ movhi
 2654 100a DAB2     		uxtb	r2, r3
 2655 100c FB7C     		ldrb	r3, [r7, #19]
 2656 100e 1344     		add	r3, r3, r2
 2657 1010 DBB2     		uxtb	r3, r3
 2658 1012 023B     		subs	r3, r3, #2
 2659 1014 FB74     		strb	r3, [r7, #19]
1040:build/openmote-cc2538_armgcc/openstack/02b-MAChigh/sixtop.c ****                 break;
 2660              		.loc 1 1040 0
 2661 1016 00BF     		nop
1041:build/openmote-cc2538_armgcc/openstack/02b-MAChigh/sixtop.c ****             default:
1042:build/openmote-cc2538_armgcc/openstack/02b-MAChigh/sixtop.c ****                 return FALSE;
1043:build/openmote-cc2538_armgcc/openstack/02b-MAChigh/sixtop.c ****         }
1044:build/openmote-cc2538_armgcc/openstack/02b-MAChigh/sixtop.c ****         break;
 2662              		.loc 1 1044 0
 2663 1018 00BF     		nop
1045:build/openmote-cc2538_armgcc/openstack/02b-MAChigh/sixtop.c ****     default:
1046:build/openmote-cc2538_armgcc/openstack/02b-MAChigh/sixtop.c ****         *lenIE = 0;//no header or not recognized.
1047:build/openmote-cc2538_armgcc/openstack/02b-MAChigh/sixtop.c ****         return FALSE;
1048:build/openmote-cc2538_armgcc/openstack/02b-MAChigh/sixtop.c ****     }
1049:build/openmote-cc2538_armgcc/openstack/02b-MAChigh/sixtop.c ****     if (*lenIE>127) {
 2664              		.loc 1 1049 0
 2665 101a 3B68     		ldr	r3, [r7]
 2666 101c 1B88     		ldrh	r3, [r3]
 2667 101e 7F2B     		cmp	r3, #127
 2668 1020 0FD9     		bls	.L129
 2669 1022 06E0     		b	.L132
 2670              	.L131:
1042:build/openmote-cc2538_armgcc/openstack/02b-MAChigh/sixtop.c ****         }
 2671              		.loc 1 1042 0
 2672 1024 0023     		movs	r3, #0
 2673 1026 0DE0     		b	.L127
 2674              	.L130:
1046:build/openmote-cc2538_armgcc/openstack/02b-MAChigh/sixtop.c ****         return FALSE;
 2675              		.loc 1 1046 0
 2676 1028 3B68     		ldr	r3, [r7]
 2677 102a 0022     		movs	r2, #0
 2678 102c 1A80     		strh	r2, [r3]	@ movhi
1047:build/openmote-cc2538_armgcc/openstack/02b-MAChigh/sixtop.c ****     }
 2679              		.loc 1 1047 0
 2680 102e 0023     		movs	r3, #0
 2681 1030 08E0     		b	.L127
 2682              	.L132:
1050:build/openmote-cc2538_armgcc/openstack/02b-MAChigh/sixtop.c ****         // log the error
1051:build/openmote-cc2538_armgcc/openstack/02b-MAChigh/sixtop.c ****         openserial_printError(COMPONENT_IEEE802154E,ERR_HEADER_TOO_LONG,
 2683              		.loc 1 1051 0
 2684 1032 3B68     		ldr	r3, [r7]
 2685 1034 1B88     		ldrh	r3, [r3]
 2686 1036 0920     		movs	r0, #9
 2687 1038 3321     		movs	r1, #51
 2688 103a 1A46     		mov	r2, r3
 2689 103c 0123     		movs	r3, #1
 2690 103e FFF7FEFF 		bl	openserial_printError
 2691              	.L129:
1052:build/openmote-cc2538_armgcc/openstack/02b-MAChigh/sixtop.c ****                            (errorparameter_t)*lenIE,
1053:build/openmote-cc2538_armgcc/openstack/02b-MAChigh/sixtop.c ****                            (errorparameter_t)1);
1054:build/openmote-cc2538_armgcc/openstack/02b-MAChigh/sixtop.c ****     }
1055:build/openmote-cc2538_armgcc/openstack/02b-MAChigh/sixtop.c ****     return TRUE;
 2692              		.loc 1 1055 0
 2693 1042 0123     		movs	r3, #1
 2694              	.L127:
1056:build/openmote-cc2538_armgcc/openstack/02b-MAChigh/sixtop.c **** }
 2695              		.loc 1 1056 0
 2696 1044 1846     		mov	r0, r3
 2697 1046 1C37     		adds	r7, r7, #28
 2698 1048 BD46     		mov	sp, r7
 2699              		@ sp needed
 2700 104a 90BD     		pop	{r4, r7, pc}
 2701              		.cfi_endproc
 2702              	.LFE22:
 2704              		.align	2
 2705              		.global	sixtop_notifyReceiveCommand
 2706              		.thumb
 2707              		.thumb_func
 2709              	sixtop_notifyReceiveCommand:
 2710              	.LFB23:
1057:build/openmote-cc2538_armgcc/openstack/02b-MAChigh/sixtop.c **** 
1058:build/openmote-cc2538_armgcc/openstack/02b-MAChigh/sixtop.c **** void sixtop_notifyReceiveCommand(
1059:build/openmote-cc2538_armgcc/openstack/02b-MAChigh/sixtop.c ****     uint8_t           version, 
1060:build/openmote-cc2538_armgcc/openstack/02b-MAChigh/sixtop.c ****     uint8_t           commandIdORcode, 
1061:build/openmote-cc2538_armgcc/openstack/02b-MAChigh/sixtop.c ****     uint8_t           sfId,
1062:build/openmote-cc2538_armgcc/openstack/02b-MAChigh/sixtop.c ****     uint8_t           ptr,
1063:build/openmote-cc2538_armgcc/openstack/02b-MAChigh/sixtop.c ****     uint8_t           length,
1064:build/openmote-cc2538_armgcc/openstack/02b-MAChigh/sixtop.c ****     OpenQueueEntry_t* pkt
1065:build/openmote-cc2538_armgcc/openstack/02b-MAChigh/sixtop.c **** ){
 2711              		.loc 1 1065 0
 2712              		.cfi_startproc
 2713              		@ args = 8, pretend = 0, frame = 40
 2714              		@ frame_needed = 1, uses_anonymous_args = 0
 2715 104c 80B5     		push	{r7, lr}
 2716              		.cfi_def_cfa_offset 8
 2717              		.cfi_offset 7, -8
 2718              		.cfi_offset 14, -4
 2719 104e 8AB0     		sub	sp, sp, #40
 2720              		.cfi_def_cfa_offset 48
 2721 1050 00AF     		add	r7, sp, #0
 2722              		.cfi_def_cfa_register 7
 2723 1052 F871     		strb	r0, [r7, #7]
 2724 1054 B971     		strb	r1, [r7, #6]
 2725 1056 7A71     		strb	r2, [r7, #5]
 2726 1058 3B71     		strb	r3, [r7, #4]
1066:build/openmote-cc2538_armgcc/openstack/02b-MAChigh/sixtop.c ****     uint8_t           code;
1067:build/openmote-cc2538_armgcc/openstack/02b-MAChigh/sixtop.c ****     uint8_t           frameID;
1068:build/openmote-cc2538_armgcc/openstack/02b-MAChigh/sixtop.c ****     uint8_t           numOfCells;
1069:build/openmote-cc2538_armgcc/openstack/02b-MAChigh/sixtop.c ****     uint16_t          count;
1070:build/openmote-cc2538_armgcc/openstack/02b-MAChigh/sixtop.c ****     cellInfo_ht       cellList[SCHEDULEIEMAXNUMCELLS];
1071:build/openmote-cc2538_armgcc/openstack/02b-MAChigh/sixtop.c ****     OpenQueueEntry_t* response_pkt;
1072:build/openmote-cc2538_armgcc/openstack/02b-MAChigh/sixtop.c ****     uint8_t           len = 0;
 2727              		.loc 1 1072 0
 2728 105a 0023     		movs	r3, #0
 2729 105c 87F82530 		strb	r3, [r7, #37]
1073:build/openmote-cc2538_armgcc/openstack/02b-MAChigh/sixtop.c ****     uint8_t           container;
1074:build/openmote-cc2538_armgcc/openstack/02b-MAChigh/sixtop.c ****     
1075:build/openmote-cc2538_armgcc/openstack/02b-MAChigh/sixtop.c ****     memset(cellList,0,sizeof(cellList));
 2730              		.loc 1 1075 0
 2731 1060 07F10C03 		add	r3, r7, #12
 2732 1064 1846     		mov	r0, r3
 2733 1066 0021     		movs	r1, #0
 2734 1068 0F22     		movs	r2, #15
 2735 106a FFF7FEFF 		bl	memset
1076:build/openmote-cc2538_armgcc/openstack/02b-MAChigh/sixtop.c ****     
1077:build/openmote-cc2538_armgcc/openstack/02b-MAChigh/sixtop.c ****     // get a free packet buffer
1078:build/openmote-cc2538_armgcc/openstack/02b-MAChigh/sixtop.c ****     response_pkt = openqueue_getFreePacketBuffer(COMPONENT_SIXTOP_RES);
 2736              		.loc 1 1078 0
 2737 106e 0F20     		movs	r0, #15
 2738 1070 FFF7FEFF 		bl	openqueue_getFreePacketBuffer
 2739 1074 3862     		str	r0, [r7, #32]
1079:build/openmote-cc2538_armgcc/openstack/02b-MAChigh/sixtop.c ****     if (response_pkt==NULL) {
 2740              		.loc 1 1079 0
 2741 1076 3B6A     		ldr	r3, [r7, #32]
 2742 1078 002B     		cmp	r3, #0
 2743 107a 06D1     		bne	.L134
1080:build/openmote-cc2538_armgcc/openstack/02b-MAChigh/sixtop.c ****         openserial_printError(
 2744              		.loc 1 1080 0
 2745 107c 0F20     		movs	r0, #15
 2746 107e 2C21     		movs	r1, #44
 2747 1080 0022     		movs	r2, #0
 2748 1082 0023     		movs	r3, #0
 2749 1084 FFF7FEFF 		bl	openserial_printError
 2750 1088 0CE2     		b	.L133
 2751              	.L134:
1081:build/openmote-cc2538_armgcc/openstack/02b-MAChigh/sixtop.c ****             COMPONENT_SIXTOP_RES,
1082:build/openmote-cc2538_armgcc/openstack/02b-MAChigh/sixtop.c ****             ERR_NO_FREE_PACKET_BUFFER,
1083:build/openmote-cc2538_armgcc/openstack/02b-MAChigh/sixtop.c ****             (errorparameter_t)0,
1084:build/openmote-cc2538_armgcc/openstack/02b-MAChigh/sixtop.c ****             (errorparameter_t)0
1085:build/openmote-cc2538_armgcc/openstack/02b-MAChigh/sixtop.c ****         );
1086:build/openmote-cc2538_armgcc/openstack/02b-MAChigh/sixtop.c ****         return;
1087:build/openmote-cc2538_armgcc/openstack/02b-MAChigh/sixtop.c ****     }
1088:build/openmote-cc2538_armgcc/openstack/02b-MAChigh/sixtop.c ****    
1089:build/openmote-cc2538_armgcc/openstack/02b-MAChigh/sixtop.c ****     // take ownership
1090:build/openmote-cc2538_armgcc/openstack/02b-MAChigh/sixtop.c ****     response_pkt->creator = COMPONENT_SIXTOP_RES;
 2752              		.loc 1 1090 0
 2753 108a 3B6A     		ldr	r3, [r7, #32]
 2754 108c 0F22     		movs	r2, #15
 2755 108e 1A70     		strb	r2, [r3]
1091:build/openmote-cc2538_armgcc/openstack/02b-MAChigh/sixtop.c ****     response_pkt->owner   = COMPONENT_SIXTOP_RES;
 2756              		.loc 1 1091 0
 2757 1090 3B6A     		ldr	r3, [r7, #32]
 2758 1092 0F22     		movs	r2, #15
 2759 1094 5A70     		strb	r2, [r3, #1]
1092:build/openmote-cc2538_armgcc/openstack/02b-MAChigh/sixtop.c ****     
1093:build/openmote-cc2538_armgcc/openstack/02b-MAChigh/sixtop.c ****     memcpy(&(response_pkt->l2_nextORpreviousHop),
 2760              		.loc 1 1093 0
 2761 1096 3B6A     		ldr	r3, [r7, #32]
 2762 1098 03F13802 		add	r2, r3, #56
1094:build/openmote-cc2538_armgcc/openstack/02b-MAChigh/sixtop.c ****            &(pkt->l2_nextORpreviousHop),
 2763              		.loc 1 1094 0
 2764 109c 7B6B     		ldr	r3, [r7, #52]
 2765 109e 3833     		adds	r3, r3, #56
1093:build/openmote-cc2538_armgcc/openstack/02b-MAChigh/sixtop.c ****            &(pkt->l2_nextORpreviousHop),
 2766              		.loc 1 1093 0
 2767 10a0 1046     		mov	r0, r2
 2768 10a2 1946     		mov	r1, r3
 2769 10a4 1122     		movs	r2, #17
 2770 10a6 FFF7FEFF 		bl	memcpy
1095:build/openmote-cc2538_armgcc/openstack/02b-MAChigh/sixtop.c ****            sizeof(open_addr_t)
1096:build/openmote-cc2538_armgcc/openstack/02b-MAChigh/sixtop.c ****     );
1097:build/openmote-cc2538_armgcc/openstack/02b-MAChigh/sixtop.c ****     
1098:build/openmote-cc2538_armgcc/openstack/02b-MAChigh/sixtop.c ****     //====== the version and sfID are correct
1099:build/openmote-cc2538_armgcc/openstack/02b-MAChigh/sixtop.c ****     //------ if this is a command
1100:build/openmote-cc2538_armgcc/openstack/02b-MAChigh/sixtop.c ****     if (
 2771              		.loc 1 1100 0
 2772 10aa BB79     		ldrb	r3, [r7, #6]	@ zero_extendqisi2
 2773 10ac 012B     		cmp	r3, #1
 2774 10ae 0CD0     		beq	.L136
1101:build/openmote-cc2538_armgcc/openstack/02b-MAChigh/sixtop.c ****         commandIdORcode == IANA_6TOP_CMD_ADD    ||
 2775              		.loc 1 1101 0
 2776 10b0 BB79     		ldrb	r3, [r7, #6]	@ zero_extendqisi2
 2777 10b2 022B     		cmp	r3, #2
 2778 10b4 09D0     		beq	.L136
1102:build/openmote-cc2538_armgcc/openstack/02b-MAChigh/sixtop.c ****         commandIdORcode == IANA_6TOP_CMD_DELETE ||
 2779              		.loc 1 1102 0
 2780 10b6 BB79     		ldrb	r3, [r7, #6]	@ zero_extendqisi2
 2781 10b8 032B     		cmp	r3, #3
 2782 10ba 06D0     		beq	.L136
1103:build/openmote-cc2538_armgcc/openstack/02b-MAChigh/sixtop.c ****         commandIdORcode == IANA_6TOP_CMD_COUNT  ||
 2783              		.loc 1 1103 0
 2784 10bc BB79     		ldrb	r3, [r7, #6]	@ zero_extendqisi2
 2785 10be 042B     		cmp	r3, #4
 2786 10c0 03D0     		beq	.L136
1104:build/openmote-cc2538_armgcc/openstack/02b-MAChigh/sixtop.c ****         commandIdORcode == IANA_6TOP_CMD_LIST   ||
 2787              		.loc 1 1104 0
 2788 10c2 BB79     		ldrb	r3, [r7, #6]	@ zero_extendqisi2
 2789 10c4 052B     		cmp	r3, #5
 2790 10c6 40F02D81 		bne	.L137
 2791              	.L136:
1105:build/openmote-cc2538_armgcc/openstack/02b-MAChigh/sixtop.c ****         commandIdORcode == IANA_6TOP_CMD_CLEAR
1106:build/openmote-cc2538_armgcc/openstack/02b-MAChigh/sixtop.c ****     ){
1107:build/openmote-cc2538_armgcc/openstack/02b-MAChigh/sixtop.c ****         // if the version or sfID is correct
1108:build/openmote-cc2538_armgcc/openstack/02b-MAChigh/sixtop.c ****         if (version != IANA_6TOP_6P_VERSION || sfId != SFID_SF0){
 2792              		.loc 1 1108 0
 2793 10ca FB79     		ldrb	r3, [r7, #7]	@ zero_extendqisi2
 2794 10cc 012B     		cmp	r3, #1
 2795 10ce 02D1     		bne	.L138
 2796              		.loc 1 1108 0 is_stmt 0 discriminator 1
 2797 10d0 7B79     		ldrb	r3, [r7, #5]	@ zero_extendqisi2
 2798 10d2 002B     		cmp	r3, #0
 2799 10d4 0AD0     		beq	.L139
 2800              	.L138:
1109:build/openmote-cc2538_armgcc/openstack/02b-MAChigh/sixtop.c ****             if (version != IANA_6TOP_6P_VERSION){
 2801              		.loc 1 1109 0 is_stmt 1
 2802 10d6 FB79     		ldrb	r3, [r7, #7]	@ zero_extendqisi2
 2803 10d8 012B     		cmp	r3, #1
 2804 10da 03D0     		beq	.L140
1110:build/openmote-cc2538_armgcc/openstack/02b-MAChigh/sixtop.c ****                 code = IANA_6TOP_RC_ERR_VER;
 2805              		.loc 1 1110 0
 2806 10dc 0723     		movs	r3, #7
 2807 10de 87F82730 		strb	r3, [r7, #39]
1109:build/openmote-cc2538_armgcc/openstack/02b-MAChigh/sixtop.c ****             if (version != IANA_6TOP_6P_VERSION){
 2808              		.loc 1 1109 0
 2809 10e2 E6E0     		b	.L142
 2810              	.L140:
1111:build/openmote-cc2538_armgcc/openstack/02b-MAChigh/sixtop.c ****             } else {
1112:build/openmote-cc2538_armgcc/openstack/02b-MAChigh/sixtop.c ****                 code = IANA_6TOP_RC_ERR_SFID;
 2811              		.loc 1 1112 0
 2812 10e4 0823     		movs	r3, #8
 2813 10e6 87F82730 		strb	r3, [r7, #39]
1109:build/openmote-cc2538_armgcc/openstack/02b-MAChigh/sixtop.c ****                 code = IANA_6TOP_RC_ERR_VER;
 2814              		.loc 1 1109 0
 2815 10ea E2E0     		b	.L142
 2816              	.L139:
1113:build/openmote-cc2538_armgcc/openstack/02b-MAChigh/sixtop.c ****             }
1114:build/openmote-cc2538_armgcc/openstack/02b-MAChigh/sixtop.c ****         } else {
1115:build/openmote-cc2538_armgcc/openstack/02b-MAChigh/sixtop.c ****             // if I am already in a 6top transactions
1116:build/openmote-cc2538_armgcc/openstack/02b-MAChigh/sixtop.c ****             if (sixtop_vars.six2six_state != SIX_STATE_IDLE){
 2817              		.loc 1 1116 0
 2818 10ec 40F20003 		movw	r3, #:lower16:sixtop_vars
 2819 10f0 C0F20003 		movt	r3, #:upper16:sixtop_vars
 2820 10f4 9B7B     		ldrb	r3, [r3, #14]	@ zero_extendqisi2
 2821 10f6 002B     		cmp	r3, #0
 2822 10f8 03D0     		beq	.L143
1117:build/openmote-cc2538_armgcc/openstack/02b-MAChigh/sixtop.c ****                 code = IANA_6TOP_RC_ERR_BUSY;
 2823              		.loc 1 1117 0
 2824 10fa 0923     		movs	r3, #9
 2825 10fc 87F82730 		strb	r3, [r7, #39]
 2826 1100 D7E0     		b	.L142
 2827              	.L143:
1118:build/openmote-cc2538_armgcc/openstack/02b-MAChigh/sixtop.c ****             } else {
1119:build/openmote-cc2538_armgcc/openstack/02b-MAChigh/sixtop.c ****                 switch(commandIdORcode){
 2828              		.loc 1 1119 0
 2829 1102 BB79     		ldrb	r3, [r7, #6]	@ zero_extendqisi2
 2830 1104 013B     		subs	r3, r3, #1
 2831 1106 042B     		cmp	r3, #4
 2832 1108 00F2D080 		bhi	.L144
 2833 110c 01A2     		adr	r2, .L146
 2834 110e 52F823F0 		ldr	pc, [r2, r3, lsl #2]
 2835 1112 00BF     		.p2align 2
 2836              	.L146:
 2837 1114 29110000 		.word	.L145+1
 2838 1118 29110000 		.word	.L145+1
 2839 111c E3110000 		.word	.L147+1
 2840 1120 3B120000 		.word	.L148+1
 2841 1124 93120000 		.word	.L149+1
 2842              	.L145:
1120:build/openmote-cc2538_armgcc/openstack/02b-MAChigh/sixtop.c ****                 case IANA_6TOP_CMD_ADD:
1121:build/openmote-cc2538_armgcc/openstack/02b-MAChigh/sixtop.c ****                 case IANA_6TOP_CMD_DELETE:
1122:build/openmote-cc2538_armgcc/openstack/02b-MAChigh/sixtop.c ****                     numOfCells = *((uint8_t*)(pkt->payload)+ptr);
 2843              		.loc 1 1122 0
 2844 1128 7B6B     		ldr	r3, [r7, #52]
 2845 112a 5A68     		ldr	r2, [r3, #4]
 2846 112c 3B79     		ldrb	r3, [r7, #4]	@ zero_extendqisi2
 2847 112e 1344     		add	r3, r3, r2
 2848 1130 1B78     		ldrb	r3, [r3]
 2849 1132 7B77     		strb	r3, [r7, #29]
1123:build/openmote-cc2538_armgcc/openstack/02b-MAChigh/sixtop.c ****                     container  = *((uint8_t*)(pkt->payload)+ptr+1);
 2850              		.loc 1 1123 0
 2851 1134 7B6B     		ldr	r3, [r7, #52]
 2852 1136 5A68     		ldr	r2, [r3, #4]
 2853 1138 3B79     		ldrb	r3, [r7, #4]	@ zero_extendqisi2
 2854 113a 0133     		adds	r3, r3, #1
 2855 113c 1344     		add	r3, r3, r2
 2856 113e 1B78     		ldrb	r3, [r3]
 2857 1140 3B77     		strb	r3, [r7, #28]
1124:build/openmote-cc2538_armgcc/openstack/02b-MAChigh/sixtop.c ****                     frameID = container;
 2858              		.loc 1 1124 0
 2859 1142 3B7F     		ldrb	r3, [r7, #28]
 2860 1144 87F82630 		strb	r3, [r7, #38]
1125:build/openmote-cc2538_armgcc/openstack/02b-MAChigh/sixtop.c ****                     processIE_retrieve_sixCelllist(pkt,ptr+2,length-2,cellList);
 2861              		.loc 1 1125 0
 2862 1148 3B79     		ldrb	r3, [r7, #4]
 2863 114a 0233     		adds	r3, r3, #2
 2864 114c D9B2     		uxtb	r1, r3
 2865 114e 97F83030 		ldrb	r3, [r7, #48]
 2866 1152 023B     		subs	r3, r3, #2
 2867 1154 DAB2     		uxtb	r2, r3
 2868 1156 07F10C03 		add	r3, r7, #12
 2869 115a 786B     		ldr	r0, [r7, #52]
 2870 115c FFF7FEFF 		bl	processIE_retrieve_sixCelllist
1126:build/openmote-cc2538_armgcc/openstack/02b-MAChigh/sixtop.c ****                     if (
 2871              		.loc 1 1126 0
 2872 1160 BB79     		ldrb	r3, [r7, #6]	@ zero_extendqisi2
 2873 1162 012B     		cmp	r3, #1
 2874 1164 09D1     		bne	.L150
1127:build/openmote-cc2538_armgcc/openstack/02b-MAChigh/sixtop.c ****                         commandIdORcode == IANA_6TOP_CMD_ADD &&
1128:build/openmote-cc2538_armgcc/openstack/02b-MAChigh/sixtop.c ****                         schedule_getNumberOfFreeEntries() < numOfCells
 2875              		.loc 1 1128 0
 2876 1166 FFF7FEFF 		bl	schedule_getNumberOfFreeEntries
 2877 116a 0346     		mov	r3, r0
1127:build/openmote-cc2538_armgcc/openstack/02b-MAChigh/sixtop.c ****                         commandIdORcode == IANA_6TOP_CMD_ADD &&
 2878              		.loc 1 1127 0
 2879 116c 7A7F     		ldrb	r2, [r7, #29]	@ zero_extendqisi2
 2880 116e 9A42     		cmp	r2, r3
 2881 1170 03D9     		bls	.L150
1129:build/openmote-cc2538_armgcc/openstack/02b-MAChigh/sixtop.c ****                     ){
1130:build/openmote-cc2538_armgcc/openstack/02b-MAChigh/sixtop.c ****                         // no enough free buffer for adding more cells
1131:build/openmote-cc2538_armgcc/openstack/02b-MAChigh/sixtop.c ****                         code = IANA_6TOP_RC_ERR_NORES;
 2882              		.loc 1 1131 0
 2883 1172 0A23     		movs	r3, #10
 2884 1174 87F82730 		strb	r3, [r7, #39]
1132:build/openmote-cc2538_armgcc/openstack/02b-MAChigh/sixtop.c ****                         break;
 2885              		.loc 1 1132 0
 2886 1178 9BE0     		b	.L142
 2887              	.L150:
1133:build/openmote-cc2538_armgcc/openstack/02b-MAChigh/sixtop.c ****                     }
1134:build/openmote-cc2538_armgcc/openstack/02b-MAChigh/sixtop.c ****                     if (
 2888              		.loc 1 1134 0
 2889 117a BB79     		ldrb	r3, [r7, #6]	@ zero_extendqisi2
 2890 117c 012B     		cmp	r3, #1
 2891 117e 0CD1     		bne	.L151
1135:build/openmote-cc2538_armgcc/openstack/02b-MAChigh/sixtop.c ****                         (
1136:build/openmote-cc2538_armgcc/openstack/02b-MAChigh/sixtop.c ****                           commandIdORcode == IANA_6TOP_CMD_ADD &&
1137:build/openmote-cc2538_armgcc/openstack/02b-MAChigh/sixtop.c ****                           sixtop_areAvailableCellsToBeScheduled(frameID,numOfCells,cellList)
 2892              		.loc 1 1137 0
 2893 1180 97F82610 		ldrb	r1, [r7, #38]	@ zero_extendqisi2
 2894 1184 7A7F     		ldrb	r2, [r7, #29]	@ zero_extendqisi2
 2895 1186 07F10C03 		add	r3, r7, #12
 2896 118a 0846     		mov	r0, r1
 2897 118c 1146     		mov	r1, r2
 2898 118e 1A46     		mov	r2, r3
 2899 1190 FFF7FEFF 		bl	sixtop_areAvailableCellsToBeScheduled
 2900 1194 0346     		mov	r3, r0
1136:build/openmote-cc2538_armgcc/openstack/02b-MAChigh/sixtop.c ****                           sixtop_areAvailableCellsToBeScheduled(frameID,numOfCells,cellList)
 2901              		.loc 1 1136 0
 2902 1196 002B     		cmp	r3, #0
 2903 1198 0ED1     		bne	.L152
 2904              	.L151:
1138:build/openmote-cc2538_armgcc/openstack/02b-MAChigh/sixtop.c ****                         ) ||
 2905              		.loc 1 1138 0
 2906 119a BB79     		ldrb	r3, [r7, #6]	@ zero_extendqisi2
 2907 119c 022B     		cmp	r3, #2
 2908 119e 1CD1     		bne	.L153
1139:build/openmote-cc2538_armgcc/openstack/02b-MAChigh/sixtop.c ****                        (
1140:build/openmote-cc2538_armgcc/openstack/02b-MAChigh/sixtop.c ****                           commandIdORcode == IANA_6TOP_CMD_DELETE &&
1141:build/openmote-cc2538_armgcc/openstack/02b-MAChigh/sixtop.c ****                           sixtop_areAvailableCellsToBeRemoved(frameID,numOfCells,cellList,&(pkt->l2
 2909              		.loc 1 1141 0
 2910 11a0 7B6B     		ldr	r3, [r7, #52]
 2911 11a2 3833     		adds	r3, r3, #56
 2912 11a4 97F82600 		ldrb	r0, [r7, #38]	@ zero_extendqisi2
 2913 11a8 797F     		ldrb	r1, [r7, #29]	@ zero_extendqisi2
 2914 11aa 07F10C02 		add	r2, r7, #12
 2915 11ae FFF7FEFF 		bl	sixtop_areAvailableCellsToBeRemoved
 2916 11b2 0346     		mov	r3, r0
1140:build/openmote-cc2538_armgcc/openstack/02b-MAChigh/sixtop.c ****                           sixtop_areAvailableCellsToBeRemoved(frameID,numOfCells,cellList,&(pkt->l2
 2917              		.loc 1 1140 0
 2918 11b4 002B     		cmp	r3, #0
 2919 11b6 10D0     		beq	.L153
 2920              	.L152:
1142:build/openmote-cc2538_armgcc/openstack/02b-MAChigh/sixtop.c ****                        )
1143:build/openmote-cc2538_armgcc/openstack/02b-MAChigh/sixtop.c ****                     ){
1144:build/openmote-cc2538_armgcc/openstack/02b-MAChigh/sixtop.c ****                         code = IANA_6TOP_RC_SUCCESS;
 2921              		.loc 1 1144 0
 2922 11b8 0623     		movs	r3, #6
 2923 11ba 87F82730 		strb	r3, [r7, #39]
1145:build/openmote-cc2538_armgcc/openstack/02b-MAChigh/sixtop.c ****                         len += processIE_prepend_sixCelllist(response_pkt,cellList);
 2924              		.loc 1 1145 0
 2925 11be 07F10C03 		add	r3, r7, #12
 2926 11c2 386A     		ldr	r0, [r7, #32]
 2927 11c4 1946     		mov	r1, r3
 2928 11c6 FFF7FEFF 		bl	processIE_prepend_sixCelllist
 2929 11ca 0346     		mov	r3, r0
 2930 11cc 1A46     		mov	r2, r3
 2931 11ce 97F82530 		ldrb	r3, [r7, #37]
 2932 11d2 1344     		add	r3, r3, r2
 2933 11d4 87F82530 		strb	r3, [r7, #37]
1146:build/openmote-cc2538_armgcc/openstack/02b-MAChigh/sixtop.c ****                     } else {
1147:build/openmote-cc2538_armgcc/openstack/02b-MAChigh/sixtop.c ****                         code = IANA_6TOP_RC_ERR_RESET;
1148:build/openmote-cc2538_armgcc/openstack/02b-MAChigh/sixtop.c ****                     }
1149:build/openmote-cc2538_armgcc/openstack/02b-MAChigh/sixtop.c ****                     break;
 2934              		.loc 1 1149 0
 2935 11d8 6BE0     		b	.L142
 2936              	.L153:
1147:build/openmote-cc2538_armgcc/openstack/02b-MAChigh/sixtop.c ****                     }
 2937              		.loc 1 1147 0
 2938 11da 0B23     		movs	r3, #11
 2939 11dc 87F82730 		strb	r3, [r7, #39]
 2940              		.loc 1 1149 0
 2941 11e0 67E0     		b	.L142
 2942              	.L147:
1150:build/openmote-cc2538_armgcc/openstack/02b-MAChigh/sixtop.c ****                 case IANA_6TOP_CMD_COUNT:
1151:build/openmote-cc2538_armgcc/openstack/02b-MAChigh/sixtop.c ****                     container  = *((uint8_t*)(pkt->payload)+ptr);
 2943              		.loc 1 1151 0
 2944 11e2 7B6B     		ldr	r3, [r7, #52]
 2945 11e4 5A68     		ldr	r2, [r3, #4]
 2946 11e6 3B79     		ldrb	r3, [r7, #4]	@ zero_extendqisi2
 2947 11e8 1344     		add	r3, r3, r2
 2948 11ea 1B78     		ldrb	r3, [r3]
 2949 11ec 3B77     		strb	r3, [r7, #28]
1152:build/openmote-cc2538_armgcc/openstack/02b-MAChigh/sixtop.c ****                     frameID = container;
 2950              		.loc 1 1152 0
 2951 11ee 3B7F     		ldrb	r3, [r7, #28]
 2952 11f0 87F82630 		strb	r3, [r7, #38]
1153:build/openmote-cc2538_armgcc/openstack/02b-MAChigh/sixtop.c ****                     count = schedule_getCellsCounts(frameID,
 2953              		.loc 1 1153 0
 2954 11f4 7B6B     		ldr	r3, [r7, #52]
 2955 11f6 3833     		adds	r3, r3, #56
 2956 11f8 97F82620 		ldrb	r2, [r7, #38]	@ zero_extendqisi2
 2957 11fc 1046     		mov	r0, r2
 2958 11fe 0221     		movs	r1, #2
 2959 1200 1A46     		mov	r2, r3
 2960 1202 FFF7FEFF 		bl	schedule_getCellsCounts
 2961 1206 0346     		mov	r3, r0
 2962 1208 FB83     		strh	r3, [r7, #30]	@ movhi
1154:build/openmote-cc2538_armgcc/openstack/02b-MAChigh/sixtop.c ****                                                     CELLTYPE_RX,
1155:build/openmote-cc2538_armgcc/openstack/02b-MAChigh/sixtop.c ****                                                     &(pkt->l2_nextORpreviousHop));
1156:build/openmote-cc2538_armgcc/openstack/02b-MAChigh/sixtop.c ****                     code = IANA_6TOP_RC_SUCCESS;
 2963              		.loc 1 1156 0
 2964 120a 0623     		movs	r3, #6
 2965 120c 87F82730 		strb	r3, [r7, #39]
1157:build/openmote-cc2538_armgcc/openstack/02b-MAChigh/sixtop.c ****                     packetfunctions_reserveHeaderSize(response_pkt,2);
 2966              		.loc 1 1157 0
 2967 1210 386A     		ldr	r0, [r7, #32]
 2968 1212 0221     		movs	r1, #2
 2969 1214 FFF7FEFF 		bl	packetfunctions_reserveHeaderSize
1158:build/openmote-cc2538_armgcc/openstack/02b-MAChigh/sixtop.c ****                     response_pkt->payload[0] = count      & 0xFF;
 2970              		.loc 1 1158 0
 2971 1218 3B6A     		ldr	r3, [r7, #32]
 2972 121a 5B68     		ldr	r3, [r3, #4]
 2973 121c FA8B     		ldrh	r2, [r7, #30]	@ movhi
 2974 121e D2B2     		uxtb	r2, r2
 2975 1220 1A70     		strb	r2, [r3]
1159:build/openmote-cc2538_armgcc/openstack/02b-MAChigh/sixtop.c ****                     response_pkt->payload[1] = (count>>8) & 0xFF;
 2976              		.loc 1 1159 0
 2977 1222 3B6A     		ldr	r3, [r7, #32]
 2978 1224 5B68     		ldr	r3, [r3, #4]
 2979 1226 0133     		adds	r3, r3, #1
 2980 1228 FA8B     		ldrh	r2, [r7, #30]
 2981 122a 120A     		lsrs	r2, r2, #8
 2982 122c 92B2     		uxth	r2, r2
 2983 122e D2B2     		uxtb	r2, r2
 2984 1230 1A70     		strb	r2, [r3]
1160:build/openmote-cc2538_armgcc/openstack/02b-MAChigh/sixtop.c ****                     len = 2;
 2985              		.loc 1 1160 0
 2986 1232 0223     		movs	r3, #2
 2987 1234 87F82530 		strb	r3, [r7, #37]
1161:build/openmote-cc2538_armgcc/openstack/02b-MAChigh/sixtop.c ****                     break;
 2988              		.loc 1 1161 0
 2989 1238 3BE0     		b	.L142
 2990              	.L148:
1162:build/openmote-cc2538_armgcc/openstack/02b-MAChigh/sixtop.c ****                 case IANA_6TOP_CMD_LIST:
1163:build/openmote-cc2538_armgcc/openstack/02b-MAChigh/sixtop.c ****                     container  = *((uint8_t*)(pkt->payload)+ptr);
 2991              		.loc 1 1163 0
 2992 123a 7B6B     		ldr	r3, [r7, #52]
 2993 123c 5A68     		ldr	r2, [r3, #4]
 2994 123e 3B79     		ldrb	r3, [r7, #4]	@ zero_extendqisi2
 2995 1240 1344     		add	r3, r3, r2
 2996 1242 1B78     		ldrb	r3, [r3]
 2997 1244 3B77     		strb	r3, [r7, #28]
1164:build/openmote-cc2538_armgcc/openstack/02b-MAChigh/sixtop.c ****                     frameID = container;
 2998              		.loc 1 1164 0
 2999 1246 3B7F     		ldrb	r3, [r7, #28]
 3000 1248 87F82630 		strb	r3, [r7, #38]
1165:build/openmote-cc2538_armgcc/openstack/02b-MAChigh/sixtop.c ****                     numOfCells = sixtop_getCelllist(frameID,
 3001              		.loc 1 1165 0
 3002 124c 7B6B     		ldr	r3, [r7, #52]
 3003 124e 03F13802 		add	r2, r3, #56
 3004 1252 97F82610 		ldrb	r1, [r7, #38]	@ zero_extendqisi2
 3005 1256 07F10C03 		add	r3, r7, #12
 3006 125a 0846     		mov	r0, r1
 3007 125c 1146     		mov	r1, r2
 3008 125e 1A46     		mov	r2, r3
 3009 1260 FFF7FEFF 		bl	sixtop_getCelllist
 3010 1264 0346     		mov	r3, r0
 3011 1266 7B77     		strb	r3, [r7, #29]
1166:build/openmote-cc2538_armgcc/openstack/02b-MAChigh/sixtop.c ****                                          &(pkt->l2_nextORpreviousHop),
1167:build/openmote-cc2538_armgcc/openstack/02b-MAChigh/sixtop.c ****                                          cellList);
1168:build/openmote-cc2538_armgcc/openstack/02b-MAChigh/sixtop.c ****                     code = IANA_6TOP_RC_SUCCESS;
 3012              		.loc 1 1168 0
 3013 1268 0623     		movs	r3, #6
 3014 126a 87F82730 		strb	r3, [r7, #39]
1169:build/openmote-cc2538_armgcc/openstack/02b-MAChigh/sixtop.c ****                     if (numOfCells>0){
 3015              		.loc 1 1169 0
 3016 126e 7B7F     		ldrb	r3, [r7, #29]	@ zero_extendqisi2
 3017 1270 002B     		cmp	r3, #0
 3018 1272 0DD0     		beq	.L155
1170:build/openmote-cc2538_armgcc/openstack/02b-MAChigh/sixtop.c ****                         len += processIE_prepend_sixCelllist(response_pkt,cellList);
 3019              		.loc 1 1170 0
 3020 1274 07F10C03 		add	r3, r7, #12
 3021 1278 386A     		ldr	r0, [r7, #32]
 3022 127a 1946     		mov	r1, r3
 3023 127c FFF7FEFF 		bl	processIE_prepend_sixCelllist
 3024 1280 0346     		mov	r3, r0
 3025 1282 1A46     		mov	r2, r3
 3026 1284 97F82530 		ldrb	r3, [r7, #37]
 3027 1288 1344     		add	r3, r3, r2
 3028 128a 87F82530 		strb	r3, [r7, #37]
1171:build/openmote-cc2538_armgcc/openstack/02b-MAChigh/sixtop.c ****                     }
1172:build/openmote-cc2538_armgcc/openstack/02b-MAChigh/sixtop.c ****                     break;
 3029              		.loc 1 1172 0
 3030 128e 10E0     		b	.L142
 3031              	.L155:
 3032 1290 0FE0     		b	.L142
 3033              	.L149:
1173:build/openmote-cc2538_armgcc/openstack/02b-MAChigh/sixtop.c ****                 case IANA_6TOP_CMD_CLEAR:
1174:build/openmote-cc2538_armgcc/openstack/02b-MAChigh/sixtop.c ****                     container  = *((uint8_t*)(pkt->payload)+ptr);
 3034              		.loc 1 1174 0
 3035 1292 7B6B     		ldr	r3, [r7, #52]
 3036 1294 5A68     		ldr	r2, [r3, #4]
 3037 1296 3B79     		ldrb	r3, [r7, #4]	@ zero_extendqisi2
 3038 1298 1344     		add	r3, r3, r2
 3039 129a 1B78     		ldrb	r3, [r3]
 3040 129c 3B77     		strb	r3, [r7, #28]
1175:build/openmote-cc2538_armgcc/openstack/02b-MAChigh/sixtop.c ****                     frameID = container;
 3041              		.loc 1 1175 0
 3042 129e 3B7F     		ldrb	r3, [r7, #28]
 3043 12a0 87F82630 		strb	r3, [r7, #38]
1176:build/openmote-cc2538_armgcc/openstack/02b-MAChigh/sixtop.c ****                     // the cells will be removed when the repsonse sendone successfully
1177:build/openmote-cc2538_armgcc/openstack/02b-MAChigh/sixtop.c ****                     // don't clear cells here
1178:build/openmote-cc2538_armgcc/openstack/02b-MAChigh/sixtop.c ****                     code = IANA_6TOP_RC_SUCCESS;
 3044              		.loc 1 1178 0
 3045 12a4 0623     		movs	r3, #6
 3046 12a6 87F82730 		strb	r3, [r7, #39]
1179:build/openmote-cc2538_armgcc/openstack/02b-MAChigh/sixtop.c ****                     break;
 3047              		.loc 1 1179 0
 3048 12aa 02E0     		b	.L142
 3049              	.L144:
1180:build/openmote-cc2538_armgcc/openstack/02b-MAChigh/sixtop.c ****                 default:
1181:build/openmote-cc2538_armgcc/openstack/02b-MAChigh/sixtop.c ****                     // don't know this 6top command
1182:build/openmote-cc2538_armgcc/openstack/02b-MAChigh/sixtop.c ****                     code = IANA_6TOP_RC_ERR;
 3050              		.loc 1 1182 0
 3051 12ac 0C23     		movs	r3, #12
 3052 12ae 87F82730 		strb	r3, [r7, #39]
 3053              	.L142:
1183:build/openmote-cc2538_armgcc/openstack/02b-MAChigh/sixtop.c ****                 }
1184:build/openmote-cc2538_armgcc/openstack/02b-MAChigh/sixtop.c ****             }
1185:build/openmote-cc2538_armgcc/openstack/02b-MAChigh/sixtop.c ****         }
1186:build/openmote-cc2538_armgcc/openstack/02b-MAChigh/sixtop.c ****         response_pkt->l2_sixtop_requestCommand = commandIdORcode;
 3054              		.loc 1 1186 0
 3055 12b2 3B6A     		ldr	r3, [r7, #32]
 3056 12b4 BA79     		ldrb	r2, [r7, #6]
 3057 12b6 83F85E20 		strb	r2, [r3, #94]
1187:build/openmote-cc2538_armgcc/openstack/02b-MAChigh/sixtop.c ****         response_pkt->l2_sixtop_frameID        = frameID;
 3058              		.loc 1 1187 0
 3059 12ba 3B6A     		ldr	r3, [r7, #32]
 3060 12bc 97F82620 		ldrb	r2, [r7, #38]
 3061 12c0 83F85D20 		strb	r2, [r3, #93]
1188:build/openmote-cc2538_armgcc/openstack/02b-MAChigh/sixtop.c ****         
1189:build/openmote-cc2538_armgcc/openstack/02b-MAChigh/sixtop.c ****         len += processIE_prepend_sixGeneralMessage(response_pkt,code);
 3062              		.loc 1 1189 0
 3063 12c4 97F82730 		ldrb	r3, [r7, #39]	@ zero_extendqisi2
 3064 12c8 386A     		ldr	r0, [r7, #32]
 3065 12ca 1946     		mov	r1, r3
 3066 12cc FFF7FEFF 		bl	processIE_prepend_sixGeneralMessage
 3067 12d0 0346     		mov	r3, r0
 3068 12d2 1A46     		mov	r2, r3
 3069 12d4 97F82530 		ldrb	r3, [r7, #37]
 3070 12d8 1344     		add	r3, r3, r2
 3071 12da 87F82530 		strb	r3, [r7, #37]
1190:build/openmote-cc2538_armgcc/openstack/02b-MAChigh/sixtop.c ****         len += processIE_prepend_sixSubID(response_pkt);
 3072              		.loc 1 1190 0
 3073 12de 386A     		ldr	r0, [r7, #32]
 3074 12e0 FFF7FEFF 		bl	processIE_prepend_sixSubID
 3075 12e4 0346     		mov	r3, r0
 3076 12e6 1A46     		mov	r2, r3
 3077 12e8 97F82530 		ldrb	r3, [r7, #37]
 3078 12ec 1344     		add	r3, r3, r2
 3079 12ee 87F82530 		strb	r3, [r7, #37]
1191:build/openmote-cc2538_armgcc/openstack/02b-MAChigh/sixtop.c ****         processIE_prepend_sixtopIE(response_pkt,len);
 3080              		.loc 1 1191 0
 3081 12f2 97F82530 		ldrb	r3, [r7, #37]	@ zero_extendqisi2
 3082 12f6 386A     		ldr	r0, [r7, #32]
 3083 12f8 1946     		mov	r1, r3
 3084 12fa FFF7FEFF 		bl	processIE_prepend_sixtopIE
1192:build/openmote-cc2538_armgcc/openstack/02b-MAChigh/sixtop.c ****         // indicate IEs present
1193:build/openmote-cc2538_armgcc/openstack/02b-MAChigh/sixtop.c ****         response_pkt->l2_payloadIEpresent = TRUE;
 3085              		.loc 1 1193 0
 3086 12fe 3B6A     		ldr	r3, [r7, #32]
 3087 1300 0122     		movs	r2, #1
 3088 1302 83F86620 		strb	r2, [r3, #102]
1194:build/openmote-cc2538_armgcc/openstack/02b-MAChigh/sixtop.c ****         if (sixtop_vars.isResponseEnabled){
 3089              		.loc 1 1194 0
 3090 1306 40F20003 		movw	r3, #:lower16:sixtop_vars
 3091 130a C0F20003 		movt	r3, #:upper16:sixtop_vars
 3092 130e 5B7C     		ldrb	r3, [r3, #17]	@ zero_extendqisi2
 3093 1310 002B     		cmp	r3, #0
 3094 1312 03D0     		beq	.L156
1195:build/openmote-cc2538_armgcc/openstack/02b-MAChigh/sixtop.c ****             // send packet
1196:build/openmote-cc2538_armgcc/openstack/02b-MAChigh/sixtop.c ****             sixtop_send(response_pkt);
 3095              		.loc 1 1196 0
 3096 1314 386A     		ldr	r0, [r7, #32]
 3097 1316 FFF7FEFF 		bl	sixtop_send
1194:build/openmote-cc2538_armgcc/openstack/02b-MAChigh/sixtop.c ****         if (sixtop_vars.isResponseEnabled){
 3098              		.loc 1 1194 0
 3099 131a C3E0     		b	.L158
 3100              	.L156:
1197:build/openmote-cc2538_armgcc/openstack/02b-MAChigh/sixtop.c ****         } else {
1198:build/openmote-cc2538_armgcc/openstack/02b-MAChigh/sixtop.c ****             openqueue_freePacketBuffer(response_pkt);
 3101              		.loc 1 1198 0
 3102 131c 386A     		ldr	r0, [r7, #32]
 3103 131e FFF7FEFF 		bl	openqueue_freePacketBuffer
1194:build/openmote-cc2538_armgcc/openstack/02b-MAChigh/sixtop.c ****             // send packet
 3104              		.loc 1 1194 0
 3105 1322 BFE0     		b	.L158
 3106              	.L137:
1199:build/openmote-cc2538_armgcc/openstack/02b-MAChigh/sixtop.c ****         }
1200:build/openmote-cc2538_armgcc/openstack/02b-MAChigh/sixtop.c ****     } else {
1201:build/openmote-cc2538_armgcc/openstack/02b-MAChigh/sixtop.c ****         //------ if this is a return code
1202:build/openmote-cc2538_armgcc/openstack/02b-MAChigh/sixtop.c ****         // The response packet is not required, release it
1203:build/openmote-cc2538_armgcc/openstack/02b-MAChigh/sixtop.c ****         openqueue_freePacketBuffer(response_pkt);
 3107              		.loc 1 1203 0
 3108 1324 386A     		ldr	r0, [r7, #32]
 3109 1326 FFF7FEFF 		bl	openqueue_freePacketBuffer
1204:build/openmote-cc2538_armgcc/openstack/02b-MAChigh/sixtop.c ****       
1205:build/openmote-cc2538_armgcc/openstack/02b-MAChigh/sixtop.c ****         // if the code is SUCCESS
1206:build/openmote-cc2538_armgcc/openstack/02b-MAChigh/sixtop.c ****         if (commandIdORcode==IANA_6TOP_RC_SUCCESS){
 3110              		.loc 1 1206 0
 3111 132a BB79     		ldrb	r3, [r7, #6]	@ zero_extendqisi2
 3112 132c 062B     		cmp	r3, #6
 3113 132e 40F08380 		bne	.L159
1207:build/openmote-cc2538_armgcc/openstack/02b-MAChigh/sixtop.c ****             switch(sixtop_vars.six2six_state){
 3114              		.loc 1 1207 0
 3115 1332 40F20003 		movw	r3, #:lower16:sixtop_vars
 3116 1336 C0F20003 		movt	r3, #:upper16:sixtop_vars
 3117 133a 9B7B     		ldrb	r3, [r3, #14]	@ zero_extendqisi2
 3118 133c 073B     		subs	r3, r3, #7
 3119 133e 042B     		cmp	r3, #4
 3120 1340 75D8     		bhi	.L160
 3121 1342 01A2     		adr	r2, .L162
 3122 1344 52F823F0 		ldr	pc, [r2, r3, lsl #2]
 3123              		.p2align 2
 3124              	.L162:
 3125 1348 5D130000 		.word	.L161+1
 3126 134c 5D130000 		.word	.L161+1
 3127 1350 B7130000 		.word	.L163+1
 3128 1354 F5130000 		.word	.L164+1
 3129 1358 17140000 		.word	.L165+1
 3130              	.L161:
1208:build/openmote-cc2538_armgcc/openstack/02b-MAChigh/sixtop.c ****             case SIX_STATE_WAIT_ADDRESPONSE:
1209:build/openmote-cc2538_armgcc/openstack/02b-MAChigh/sixtop.c ****             case SIX_STATE_WAIT_DELETERESPONSE:
1210:build/openmote-cc2538_armgcc/openstack/02b-MAChigh/sixtop.c ****                 processIE_retrieve_sixCelllist(pkt,ptr,length,cellList);
 3131              		.loc 1 1210 0
 3132 135c 3979     		ldrb	r1, [r7, #4]	@ zero_extendqisi2
 3133 135e 97F83020 		ldrb	r2, [r7, #48]	@ zero_extendqisi2
 3134 1362 07F10C03 		add	r3, r7, #12
 3135 1366 786B     		ldr	r0, [r7, #52]
 3136 1368 FFF7FEFF 		bl	processIE_retrieve_sixCelllist
1211:build/openmote-cc2538_armgcc/openstack/02b-MAChigh/sixtop.c ****                 // always default frameID
1212:build/openmote-cc2538_armgcc/openstack/02b-MAChigh/sixtop.c ****                 frameID = SCHEDULE_MINIMAL_6TISCH_DEFAULT_SLOTFRAME_HANDLE;
 3137              		.loc 1 1212 0
 3138 136c 0123     		movs	r3, #1
 3139 136e 87F82630 		strb	r3, [r7, #38]
1213:build/openmote-cc2538_armgcc/openstack/02b-MAChigh/sixtop.c ****                 if (sixtop_vars.six2six_state == SIX_STATE_WAIT_ADDRESPONSE){
 3140              		.loc 1 1213 0
 3141 1372 40F20003 		movw	r3, #:lower16:sixtop_vars
 3142 1376 C0F20003 		movt	r3, #:upper16:sixtop_vars
 3143 137a 9B7B     		ldrb	r3, [r3, #14]	@ zero_extendqisi2
 3144 137c 072B     		cmp	r3, #7
 3145 137e 0ED1     		bne	.L166
1214:build/openmote-cc2538_armgcc/openstack/02b-MAChigh/sixtop.c ****                     sixtop_addCellsByState(frameID,
 3146              		.loc 1 1214 0
 3147 1380 7B6B     		ldr	r3, [r7, #52]
 3148 1382 03F13802 		add	r2, r3, #56
1215:build/openmote-cc2538_armgcc/openstack/02b-MAChigh/sixtop.c ****                                           cellList,
1216:build/openmote-cc2538_armgcc/openstack/02b-MAChigh/sixtop.c ****                                           &(pkt->l2_nextORpreviousHop),
1217:build/openmote-cc2538_armgcc/openstack/02b-MAChigh/sixtop.c ****                                           sixtop_vars.six2six_state
 3149              		.loc 1 1217 0
 3150 1386 40F20003 		movw	r3, #:lower16:sixtop_vars
 3151 138a C0F20003 		movt	r3, #:upper16:sixtop_vars
 3152 138e 9B7B     		ldrb	r3, [r3, #14]	@ zero_extendqisi2
1214:build/openmote-cc2538_armgcc/openstack/02b-MAChigh/sixtop.c ****                     sixtop_addCellsByState(frameID,
 3153              		.loc 1 1214 0
 3154 1390 97F82600 		ldrb	r0, [r7, #38]	@ zero_extendqisi2
 3155 1394 07F10C01 		add	r1, r7, #12
 3156 1398 FFF7FEFF 		bl	sixtop_addCellsByState
