   1              		.syntax unified
   2              		.cpu cortex-m3
   3              		.fpu softvfp
   4              		.eabi_attribute 20, 1
   5              		.eabi_attribute 21, 1
   6              		.eabi_attribute 23, 3
   7              		.eabi_attribute 24, 1
   8              		.eabi_attribute 25, 1
   9              		.eabi_attribute 26, 1
  10              		.eabi_attribute 30, 6
  11              		.eabi_attribute 34, 1
  12              		.eabi_attribute 18, 4
  13              		.thumb
  14              		.file	"IEEE802154E.c"
  15              		.text
  16              	.Ltext0:
  17              		.cfi_sections	.debug_frame
  18              		.section	.rodata
  19              		.align	2
  22              	rreg_uriquery:
  23 0000 683D7563 		.ascii	"h=ucb\000"
  23      6200
  24 0006 0000     		.align	2
  27              	infoBoardname:
  28 0008 43433235 		.ascii	"CC2538\000"
  28      333800
  29 000f 00       		.align	2
  32              	infouCName:
  33 0010 43433235 		.ascii	"CC2538\000"
  33      333800
  34 0017 00       		.align	2
  37              	infoRadioName:
  38 0018 43433235 		.ascii	"CC2538 SoC\000"
  38      33382053 
  38      6F4300
  39 0023 00       		.align	2
  42              	infoStackName:
  43 0024 4F70656E 		.ascii	"OpenWSN \000"
  43      57534E20 
  43      00
  44 002d 000000   		.align	2
  47              	chTemplate_default:
  48 0030 05       		.byte	5
  49 0031 06       		.byte	6
  50 0032 0C       		.byte	12
  51 0033 07       		.byte	7
  52 0034 0F       		.byte	15
  53 0035 04       		.byte	4
  54 0036 0E       		.byte	14
  55 0037 0B       		.byte	11
  56 0038 08       		.byte	8
  57 0039 00       		.byte	0
  58 003a 01       		.byte	1
  59 003b 02       		.byte	2
  60 003c 0D       		.byte	13
  61 003d 03       		.byte	3
  62 003e 09       		.byte	9
  63 003f 0A       		.byte	10
  64              		.align	2
  67              	all_routers_multicast:
  68 0040 FF       		.byte	-1
  69 0041 02       		.byte	2
  70 0042 00       		.byte	0
  71 0043 00       		.byte	0
  72 0044 00       		.byte	0
  73 0045 00       		.byte	0
  74 0046 00       		.byte	0
  75 0047 00       		.byte	0
  76 0048 00       		.byte	0
  77 0049 00       		.byte	0
  78 004a 00       		.byte	0
  79 004b 00       		.byte	0
  80 004c 00       		.byte	0
  81 004d 00       		.byte	0
  82 004e 00       		.byte	0
  83 004f 1A       		.byte	26
  84              		.comm	ieee154e_vars,364,4
  85              		.comm	ieee154e_stats,15,4
  86              		.comm	ieee154e_dbg,16,4
  87              		.text
  88              		.align	2
  89              		.global	ieee154e_init
  90              		.thumb
  91              		.thumb_func
  93              	ieee154e_init:
  94              	.LFB0:
  95              		.file 1 "build/openmote-cc2538_armgcc/openstack/02a-MAClow/IEEE802154E.c"
   1:build/openmote-cc2538_armgcc/openstack/02a-MAClow/IEEE802154E.c **** #include "opendefs.h"
   2:build/openmote-cc2538_armgcc/openstack/02a-MAClow/IEEE802154E.c **** #include "IEEE802154E.h"
   3:build/openmote-cc2538_armgcc/openstack/02a-MAClow/IEEE802154E.c **** #include "radio.h"
   4:build/openmote-cc2538_armgcc/openstack/02a-MAClow/IEEE802154E.c **** #include "radiotimer.h"
   5:build/openmote-cc2538_armgcc/openstack/02a-MAClow/IEEE802154E.c **** #include "IEEE802154.h"
   6:build/openmote-cc2538_armgcc/openstack/02a-MAClow/IEEE802154E.c **** #include "ieee802154_security_driver.h"
   7:build/openmote-cc2538_armgcc/openstack/02a-MAClow/IEEE802154E.c **** #include "openqueue.h"
   8:build/openmote-cc2538_armgcc/openstack/02a-MAClow/IEEE802154E.c **** #include "idmanager.h"
   9:build/openmote-cc2538_armgcc/openstack/02a-MAClow/IEEE802154E.c **** #include "openserial.h"
  10:build/openmote-cc2538_armgcc/openstack/02a-MAClow/IEEE802154E.c **** #include "schedule.h"
  11:build/openmote-cc2538_armgcc/openstack/02a-MAClow/IEEE802154E.c **** #include "packetfunctions.h"
  12:build/openmote-cc2538_armgcc/openstack/02a-MAClow/IEEE802154E.c **** #include "scheduler.h"
  13:build/openmote-cc2538_armgcc/openstack/02a-MAClow/IEEE802154E.c **** #include "leds.h"
  14:build/openmote-cc2538_armgcc/openstack/02a-MAClow/IEEE802154E.c **** #include "neighbors.h"
  15:build/openmote-cc2538_armgcc/openstack/02a-MAClow/IEEE802154E.c **** #include "debugpins.h"
  16:build/openmote-cc2538_armgcc/openstack/02a-MAClow/IEEE802154E.c **** #include "sixtop.h"
  17:build/openmote-cc2538_armgcc/openstack/02a-MAClow/IEEE802154E.c **** #include "adaptive_sync.h"
  18:build/openmote-cc2538_armgcc/openstack/02a-MAClow/IEEE802154E.c **** #include "processIE.h"
  19:build/openmote-cc2538_armgcc/openstack/02a-MAClow/IEEE802154E.c **** 
  20:build/openmote-cc2538_armgcc/openstack/02a-MAClow/IEEE802154E.c **** //=========================== variables =======================================
  21:build/openmote-cc2538_armgcc/openstack/02a-MAClow/IEEE802154E.c **** 
  22:build/openmote-cc2538_armgcc/openstack/02a-MAClow/IEEE802154E.c **** ieee154e_vars_t    ieee154e_vars;
  23:build/openmote-cc2538_armgcc/openstack/02a-MAClow/IEEE802154E.c **** ieee154e_stats_t   ieee154e_stats;
  24:build/openmote-cc2538_armgcc/openstack/02a-MAClow/IEEE802154E.c **** ieee154e_dbg_t     ieee154e_dbg;
  25:build/openmote-cc2538_armgcc/openstack/02a-MAClow/IEEE802154E.c **** 
  26:build/openmote-cc2538_armgcc/openstack/02a-MAClow/IEEE802154E.c **** //=========================== prototypes ======================================
  27:build/openmote-cc2538_armgcc/openstack/02a-MAClow/IEEE802154E.c **** 
  28:build/openmote-cc2538_armgcc/openstack/02a-MAClow/IEEE802154E.c **** // SYNCHRONIZING
  29:build/openmote-cc2538_armgcc/openstack/02a-MAClow/IEEE802154E.c **** void     activity_synchronize_newSlot(void);
  30:build/openmote-cc2538_armgcc/openstack/02a-MAClow/IEEE802154E.c **** void     activity_synchronize_startOfFrame(PORT_RADIOTIMER_WIDTH capturedTime);
  31:build/openmote-cc2538_armgcc/openstack/02a-MAClow/IEEE802154E.c **** void     activity_synchronize_endOfFrame(PORT_RADIOTIMER_WIDTH capturedTime);
  32:build/openmote-cc2538_armgcc/openstack/02a-MAClow/IEEE802154E.c **** // TX
  33:build/openmote-cc2538_armgcc/openstack/02a-MAClow/IEEE802154E.c **** void     activity_ti1ORri1(void);
  34:build/openmote-cc2538_armgcc/openstack/02a-MAClow/IEEE802154E.c **** void     activity_ti2(void);
  35:build/openmote-cc2538_armgcc/openstack/02a-MAClow/IEEE802154E.c **** void     activity_tie1(void);
  36:build/openmote-cc2538_armgcc/openstack/02a-MAClow/IEEE802154E.c **** void     activity_ti3(void);
  37:build/openmote-cc2538_armgcc/openstack/02a-MAClow/IEEE802154E.c **** void     activity_tie2(void);
  38:build/openmote-cc2538_armgcc/openstack/02a-MAClow/IEEE802154E.c **** void     activity_ti4(PORT_RADIOTIMER_WIDTH capturedTime);
  39:build/openmote-cc2538_armgcc/openstack/02a-MAClow/IEEE802154E.c **** void     activity_tie3(void);
  40:build/openmote-cc2538_armgcc/openstack/02a-MAClow/IEEE802154E.c **** void     activity_ti5(PORT_RADIOTIMER_WIDTH capturedTime);
  41:build/openmote-cc2538_armgcc/openstack/02a-MAClow/IEEE802154E.c **** void     activity_ti6(void);
  42:build/openmote-cc2538_armgcc/openstack/02a-MAClow/IEEE802154E.c **** void     activity_tie4(void);
  43:build/openmote-cc2538_armgcc/openstack/02a-MAClow/IEEE802154E.c **** void     activity_ti7(void);
  44:build/openmote-cc2538_armgcc/openstack/02a-MAClow/IEEE802154E.c **** void     activity_tie5(void);
  45:build/openmote-cc2538_armgcc/openstack/02a-MAClow/IEEE802154E.c **** void     activity_ti8(PORT_RADIOTIMER_WIDTH capturedTime);
  46:build/openmote-cc2538_armgcc/openstack/02a-MAClow/IEEE802154E.c **** void     activity_tie6(void);
  47:build/openmote-cc2538_armgcc/openstack/02a-MAClow/IEEE802154E.c **** void     activity_ti9(PORT_RADIOTIMER_WIDTH capturedTime);
  48:build/openmote-cc2538_armgcc/openstack/02a-MAClow/IEEE802154E.c **** // RX
  49:build/openmote-cc2538_armgcc/openstack/02a-MAClow/IEEE802154E.c **** void     activity_ri2(void);
  50:build/openmote-cc2538_armgcc/openstack/02a-MAClow/IEEE802154E.c **** void     activity_rie1(void);
  51:build/openmote-cc2538_armgcc/openstack/02a-MAClow/IEEE802154E.c **** void     activity_ri3(void);
  52:build/openmote-cc2538_armgcc/openstack/02a-MAClow/IEEE802154E.c **** void     activity_rie2(void);
  53:build/openmote-cc2538_armgcc/openstack/02a-MAClow/IEEE802154E.c **** void     activity_ri4(PORT_RADIOTIMER_WIDTH capturedTime);
  54:build/openmote-cc2538_armgcc/openstack/02a-MAClow/IEEE802154E.c **** void     activity_rie3(void);
  55:build/openmote-cc2538_armgcc/openstack/02a-MAClow/IEEE802154E.c **** void     activity_ri5(PORT_RADIOTIMER_WIDTH capturedTime);
  56:build/openmote-cc2538_armgcc/openstack/02a-MAClow/IEEE802154E.c **** void     activity_ri6(void);
  57:build/openmote-cc2538_armgcc/openstack/02a-MAClow/IEEE802154E.c **** void     activity_rie4(void);
  58:build/openmote-cc2538_armgcc/openstack/02a-MAClow/IEEE802154E.c **** void     activity_ri7(void);
  59:build/openmote-cc2538_armgcc/openstack/02a-MAClow/IEEE802154E.c **** void     activity_rie5(void);
  60:build/openmote-cc2538_armgcc/openstack/02a-MAClow/IEEE802154E.c **** void     activity_ri8(PORT_RADIOTIMER_WIDTH capturedTime);
  61:build/openmote-cc2538_armgcc/openstack/02a-MAClow/IEEE802154E.c **** void     activity_rie6(void);
  62:build/openmote-cc2538_armgcc/openstack/02a-MAClow/IEEE802154E.c **** void     activity_ri9(PORT_RADIOTIMER_WIDTH capturedTime);
  63:build/openmote-cc2538_armgcc/openstack/02a-MAClow/IEEE802154E.c **** 
  64:build/openmote-cc2538_armgcc/openstack/02a-MAClow/IEEE802154E.c **** // frame validity check
  65:build/openmote-cc2538_armgcc/openstack/02a-MAClow/IEEE802154E.c **** bool     isValidRxFrame(ieee802154_header_iht* ieee802514_header);
  66:build/openmote-cc2538_armgcc/openstack/02a-MAClow/IEEE802154E.c **** bool     isValidAck(ieee802154_header_iht*     ieee802514_header,
  67:build/openmote-cc2538_armgcc/openstack/02a-MAClow/IEEE802154E.c ****                     OpenQueueEntry_t*          packetSent);
  68:build/openmote-cc2538_armgcc/openstack/02a-MAClow/IEEE802154E.c **** bool     isValidJoin(OpenQueueEntry_t* eb, ieee802154_header_iht *parsedHeader); 
  69:build/openmote-cc2538_armgcc/openstack/02a-MAClow/IEEE802154E.c **** // IEs Handling
  70:build/openmote-cc2538_armgcc/openstack/02a-MAClow/IEEE802154E.c **** bool     ieee154e_processIEs(OpenQueueEntry_t* pkt, uint16_t* lenIE);
  71:build/openmote-cc2538_armgcc/openstack/02a-MAClow/IEEE802154E.c **** // ASN handling
  72:build/openmote-cc2538_armgcc/openstack/02a-MAClow/IEEE802154E.c **** void     incrementAsnOffset(void);
  73:build/openmote-cc2538_armgcc/openstack/02a-MAClow/IEEE802154E.c **** void     ieee154e_resetAsn(void);
  74:build/openmote-cc2538_armgcc/openstack/02a-MAClow/IEEE802154E.c **** void     ieee154e_syncSlotOffset(void);
  75:build/openmote-cc2538_armgcc/openstack/02a-MAClow/IEEE802154E.c **** void     asnStoreFromEB(uint8_t* asn);
  76:build/openmote-cc2538_armgcc/openstack/02a-MAClow/IEEE802154E.c **** void     joinPriorityStoreFromEB(uint8_t jp);
  77:build/openmote-cc2538_armgcc/openstack/02a-MAClow/IEEE802154E.c **** 
  78:build/openmote-cc2538_armgcc/openstack/02a-MAClow/IEEE802154E.c **** // timeslot template handling
  79:build/openmote-cc2538_armgcc/openstack/02a-MAClow/IEEE802154E.c **** void     timeslotTemplateIDStoreFromEB(uint8_t id);
  80:build/openmote-cc2538_armgcc/openstack/02a-MAClow/IEEE802154E.c **** // channelhopping template handling
  81:build/openmote-cc2538_armgcc/openstack/02a-MAClow/IEEE802154E.c **** void     channelhoppingTemplateIDStoreFromEB(uint8_t id);
  82:build/openmote-cc2538_armgcc/openstack/02a-MAClow/IEEE802154E.c **** // synchronization
  83:build/openmote-cc2538_armgcc/openstack/02a-MAClow/IEEE802154E.c **** void     synchronizePacket(PORT_RADIOTIMER_WIDTH timeReceived);
  84:build/openmote-cc2538_armgcc/openstack/02a-MAClow/IEEE802154E.c **** void     synchronizeAck(PORT_SIGNED_INT_WIDTH timeCorrection);
  85:build/openmote-cc2538_armgcc/openstack/02a-MAClow/IEEE802154E.c **** void     changeIsSync(bool newIsSync);
  86:build/openmote-cc2538_armgcc/openstack/02a-MAClow/IEEE802154E.c **** // notifying upper layer
  87:build/openmote-cc2538_armgcc/openstack/02a-MAClow/IEEE802154E.c **** void     notif_sendDone(OpenQueueEntry_t* packetSent, owerror_t error);
  88:build/openmote-cc2538_armgcc/openstack/02a-MAClow/IEEE802154E.c **** void     notif_receive(OpenQueueEntry_t* packetReceived);
  89:build/openmote-cc2538_armgcc/openstack/02a-MAClow/IEEE802154E.c **** // statistics
  90:build/openmote-cc2538_armgcc/openstack/02a-MAClow/IEEE802154E.c **** void     resetStats(void);
  91:build/openmote-cc2538_armgcc/openstack/02a-MAClow/IEEE802154E.c **** void     updateStats(PORT_SIGNED_INT_WIDTH timeCorrection);
  92:build/openmote-cc2538_armgcc/openstack/02a-MAClow/IEEE802154E.c **** // misc
  93:build/openmote-cc2538_armgcc/openstack/02a-MAClow/IEEE802154E.c **** uint8_t  calculateFrequency(uint8_t channelOffset);
  94:build/openmote-cc2538_armgcc/openstack/02a-MAClow/IEEE802154E.c **** void     changeState(ieee154e_state_t newstate);
  95:build/openmote-cc2538_armgcc/openstack/02a-MAClow/IEEE802154E.c **** void     endSlot(void);
  96:build/openmote-cc2538_armgcc/openstack/02a-MAClow/IEEE802154E.c **** bool     debugPrint_asn(void);
  97:build/openmote-cc2538_armgcc/openstack/02a-MAClow/IEEE802154E.c **** bool     debugPrint_isSync(void);
  98:build/openmote-cc2538_armgcc/openstack/02a-MAClow/IEEE802154E.c **** // interrupts
  99:build/openmote-cc2538_armgcc/openstack/02a-MAClow/IEEE802154E.c **** void     isr_ieee154e_newSlot(void);
 100:build/openmote-cc2538_armgcc/openstack/02a-MAClow/IEEE802154E.c **** void     isr_ieee154e_timer(void);
 101:build/openmote-cc2538_armgcc/openstack/02a-MAClow/IEEE802154E.c **** 
 102:build/openmote-cc2538_armgcc/openstack/02a-MAClow/IEEE802154E.c **** //=========================== admin ===========================================
 103:build/openmote-cc2538_armgcc/openstack/02a-MAClow/IEEE802154E.c **** 
 104:build/openmote-cc2538_armgcc/openstack/02a-MAClow/IEEE802154E.c **** /**
 105:build/openmote-cc2538_armgcc/openstack/02a-MAClow/IEEE802154E.c **** \brief This function initializes this module.
 106:build/openmote-cc2538_armgcc/openstack/02a-MAClow/IEEE802154E.c **** 
 107:build/openmote-cc2538_armgcc/openstack/02a-MAClow/IEEE802154E.c **** Call this function once before any other function in this module, possibly
 108:build/openmote-cc2538_armgcc/openstack/02a-MAClow/IEEE802154E.c **** during boot-up.
 109:build/openmote-cc2538_armgcc/openstack/02a-MAClow/IEEE802154E.c **** */
 110:build/openmote-cc2538_armgcc/openstack/02a-MAClow/IEEE802154E.c **** void ieee154e_init() {
  96              		.loc 1 110 0
  97              		.cfi_startproc
  98              		@ args = 0, pretend = 0, frame = 0
  99              		@ frame_needed = 1, uses_anonymous_args = 0
 100 0000 98B5     		push	{r3, r4, r7, lr}
 101              		.cfi_def_cfa_offset 16
 102              		.cfi_offset 3, -16
 103              		.cfi_offset 4, -12
 104              		.cfi_offset 7, -8
 105              		.cfi_offset 14, -4
 106 0002 00AF     		add	r7, sp, #0
 107              		.cfi_def_cfa_register 7
 111:build/openmote-cc2538_armgcc/openstack/02a-MAClow/IEEE802154E.c ****    
 112:build/openmote-cc2538_armgcc/openstack/02a-MAClow/IEEE802154E.c ****    // initialize variables
 113:build/openmote-cc2538_armgcc/openstack/02a-MAClow/IEEE802154E.c ****    memset(&ieee154e_vars,0,sizeof(ieee154e_vars_t));
 108              		.loc 1 113 0
 109 0004 40F20000 		movw	r0, #:lower16:ieee154e_vars
 110 0008 C0F20000 		movt	r0, #:upper16:ieee154e_vars
 111 000c 0021     		movs	r1, #0
 112 000e 4FF4B672 		mov	r2, #364
 113 0012 FFF7FEFF 		bl	memset
 114:build/openmote-cc2538_armgcc/openstack/02a-MAClow/IEEE802154E.c ****    memset(&ieee154e_dbg,0,sizeof(ieee154e_dbg_t));
 114              		.loc 1 114 0
 115 0016 40F20000 		movw	r0, #:lower16:ieee154e_dbg
 116 001a C0F20000 		movt	r0, #:upper16:ieee154e_dbg
 117 001e 0021     		movs	r1, #0
 118 0020 1022     		movs	r2, #16
 119 0022 FFF7FEFF 		bl	memset
 115:build/openmote-cc2538_armgcc/openstack/02a-MAClow/IEEE802154E.c ****    
 116:build/openmote-cc2538_armgcc/openstack/02a-MAClow/IEEE802154E.c ****    ieee154e_vars.singleChannel     = 0; // 0 means channel hopping
 120              		.loc 1 116 0
 121 0026 40F20003 		movw	r3, #:lower16:ieee154e_vars
 122 002a C0F20003 		movt	r3, #:upper16:ieee154e_vars
 123 002e 0022     		movs	r2, #0
 124 0030 83F84621 		strb	r2, [r3, #326]
 117:build/openmote-cc2538_armgcc/openstack/02a-MAClow/IEEE802154E.c ****    ieee154e_vars.isAckEnabled      = TRUE;
 125              		.loc 1 117 0
 126 0034 40F20003 		movw	r3, #:lower16:ieee154e_vars
 127 0038 C0F20003 		movt	r3, #:upper16:ieee154e_vars
 128 003c 0122     		movs	r2, #1
 129 003e 83F86521 		strb	r2, [r3, #357]
 118:build/openmote-cc2538_armgcc/openstack/02a-MAClow/IEEE802154E.c ****    ieee154e_vars.isSecurityEnabled = FALSE;
 130              		.loc 1 118 0
 131 0042 40F20003 		movw	r3, #:lower16:ieee154e_vars
 132 0046 C0F20003 		movt	r3, #:upper16:ieee154e_vars
 133 004a 0022     		movs	r2, #0
 134 004c 83F86621 		strb	r2, [r3, #358]
 119:build/openmote-cc2538_armgcc/openstack/02a-MAClow/IEEE802154E.c ****    ieee154e_vars.slotDuration      = TsSlotDuration;
 135              		.loc 1 119 0
 136 0050 40F20003 		movw	r3, #:lower16:ieee154e_vars
 137 0054 C0F20003 		movt	r3, #:upper16:ieee154e_vars
 138 0058 4FF4F672 		mov	r2, #492
 139 005c A3F86A21 		strh	r2, [r3, #362]	@ movhi
 120:build/openmote-cc2538_armgcc/openstack/02a-MAClow/IEEE802154E.c ****    ieee154e_vars.numOfSleepSlots   = 1;
 140              		.loc 1 120 0
 141 0060 40F20003 		movw	r3, #:lower16:ieee154e_vars
 142 0064 C0F20003 		movt	r3, #:upper16:ieee154e_vars
 143 0068 0122     		movs	r2, #1
 144 006a C3F82421 		str	r2, [r3, #292]
 121:build/openmote-cc2538_armgcc/openstack/02a-MAClow/IEEE802154E.c ****    
 122:build/openmote-cc2538_armgcc/openstack/02a-MAClow/IEEE802154E.c ****    // default hopping template
 123:build/openmote-cc2538_armgcc/openstack/02a-MAClow/IEEE802154E.c ****    memcpy(
 145              		.loc 1 123 0
 146 006e 40F20002 		movw	r2, #:lower16:ieee154e_vars
 147 0072 C0F20002 		movt	r2, #:upper16:ieee154e_vars
 148 0076 40F20003 		movw	r3, #:lower16:chTemplate_default
 149 007a C0F20003 		movt	r3, #:upper16:chTemplate_default
 150 007e 02F5A474 		add	r4, r2, #328
 151 0082 0FCB     		ldmia	r3, {r0, r1, r2, r3}
 152 0084 84E80F00 		stmia	r4, {r0, r1, r2, r3}
 124:build/openmote-cc2538_armgcc/openstack/02a-MAClow/IEEE802154E.c ****        &(ieee154e_vars.chTemplate[0]),
 125:build/openmote-cc2538_armgcc/openstack/02a-MAClow/IEEE802154E.c ****        chTemplate_default,
 126:build/openmote-cc2538_armgcc/openstack/02a-MAClow/IEEE802154E.c ****        sizeof(ieee154e_vars.chTemplate)
 127:build/openmote-cc2538_armgcc/openstack/02a-MAClow/IEEE802154E.c ****    );
 128:build/openmote-cc2538_armgcc/openstack/02a-MAClow/IEEE802154E.c ****    
 129:build/openmote-cc2538_armgcc/openstack/02a-MAClow/IEEE802154E.c ****    if (idmanager_getIsDAGroot()==TRUE) {
 153              		.loc 1 129 0
 154 0088 FFF7FEFF 		bl	idmanager_getIsDAGroot
 155 008c 0346     		mov	r3, r0
 156 008e 002B     		cmp	r3, #0
 157 0090 03D0     		beq	.L2
 130:build/openmote-cc2538_armgcc/openstack/02a-MAClow/IEEE802154E.c ****       changeIsSync(TRUE);
 158              		.loc 1 130 0
 159 0092 0120     		movs	r0, #1
 160 0094 FFF7FEFF 		bl	changeIsSync
 161 0098 02E0     		b	.L3
 162              	.L2:
 131:build/openmote-cc2538_armgcc/openstack/02a-MAClow/IEEE802154E.c ****    } else {
 132:build/openmote-cc2538_armgcc/openstack/02a-MAClow/IEEE802154E.c ****       changeIsSync(FALSE);
 163              		.loc 1 132 0
 164 009a 0020     		movs	r0, #0
 165 009c FFF7FEFF 		bl	changeIsSync
 166              	.L3:
 133:build/openmote-cc2538_armgcc/openstack/02a-MAClow/IEEE802154E.c ****    }
 134:build/openmote-cc2538_armgcc/openstack/02a-MAClow/IEEE802154E.c ****    
 135:build/openmote-cc2538_armgcc/openstack/02a-MAClow/IEEE802154E.c ****    resetStats();
 167              		.loc 1 135 0
 168 00a0 FFF7FEFF 		bl	resetStats
 136:build/openmote-cc2538_armgcc/openstack/02a-MAClow/IEEE802154E.c ****    ieee154e_stats.numDeSync                 = 0;
 169              		.loc 1 136 0
 170 00a4 40F20003 		movw	r3, #:lower16:ieee154e_stats
 171 00a8 C0F20003 		movt	r3, #:upper16:ieee154e_stats
 172 00ac 0022     		movs	r2, #0
 173 00ae 9A71     		strb	r2, [r3, #6]
 137:build/openmote-cc2538_armgcc/openstack/02a-MAClow/IEEE802154E.c ****    
 138:build/openmote-cc2538_armgcc/openstack/02a-MAClow/IEEE802154E.c ****    // switch radio on
 139:build/openmote-cc2538_armgcc/openstack/02a-MAClow/IEEE802154E.c ****    radio_rfOn();
 174              		.loc 1 139 0
 175 00b0 FFF7FEFF 		bl	radio_rfOn
 140:build/openmote-cc2538_armgcc/openstack/02a-MAClow/IEEE802154E.c ****    
 141:build/openmote-cc2538_armgcc/openstack/02a-MAClow/IEEE802154E.c ****    // set callback functions for the radio
 142:build/openmote-cc2538_armgcc/openstack/02a-MAClow/IEEE802154E.c ****    radio_setOverflowCb(isr_ieee154e_newSlot);
 176              		.loc 1 142 0
 177 00b4 40F20000 		movw	r0, #:lower16:isr_ieee154e_newSlot
 178 00b8 C0F20000 		movt	r0, #:upper16:isr_ieee154e_newSlot
 179 00bc FFF7FEFF 		bl	radio_setOverflowCb
 143:build/openmote-cc2538_armgcc/openstack/02a-MAClow/IEEE802154E.c ****    radio_setCompareCb(isr_ieee154e_timer);
 180              		.loc 1 143 0
 181 00c0 40F20000 		movw	r0, #:lower16:isr_ieee154e_timer
 182 00c4 C0F20000 		movt	r0, #:upper16:isr_ieee154e_timer
 183 00c8 FFF7FEFF 		bl	radio_setCompareCb
 144:build/openmote-cc2538_armgcc/openstack/02a-MAClow/IEEE802154E.c ****    radio_setStartFrameCb(ieee154e_startOfFrame);
 184              		.loc 1 144 0
 185 00cc 40F20000 		movw	r0, #:lower16:ieee154e_startOfFrame
 186 00d0 C0F20000 		movt	r0, #:upper16:ieee154e_startOfFrame
 187 00d4 FFF7FEFF 		bl	radio_setStartFrameCb
 145:build/openmote-cc2538_armgcc/openstack/02a-MAClow/IEEE802154E.c ****    radio_setEndFrameCb(ieee154e_endOfFrame);
 188              		.loc 1 145 0
 189 00d8 40F20000 		movw	r0, #:lower16:ieee154e_endOfFrame
 190 00dc C0F20000 		movt	r0, #:upper16:ieee154e_endOfFrame
 191 00e0 FFF7FEFF 		bl	radio_setEndFrameCb
 146:build/openmote-cc2538_armgcc/openstack/02a-MAClow/IEEE802154E.c ****    // have the radio start its timer
 147:build/openmote-cc2538_armgcc/openstack/02a-MAClow/IEEE802154E.c ****    radio_startTimer(ieee154e_vars.slotDuration);
 192              		.loc 1 147 0
 193 00e4 40F20003 		movw	r3, #:lower16:ieee154e_vars
 194 00e8 C0F20003 		movt	r3, #:upper16:ieee154e_vars
 195 00ec B3F86A31 		ldrh	r3, [r3, #362]
 196 00f0 1846     		mov	r0, r3
 197 00f2 FFF7FEFF 		bl	radio_startTimer
 148:build/openmote-cc2538_armgcc/openstack/02a-MAClow/IEEE802154E.c **** }
 198              		.loc 1 148 0
 199 00f6 98BD     		pop	{r3, r4, r7, pc}
 200              		.cfi_endproc
 201              	.LFE0:
 203              		.align	2
 204              		.global	ieee154e_asnDiff
 205              		.thumb
 206              		.thumb_func
 208              	ieee154e_asnDiff:
 209              	.LFB1:
 149:build/openmote-cc2538_armgcc/openstack/02a-MAClow/IEEE802154E.c **** 
 150:build/openmote-cc2538_armgcc/openstack/02a-MAClow/IEEE802154E.c **** //=========================== public ==========================================
 151:build/openmote-cc2538_armgcc/openstack/02a-MAClow/IEEE802154E.c **** 
 152:build/openmote-cc2538_armgcc/openstack/02a-MAClow/IEEE802154E.c **** /**
 153:build/openmote-cc2538_armgcc/openstack/02a-MAClow/IEEE802154E.c **** /brief Difference between some older ASN and the current ASN.
 154:build/openmote-cc2538_armgcc/openstack/02a-MAClow/IEEE802154E.c **** 
 155:build/openmote-cc2538_armgcc/openstack/02a-MAClow/IEEE802154E.c **** \param[in] someASN some ASN to compare to the current
 156:build/openmote-cc2538_armgcc/openstack/02a-MAClow/IEEE802154E.c **** 
 157:build/openmote-cc2538_armgcc/openstack/02a-MAClow/IEEE802154E.c **** \returns The ASN difference, or 0xffff if more than 65535 different
 158:build/openmote-cc2538_armgcc/openstack/02a-MAClow/IEEE802154E.c **** */
 159:build/openmote-cc2538_armgcc/openstack/02a-MAClow/IEEE802154E.c **** PORT_RADIOTIMER_WIDTH ieee154e_asnDiff(asn_t* someASN) {
 210              		.loc 1 159 0
 211              		.cfi_startproc
 212              		@ args = 0, pretend = 0, frame = 16
 213              		@ frame_needed = 1, uses_anonymous_args = 0
 214 00f8 80B5     		push	{r7, lr}
 215              		.cfi_def_cfa_offset 8
 216              		.cfi_offset 7, -8
 217              		.cfi_offset 14, -4
 218 00fa 84B0     		sub	sp, sp, #16
 219              		.cfi_def_cfa_offset 24
 220 00fc 00AF     		add	r7, sp, #0
 221              		.cfi_def_cfa_register 7
 222 00fe 7860     		str	r0, [r7, #4]
 160:build/openmote-cc2538_armgcc/openstack/02a-MAClow/IEEE802154E.c ****    PORT_RADIOTIMER_WIDTH diff;
 161:build/openmote-cc2538_armgcc/openstack/02a-MAClow/IEEE802154E.c ****    INTERRUPT_DECLARATION();
 162:build/openmote-cc2538_armgcc/openstack/02a-MAClow/IEEE802154E.c ****    DISABLE_INTERRUPTS();
 223              		.loc 1 162 0
 224 0100 FFF7FEFF 		bl	IntMasterDisable
 163:build/openmote-cc2538_armgcc/openstack/02a-MAClow/IEEE802154E.c ****    if (ieee154e_vars.asn.byte4 != someASN->byte4) {
 225              		.loc 1 163 0
 226 0104 40F20003 		movw	r3, #:lower16:ieee154e_vars
 227 0108 C0F20003 		movt	r3, #:upper16:ieee154e_vars
 228 010c 1A78     		ldrb	r2, [r3]	@ zero_extendqisi2
 229 010e 7B68     		ldr	r3, [r7, #4]
 230 0110 1B78     		ldrb	r3, [r3]	@ zero_extendqisi2
 231 0112 9A42     		cmp	r2, r3
 232 0114 04D0     		beq	.L5
 164:build/openmote-cc2538_armgcc/openstack/02a-MAClow/IEEE802154E.c ****       ENABLE_INTERRUPTS();
 233              		.loc 1 164 0
 234 0116 FFF7FEFF 		bl	IntMasterEnable
 165:build/openmote-cc2538_armgcc/openstack/02a-MAClow/IEEE802154E.c ****       return (PORT_RADIOTIMER_WIDTH)0xFFFFFFFF;;
 235              		.loc 1 165 0
 236 011a 4FF0FF33 		mov	r3, #-1
 237 011e 49E0     		b	.L6
 238              	.L5:
 166:build/openmote-cc2538_armgcc/openstack/02a-MAClow/IEEE802154E.c ****    }
 167:build/openmote-cc2538_armgcc/openstack/02a-MAClow/IEEE802154E.c ****    
 168:build/openmote-cc2538_armgcc/openstack/02a-MAClow/IEEE802154E.c ****    diff = 0;
 239              		.loc 1 168 0
 240 0120 0023     		movs	r3, #0
 241 0122 FB60     		str	r3, [r7, #12]
 169:build/openmote-cc2538_armgcc/openstack/02a-MAClow/IEEE802154E.c ****    if (ieee154e_vars.asn.bytes2and3 == someASN->bytes2and3) {
 242              		.loc 1 169 0
 243 0124 40F20003 		movw	r3, #:lower16:ieee154e_vars
 244 0128 C0F20003 		movt	r3, #:upper16:ieee154e_vars
 245 012c B3F80130 		ldrh	r3, [r3, #1]	@ unaligned
 246 0130 9AB2     		uxth	r2, r3
 247 0132 7B68     		ldr	r3, [r7, #4]
 248 0134 B3F80130 		ldrh	r3, [r3, #1]	@ unaligned
 249 0138 9BB2     		uxth	r3, r3
 250 013a 9A42     		cmp	r2, r3
 251 013c 0FD1     		bne	.L7
 170:build/openmote-cc2538_armgcc/openstack/02a-MAClow/IEEE802154E.c ****       ENABLE_INTERRUPTS();
 252              		.loc 1 170 0
 253 013e FFF7FEFF 		bl	IntMasterEnable
 171:build/openmote-cc2538_armgcc/openstack/02a-MAClow/IEEE802154E.c ****       return ieee154e_vars.asn.bytes0and1-someASN->bytes0and1;
 254              		.loc 1 171 0
 255 0142 40F20003 		movw	r3, #:lower16:ieee154e_vars
 256 0146 C0F20003 		movt	r3, #:upper16:ieee154e_vars
 257 014a B3F80330 		ldrh	r3, [r3, #3]	@ unaligned
 258 014e 9BB2     		uxth	r3, r3
 259 0150 1A46     		mov	r2, r3
 260 0152 7B68     		ldr	r3, [r7, #4]
 261 0154 B3F80330 		ldrh	r3, [r3, #3]	@ unaligned
 262 0158 9BB2     		uxth	r3, r3
 263 015a D31A     		subs	r3, r2, r3
 264 015c 2AE0     		b	.L6
 265              	.L7:
 172:build/openmote-cc2538_armgcc/openstack/02a-MAClow/IEEE802154E.c ****    } else if (ieee154e_vars.asn.bytes2and3-someASN->bytes2and3==1) {
 266              		.loc 1 172 0
 267 015e 40F20003 		movw	r3, #:lower16:ieee154e_vars
 268 0162 C0F20003 		movt	r3, #:upper16:ieee154e_vars
 269 0166 B3F80130 		ldrh	r3, [r3, #1]	@ unaligned
 270 016a 9BB2     		uxth	r3, r3
 271 016c 1A46     		mov	r2, r3
 272 016e 7B68     		ldr	r3, [r7, #4]
 273 0170 B3F80130 		ldrh	r3, [r3, #1]	@ unaligned
 274 0174 9BB2     		uxth	r3, r3
 275 0176 D31A     		subs	r3, r2, r3
 276 0178 012B     		cmp	r3, #1
 277 017a 15D1     		bne	.L8
 173:build/openmote-cc2538_armgcc/openstack/02a-MAClow/IEEE802154E.c ****       diff  = ieee154e_vars.asn.bytes0and1;
 278              		.loc 1 173 0
 279 017c 40F20003 		movw	r3, #:lower16:ieee154e_vars
 280 0180 C0F20003 		movt	r3, #:upper16:ieee154e_vars
 281 0184 B3F80330 		ldrh	r3, [r3, #3]	@ unaligned
 282 0188 9BB2     		uxth	r3, r3
 283 018a FB60     		str	r3, [r7, #12]
 174:build/openmote-cc2538_armgcc/openstack/02a-MAClow/IEEE802154E.c ****       diff += 0xffff-someASN->bytes0and1;
 284              		.loc 1 174 0
 285 018c 7B68     		ldr	r3, [r7, #4]
 286 018e B3F80330 		ldrh	r3, [r3, #3]	@ unaligned
 287 0192 9BB2     		uxth	r3, r3
 288 0194 FA68     		ldr	r2, [r7, #12]
 289 0196 D31A     		subs	r3, r2, r3
 290 0198 03F57F43 		add	r3, r3, #65280
 291 019c FF33     		adds	r3, r3, #255
 292 019e FB60     		str	r3, [r7, #12]
 175:build/openmote-cc2538_armgcc/openstack/02a-MAClow/IEEE802154E.c ****       diff += 1;
 293              		.loc 1 175 0
 294 01a0 FB68     		ldr	r3, [r7, #12]
 295 01a2 0133     		adds	r3, r3, #1
 296 01a4 FB60     		str	r3, [r7, #12]
 297 01a6 02E0     		b	.L9
 298              	.L8:
 176:build/openmote-cc2538_armgcc/openstack/02a-MAClow/IEEE802154E.c ****    } else {
 177:build/openmote-cc2538_armgcc/openstack/02a-MAClow/IEEE802154E.c ****       diff = (PORT_RADIOTIMER_WIDTH)0xFFFFFFFF;;
 299              		.loc 1 177 0
 300 01a8 4FF0FF33 		mov	r3, #-1
 301 01ac FB60     		str	r3, [r7, #12]
 302              	.L9:
 178:build/openmote-cc2538_armgcc/openstack/02a-MAClow/IEEE802154E.c ****    }
 179:build/openmote-cc2538_armgcc/openstack/02a-MAClow/IEEE802154E.c ****    ENABLE_INTERRUPTS();
 303              		.loc 1 179 0
 304 01ae FFF7FEFF 		bl	IntMasterEnable
 180:build/openmote-cc2538_armgcc/openstack/02a-MAClow/IEEE802154E.c ****    return diff;
 305              		.loc 1 180 0
 306 01b2 FB68     		ldr	r3, [r7, #12]
 307              	.L6:
 181:build/openmote-cc2538_armgcc/openstack/02a-MAClow/IEEE802154E.c **** }
 308              		.loc 1 181 0
 309 01b4 1846     		mov	r0, r3
 310 01b6 1037     		adds	r7, r7, #16
 311 01b8 BD46     		mov	sp, r7
 312              		@ sp needed
 313 01ba 80BD     		pop	{r7, pc}
 314              		.cfi_endproc
 315              	.LFE1:
 317              		.align	2
 318              		.global	isr_ieee154e_newSlot
 319              		.thumb
 320              		.thumb_func
 322              	isr_ieee154e_newSlot:
 323              	.LFB2:
 182:build/openmote-cc2538_armgcc/openstack/02a-MAClow/IEEE802154E.c **** 
 183:build/openmote-cc2538_armgcc/openstack/02a-MAClow/IEEE802154E.c **** //======= events
 184:build/openmote-cc2538_armgcc/openstack/02a-MAClow/IEEE802154E.c **** 
 185:build/openmote-cc2538_armgcc/openstack/02a-MAClow/IEEE802154E.c **** /**
 186:build/openmote-cc2538_armgcc/openstack/02a-MAClow/IEEE802154E.c **** \brief Indicates a new slot has just started.
 187:build/openmote-cc2538_armgcc/openstack/02a-MAClow/IEEE802154E.c **** 
 188:build/openmote-cc2538_armgcc/openstack/02a-MAClow/IEEE802154E.c **** This function executes in ISR mode, when the new slot timer fires.
 189:build/openmote-cc2538_armgcc/openstack/02a-MAClow/IEEE802154E.c **** */
 190:build/openmote-cc2538_armgcc/openstack/02a-MAClow/IEEE802154E.c **** void isr_ieee154e_newSlot() {
 324              		.loc 1 190 0
 325              		.cfi_startproc
 326              		@ args = 0, pretend = 0, frame = 0
 327              		@ frame_needed = 1, uses_anonymous_args = 0
 328 01bc 80B5     		push	{r7, lr}
 329              		.cfi_def_cfa_offset 8
 330              		.cfi_offset 7, -8
 331              		.cfi_offset 14, -4
 332 01be 00AF     		add	r7, sp, #0
 333              		.cfi_def_cfa_register 7
 191:build/openmote-cc2538_armgcc/openstack/02a-MAClow/IEEE802154E.c ****    radio_setTimerPeriod(ieee154e_vars.slotDuration);
 334              		.loc 1 191 0
 335 01c0 40F20003 		movw	r3, #:lower16:ieee154e_vars
 336 01c4 C0F20003 		movt	r3, #:upper16:ieee154e_vars
 337 01c8 B3F86A31 		ldrh	r3, [r3, #362]
 338 01cc 1846     		mov	r0, r3
 339 01ce FFF7FEFF 		bl	radio_setTimerPeriod
 192:build/openmote-cc2538_armgcc/openstack/02a-MAClow/IEEE802154E.c ****    if (ieee154e_vars.isSync==FALSE) {
 340              		.loc 1 192 0
 341 01d2 40F20003 		movw	r3, #:lower16:ieee154e_vars
 342 01d6 C0F20003 		movt	r3, #:upper16:ieee154e_vars
 343 01da 1B7C     		ldrb	r3, [r3, #16]	@ zero_extendqisi2
 344 01dc 83F00103 		eor	r3, r3, #1
 345 01e0 DBB2     		uxtb	r3, r3
 346 01e2 002B     		cmp	r3, #0
 347 01e4 16D0     		beq	.L11
 193:build/openmote-cc2538_armgcc/openstack/02a-MAClow/IEEE802154E.c ****       if (idmanager_getIsDAGroot()==TRUE) {
 348              		.loc 1 193 0
 349 01e6 FFF7FEFF 		bl	idmanager_getIsDAGroot
 350 01ea 0346     		mov	r3, r0
 351 01ec 002B     		cmp	r3, #0
 352 01ee 0ED0     		beq	.L12
 194:build/openmote-cc2538_armgcc/openstack/02a-MAClow/IEEE802154E.c ****          changeIsSync(TRUE);
 353              		.loc 1 194 0
 354 01f0 0120     		movs	r0, #1
 355 01f2 FFF7FEFF 		bl	changeIsSync
 195:build/openmote-cc2538_armgcc/openstack/02a-MAClow/IEEE802154E.c ****          ieee154e_resetAsn();
 356              		.loc 1 195 0
 357 01f6 FFF7FEFF 		bl	ieee154e_resetAsn
 196:build/openmote-cc2538_armgcc/openstack/02a-MAClow/IEEE802154E.c ****          ieee154e_vars.nextActiveSlotOffset = schedule_getNextActiveSlotOffset();
 358              		.loc 1 196 0
 359 01fa FFF7FEFF 		bl	schedule_getNextActiveSlotOffset
 360 01fe 0346     		mov	r3, r0
 361 0200 1A46     		mov	r2, r3
 362 0202 40F20003 		movw	r3, #:lower16:ieee154e_vars
 363 0206 C0F20003 		movt	r3, #:upper16:ieee154e_vars
 364 020a 1A81     		strh	r2, [r3, #8]	@ movhi
 365 020c 04E0     		b	.L14
 366              	.L12:
 197:build/openmote-cc2538_armgcc/openstack/02a-MAClow/IEEE802154E.c ****       } else {
 198:build/openmote-cc2538_armgcc/openstack/02a-MAClow/IEEE802154E.c ****          activity_synchronize_newSlot();
 367              		.loc 1 198 0
 368 020e FFF7FEFF 		bl	activity_synchronize_newSlot
 369 0212 01E0     		b	.L14
 370              	.L11:
 199:build/openmote-cc2538_armgcc/openstack/02a-MAClow/IEEE802154E.c ****       }
 200:build/openmote-cc2538_armgcc/openstack/02a-MAClow/IEEE802154E.c ****    } else {
 201:build/openmote-cc2538_armgcc/openstack/02a-MAClow/IEEE802154E.c **** #ifdef ADAPTIVE_SYNC
 202:build/openmote-cc2538_armgcc/openstack/02a-MAClow/IEEE802154E.c ****      // adaptive synchronization
 203:build/openmote-cc2538_armgcc/openstack/02a-MAClow/IEEE802154E.c ****       adaptive_sync_countCompensationTimeout();
 204:build/openmote-cc2538_armgcc/openstack/02a-MAClow/IEEE802154E.c **** #endif
 205:build/openmote-cc2538_armgcc/openstack/02a-MAClow/IEEE802154E.c ****       activity_ti1ORri1();
 371              		.loc 1 205 0
 372 0214 FFF7FEFF 		bl	activity_ti1ORri1
 373              	.L14:
 206:build/openmote-cc2538_armgcc/openstack/02a-MAClow/IEEE802154E.c ****    }
 207:build/openmote-cc2538_armgcc/openstack/02a-MAClow/IEEE802154E.c ****    ieee154e_dbg.num_newSlot++;
 374              		.loc 1 207 0
 375 0218 40F20003 		movw	r3, #:lower16:ieee154e_dbg
 376 021c C0F20003 		movt	r3, #:upper16:ieee154e_dbg
 377 0220 1B68     		ldr	r3, [r3]
 378 0222 5A1C     		adds	r2, r3, #1
 379 0224 40F20003 		movw	r3, #:lower16:ieee154e_dbg
 380 0228 C0F20003 		movt	r3, #:upper16:ieee154e_dbg
 381 022c 1A60     		str	r2, [r3]
 208:build/openmote-cc2538_armgcc/openstack/02a-MAClow/IEEE802154E.c **** }
 382              		.loc 1 208 0
 383 022e 80BD     		pop	{r7, pc}
 384              		.cfi_endproc
 385              	.LFE2:
 387              		.align	2
 388              		.global	isr_ieee154e_timer
 389              		.thumb
 390              		.thumb_func
 392              	isr_ieee154e_timer:
 393              	.LFB3:
 209:build/openmote-cc2538_armgcc/openstack/02a-MAClow/IEEE802154E.c **** 
 210:build/openmote-cc2538_armgcc/openstack/02a-MAClow/IEEE802154E.c **** /**
 211:build/openmote-cc2538_armgcc/openstack/02a-MAClow/IEEE802154E.c **** \brief Indicates the FSM timer has fired.
 212:build/openmote-cc2538_armgcc/openstack/02a-MAClow/IEEE802154E.c **** 
 213:build/openmote-cc2538_armgcc/openstack/02a-MAClow/IEEE802154E.c **** This function executes in ISR mode, when the FSM timer fires.
 214:build/openmote-cc2538_armgcc/openstack/02a-MAClow/IEEE802154E.c **** */
 215:build/openmote-cc2538_armgcc/openstack/02a-MAClow/IEEE802154E.c **** void isr_ieee154e_timer() {
 394              		.loc 1 215 0
 395              		.cfi_startproc
 396              		@ args = 0, pretend = 0, frame = 0
 397              		@ frame_needed = 1, uses_anonymous_args = 0
 398 0230 80B5     		push	{r7, lr}
 399              		.cfi_def_cfa_offset 8
 400              		.cfi_offset 7, -8
 401              		.cfi_offset 14, -4
 402 0232 00AF     		add	r7, sp, #0
 403              		.cfi_def_cfa_register 7
 216:build/openmote-cc2538_armgcc/openstack/02a-MAClow/IEEE802154E.c ****    switch (ieee154e_vars.state) {
 404              		.loc 1 216 0
 405 0234 40F20003 		movw	r3, #:lower16:ieee154e_vars
 406 0238 C0F20003 		movt	r3, #:upper16:ieee154e_vars
 407 023c 93F82831 		ldrb	r3, [r3, #296]	@ zero_extendqisi2
 408 0240 043B     		subs	r3, r3, #4
 409 0242 142B     		cmp	r3, #20
 410 0244 68D8     		bhi	.L16
 411 0246 01A2     		adr	r2, .L18
 412 0248 52F823F0 		ldr	pc, [r2, r3, lsl #2]
 413              		.p2align 2
 414              	.L18:
 415 024c A1020000 		.word	.L17+1
 416 0250 A7020000 		.word	.L19+1
 417 0254 AD020000 		.word	.L20+1
 418 0258 B3020000 		.word	.L21+1
 419 025c B9020000 		.word	.L22+1
 420 0260 BF020000 		.word	.L23+1
 421 0264 C5020000 		.word	.L24+1
 422 0268 CB020000 		.word	.L25+1
 423 026c D1020000 		.word	.L26+1
 424 0270 D7020000 		.word	.L27+1
 425 0274 19030000 		.word	.L16+1
 426 0278 DD020000 		.word	.L28+1
 427 027c E3020000 		.word	.L29+1
 428 0280 E9020000 		.word	.L30+1
 429 0284 EF020000 		.word	.L31+1
 430 0288 F5020000 		.word	.L32+1
 431 028c FB020000 		.word	.L33+1
 432 0290 01030000 		.word	.L34+1
 433 0294 07030000 		.word	.L35+1
 434 0298 0D030000 		.word	.L36+1
 435 029c 13030000 		.word	.L37+1
 436              	.L17:
 217:build/openmote-cc2538_armgcc/openstack/02a-MAClow/IEEE802154E.c ****       case S_TXDATAOFFSET:
 218:build/openmote-cc2538_armgcc/openstack/02a-MAClow/IEEE802154E.c ****          activity_ti2();
 437              		.loc 1 218 0
 438 02a0 FFF7FEFF 		bl	activity_ti2
 219:build/openmote-cc2538_armgcc/openstack/02a-MAClow/IEEE802154E.c ****          break;
 439              		.loc 1 219 0
 440 02a4 4BE0     		b	.L38
 441              	.L19:
 220:build/openmote-cc2538_armgcc/openstack/02a-MAClow/IEEE802154E.c ****       case S_TXDATAPREPARE:
 221:build/openmote-cc2538_armgcc/openstack/02a-MAClow/IEEE802154E.c ****          activity_tie1();
 442              		.loc 1 221 0
 443 02a6 FFF7FEFF 		bl	activity_tie1
 222:build/openmote-cc2538_armgcc/openstack/02a-MAClow/IEEE802154E.c ****          break;
 444              		.loc 1 222 0
 445 02aa 48E0     		b	.L38
 446              	.L20:
 223:build/openmote-cc2538_armgcc/openstack/02a-MAClow/IEEE802154E.c ****       case S_TXDATAREADY:
 224:build/openmote-cc2538_armgcc/openstack/02a-MAClow/IEEE802154E.c ****          activity_ti3();
 447              		.loc 1 224 0
 448 02ac FFF7FEFF 		bl	activity_ti3
 225:build/openmote-cc2538_armgcc/openstack/02a-MAClow/IEEE802154E.c ****          break;
 449              		.loc 1 225 0
 450 02b0 45E0     		b	.L38
 451              	.L21:
 226:build/openmote-cc2538_armgcc/openstack/02a-MAClow/IEEE802154E.c ****       case S_TXDATADELAY:
 227:build/openmote-cc2538_armgcc/openstack/02a-MAClow/IEEE802154E.c ****          activity_tie2();
 452              		.loc 1 227 0
 453 02b2 FFF7FEFF 		bl	activity_tie2
 228:build/openmote-cc2538_armgcc/openstack/02a-MAClow/IEEE802154E.c ****          break;
 454              		.loc 1 228 0
 455 02b6 42E0     		b	.L38
 456              	.L22:
 229:build/openmote-cc2538_armgcc/openstack/02a-MAClow/IEEE802154E.c ****       case S_TXDATA:
 230:build/openmote-cc2538_armgcc/openstack/02a-MAClow/IEEE802154E.c ****          activity_tie3();
 457              		.loc 1 230 0
 458 02b8 FFF7FEFF 		bl	activity_tie3
 231:build/openmote-cc2538_armgcc/openstack/02a-MAClow/IEEE802154E.c ****          break;
 459              		.loc 1 231 0
 460 02bc 3FE0     		b	.L38
 461              	.L23:
 232:build/openmote-cc2538_armgcc/openstack/02a-MAClow/IEEE802154E.c ****       case S_RXACKOFFSET:
 233:build/openmote-cc2538_armgcc/openstack/02a-MAClow/IEEE802154E.c ****          activity_ti6();
 462              		.loc 1 233 0
 463 02be FFF7FEFF 		bl	activity_ti6
 234:build/openmote-cc2538_armgcc/openstack/02a-MAClow/IEEE802154E.c ****          break;
 464              		.loc 1 234 0
 465 02c2 3CE0     		b	.L38
 466              	.L24:
 235:build/openmote-cc2538_armgcc/openstack/02a-MAClow/IEEE802154E.c ****       case S_RXACKPREPARE:
 236:build/openmote-cc2538_armgcc/openstack/02a-MAClow/IEEE802154E.c ****          activity_tie4();
 467              		.loc 1 236 0
 468 02c4 FFF7FEFF 		bl	activity_tie4
 237:build/openmote-cc2538_armgcc/openstack/02a-MAClow/IEEE802154E.c ****          break;
 469              		.loc 1 237 0
 470 02c8 39E0     		b	.L38
 471              	.L25:
 238:build/openmote-cc2538_armgcc/openstack/02a-MAClow/IEEE802154E.c ****       case S_RXACKREADY:
 239:build/openmote-cc2538_armgcc/openstack/02a-MAClow/IEEE802154E.c ****          activity_ti7();
 472              		.loc 1 239 0
 473 02ca FFF7FEFF 		bl	activity_ti7
 240:build/openmote-cc2538_armgcc/openstack/02a-MAClow/IEEE802154E.c ****          break;
 474              		.loc 1 240 0
 475 02ce 36E0     		b	.L38
 476              	.L26:
 241:build/openmote-cc2538_armgcc/openstack/02a-MAClow/IEEE802154E.c ****       case S_RXACKLISTEN:
 242:build/openmote-cc2538_armgcc/openstack/02a-MAClow/IEEE802154E.c ****          activity_tie5();
 477              		.loc 1 242 0
 478 02d0 FFF7FEFF 		bl	activity_tie5
 243:build/openmote-cc2538_armgcc/openstack/02a-MAClow/IEEE802154E.c ****          break;
 479              		.loc 1 243 0
 480 02d4 33E0     		b	.L38
 481              	.L27:
 244:build/openmote-cc2538_armgcc/openstack/02a-MAClow/IEEE802154E.c ****       case S_RXACK:
 245:build/openmote-cc2538_armgcc/openstack/02a-MAClow/IEEE802154E.c ****          activity_tie6();
 482              		.loc 1 245 0
 483 02d6 FFF7FEFF 		bl	activity_tie6
 246:build/openmote-cc2538_armgcc/openstack/02a-MAClow/IEEE802154E.c ****          break;
 484              		.loc 1 246 0
 485 02da 30E0     		b	.L38
 486              	.L28:
 247:build/openmote-cc2538_armgcc/openstack/02a-MAClow/IEEE802154E.c ****       case S_RXDATAOFFSET:
 248:build/openmote-cc2538_armgcc/openstack/02a-MAClow/IEEE802154E.c ****          activity_ri2(); 
 487              		.loc 1 248 0
 488 02dc FFF7FEFF 		bl	activity_ri2
 249:build/openmote-cc2538_armgcc/openstack/02a-MAClow/IEEE802154E.c ****          break;
 489              		.loc 1 249 0
 490 02e0 2DE0     		b	.L38
 491              	.L29:
 250:build/openmote-cc2538_armgcc/openstack/02a-MAClow/IEEE802154E.c ****       case S_RXDATAPREPARE:
 251:build/openmote-cc2538_armgcc/openstack/02a-MAClow/IEEE802154E.c ****          activity_rie1();
 492              		.loc 1 251 0
 493 02e2 FFF7FEFF 		bl	activity_rie1
 252:build/openmote-cc2538_armgcc/openstack/02a-MAClow/IEEE802154E.c ****          break;
 494              		.loc 1 252 0
 495 02e6 2AE0     		b	.L38
 496              	.L30:
 253:build/openmote-cc2538_armgcc/openstack/02a-MAClow/IEEE802154E.c ****       case S_RXDATAREADY:
 254:build/openmote-cc2538_armgcc/openstack/02a-MAClow/IEEE802154E.c ****          activity_ri3();
 497              		.loc 1 254 0
 498 02e8 FFF7FEFF 		bl	activity_ri3
 255:build/openmote-cc2538_armgcc/openstack/02a-MAClow/IEEE802154E.c ****          break;
 499              		.loc 1 255 0
 500 02ec 27E0     		b	.L38
 501              	.L31:
 256:build/openmote-cc2538_armgcc/openstack/02a-MAClow/IEEE802154E.c ****       case S_RXDATALISTEN:
 257:build/openmote-cc2538_armgcc/openstack/02a-MAClow/IEEE802154E.c ****          activity_rie2();
 502              		.loc 1 257 0
 503 02ee FFF7FEFF 		bl	activity_rie2
 258:build/openmote-cc2538_armgcc/openstack/02a-MAClow/IEEE802154E.c ****          break;
 504              		.loc 1 258 0
 505 02f2 24E0     		b	.L38
 506              	.L32:
 259:build/openmote-cc2538_armgcc/openstack/02a-MAClow/IEEE802154E.c ****       case S_RXDATA:
 260:build/openmote-cc2538_armgcc/openstack/02a-MAClow/IEEE802154E.c ****          activity_rie3();
 507              		.loc 1 260 0
 508 02f4 FFF7FEFF 		bl	activity_rie3
 261:build/openmote-cc2538_armgcc/openstack/02a-MAClow/IEEE802154E.c ****          break;
 509              		.loc 1 261 0
 510 02f8 21E0     		b	.L38
 511              	.L33:
 262:build/openmote-cc2538_armgcc/openstack/02a-MAClow/IEEE802154E.c ****       case S_TXACKOFFSET: 
 263:build/openmote-cc2538_armgcc/openstack/02a-MAClow/IEEE802154E.c ****          activity_ri6();
 512              		.loc 1 263 0
 513 02fa FFF7FEFF 		bl	activity_ri6
 264:build/openmote-cc2538_armgcc/openstack/02a-MAClow/IEEE802154E.c ****          break;
 514              		.loc 1 264 0
 515 02fe 1EE0     		b	.L38
 516              	.L34:
 265:build/openmote-cc2538_armgcc/openstack/02a-MAClow/IEEE802154E.c ****       case S_TXACKPREPARE:
 266:build/openmote-cc2538_armgcc/openstack/02a-MAClow/IEEE802154E.c ****          activity_rie4();
 517              		.loc 1 266 0
 518 0300 FFF7FEFF 		bl	activity_rie4
 267:build/openmote-cc2538_armgcc/openstack/02a-MAClow/IEEE802154E.c ****          break;
 519              		.loc 1 267 0
 520 0304 1BE0     		b	.L38
 521              	.L35:
 268:build/openmote-cc2538_armgcc/openstack/02a-MAClow/IEEE802154E.c ****       case S_TXACKREADY:
 269:build/openmote-cc2538_armgcc/openstack/02a-MAClow/IEEE802154E.c ****          activity_ri7();
 522              		.loc 1 269 0
 523 0306 FFF7FEFF 		bl	activity_ri7
 270:build/openmote-cc2538_armgcc/openstack/02a-MAClow/IEEE802154E.c ****          break;
 524              		.loc 1 270 0
 525 030a 18E0     		b	.L38
 526              	.L36:
 271:build/openmote-cc2538_armgcc/openstack/02a-MAClow/IEEE802154E.c ****       case S_TXACKDELAY:
 272:build/openmote-cc2538_armgcc/openstack/02a-MAClow/IEEE802154E.c ****          activity_rie5();
 527              		.loc 1 272 0
 528 030c FFF7FEFF 		bl	activity_rie5
 273:build/openmote-cc2538_armgcc/openstack/02a-MAClow/IEEE802154E.c ****          break;
 529              		.loc 1 273 0
 530 0310 15E0     		b	.L38
 531              	.L37:
 274:build/openmote-cc2538_armgcc/openstack/02a-MAClow/IEEE802154E.c ****       case S_TXACK:
 275:build/openmote-cc2538_armgcc/openstack/02a-MAClow/IEEE802154E.c ****          activity_rie6();
 532              		.loc 1 275 0
 533 0312 FFF7FEFF 		bl	activity_rie6
 276:build/openmote-cc2538_armgcc/openstack/02a-MAClow/IEEE802154E.c ****          break;
 534              		.loc 1 276 0
 535 0316 12E0     		b	.L38
 536              	.L16:
 277:build/openmote-cc2538_armgcc/openstack/02a-MAClow/IEEE802154E.c ****       default:
 278:build/openmote-cc2538_armgcc/openstack/02a-MAClow/IEEE802154E.c ****          // log the error
 279:build/openmote-cc2538_armgcc/openstack/02a-MAClow/IEEE802154E.c ****          openserial_printError(COMPONENT_IEEE802154E,ERR_WRONG_STATE_IN_TIMERFIRES,
 280:build/openmote-cc2538_armgcc/openstack/02a-MAClow/IEEE802154E.c ****                                (errorparameter_t)ieee154e_vars.state,
 537              		.loc 1 280 0
 538 0318 40F20003 		movw	r3, #:lower16:ieee154e_vars
 539 031c C0F20003 		movt	r3, #:upper16:ieee154e_vars
 540 0320 93F82831 		ldrb	r3, [r3, #296]	@ zero_extendqisi2
 279:build/openmote-cc2538_armgcc/openstack/02a-MAClow/IEEE802154E.c ****                                (errorparameter_t)ieee154e_vars.state,
 541              		.loc 1 279 0
 542 0324 1A46     		mov	r2, r3
 543 0326 40F20003 		movw	r3, #:lower16:ieee154e_vars
 544 032a C0F20003 		movt	r3, #:upper16:ieee154e_vars
 545 032e DB88     		ldrh	r3, [r3, #6]
 546 0330 0920     		movs	r0, #9
 547 0332 1F21     		movs	r1, #31
 548 0334 FFF7FEFF 		bl	openserial_printError
 281:build/openmote-cc2538_armgcc/openstack/02a-MAClow/IEEE802154E.c ****                                (errorparameter_t)ieee154e_vars.slotOffset);
 282:build/openmote-cc2538_armgcc/openstack/02a-MAClow/IEEE802154E.c ****          // abort
 283:build/openmote-cc2538_armgcc/openstack/02a-MAClow/IEEE802154E.c ****          endSlot();
 549              		.loc 1 283 0
 550 0338 FFF7FEFF 		bl	endSlot
 284:build/openmote-cc2538_armgcc/openstack/02a-MAClow/IEEE802154E.c ****          break;
 551              		.loc 1 284 0
 552 033c 00BF     		nop
 553              	.L38:
 285:build/openmote-cc2538_armgcc/openstack/02a-MAClow/IEEE802154E.c ****    }
 286:build/openmote-cc2538_armgcc/openstack/02a-MAClow/IEEE802154E.c ****    ieee154e_dbg.num_timer++;
 554              		.loc 1 286 0
 555 033e 40F20003 		movw	r3, #:lower16:ieee154e_dbg
 556 0342 C0F20003 		movt	r3, #:upper16:ieee154e_dbg
 557 0346 5B68     		ldr	r3, [r3, #4]
 558 0348 5A1C     		adds	r2, r3, #1
 559 034a 40F20003 		movw	r3, #:lower16:ieee154e_dbg
 560 034e C0F20003 		movt	r3, #:upper16:ieee154e_dbg
 561 0352 5A60     		str	r2, [r3, #4]
 287:build/openmote-cc2538_armgcc/openstack/02a-MAClow/IEEE802154E.c **** }
 562              		.loc 1 287 0
 563 0354 80BD     		pop	{r7, pc}
 564              		.cfi_endproc
 565              	.LFE3:
 567 0356 00BF     		.align	2
 568              		.global	ieee154e_startOfFrame
 569              		.thumb
 570              		.thumb_func
 572              	ieee154e_startOfFrame:
 573              	.LFB4:
 288:build/openmote-cc2538_armgcc/openstack/02a-MAClow/IEEE802154E.c **** 
 289:build/openmote-cc2538_armgcc/openstack/02a-MAClow/IEEE802154E.c **** /**
 290:build/openmote-cc2538_armgcc/openstack/02a-MAClow/IEEE802154E.c **** \brief Indicates the radio just received the first byte of a packet.
 291:build/openmote-cc2538_armgcc/openstack/02a-MAClow/IEEE802154E.c **** 
 292:build/openmote-cc2538_armgcc/openstack/02a-MAClow/IEEE802154E.c **** This function executes in ISR mode.
 293:build/openmote-cc2538_armgcc/openstack/02a-MAClow/IEEE802154E.c **** */
 294:build/openmote-cc2538_armgcc/openstack/02a-MAClow/IEEE802154E.c **** void ieee154e_startOfFrame(PORT_RADIOTIMER_WIDTH capturedTime) {
 574              		.loc 1 294 0
 575              		.cfi_startproc
 576              		@ args = 0, pretend = 0, frame = 8
 577              		@ frame_needed = 1, uses_anonymous_args = 0
 578 0358 80B5     		push	{r7, lr}
 579              		.cfi_def_cfa_offset 8
 580              		.cfi_offset 7, -8
 581              		.cfi_offset 14, -4
 582 035a 82B0     		sub	sp, sp, #8
 583              		.cfi_def_cfa_offset 16
 584 035c 00AF     		add	r7, sp, #0
 585              		.cfi_def_cfa_register 7
 586 035e 7860     		str	r0, [r7, #4]
 295:build/openmote-cc2538_armgcc/openstack/02a-MAClow/IEEE802154E.c ****    if (ieee154e_vars.isSync==FALSE) {
 587              		.loc 1 295 0
 588 0360 40F20003 		movw	r3, #:lower16:ieee154e_vars
 589 0364 C0F20003 		movt	r3, #:upper16:ieee154e_vars
 590 0368 1B7C     		ldrb	r3, [r3, #16]	@ zero_extendqisi2
 591 036a 83F00103 		eor	r3, r3, #1
 592 036e DBB2     		uxtb	r3, r3
 593 0370 002B     		cmp	r3, #0
 594 0372 03D0     		beq	.L40
 296:build/openmote-cc2538_armgcc/openstack/02a-MAClow/IEEE802154E.c ****      activity_synchronize_startOfFrame(capturedTime);
 595              		.loc 1 296 0
 596 0374 7868     		ldr	r0, [r7, #4]
 597 0376 FFF7FEFF 		bl	activity_synchronize_startOfFrame
 598 037a 50E0     		b	.L41
 599              	.L40:
 297:build/openmote-cc2538_armgcc/openstack/02a-MAClow/IEEE802154E.c ****    } else {
 298:build/openmote-cc2538_armgcc/openstack/02a-MAClow/IEEE802154E.c ****       switch (ieee154e_vars.state) {
 600              		.loc 1 298 0
 601 037c 40F20003 		movw	r3, #:lower16:ieee154e_vars
 602 0380 C0F20003 		movt	r3, #:upper16:ieee154e_vars
 603 0384 93F82831 		ldrb	r3, [r3, #296]	@ zero_extendqisi2
 604 0388 073B     		subs	r3, r3, #7
 605 038a 102B     		cmp	r3, #16
 606 038c 34D8     		bhi	.L42
 607 038e 01A2     		adr	r2, .L44
 608 0390 52F823F0 		ldr	pc, [r2, r3, lsl #2]
 609              		.p2align 2
 610              	.L44:
 611 0394 D9030000 		.word	.L43+1
 612 0398 F9030000 		.word	.L42+1
 613 039c F9030000 		.word	.L42+1
 614 03a0 F9030000 		.word	.L42+1
 615 03a4 E1030000 		.word	.L45+1
 616 03a8 E1030000 		.word	.L45+1
 617 03ac F9030000 		.word	.L42+1
 618 03b0 F9030000 		.word	.L42+1
 619 03b4 F9030000 		.word	.L42+1
 620 03b8 F9030000 		.word	.L42+1
 621 03bc E9030000 		.word	.L46+1
 622 03c0 E9030000 		.word	.L46+1
 623 03c4 F9030000 		.word	.L42+1
 624 03c8 F9030000 		.word	.L42+1
 625 03cc F9030000 		.word	.L42+1
 626 03d0 F9030000 		.word	.L42+1
 627 03d4 F1030000 		.word	.L47+1
 628              	.L43:
 299:build/openmote-cc2538_armgcc/openstack/02a-MAClow/IEEE802154E.c ****          case S_TXDATADELAY:   
 300:build/openmote-cc2538_armgcc/openstack/02a-MAClow/IEEE802154E.c ****             activity_ti4(capturedTime);
 629              		.loc 1 300 0
 630 03d8 7868     		ldr	r0, [r7, #4]
 631 03da FFF7FEFF 		bl	activity_ti4
 301:build/openmote-cc2538_armgcc/openstack/02a-MAClow/IEEE802154E.c ****             break;
 632              		.loc 1 301 0
 633 03de 1EE0     		b	.L41
 634              	.L45:
 302:build/openmote-cc2538_armgcc/openstack/02a-MAClow/IEEE802154E.c ****          case S_RXACKREADY:
 303:build/openmote-cc2538_armgcc/openstack/02a-MAClow/IEEE802154E.c ****             /*
 304:build/openmote-cc2538_armgcc/openstack/02a-MAClow/IEEE802154E.c ****             It is possible to receive in this state for radio where there is no
 305:build/openmote-cc2538_armgcc/openstack/02a-MAClow/IEEE802154E.c ****             way of differentiated between "ready to listen" and "listening"
 306:build/openmote-cc2538_armgcc/openstack/02a-MAClow/IEEE802154E.c ****             (e.g. CC2420). We must therefore expect to the start of a packet in
 307:build/openmote-cc2538_armgcc/openstack/02a-MAClow/IEEE802154E.c ****             this "ready" state.
 308:build/openmote-cc2538_armgcc/openstack/02a-MAClow/IEEE802154E.c ****             */
 309:build/openmote-cc2538_armgcc/openstack/02a-MAClow/IEEE802154E.c ****             // no break!
 310:build/openmote-cc2538_armgcc/openstack/02a-MAClow/IEEE802154E.c ****          case S_RXACKLISTEN:
 311:build/openmote-cc2538_armgcc/openstack/02a-MAClow/IEEE802154E.c ****             activity_ti8(capturedTime);
 635              		.loc 1 311 0
 636 03e0 7868     		ldr	r0, [r7, #4]
 637 03e2 FFF7FEFF 		bl	activity_ti8
 312:build/openmote-cc2538_armgcc/openstack/02a-MAClow/IEEE802154E.c ****             break;
 638              		.loc 1 312 0
 639 03e6 1AE0     		b	.L41
 640              	.L46:
 313:build/openmote-cc2538_armgcc/openstack/02a-MAClow/IEEE802154E.c ****          case S_RXDATAREADY:
 314:build/openmote-cc2538_armgcc/openstack/02a-MAClow/IEEE802154E.c ****             /*
 315:build/openmote-cc2538_armgcc/openstack/02a-MAClow/IEEE802154E.c ****             Similarly as above.
 316:build/openmote-cc2538_armgcc/openstack/02a-MAClow/IEEE802154E.c ****             */
 317:build/openmote-cc2538_armgcc/openstack/02a-MAClow/IEEE802154E.c ****             // no break!
 318:build/openmote-cc2538_armgcc/openstack/02a-MAClow/IEEE802154E.c ****          case S_RXDATALISTEN:
 319:build/openmote-cc2538_armgcc/openstack/02a-MAClow/IEEE802154E.c ****             activity_ri4(capturedTime);
 641              		.loc 1 319 0
 642 03e8 7868     		ldr	r0, [r7, #4]
 643 03ea FFF7FEFF 		bl	activity_ri4
 320:build/openmote-cc2538_armgcc/openstack/02a-MAClow/IEEE802154E.c ****             break;
 644              		.loc 1 320 0
 645 03ee 16E0     		b	.L41
 646              	.L47:
 321:build/openmote-cc2538_armgcc/openstack/02a-MAClow/IEEE802154E.c ****          case S_TXACKDELAY:
 322:build/openmote-cc2538_armgcc/openstack/02a-MAClow/IEEE802154E.c ****             activity_ri8(capturedTime);
 647              		.loc 1 322 0
 648 03f0 7868     		ldr	r0, [r7, #4]
 649 03f2 FFF7FEFF 		bl	activity_ri8
 323:build/openmote-cc2538_armgcc/openstack/02a-MAClow/IEEE802154E.c ****             break;
 650              		.loc 1 323 0
 651 03f6 12E0     		b	.L41
 652              	.L42:
 324:build/openmote-cc2538_armgcc/openstack/02a-MAClow/IEEE802154E.c ****          default:
 325:build/openmote-cc2538_armgcc/openstack/02a-MAClow/IEEE802154E.c ****             // log the error
 326:build/openmote-cc2538_armgcc/openstack/02a-MAClow/IEEE802154E.c ****             openserial_printError(COMPONENT_IEEE802154E,ERR_WRONG_STATE_IN_NEWSLOT,
 327:build/openmote-cc2538_armgcc/openstack/02a-MAClow/IEEE802154E.c ****                                   (errorparameter_t)ieee154e_vars.state,
 653              		.loc 1 327 0
 654 03f8 40F20003 		movw	r3, #:lower16:ieee154e_vars
 655 03fc C0F20003 		movt	r3, #:upper16:ieee154e_vars
 656 0400 93F82831 		ldrb	r3, [r3, #296]	@ zero_extendqisi2
 326:build/openmote-cc2538_armgcc/openstack/02a-MAClow/IEEE802154E.c ****                                   (errorparameter_t)ieee154e_vars.state,
 657              		.loc 1 326 0
 658 0404 1A46     		mov	r2, r3
 659 0406 40F20003 		movw	r3, #:lower16:ieee154e_vars
 660 040a C0F20003 		movt	r3, #:upper16:ieee154e_vars
 661 040e DB88     		ldrh	r3, [r3, #6]
 662 0410 0920     		movs	r0, #9
 663 0412 2021     		movs	r1, #32
 664 0414 FFF7FEFF 		bl	openserial_printError
 328:build/openmote-cc2538_armgcc/openstack/02a-MAClow/IEEE802154E.c ****                                   (errorparameter_t)ieee154e_vars.slotOffset);
 329:build/openmote-cc2538_armgcc/openstack/02a-MAClow/IEEE802154E.c ****             // abort
 330:build/openmote-cc2538_armgcc/openstack/02a-MAClow/IEEE802154E.c ****             endSlot();
 665              		.loc 1 330 0
 666 0418 FFF7FEFF 		bl	endSlot
 331:build/openmote-cc2538_armgcc/openstack/02a-MAClow/IEEE802154E.c ****             break;
 667              		.loc 1 331 0
 668 041c 00BF     		nop
 669              	.L41:
 332:build/openmote-cc2538_armgcc/openstack/02a-MAClow/IEEE802154E.c ****       }
 333:build/openmote-cc2538_armgcc/openstack/02a-MAClow/IEEE802154E.c ****    }
 334:build/openmote-cc2538_armgcc/openstack/02a-MAClow/IEEE802154E.c ****    ieee154e_dbg.num_startOfFrame++;
 670              		.loc 1 334 0
 671 041e 40F20003 		movw	r3, #:lower16:ieee154e_dbg
 672 0422 C0F20003 		movt	r3, #:upper16:ieee154e_dbg
 673 0426 9B68     		ldr	r3, [r3, #8]
 674 0428 5A1C     		adds	r2, r3, #1
 675 042a 40F20003 		movw	r3, #:lower16:ieee154e_dbg
 676 042e C0F20003 		movt	r3, #:upper16:ieee154e_dbg
 677 0432 9A60     		str	r2, [r3, #8]
 335:build/openmote-cc2538_armgcc/openstack/02a-MAClow/IEEE802154E.c **** }
 678              		.loc 1 335 0
 679 0434 0837     		adds	r7, r7, #8
 680 0436 BD46     		mov	sp, r7
 681              		@ sp needed
 682 0438 80BD     		pop	{r7, pc}
 683              		.cfi_endproc
 684              	.LFE4:
 686 043a 00BF     		.align	2
 687              		.global	ieee154e_endOfFrame
 688              		.thumb
 689              		.thumb_func
 691              	ieee154e_endOfFrame:
 692              	.LFB5:
 336:build/openmote-cc2538_armgcc/openstack/02a-MAClow/IEEE802154E.c **** 
 337:build/openmote-cc2538_armgcc/openstack/02a-MAClow/IEEE802154E.c **** /**
 338:build/openmote-cc2538_armgcc/openstack/02a-MAClow/IEEE802154E.c **** \brief Indicates the radio just received the last byte of a packet.
 339:build/openmote-cc2538_armgcc/openstack/02a-MAClow/IEEE802154E.c **** 
 340:build/openmote-cc2538_armgcc/openstack/02a-MAClow/IEEE802154E.c **** This function executes in ISR mode.
 341:build/openmote-cc2538_armgcc/openstack/02a-MAClow/IEEE802154E.c **** */
 342:build/openmote-cc2538_armgcc/openstack/02a-MAClow/IEEE802154E.c **** void ieee154e_endOfFrame(PORT_RADIOTIMER_WIDTH capturedTime) {
 693              		.loc 1 342 0
 694              		.cfi_startproc
 695              		@ args = 0, pretend = 0, frame = 8
 696              		@ frame_needed = 1, uses_anonymous_args = 0
 697 043c 80B5     		push	{r7, lr}
 698              		.cfi_def_cfa_offset 8
 699              		.cfi_offset 7, -8
 700              		.cfi_offset 14, -4
 701 043e 82B0     		sub	sp, sp, #8
 702              		.cfi_def_cfa_offset 16
 703 0440 00AF     		add	r7, sp, #0
 704              		.cfi_def_cfa_register 7
 705 0442 7860     		str	r0, [r7, #4]
 343:build/openmote-cc2538_armgcc/openstack/02a-MAClow/IEEE802154E.c ****    if (ieee154e_vars.isSync==FALSE) {
 706              		.loc 1 343 0
 707 0444 40F20003 		movw	r3, #:lower16:ieee154e_vars
 708 0448 C0F20003 		movt	r3, #:upper16:ieee154e_vars
 709 044c 1B7C     		ldrb	r3, [r3, #16]	@ zero_extendqisi2
 710 044e 83F00103 		eor	r3, r3, #1
 711 0452 DBB2     		uxtb	r3, r3
 712 0454 002B     		cmp	r3, #0
 713 0456 03D0     		beq	.L49
 344:build/openmote-cc2538_armgcc/openstack/02a-MAClow/IEEE802154E.c ****       activity_synchronize_endOfFrame(capturedTime);
 714              		.loc 1 344 0
 715 0458 7868     		ldr	r0, [r7, #4]
 716 045a FFF7FEFF 		bl	activity_synchronize_endOfFrame
 717 045e 50E0     		b	.L50
 718              	.L49:
 345:build/openmote-cc2538_armgcc/openstack/02a-MAClow/IEEE802154E.c ****    } else {
 346:build/openmote-cc2538_armgcc/openstack/02a-MAClow/IEEE802154E.c ****       switch (ieee154e_vars.state) {
 719              		.loc 1 346 0
 720 0460 40F20003 		movw	r3, #:lower16:ieee154e_vars
 721 0464 C0F20003 		movt	r3, #:upper16:ieee154e_vars
 722 0468 93F82831 		ldrb	r3, [r3, #296]	@ zero_extendqisi2
 723 046c 083B     		subs	r3, r3, #8
 724 046e 102B     		cmp	r3, #16
 725 0470 34D8     		bhi	.L51
 726 0472 01A2     		adr	r2, .L53
 727 0474 52F823F0 		ldr	pc, [r2, r3, lsl #2]
 728              		.p2align 2
 729              	.L53:
 730 0478 BD040000 		.word	.L52+1
 731 047c DD040000 		.word	.L51+1
 732 0480 DD040000 		.word	.L51+1
 733 0484 DD040000 		.word	.L51+1
 734 0488 DD040000 		.word	.L51+1
 735 048c C5040000 		.word	.L54+1
 736 0490 DD040000 		.word	.L51+1
 737 0494 DD040000 		.word	.L51+1
 738 0498 DD040000 		.word	.L51+1
 739 049c DD040000 		.word	.L51+1
 740 04a0 DD040000 		.word	.L51+1
 741 04a4 CD040000 		.word	.L55+1
 742 04a8 DD040000 		.word	.L51+1
 743 04ac DD040000 		.word	.L51+1
 744 04b0 DD040000 		.word	.L51+1
 745 04b4 DD040000 		.word	.L51+1
 746 04b8 D5040000 		.word	.L56+1
 747              	.L52:
 347:build/openmote-cc2538_armgcc/openstack/02a-MAClow/IEEE802154E.c ****          case S_TXDATA:
 348:build/openmote-cc2538_armgcc/openstack/02a-MAClow/IEEE802154E.c ****             activity_ti5(capturedTime);
 748              		.loc 1 348 0
 749 04bc 7868     		ldr	r0, [r7, #4]
 750 04be FFF7FEFF 		bl	activity_ti5
 349:build/openmote-cc2538_armgcc/openstack/02a-MAClow/IEEE802154E.c ****             break;
 751              		.loc 1 349 0
 752 04c2 1EE0     		b	.L50
 753              	.L54:
 350:build/openmote-cc2538_armgcc/openstack/02a-MAClow/IEEE802154E.c ****          case S_RXACK:
 351:build/openmote-cc2538_armgcc/openstack/02a-MAClow/IEEE802154E.c ****             activity_ti9(capturedTime);
 754              		.loc 1 351 0
 755 04c4 7868     		ldr	r0, [r7, #4]
 756 04c6 FFF7FEFF 		bl	activity_ti9
 352:build/openmote-cc2538_armgcc/openstack/02a-MAClow/IEEE802154E.c ****             break;
 757              		.loc 1 352 0
 758 04ca 1AE0     		b	.L50
 759              	.L55:
 353:build/openmote-cc2538_armgcc/openstack/02a-MAClow/IEEE802154E.c ****          case S_RXDATA:
 354:build/openmote-cc2538_armgcc/openstack/02a-MAClow/IEEE802154E.c ****             activity_ri5(capturedTime);
 760              		.loc 1 354 0
 761 04cc 7868     		ldr	r0, [r7, #4]
 762 04ce FFF7FEFF 		bl	activity_ri5
 355:build/openmote-cc2538_armgcc/openstack/02a-MAClow/IEEE802154E.c ****             break;
 763              		.loc 1 355 0
 764 04d2 16E0     		b	.L50
 765              	.L56:
 356:build/openmote-cc2538_armgcc/openstack/02a-MAClow/IEEE802154E.c ****          case S_TXACK:
 357:build/openmote-cc2538_armgcc/openstack/02a-MAClow/IEEE802154E.c ****             activity_ri9(capturedTime);
 766              		.loc 1 357 0
 767 04d4 7868     		ldr	r0, [r7, #4]
 768 04d6 FFF7FEFF 		bl	activity_ri9
 358:build/openmote-cc2538_armgcc/openstack/02a-MAClow/IEEE802154E.c ****             break;
 769              		.loc 1 358 0
 770 04da 12E0     		b	.L50
 771              	.L51:
 359:build/openmote-cc2538_armgcc/openstack/02a-MAClow/IEEE802154E.c ****          default:
 360:build/openmote-cc2538_armgcc/openstack/02a-MAClow/IEEE802154E.c ****             // log the error
 361:build/openmote-cc2538_armgcc/openstack/02a-MAClow/IEEE802154E.c ****             openserial_printError(COMPONENT_IEEE802154E,ERR_WRONG_STATE_IN_ENDOFFRAME,
 362:build/openmote-cc2538_armgcc/openstack/02a-MAClow/IEEE802154E.c ****                                   (errorparameter_t)ieee154e_vars.state,
 772              		.loc 1 362 0
 773 04dc 40F20003 		movw	r3, #:lower16:ieee154e_vars
 774 04e0 C0F20003 		movt	r3, #:upper16:ieee154e_vars
 775 04e4 93F82831 		ldrb	r3, [r3, #296]	@ zero_extendqisi2
 361:build/openmote-cc2538_armgcc/openstack/02a-MAClow/IEEE802154E.c ****                                   (errorparameter_t)ieee154e_vars.state,
 776              		.loc 1 361 0
 777 04e8 1A46     		mov	r2, r3
 778 04ea 40F20003 		movw	r3, #:lower16:ieee154e_vars
 779 04ee C0F20003 		movt	r3, #:upper16:ieee154e_vars
 780 04f2 DB88     		ldrh	r3, [r3, #6]
 781 04f4 0920     		movs	r0, #9
 782 04f6 2121     		movs	r1, #33
 783 04f8 FFF7FEFF 		bl	openserial_printError
 363:build/openmote-cc2538_armgcc/openstack/02a-MAClow/IEEE802154E.c ****                                   (errorparameter_t)ieee154e_vars.slotOffset);
 364:build/openmote-cc2538_armgcc/openstack/02a-MAClow/IEEE802154E.c ****             // abort
 365:build/openmote-cc2538_armgcc/openstack/02a-MAClow/IEEE802154E.c ****             endSlot();
 784              		.loc 1 365 0
 785 04fc FFF7FEFF 		bl	endSlot
 366:build/openmote-cc2538_armgcc/openstack/02a-MAClow/IEEE802154E.c ****             break;
 786              		.loc 1 366 0
 787 0500 00BF     		nop
 788              	.L50:
 367:build/openmote-cc2538_armgcc/openstack/02a-MAClow/IEEE802154E.c ****       }
 368:build/openmote-cc2538_armgcc/openstack/02a-MAClow/IEEE802154E.c ****    }
 369:build/openmote-cc2538_armgcc/openstack/02a-MAClow/IEEE802154E.c ****    ieee154e_dbg.num_endOfFrame++;
 789              		.loc 1 369 0
 790 0502 40F20003 		movw	r3, #:lower16:ieee154e_dbg
 791 0506 C0F20003 		movt	r3, #:upper16:ieee154e_dbg
 792 050a DB68     		ldr	r3, [r3, #12]
 793 050c 5A1C     		adds	r2, r3, #1
 794 050e 40F20003 		movw	r3, #:lower16:ieee154e_dbg
 795 0512 C0F20003 		movt	r3, #:upper16:ieee154e_dbg
 796 0516 DA60     		str	r2, [r3, #12]
 370:build/openmote-cc2538_armgcc/openstack/02a-MAClow/IEEE802154E.c **** }
 797              		.loc 1 370 0
 798 0518 0837     		adds	r7, r7, #8
 799 051a BD46     		mov	sp, r7
 800              		@ sp needed
 801 051c 80BD     		pop	{r7, pc}
 802              		.cfi_endproc
 803              	.LFE5:
 805 051e 00BF     		.align	2
 806              		.global	debugPrint_asn
 807              		.thumb
 808              		.thumb_func
 810              	debugPrint_asn:
 811              	.LFB6:
 371:build/openmote-cc2538_armgcc/openstack/02a-MAClow/IEEE802154E.c **** 
 372:build/openmote-cc2538_armgcc/openstack/02a-MAClow/IEEE802154E.c **** //======= misc
 373:build/openmote-cc2538_armgcc/openstack/02a-MAClow/IEEE802154E.c **** 
 374:build/openmote-cc2538_armgcc/openstack/02a-MAClow/IEEE802154E.c **** /**
 375:build/openmote-cc2538_armgcc/openstack/02a-MAClow/IEEE802154E.c **** \brief Trigger this module to print status information, over serial.
 376:build/openmote-cc2538_armgcc/openstack/02a-MAClow/IEEE802154E.c **** 
 377:build/openmote-cc2538_armgcc/openstack/02a-MAClow/IEEE802154E.c **** debugPrint_* functions are used by the openserial module to continuously print
 378:build/openmote-cc2538_armgcc/openstack/02a-MAClow/IEEE802154E.c **** status information about several modules in the OpenWSN stack.
 379:build/openmote-cc2538_armgcc/openstack/02a-MAClow/IEEE802154E.c **** 
 380:build/openmote-cc2538_armgcc/openstack/02a-MAClow/IEEE802154E.c **** \returns TRUE if this function printed something, FALSE otherwise.
 381:build/openmote-cc2538_armgcc/openstack/02a-MAClow/IEEE802154E.c **** */
 382:build/openmote-cc2538_armgcc/openstack/02a-MAClow/IEEE802154E.c **** bool debugPrint_asn() {
 812              		.loc 1 382 0
 813              		.cfi_startproc
 814              		@ args = 0, pretend = 0, frame = 8
 815              		@ frame_needed = 1, uses_anonymous_args = 0
 816 0520 80B5     		push	{r7, lr}
 817              		.cfi_def_cfa_offset 8
 818              		.cfi_offset 7, -8
 819              		.cfi_offset 14, -4
 820 0522 82B0     		sub	sp, sp, #8
 821              		.cfi_def_cfa_offset 16
 822 0524 00AF     		add	r7, sp, #0
 823              		.cfi_def_cfa_register 7
 383:build/openmote-cc2538_armgcc/openstack/02a-MAClow/IEEE802154E.c ****    asn_t output;
 384:build/openmote-cc2538_armgcc/openstack/02a-MAClow/IEEE802154E.c ****    output.byte4         =  ieee154e_vars.asn.byte4;
 824              		.loc 1 384 0
 825 0526 40F20003 		movw	r3, #:lower16:ieee154e_vars
 826 052a C0F20003 		movt	r3, #:upper16:ieee154e_vars
 827 052e 1B78     		ldrb	r3, [r3]	@ zero_extendqisi2
 828 0530 3B70     		strb	r3, [r7]
 385:build/openmote-cc2538_armgcc/openstack/02a-MAClow/IEEE802154E.c ****    output.bytes2and3    =  ieee154e_vars.asn.bytes2and3;
 829              		.loc 1 385 0
 830 0532 40F20003 		movw	r3, #:lower16:ieee154e_vars
 831 0536 C0F20003 		movt	r3, #:upper16:ieee154e_vars
 832 053a B3F80130 		ldrh	r3, [r3, #1]	@ unaligned
 833 053e 9BB2     		uxth	r3, r3
 834 0540 A7F80130 		strh	r3, [r7, #1]	@ unaligned
 386:build/openmote-cc2538_armgcc/openstack/02a-MAClow/IEEE802154E.c ****    output.bytes0and1    =  ieee154e_vars.asn.bytes0and1;
 835              		.loc 1 386 0
 836 0544 40F20003 		movw	r3, #:lower16:ieee154e_vars
 837 0548 C0F20003 		movt	r3, #:upper16:ieee154e_vars
 838 054c B3F80330 		ldrh	r3, [r3, #3]	@ unaligned
 839 0550 9BB2     		uxth	r3, r3
 840 0552 A7F80330 		strh	r3, [r7, #3]	@ unaligned
 387:build/openmote-cc2538_armgcc/openstack/02a-MAClow/IEEE802154E.c ****    openserial_printStatus(STATUS_ASN,(uint8_t*)&output,sizeof(output));
 841              		.loc 1 387 0
 842 0556 3B46     		mov	r3, r7
 843 0558 0420     		movs	r0, #4
 844 055a 1946     		mov	r1, r3
 845 055c 0522     		movs	r2, #5
 846 055e FFF7FEFF 		bl	openserial_printStatus
 388:build/openmote-cc2538_armgcc/openstack/02a-MAClow/IEEE802154E.c ****    return TRUE;
 847              		.loc 1 388 0
 848 0562 0123     		movs	r3, #1
 389:build/openmote-cc2538_armgcc/openstack/02a-MAClow/IEEE802154E.c **** }
 849              		.loc 1 389 0
 850 0564 1846     		mov	r0, r3
 851 0566 0837     		adds	r7, r7, #8
 852 0568 BD46     		mov	sp, r7
 853              		@ sp needed
 854 056a 80BD     		pop	{r7, pc}
 855              		.cfi_endproc
 856              	.LFE6:
 858              		.align	2
 859              		.global	debugPrint_isSync
 860              		.thumb
 861              		.thumb_func
 863              	debugPrint_isSync:
 864              	.LFB7:
 390:build/openmote-cc2538_armgcc/openstack/02a-MAClow/IEEE802154E.c **** 
 391:build/openmote-cc2538_armgcc/openstack/02a-MAClow/IEEE802154E.c **** /**
 392:build/openmote-cc2538_armgcc/openstack/02a-MAClow/IEEE802154E.c **** \brief Trigger this module to print status information, over serial.
 393:build/openmote-cc2538_armgcc/openstack/02a-MAClow/IEEE802154E.c **** 
 394:build/openmote-cc2538_armgcc/openstack/02a-MAClow/IEEE802154E.c **** debugPrint_* functions are used by the openserial module to continuously print
 395:build/openmote-cc2538_armgcc/openstack/02a-MAClow/IEEE802154E.c **** status information about several modules in the OpenWSN stack.
 396:build/openmote-cc2538_armgcc/openstack/02a-MAClow/IEEE802154E.c **** 
 397:build/openmote-cc2538_armgcc/openstack/02a-MAClow/IEEE802154E.c **** \returns TRUE if this function printed something, FALSE otherwise.
 398:build/openmote-cc2538_armgcc/openstack/02a-MAClow/IEEE802154E.c **** */
 399:build/openmote-cc2538_armgcc/openstack/02a-MAClow/IEEE802154E.c **** bool debugPrint_isSync() {
 865              		.loc 1 399 0
 866              		.cfi_startproc
 867              		@ args = 0, pretend = 0, frame = 8
 868              		@ frame_needed = 1, uses_anonymous_args = 0
 869 056c 80B5     		push	{r7, lr}
 870              		.cfi_def_cfa_offset 8
 871              		.cfi_offset 7, -8
 872              		.cfi_offset 14, -4
 873 056e 82B0     		sub	sp, sp, #8
 874              		.cfi_def_cfa_offset 16
 875 0570 00AF     		add	r7, sp, #0
 876              		.cfi_def_cfa_register 7
 400:build/openmote-cc2538_armgcc/openstack/02a-MAClow/IEEE802154E.c ****    uint8_t output=0;
 877              		.loc 1 400 0
 878 0572 0023     		movs	r3, #0
 879 0574 FB71     		strb	r3, [r7, #7]
 401:build/openmote-cc2538_armgcc/openstack/02a-MAClow/IEEE802154E.c ****    output = ieee154e_vars.isSync;
 880              		.loc 1 401 0
 881 0576 40F20003 		movw	r3, #:lower16:ieee154e_vars
 882 057a C0F20003 		movt	r3, #:upper16:ieee154e_vars
 883 057e 1B7C     		ldrb	r3, [r3, #16]	@ zero_extendqisi2
 884 0580 FB71     		strb	r3, [r7, #7]
 402:build/openmote-cc2538_armgcc/openstack/02a-MAClow/IEEE802154E.c ****    openserial_printStatus(STATUS_ISSYNC,(uint8_t*)&output,sizeof(uint8_t));
 885              		.loc 1 402 0
 886 0582 FB1D     		adds	r3, r7, #7
 887 0584 0020     		movs	r0, #0
 888 0586 1946     		mov	r1, r3
 889 0588 0122     		movs	r2, #1
 890 058a FFF7FEFF 		bl	openserial_printStatus
 403:build/openmote-cc2538_armgcc/openstack/02a-MAClow/IEEE802154E.c ****    return TRUE;
 891              		.loc 1 403 0
 892 058e 0123     		movs	r3, #1
 404:build/openmote-cc2538_armgcc/openstack/02a-MAClow/IEEE802154E.c **** }
 893              		.loc 1 404 0
 894 0590 1846     		mov	r0, r3
 895 0592 0837     		adds	r7, r7, #8
 896 0594 BD46     		mov	sp, r7
 897              		@ sp needed
 898 0596 80BD     		pop	{r7, pc}
 899              		.cfi_endproc
 900              	.LFE7:
 902              		.align	2
 903              		.global	debugPrint_macStats
 904              		.thumb
 905              		.thumb_func
 907              	debugPrint_macStats:
 908              	.LFB8:
 405:build/openmote-cc2538_armgcc/openstack/02a-MAClow/IEEE802154E.c **** 
 406:build/openmote-cc2538_armgcc/openstack/02a-MAClow/IEEE802154E.c **** /**
 407:build/openmote-cc2538_armgcc/openstack/02a-MAClow/IEEE802154E.c **** \brief Trigger this module to print status information, over serial.
 408:build/openmote-cc2538_armgcc/openstack/02a-MAClow/IEEE802154E.c **** 
 409:build/openmote-cc2538_armgcc/openstack/02a-MAClow/IEEE802154E.c **** debugPrint_* functions are used by the openserial module to continuously print
 410:build/openmote-cc2538_armgcc/openstack/02a-MAClow/IEEE802154E.c **** status information about several modules in the OpenWSN stack.
 411:build/openmote-cc2538_armgcc/openstack/02a-MAClow/IEEE802154E.c **** 
 412:build/openmote-cc2538_armgcc/openstack/02a-MAClow/IEEE802154E.c **** \returns TRUE if this function printed something, FALSE otherwise.
 413:build/openmote-cc2538_armgcc/openstack/02a-MAClow/IEEE802154E.c **** */
 414:build/openmote-cc2538_armgcc/openstack/02a-MAClow/IEEE802154E.c **** bool debugPrint_macStats() {
 909              		.loc 1 414 0
 910              		.cfi_startproc
 911              		@ args = 0, pretend = 0, frame = 0
 912              		@ frame_needed = 1, uses_anonymous_args = 0
 913 0598 80B5     		push	{r7, lr}
 914              		.cfi_def_cfa_offset 8
 915              		.cfi_offset 7, -8
 916              		.cfi_offset 14, -4
 917 059a 00AF     		add	r7, sp, #0
 918              		.cfi_def_cfa_register 7
 415:build/openmote-cc2538_armgcc/openstack/02a-MAClow/IEEE802154E.c ****    // send current stats over serial
 416:build/openmote-cc2538_armgcc/openstack/02a-MAClow/IEEE802154E.c ****    openserial_printStatus(STATUS_MACSTATS,(uint8_t*)&ieee154e_stats,sizeof(ieee154e_stats_t));
 919              		.loc 1 416 0
 920 059c 0520     		movs	r0, #5
 921 059e 40F20001 		movw	r1, #:lower16:ieee154e_stats
 922 05a2 C0F20001 		movt	r1, #:upper16:ieee154e_stats
 923 05a6 0F22     		movs	r2, #15
 924 05a8 FFF7FEFF 		bl	openserial_printStatus
 417:build/openmote-cc2538_armgcc/openstack/02a-MAClow/IEEE802154E.c ****    return TRUE;
 925              		.loc 1 417 0
 926 05ac 0123     		movs	r3, #1
 418:build/openmote-cc2538_armgcc/openstack/02a-MAClow/IEEE802154E.c **** }
 927              		.loc 1 418 0
 928 05ae 1846     		mov	r0, r3
 929 05b0 80BD     		pop	{r7, pc}
 930              		.cfi_endproc
 931              	.LFE8:
 933 05b2 00BF     		.align	2
 934              		.global	activity_synchronize_newSlot
 935              		.thumb
 936              		.thumb_func
 938              	activity_synchronize_newSlot:
 939              	.LFB9:
 419:build/openmote-cc2538_armgcc/openstack/02a-MAClow/IEEE802154E.c **** 
 420:build/openmote-cc2538_armgcc/openstack/02a-MAClow/IEEE802154E.c **** //=========================== private =========================================
 421:build/openmote-cc2538_armgcc/openstack/02a-MAClow/IEEE802154E.c **** 
 422:build/openmote-cc2538_armgcc/openstack/02a-MAClow/IEEE802154E.c **** //======= SYNCHRONIZING
 423:build/openmote-cc2538_armgcc/openstack/02a-MAClow/IEEE802154E.c **** 
 424:build/openmote-cc2538_armgcc/openstack/02a-MAClow/IEEE802154E.c **** port_INLINE void activity_synchronize_newSlot() {
 940              		.loc 1 424 0
 941              		.cfi_startproc
 942              		@ args = 0, pretend = 0, frame = 0
 943              		@ frame_needed = 1, uses_anonymous_args = 0
 944 05b4 80B5     		push	{r7, lr}
 945              		.cfi_def_cfa_offset 8
 946              		.cfi_offset 7, -8
 947              		.cfi_offset 14, -4
 948 05b6 00AF     		add	r7, sp, #0
 949              		.cfi_def_cfa_register 7
 425:build/openmote-cc2538_armgcc/openstack/02a-MAClow/IEEE802154E.c ****    // I'm in the middle of receiving a packet
 426:build/openmote-cc2538_armgcc/openstack/02a-MAClow/IEEE802154E.c ****    if (ieee154e_vars.state==S_SYNCRX) {
 950              		.loc 1 426 0
 951 05b8 40F20003 		movw	r3, #:lower16:ieee154e_vars
 952 05bc C0F20003 		movt	r3, #:upper16:ieee154e_vars
 953 05c0 93F82831 		ldrb	r3, [r3, #296]	@ zero_extendqisi2
 954 05c4 022B     		cmp	r3, #2
 955 05c6 00D1     		bne	.L64
 427:build/openmote-cc2538_armgcc/openstack/02a-MAClow/IEEE802154E.c ****       return;
 956              		.loc 1 427 0
 957 05c8 92E0     		b	.L63
 958              	.L64:
 428:build/openmote-cc2538_armgcc/openstack/02a-MAClow/IEEE802154E.c ****    }
 429:build/openmote-cc2538_armgcc/openstack/02a-MAClow/IEEE802154E.c ****    
 430:build/openmote-cc2538_armgcc/openstack/02a-MAClow/IEEE802154E.c ****    // if this is the first time I call this function while not synchronized,
 431:build/openmote-cc2538_armgcc/openstack/02a-MAClow/IEEE802154E.c ****    // switch on the radio in Rx mode
 432:build/openmote-cc2538_armgcc/openstack/02a-MAClow/IEEE802154E.c ****    if (ieee154e_vars.state!=S_SYNCLISTEN) {
 959              		.loc 1 432 0
 960 05ca 40F20003 		movw	r3, #:lower16:ieee154e_vars
 961 05ce C0F20003 		movt	r3, #:upper16:ieee154e_vars
 962 05d2 93F82831 		ldrb	r3, [r3, #296]	@ zero_extendqisi2
 963 05d6 012B     		cmp	r3, #1
 964 05d8 22D0     		beq	.L66
 433:build/openmote-cc2538_armgcc/openstack/02a-MAClow/IEEE802154E.c ****       // change state
 434:build/openmote-cc2538_armgcc/openstack/02a-MAClow/IEEE802154E.c ****       changeState(S_SYNCLISTEN);
 965              		.loc 1 434 0
 966 05da 0120     		movs	r0, #1
 967 05dc FFF7FEFF 		bl	changeState
 435:build/openmote-cc2538_armgcc/openstack/02a-MAClow/IEEE802154E.c ****       
 436:build/openmote-cc2538_armgcc/openstack/02a-MAClow/IEEE802154E.c ****       // turn off the radio (in case it wasn't yet)
 437:build/openmote-cc2538_armgcc/openstack/02a-MAClow/IEEE802154E.c ****       radio_rfOff();
 968              		.loc 1 437 0
 969 05e0 FFF7FEFF 		bl	radio_rfOff
 438:build/openmote-cc2538_armgcc/openstack/02a-MAClow/IEEE802154E.c ****       
 439:build/openmote-cc2538_armgcc/openstack/02a-MAClow/IEEE802154E.c ****       // configure the radio to listen to the default synchronizing channel
 440:build/openmote-cc2538_armgcc/openstack/02a-MAClow/IEEE802154E.c ****       radio_setFrequency(SYNCHRONIZING_CHANNEL);
 970              		.loc 1 440 0
 971 05e4 1420     		movs	r0, #20
 972 05e6 FFF7FEFF 		bl	radio_setFrequency
 441:build/openmote-cc2538_armgcc/openstack/02a-MAClow/IEEE802154E.c ****       
 442:build/openmote-cc2538_armgcc/openstack/02a-MAClow/IEEE802154E.c ****       // update record of current channel
 443:build/openmote-cc2538_armgcc/openstack/02a-MAClow/IEEE802154E.c ****       ieee154e_vars.freq = SYNCHRONIZING_CHANNEL;
 973              		.loc 1 443 0
 974 05ea 40F20003 		movw	r3, #:lower16:ieee154e_vars
 975 05ee C0F20003 		movt	r3, #:upper16:ieee154e_vars
 976 05f2 1422     		movs	r2, #20
 977 05f4 83F84421 		strb	r2, [r3, #324]
 444:build/openmote-cc2538_armgcc/openstack/02a-MAClow/IEEE802154E.c ****       
 445:build/openmote-cc2538_armgcc/openstack/02a-MAClow/IEEE802154E.c ****       // switch on the radio in Rx mode.
 446:build/openmote-cc2538_armgcc/openstack/02a-MAClow/IEEE802154E.c ****       radio_rxEnable();
 978              		.loc 1 446 0
 979 05f8 FFF7FEFF 		bl	radio_rxEnable
 447:build/openmote-cc2538_armgcc/openstack/02a-MAClow/IEEE802154E.c ****       ieee154e_vars.radioOnInit=radio_getTimerValue();
 980              		.loc 1 447 0
 981 05fc FFF7FEFF 		bl	radio_getTimerValue
 982 0600 0246     		mov	r2, r0
 983 0602 40F20003 		movw	r3, #:lower16:ieee154e_vars
 984 0606 C0F20003 		movt	r3, #:upper16:ieee154e_vars
 985 060a C3F85C21 		str	r2, [r3, #348]
 448:build/openmote-cc2538_armgcc/openstack/02a-MAClow/IEEE802154E.c ****       ieee154e_vars.radioOnThisSlot=TRUE;
 986              		.loc 1 448 0
 987 060e 40F20003 		movw	r3, #:lower16:ieee154e_vars
 988 0612 C0F20003 		movt	r3, #:upper16:ieee154e_vars
 989 0616 0122     		movs	r2, #1
 990 0618 83F86421 		strb	r2, [r3, #356]
 449:build/openmote-cc2538_armgcc/openstack/02a-MAClow/IEEE802154E.c ****       radio_rxNow();
 991              		.loc 1 449 0
 992 061c FFF7FEFF 		bl	radio_rxNow
 993              	.L66:
 450:build/openmote-cc2538_armgcc/openstack/02a-MAClow/IEEE802154E.c ****    }
 451:build/openmote-cc2538_armgcc/openstack/02a-MAClow/IEEE802154E.c ****    
 452:build/openmote-cc2538_armgcc/openstack/02a-MAClow/IEEE802154E.c ****    // if I'm already in S_SYNCLISTEN, while not synchronized,
 453:build/openmote-cc2538_armgcc/openstack/02a-MAClow/IEEE802154E.c ****    // but the synchronizing channel has been changed,
 454:build/openmote-cc2538_armgcc/openstack/02a-MAClow/IEEE802154E.c ****    // change the synchronizing channel
 455:build/openmote-cc2538_armgcc/openstack/02a-MAClow/IEEE802154E.c ****    if ((ieee154e_vars.state==S_SYNCLISTEN) && (ieee154e_vars.singleChannelChanged == TRUE)) {
 994              		.loc 1 455 0
 995 0620 40F20003 		movw	r3, #:lower16:ieee154e_vars
 996 0624 C0F20003 		movt	r3, #:upper16:ieee154e_vars
 997 0628 93F82831 		ldrb	r3, [r3, #296]	@ zero_extendqisi2
 998 062c 012B     		cmp	r3, #1
 999 062e 3ED1     		bne	.L67
 1000              		.loc 1 455 0 is_stmt 0 discriminator 1
 1001 0630 40F20003 		movw	r3, #:lower16:ieee154e_vars
 1002 0634 C0F20003 		movt	r3, #:upper16:ieee154e_vars
 1003 0638 93F84731 		ldrb	r3, [r3, #327]	@ zero_extendqisi2
 1004 063c 002B     		cmp	r3, #0
 1005 063e 36D0     		beq	.L67
 456:build/openmote-cc2538_armgcc/openstack/02a-MAClow/IEEE802154E.c ****       // turn off the radio (in case it wasn't yet)
 457:build/openmote-cc2538_armgcc/openstack/02a-MAClow/IEEE802154E.c ****       radio_rfOff();
 1006              		.loc 1 457 0 is_stmt 1
 1007 0640 FFF7FEFF 		bl	radio_rfOff
 458:build/openmote-cc2538_armgcc/openstack/02a-MAClow/IEEE802154E.c ****       
 459:build/openmote-cc2538_armgcc/openstack/02a-MAClow/IEEE802154E.c ****       // update record of current channel
 460:build/openmote-cc2538_armgcc/openstack/02a-MAClow/IEEE802154E.c ****       ieee154e_vars.freq = calculateFrequency(ieee154e_vars.singleChannel);
 1008              		.loc 1 460 0
 1009 0644 40F20003 		movw	r3, #:lower16:ieee154e_vars
 1010 0648 C0F20003 		movt	r3, #:upper16:ieee154e_vars
 1011 064c 93F84631 		ldrb	r3, [r3, #326]	@ zero_extendqisi2
 1012 0650 1846     		mov	r0, r3
 1013 0652 FFF7FEFF 		bl	calculateFrequency
 1014 0656 0346     		mov	r3, r0
 1015 0658 1A46     		mov	r2, r3
 1016 065a 40F20003 		movw	r3, #:lower16:ieee154e_vars
 1017 065e C0F20003 		movt	r3, #:upper16:ieee154e_vars
 1018 0662 83F84421 		strb	r2, [r3, #324]
 461:build/openmote-cc2538_armgcc/openstack/02a-MAClow/IEEE802154E.c ****       
 462:build/openmote-cc2538_armgcc/openstack/02a-MAClow/IEEE802154E.c ****       // configure the radio to listen to the default synchronizing channel
 463:build/openmote-cc2538_armgcc/openstack/02a-MAClow/IEEE802154E.c ****       radio_setFrequency(ieee154e_vars.freq);
 1019              		.loc 1 463 0
 1020 0666 40F20003 		movw	r3, #:lower16:ieee154e_vars
 1021 066a C0F20003 		movt	r3, #:upper16:ieee154e_vars
 1022 066e 93F84431 		ldrb	r3, [r3, #324]	@ zero_extendqisi2
 1023 0672 1846     		mov	r0, r3
 1024 0674 FFF7FEFF 		bl	radio_setFrequency
 464:build/openmote-cc2538_armgcc/openstack/02a-MAClow/IEEE802154E.c ****       
 465:build/openmote-cc2538_armgcc/openstack/02a-MAClow/IEEE802154E.c ****       // switch on the radio in Rx mode.
 466:build/openmote-cc2538_armgcc/openstack/02a-MAClow/IEEE802154E.c ****       radio_rxEnable();
 1025              		.loc 1 466 0
 1026 0678 FFF7FEFF 		bl	radio_rxEnable
 467:build/openmote-cc2538_armgcc/openstack/02a-MAClow/IEEE802154E.c ****       ieee154e_vars.radioOnInit=radio_getTimerValue();
 1027              		.loc 1 467 0
 1028 067c FFF7FEFF 		bl	radio_getTimerValue
 1029 0680 0246     		mov	r2, r0
 1030 0682 40F20003 		movw	r3, #:lower16:ieee154e_vars
 1031 0686 C0F20003 		movt	r3, #:upper16:ieee154e_vars
 1032 068a C3F85C21 		str	r2, [r3, #348]
 468:build/openmote-cc2538_armgcc/openstack/02a-MAClow/IEEE802154E.c ****       ieee154e_vars.radioOnThisSlot=TRUE;
 1033              		.loc 1 468 0
 1034 068e 40F20003 		movw	r3, #:lower16:ieee154e_vars
 1035 0692 C0F20003 		movt	r3, #:upper16:ieee154e_vars
 1036 0696 0122     		movs	r2, #1
 1037 0698 83F86421 		strb	r2, [r3, #356]
 469:build/openmote-cc2538_armgcc/openstack/02a-MAClow/IEEE802154E.c ****       radio_rxNow();
 1038              		.loc 1 469 0
 1039 069c FFF7FEFF 		bl	radio_rxNow
 470:build/openmote-cc2538_armgcc/openstack/02a-MAClow/IEEE802154E.c ****       ieee154e_vars.singleChannelChanged = FALSE;
 1040              		.loc 1 470 0
 1041 06a0 40F20003 		movw	r3, #:lower16:ieee154e_vars
 1042 06a4 C0F20003 		movt	r3, #:upper16:ieee154e_vars
 1043 06a8 0022     		movs	r2, #0
 1044 06aa 83F84721 		strb	r2, [r3, #327]
 1045              	.L67:
 471:build/openmote-cc2538_armgcc/openstack/02a-MAClow/IEEE802154E.c ****    }
 472:build/openmote-cc2538_armgcc/openstack/02a-MAClow/IEEE802154E.c ****    
 473:build/openmote-cc2538_armgcc/openstack/02a-MAClow/IEEE802154E.c ****    // increment ASN (used only to schedule serial activity)
 474:build/openmote-cc2538_armgcc/openstack/02a-MAClow/IEEE802154E.c ****    incrementAsnOffset();
 1046              		.loc 1 474 0
 1047 06ae FFF7FEFF 		bl	incrementAsnOffset
 475:build/openmote-cc2538_armgcc/openstack/02a-MAClow/IEEE802154E.c ****    
 476:build/openmote-cc2538_armgcc/openstack/02a-MAClow/IEEE802154E.c ****    // to be able to receive and transmist serial even when not synchronized
 477:build/openmote-cc2538_armgcc/openstack/02a-MAClow/IEEE802154E.c ****    // take turns every 8 slots sending and receiving
 478:build/openmote-cc2538_armgcc/openstack/02a-MAClow/IEEE802154E.c ****    if        ((ieee154e_vars.asn.bytes0and1&0x000f)==0x0000) {
 1048              		.loc 1 478 0
 1049 06b2 40F20003 		movw	r3, #:lower16:ieee154e_vars
 1050 06b6 C0F20003 		movt	r3, #:upper16:ieee154e_vars
 1051 06ba B3F80330 		ldrh	r3, [r3, #3]	@ unaligned
 1052 06be 9BB2     		uxth	r3, r3
 1053 06c0 03F00F03 		and	r3, r3, #15
 1054 06c4 002B     		cmp	r3, #0
 1055 06c6 04D1     		bne	.L68
 479:build/openmote-cc2538_armgcc/openstack/02a-MAClow/IEEE802154E.c ****       openserial_stop();
 1056              		.loc 1 479 0
 1057 06c8 FFF7FEFF 		bl	openserial_stop
 480:build/openmote-cc2538_armgcc/openstack/02a-MAClow/IEEE802154E.c ****       openserial_startOutput();
 1058              		.loc 1 480 0
 1059 06cc FFF7FEFF 		bl	openserial_startOutput
 1060 06d0 0EE0     		b	.L63
 1061              	.L68:
 481:build/openmote-cc2538_armgcc/openstack/02a-MAClow/IEEE802154E.c ****    } else if ((ieee154e_vars.asn.bytes0and1&0x000f)==0x0008) {
 1062              		.loc 1 481 0
 1063 06d2 40F20003 		movw	r3, #:lower16:ieee154e_vars
 1064 06d6 C0F20003 		movt	r3, #:upper16:ieee154e_vars
 1065 06da B3F80330 		ldrh	r3, [r3, #3]	@ unaligned
 1066 06de 9BB2     		uxth	r3, r3
 1067 06e0 03F00F03 		and	r3, r3, #15
 1068 06e4 082B     		cmp	r3, #8
 1069 06e6 03D1     		bne	.L63
 482:build/openmote-cc2538_armgcc/openstack/02a-MAClow/IEEE802154E.c ****       openserial_stop();
 1070              		.loc 1 482 0
 1071 06e8 FFF7FEFF 		bl	openserial_stop
 483:build/openmote-cc2538_armgcc/openstack/02a-MAClow/IEEE802154E.c ****       openserial_startInput();
 1072              		.loc 1 483 0
 1073 06ec FFF7FEFF 		bl	openserial_startInput
 1074              	.L63:
 484:build/openmote-cc2538_armgcc/openstack/02a-MAClow/IEEE802154E.c ****    }
 485:build/openmote-cc2538_armgcc/openstack/02a-MAClow/IEEE802154E.c **** }
 1075              		.loc 1 485 0
 1076 06f0 80BD     		pop	{r7, pc}
 1077              		.cfi_endproc
 1078              	.LFE9:
 1080 06f2 00BF     		.align	2
 1081              		.global	activity_synchronize_startOfFrame
 1082              		.thumb
 1083              		.thumb_func
 1085              	activity_synchronize_startOfFrame:
 1086              	.LFB10:
 486:build/openmote-cc2538_armgcc/openstack/02a-MAClow/IEEE802154E.c **** 
 487:build/openmote-cc2538_armgcc/openstack/02a-MAClow/IEEE802154E.c **** port_INLINE void activity_synchronize_startOfFrame(PORT_RADIOTIMER_WIDTH capturedTime) {
 1087              		.loc 1 487 0
 1088              		.cfi_startproc
 1089              		@ args = 0, pretend = 0, frame = 8
 1090              		@ frame_needed = 1, uses_anonymous_args = 0
 1091 06f4 80B5     		push	{r7, lr}
 1092              		.cfi_def_cfa_offset 8
 1093              		.cfi_offset 7, -8
 1094              		.cfi_offset 14, -4
 1095 06f6 82B0     		sub	sp, sp, #8
 1096              		.cfi_def_cfa_offset 16
 1097 06f8 00AF     		add	r7, sp, #0
 1098              		.cfi_def_cfa_register 7
 1099 06fa 7860     		str	r0, [r7, #4]
 488:build/openmote-cc2538_armgcc/openstack/02a-MAClow/IEEE802154E.c ****    
 489:build/openmote-cc2538_armgcc/openstack/02a-MAClow/IEEE802154E.c ****    // don't care about packet if I'm not listening
 490:build/openmote-cc2538_armgcc/openstack/02a-MAClow/IEEE802154E.c ****    if (ieee154e_vars.state!=S_SYNCLISTEN) {
 1100              		.loc 1 490 0
 1101 06fc 40F20003 		movw	r3, #:lower16:ieee154e_vars
 1102 0700 C0F20003 		movt	r3, #:upper16:ieee154e_vars
 1103 0704 93F82831 		ldrb	r3, [r3, #296]	@ zero_extendqisi2
 1104 0708 012B     		cmp	r3, #1
 1105 070a 00D0     		beq	.L70
 491:build/openmote-cc2538_armgcc/openstack/02a-MAClow/IEEE802154E.c ****       return;
 1106              		.loc 1 491 0
 1107 070c 12E0     		b	.L69
 1108              	.L70:
 492:build/openmote-cc2538_armgcc/openstack/02a-MAClow/IEEE802154E.c ****    }
 493:build/openmote-cc2538_armgcc/openstack/02a-MAClow/IEEE802154E.c ****    
 494:build/openmote-cc2538_armgcc/openstack/02a-MAClow/IEEE802154E.c ****    // change state
 495:build/openmote-cc2538_armgcc/openstack/02a-MAClow/IEEE802154E.c ****    changeState(S_SYNCRX);
 1109              		.loc 1 495 0
 1110 070e 0220     		movs	r0, #2
 1111 0710 FFF7FEFF 		bl	changeState
 496:build/openmote-cc2538_armgcc/openstack/02a-MAClow/IEEE802154E.c ****    
 497:build/openmote-cc2538_armgcc/openstack/02a-MAClow/IEEE802154E.c ****    // stop the serial
 498:build/openmote-cc2538_armgcc/openstack/02a-MAClow/IEEE802154E.c ****    openserial_stop();
 1112              		.loc 1 498 0
 1113 0714 FFF7FEFF 		bl	openserial_stop
 499:build/openmote-cc2538_armgcc/openstack/02a-MAClow/IEEE802154E.c ****    
 500:build/openmote-cc2538_armgcc/openstack/02a-MAClow/IEEE802154E.c ****    // record the captured time 
 501:build/openmote-cc2538_armgcc/openstack/02a-MAClow/IEEE802154E.c ****    ieee154e_vars.lastCapturedTime = capturedTime;
 1114              		.loc 1 501 0
 1115 0718 40F20003 		movw	r3, #:lower16:ieee154e_vars
 1116 071c C0F20003 		movt	r3, #:upper16:ieee154e_vars
 1117 0720 7A68     		ldr	r2, [r7, #4]
 1118 0722 C3F83C21 		str	r2, [r3, #316]
 502:build/openmote-cc2538_armgcc/openstack/02a-MAClow/IEEE802154E.c ****    
 503:build/openmote-cc2538_armgcc/openstack/02a-MAClow/IEEE802154E.c ****    // record the captured time (for sync)
 504:build/openmote-cc2538_armgcc/openstack/02a-MAClow/IEEE802154E.c ****    ieee154e_vars.syncCapturedTime = capturedTime;
 1119              		.loc 1 504 0
 1120 0726 40F20003 		movw	r3, #:lower16:ieee154e_vars
 1121 072a C0F20003 		movt	r3, #:upper16:ieee154e_vars
 1122 072e 7A68     		ldr	r2, [r7, #4]
 1123 0730 C3F84021 		str	r2, [r3, #320]
 1124              	.L69:
 505:build/openmote-cc2538_armgcc/openstack/02a-MAClow/IEEE802154E.c **** }
 1125              		.loc 1 505 0
 1126 0734 0837     		adds	r7, r7, #8
 1127 0736 BD46     		mov	sp, r7
 1128              		@ sp needed
 1129 0738 80BD     		pop	{r7, pc}
 1130              		.cfi_endproc
 1131              	.LFE10:
 1133 073a 00BF     		.align	2
 1134              		.global	activity_synchronize_endOfFrame
 1135              		.thumb
 1136              		.thumb_func
 1138              	activity_synchronize_endOfFrame:
 1139              	.LFB11:
 506:build/openmote-cc2538_armgcc/openstack/02a-MAClow/IEEE802154E.c **** 
 507:build/openmote-cc2538_armgcc/openstack/02a-MAClow/IEEE802154E.c **** port_INLINE void activity_synchronize_endOfFrame(PORT_RADIOTIMER_WIDTH capturedTime) {
 1140              		.loc 1 507 0
 1141              		.cfi_startproc
 1142              		@ args = 0, pretend = 0, frame = 80
 1143              		@ frame_needed = 1, uses_anonymous_args = 0
 1144 073c B0B5     		push	{r4, r5, r7, lr}
 1145              		.cfi_def_cfa_offset 16
 1146              		.cfi_offset 4, -16
 1147              		.cfi_offset 5, -12
 1148              		.cfi_offset 7, -8
 1149              		.cfi_offset 14, -4
 1150 073e 96B0     		sub	sp, sp, #88
 1151              		.cfi_def_cfa_offset 104
 1152 0740 02AF     		add	r7, sp, #8
 1153              		.cfi_def_cfa 7, 96
 1154 0742 7860     		str	r0, [r7, #4]
 508:build/openmote-cc2538_armgcc/openstack/02a-MAClow/IEEE802154E.c ****    ieee802154_header_iht ieee802514_header;
 509:build/openmote-cc2538_armgcc/openstack/02a-MAClow/IEEE802154E.c ****    uint16_t              lenIE;
 510:build/openmote-cc2538_armgcc/openstack/02a-MAClow/IEEE802154E.c ****    
 511:build/openmote-cc2538_armgcc/openstack/02a-MAClow/IEEE802154E.c ****    // check state
 512:build/openmote-cc2538_armgcc/openstack/02a-MAClow/IEEE802154E.c ****    if (ieee154e_vars.state!=S_SYNCRX) {
 1155              		.loc 1 512 0
 1156 0744 40F20003 		movw	r3, #:lower16:ieee154e_vars
 1157 0748 C0F20003 		movt	r3, #:upper16:ieee154e_vars
 1158 074c 93F82831 		ldrb	r3, [r3, #296]	@ zero_extendqisi2
 1159 0750 022B     		cmp	r3, #2
 1160 0752 0DD0     		beq	.L73
 513:build/openmote-cc2538_armgcc/openstack/02a-MAClow/IEEE802154E.c ****       // log the error
 514:build/openmote-cc2538_armgcc/openstack/02a-MAClow/IEEE802154E.c ****       openserial_printError(COMPONENT_IEEE802154E,ERR_WRONG_STATE_IN_ENDFRAME_SYNC,
 515:build/openmote-cc2538_armgcc/openstack/02a-MAClow/IEEE802154E.c ****                             (errorparameter_t)ieee154e_vars.state,
 1161              		.loc 1 515 0
 1162 0754 40F20003 		movw	r3, #:lower16:ieee154e_vars
 1163 0758 C0F20003 		movt	r3, #:upper16:ieee154e_vars
 1164 075c 93F82831 		ldrb	r3, [r3, #296]	@ zero_extendqisi2
 514:build/openmote-cc2538_armgcc/openstack/02a-MAClow/IEEE802154E.c ****                             (errorparameter_t)ieee154e_vars.state,
 1165              		.loc 1 514 0
 1166 0760 0920     		movs	r0, #9
 1167 0762 1D21     		movs	r1, #29
 1168 0764 1A46     		mov	r2, r3
 1169 0766 0023     		movs	r3, #0
 1170 0768 FFF7FEFF 		bl	openserial_printError
 516:build/openmote-cc2538_armgcc/openstack/02a-MAClow/IEEE802154E.c ****                             (errorparameter_t)0);
 517:build/openmote-cc2538_armgcc/openstack/02a-MAClow/IEEE802154E.c ****       // abort
 518:build/openmote-cc2538_armgcc/openstack/02a-MAClow/IEEE802154E.c ****       endSlot();
 1171              		.loc 1 518 0
 1172 076c FFF7FEFF 		bl	endSlot
 1173              	.L73:
 519:build/openmote-cc2538_armgcc/openstack/02a-MAClow/IEEE802154E.c ****    }
 520:build/openmote-cc2538_armgcc/openstack/02a-MAClow/IEEE802154E.c ****    
 521:build/openmote-cc2538_armgcc/openstack/02a-MAClow/IEEE802154E.c ****    // change state
 522:build/openmote-cc2538_armgcc/openstack/02a-MAClow/IEEE802154E.c ****    changeState(S_SYNCPROC);
 1174              		.loc 1 522 0
 1175 0770 0320     		movs	r0, #3
 1176 0772 FFF7FEFF 		bl	changeState
 523:build/openmote-cc2538_armgcc/openstack/02a-MAClow/IEEE802154E.c ****    
 524:build/openmote-cc2538_armgcc/openstack/02a-MAClow/IEEE802154E.c ****    // get a buffer to put the (received) frame in
 525:build/openmote-cc2538_armgcc/openstack/02a-MAClow/IEEE802154E.c ****    ieee154e_vars.dataReceived = openqueue_getFreePacketBuffer(COMPONENT_IEEE802154E);
 1177              		.loc 1 525 0
 1178 0776 0920     		movs	r0, #9
 1179 0778 FFF7FEFF 		bl	openqueue_getFreePacketBuffer
 1180 077c 0246     		mov	r2, r0
 1181 077e 40F20003 		movw	r3, #:lower16:ieee154e_vars
 1182 0782 C0F20003 		movt	r3, #:upper16:ieee154e_vars
 1183 0786 C3F83021 		str	r2, [r3, #304]
 526:build/openmote-cc2538_armgcc/openstack/02a-MAClow/IEEE802154E.c ****    if (ieee154e_vars.dataReceived==NULL) {
 1184              		.loc 1 526 0
 1185 078a 40F20003 		movw	r3, #:lower16:ieee154e_vars
 1186 078e C0F20003 		movt	r3, #:upper16:ieee154e_vars
 1187 0792 D3F83031 		ldr	r3, [r3, #304]
 1188 0796 002B     		cmp	r3, #0
 1189 0798 08D1     		bne	.L74
 527:build/openmote-cc2538_armgcc/openstack/02a-MAClow/IEEE802154E.c ****       // log the error
 528:build/openmote-cc2538_armgcc/openstack/02a-MAClow/IEEE802154E.c ****       openserial_printError(COMPONENT_IEEE802154E,ERR_NO_FREE_PACKET_BUFFER,
 1190              		.loc 1 528 0
 1191 079a 0920     		movs	r0, #9
 1192 079c 2C21     		movs	r1, #44
 1193 079e 0022     		movs	r2, #0
 1194 07a0 0023     		movs	r3, #0
 1195 07a2 FFF7FEFF 		bl	openserial_printError
 529:build/openmote-cc2538_armgcc/openstack/02a-MAClow/IEEE802154E.c ****                             (errorparameter_t)0,
 530:build/openmote-cc2538_armgcc/openstack/02a-MAClow/IEEE802154E.c ****                             (errorparameter_t)0);
 531:build/openmote-cc2538_armgcc/openstack/02a-MAClow/IEEE802154E.c ****       // abort
 532:build/openmote-cc2538_armgcc/openstack/02a-MAClow/IEEE802154E.c ****       endSlot();
 1196              		.loc 1 532 0
 1197 07a6 FFF7FEFF 		bl	endSlot
 533:build/openmote-cc2538_armgcc/openstack/02a-MAClow/IEEE802154E.c ****       return;
 1198              		.loc 1 533 0
 1199 07aa 8AE1     		b	.L72
 1200              	.L74:
 534:build/openmote-cc2538_armgcc/openstack/02a-MAClow/IEEE802154E.c ****    }
 535:build/openmote-cc2538_armgcc/openstack/02a-MAClow/IEEE802154E.c ****    
 536:build/openmote-cc2538_armgcc/openstack/02a-MAClow/IEEE802154E.c ****    // declare ownership over that packet
 537:build/openmote-cc2538_armgcc/openstack/02a-MAClow/IEEE802154E.c ****    ieee154e_vars.dataReceived->creator = COMPONENT_IEEE802154E;
 1201              		.loc 1 537 0
 1202 07ac 40F20003 		movw	r3, #:lower16:ieee154e_vars
 1203 07b0 C0F20003 		movt	r3, #:upper16:ieee154e_vars
 1204 07b4 D3F83031 		ldr	r3, [r3, #304]
 1205 07b8 0922     		movs	r2, #9
 1206 07ba 1A70     		strb	r2, [r3]
 538:build/openmote-cc2538_armgcc/openstack/02a-MAClow/IEEE802154E.c ****    ieee154e_vars.dataReceived->owner   = COMPONENT_IEEE802154E;
 1207              		.loc 1 538 0
 1208 07bc 40F20003 		movw	r3, #:lower16:ieee154e_vars
 1209 07c0 C0F20003 		movt	r3, #:upper16:ieee154e_vars
 1210 07c4 D3F83031 		ldr	r3, [r3, #304]
 1211 07c8 0922     		movs	r2, #9
 1212 07ca 5A70     		strb	r2, [r3, #1]
 539:build/openmote-cc2538_armgcc/openstack/02a-MAClow/IEEE802154E.c ****    
 540:build/openmote-cc2538_armgcc/openstack/02a-MAClow/IEEE802154E.c ****    /*
 541:build/openmote-cc2538_armgcc/openstack/02a-MAClow/IEEE802154E.c ****    The do-while loop that follows is a little parsing trick.
 542:build/openmote-cc2538_armgcc/openstack/02a-MAClow/IEEE802154E.c ****    Because it contains a while(0) condition, it gets executed only once.
 543:build/openmote-cc2538_armgcc/openstack/02a-MAClow/IEEE802154E.c ****    The behavior is:
 544:build/openmote-cc2538_armgcc/openstack/02a-MAClow/IEEE802154E.c ****    - if a break occurs inside the do{} body, the error code below the loop
 545:build/openmote-cc2538_armgcc/openstack/02a-MAClow/IEEE802154E.c ****      gets executed. This indicates something is wrong with the packet being 
 546:build/openmote-cc2538_armgcc/openstack/02a-MAClow/IEEE802154E.c ****      parsed.
 547:build/openmote-cc2538_armgcc/openstack/02a-MAClow/IEEE802154E.c ****    - if a return occurs inside the do{} body, the error code below the loop
 548:build/openmote-cc2538_armgcc/openstack/02a-MAClow/IEEE802154E.c ****      does not get executed. This indicates the received packet is correct.
 549:build/openmote-cc2538_armgcc/openstack/02a-MAClow/IEEE802154E.c ****    */
 550:build/openmote-cc2538_armgcc/openstack/02a-MAClow/IEEE802154E.c ****    do { // this "loop" is only executed once
 551:build/openmote-cc2538_armgcc/openstack/02a-MAClow/IEEE802154E.c ****       
 552:build/openmote-cc2538_armgcc/openstack/02a-MAClow/IEEE802154E.c ****       // retrieve the received data frame from the radio's Rx buffer
 553:build/openmote-cc2538_armgcc/openstack/02a-MAClow/IEEE802154E.c ****       ieee154e_vars.dataReceived->payload = &(ieee154e_vars.dataReceived->packet[FIRST_FRAME_BYTE])
 1213              		.loc 1 553 0
 1214 07cc 40F20003 		movw	r3, #:lower16:ieee154e_vars
 1215 07d0 C0F20003 		movt	r3, #:upper16:ieee154e_vars
 1216 07d4 D3F83021 		ldr	r2, [r3, #304]
 1217 07d8 40F20003 		movw	r3, #:lower16:ieee154e_vars
 1218 07dc C0F20003 		movt	r3, #:upper16:ieee154e_vars
 1219 07e0 D3F83031 		ldr	r3, [r3, #304]
 1220 07e4 8D33     		adds	r3, r3, #141
 1221 07e6 5360     		str	r3, [r2, #4]
 554:build/openmote-cc2538_armgcc/openstack/02a-MAClow/IEEE802154E.c ****       radio_getReceivedFrame(       ieee154e_vars.dataReceived->payload,
 1222              		.loc 1 554 0
 1223 07e8 40F20003 		movw	r3, #:lower16:ieee154e_vars
 1224 07ec C0F20003 		movt	r3, #:upper16:ieee154e_vars
 1225 07f0 D3F83031 		ldr	r3, [r3, #304]
 1226 07f4 5968     		ldr	r1, [r3, #4]
 555:build/openmote-cc2538_armgcc/openstack/02a-MAClow/IEEE802154E.c ****                                    &ieee154e_vars.dataReceived->length,
 1227              		.loc 1 555 0
 1228 07f6 40F20003 		movw	r3, #:lower16:ieee154e_vars
 1229 07fa C0F20003 		movt	r3, #:upper16:ieee154e_vars
 1230 07fe D3F83031 		ldr	r3, [r3, #304]
 554:build/openmote-cc2538_armgcc/openstack/02a-MAClow/IEEE802154E.c ****       radio_getReceivedFrame(       ieee154e_vars.dataReceived->payload,
 1231              		.loc 1 554 0
 1232 0802 03F10802 		add	r2, r3, #8
 556:build/openmote-cc2538_armgcc/openstack/02a-MAClow/IEEE802154E.c ****                              sizeof(ieee154e_vars.dataReceived->packet),
 557:build/openmote-cc2538_armgcc/openstack/02a-MAClow/IEEE802154E.c ****                                    &ieee154e_vars.dataReceived->l1_rssi,
 1233              		.loc 1 557 0
 1234 0806 40F20003 		movw	r3, #:lower16:ieee154e_vars
 1235 080a C0F20003 		movt	r3, #:upper16:ieee154e_vars
 1236 080e D3F83031 		ldr	r3, [r3, #304]
 554:build/openmote-cc2538_armgcc/openstack/02a-MAClow/IEEE802154E.c ****                                    &ieee154e_vars.dataReceived->length,
 1237              		.loc 1 554 0
 1238 0812 03F18904 		add	r4, r3, #137
 558:build/openmote-cc2538_armgcc/openstack/02a-MAClow/IEEE802154E.c ****                                    &ieee154e_vars.dataReceived->l1_lqi,
 1239              		.loc 1 558 0
 1240 0816 40F20003 		movw	r3, #:lower16:ieee154e_vars
 1241 081a C0F20003 		movt	r3, #:upper16:ieee154e_vars
 1242 081e D3F83031 		ldr	r3, [r3, #304]
 554:build/openmote-cc2538_armgcc/openstack/02a-MAClow/IEEE802154E.c ****                                    &ieee154e_vars.dataReceived->length,
 1243              		.loc 1 554 0
 1244 0822 03F18A00 		add	r0, r3, #138
 559:build/openmote-cc2538_armgcc/openstack/02a-MAClow/IEEE802154E.c ****                                    &ieee154e_vars.dataReceived->l1_crc);
 1245              		.loc 1 559 0
 1246 0826 40F20003 		movw	r3, #:lower16:ieee154e_vars
 1247 082a C0F20003 		movt	r3, #:upper16:ieee154e_vars
 1248 082e D3F83031 		ldr	r3, [r3, #304]
 554:build/openmote-cc2538_armgcc/openstack/02a-MAClow/IEEE802154E.c ****                                    &ieee154e_vars.dataReceived->length,
 1249              		.loc 1 554 0
 1250 0832 8B33     		adds	r3, r3, #139
 1251 0834 0090     		str	r0, [sp]
 1252 0836 0193     		str	r3, [sp, #4]
 1253 0838 0846     		mov	r0, r1
 1254 083a 1146     		mov	r1, r2
 1255 083c 8222     		movs	r2, #130
 1256 083e 2346     		mov	r3, r4
 1257 0840 FFF7FEFF 		bl	radio_getReceivedFrame
 560:build/openmote-cc2538_armgcc/openstack/02a-MAClow/IEEE802154E.c ****       
 561:build/openmote-cc2538_armgcc/openstack/02a-MAClow/IEEE802154E.c ****       // break if packet too short
 562:build/openmote-cc2538_armgcc/openstack/02a-MAClow/IEEE802154E.c ****       if (ieee154e_vars.dataReceived->length<LENGTH_CRC || ieee154e_vars.dataReceived->length>LENGT
 1258              		.loc 1 562 0
 1259 0844 40F20003 		movw	r3, #:lower16:ieee154e_vars
 1260 0848 C0F20003 		movt	r3, #:upper16:ieee154e_vars
 1261 084c D3F83031 		ldr	r3, [r3, #304]
 1262 0850 1B7A     		ldrb	r3, [r3, #8]	@ zero_extendqisi2
 1263 0852 012B     		cmp	r3, #1
 1264 0854 08D9     		bls	.L76
 1265              		.loc 1 562 0 is_stmt 0 discriminator 1
 1266 0856 40F20003 		movw	r3, #:lower16:ieee154e_vars
 1267 085a C0F20003 		movt	r3, #:upper16:ieee154e_vars
 1268 085e D3F83031 		ldr	r3, [r3, #304]
 1269 0862 1B7A     		ldrb	r3, [r3, #8]	@ zero_extendqisi2
 1270 0864 802B     		cmp	r3, #128
 1271 0866 0CD9     		bls	.L77
 1272              	.L76:
 563:build/openmote-cc2538_armgcc/openstack/02a-MAClow/IEEE802154E.c ****          // break from the do-while loop and execute abort code below
 564:build/openmote-cc2538_armgcc/openstack/02a-MAClow/IEEE802154E.c ****           openserial_printError(COMPONENT_IEEE802154E,ERR_INVALIDPACKETFROMRADIO,
 565:build/openmote-cc2538_armgcc/openstack/02a-MAClow/IEEE802154E.c ****                             (errorparameter_t)0,
 566:build/openmote-cc2538_armgcc/openstack/02a-MAClow/IEEE802154E.c ****                             ieee154e_vars.dataReceived->length);
 1273              		.loc 1 566 0 is_stmt 1
 1274 0868 40F20003 		movw	r3, #:lower16:ieee154e_vars
 1275 086c C0F20003 		movt	r3, #:upper16:ieee154e_vars
 1276 0870 D3F83031 		ldr	r3, [r3, #304]
 1277 0874 1B7A     		ldrb	r3, [r3, #8]	@ zero_extendqisi2
 564:build/openmote-cc2538_armgcc/openstack/02a-MAClow/IEEE802154E.c ****                             (errorparameter_t)0,
 1278              		.loc 1 564 0
 1279 0876 0920     		movs	r0, #9
 1280 0878 3721     		movs	r1, #55
 1281 087a 0022     		movs	r2, #0
 1282 087c FFF7FEFF 		bl	openserial_printError
 567:build/openmote-cc2538_armgcc/openstack/02a-MAClow/IEEE802154E.c ****          break;
 1283              		.loc 1 567 0
 1284 0880 0CE1     		b	.L78
 1285              	.L77:
 568:build/openmote-cc2538_armgcc/openstack/02a-MAClow/IEEE802154E.c ****       }
 569:build/openmote-cc2538_armgcc/openstack/02a-MAClow/IEEE802154E.c ****       
 570:build/openmote-cc2538_armgcc/openstack/02a-MAClow/IEEE802154E.c ****       // toss CRC (2 last bytes)
 571:build/openmote-cc2538_armgcc/openstack/02a-MAClow/IEEE802154E.c ****       packetfunctions_tossFooter(   ieee154e_vars.dataReceived, LENGTH_CRC);
 1286              		.loc 1 571 0
 1287 0882 40F20003 		movw	r3, #:lower16:ieee154e_vars
 1288 0886 C0F20003 		movt	r3, #:upper16:ieee154e_vars
 1289 088a D3F83031 		ldr	r3, [r3, #304]
 1290 088e 1846     		mov	r0, r3
 1291 0890 0221     		movs	r1, #2
 1292 0892 FFF7FEFF 		bl	packetfunctions_tossFooter
 572:build/openmote-cc2538_armgcc/openstack/02a-MAClow/IEEE802154E.c ****       
 573:build/openmote-cc2538_armgcc/openstack/02a-MAClow/IEEE802154E.c ****       // break if invalid CRC
 574:build/openmote-cc2538_armgcc/openstack/02a-MAClow/IEEE802154E.c ****       if (ieee154e_vars.dataReceived->l1_crc==FALSE) {
 1293              		.loc 1 574 0
 1294 0896 40F20003 		movw	r3, #:lower16:ieee154e_vars
 1295 089a C0F20003 		movt	r3, #:upper16:ieee154e_vars
 1296 089e D3F83031 		ldr	r3, [r3, #304]
 1297 08a2 93F88B30 		ldrb	r3, [r3, #139]	@ zero_extendqisi2
 1298 08a6 83F00103 		eor	r3, r3, #1
 1299 08aa DBB2     		uxtb	r3, r3
 1300 08ac 002B     		cmp	r3, #0
 1301 08ae 00D0     		beq	.L79
 575:build/openmote-cc2538_armgcc/openstack/02a-MAClow/IEEE802154E.c ****          // break from the do-while loop and execute abort code below
 576:build/openmote-cc2538_armgcc/openstack/02a-MAClow/IEEE802154E.c ****          break;
 1302              		.loc 1 576 0
 1303 08b0 F4E0     		b	.L78
 1304              	.L79:
 577:build/openmote-cc2538_armgcc/openstack/02a-MAClow/IEEE802154E.c ****       }
 578:build/openmote-cc2538_armgcc/openstack/02a-MAClow/IEEE802154E.c ****       
 579:build/openmote-cc2538_armgcc/openstack/02a-MAClow/IEEE802154E.c ****       // parse the IEEE802.15.4 header (synchronize, end of frame)
 580:build/openmote-cc2538_armgcc/openstack/02a-MAClow/IEEE802154E.c ****       ieee802154_retrieveHeader(ieee154e_vars.dataReceived,&ieee802514_header);
 1305              		.loc 1 580 0
 1306 08b2 40F20003 		movw	r3, #:lower16:ieee154e_vars
 1307 08b6 C0F20003 		movt	r3, #:upper16:ieee154e_vars
 1308 08ba D3F83021 		ldr	r2, [r3, #304]
 1309 08be 07F11003 		add	r3, r7, #16
 1310 08c2 1046     		mov	r0, r2
 1311 08c4 1946     		mov	r1, r3
 1312 08c6 FFF7FEFF 		bl	ieee802154_retrieveHeader
 581:build/openmote-cc2538_armgcc/openstack/02a-MAClow/IEEE802154E.c ****       
 582:build/openmote-cc2538_armgcc/openstack/02a-MAClow/IEEE802154E.c ****       // break if invalid IEEE802.15.4 header
 583:build/openmote-cc2538_armgcc/openstack/02a-MAClow/IEEE802154E.c ****       if (ieee802514_header.valid==FALSE) {
 1313              		.loc 1 583 0
 1314 08ca 3B7C     		ldrb	r3, [r7, #16]	@ zero_extendqisi2
 1315 08cc 83F00103 		eor	r3, r3, #1
 1316 08d0 DBB2     		uxtb	r3, r3
 1317 08d2 002B     		cmp	r3, #0
 1318 08d4 00D0     		beq	.L80
 584:build/openmote-cc2538_armgcc/openstack/02a-MAClow/IEEE802154E.c ****          // break from the do-while loop and execute the clean-up code below
 585:build/openmote-cc2538_armgcc/openstack/02a-MAClow/IEEE802154E.c ****          break;
 1319              		.loc 1 585 0
 1320 08d6 E1E0     		b	.L78
 1321              	.L80:
 586:build/openmote-cc2538_armgcc/openstack/02a-MAClow/IEEE802154E.c ****       }
 587:build/openmote-cc2538_armgcc/openstack/02a-MAClow/IEEE802154E.c ****       
 588:build/openmote-cc2538_armgcc/openstack/02a-MAClow/IEEE802154E.c ****       // store header details in packet buffer
 589:build/openmote-cc2538_armgcc/openstack/02a-MAClow/IEEE802154E.c ****       ieee154e_vars.dataReceived->l2_frameType = ieee802514_header.frameType;
 1322              		.loc 1 589 0
 1323 08d8 40F20003 		movw	r3, #:lower16:ieee154e_vars
 1324 08dc C0F20003 		movt	r3, #:upper16:ieee154e_vars
 1325 08e0 D3F83031 		ldr	r3, [r3, #304]
 1326 08e4 BA7C     		ldrb	r2, [r7, #18]	@ zero_extendqisi2
 1327 08e6 83F84920 		strb	r2, [r3, #73]
 590:build/openmote-cc2538_armgcc/openstack/02a-MAClow/IEEE802154E.c ****       ieee154e_vars.dataReceived->l2_dsn       = ieee802514_header.dsn;
 1328              		.loc 1 590 0
 1329 08ea 40F20003 		movw	r3, #:lower16:ieee154e_vars
 1330 08ee C0F20003 		movt	r3, #:upper16:ieee154e_vars
 1331 08f2 D3F83031 		ldr	r3, [r3, #304]
 1332 08f6 7A7E     		ldrb	r2, [r7, #25]	@ zero_extendqisi2
 1333 08f8 83F84A20 		strb	r2, [r3, #74]
 591:build/openmote-cc2538_armgcc/openstack/02a-MAClow/IEEE802154E.c ****       memcpy(&(ieee154e_vars.dataReceived->l2_nextORpreviousHop),&(ieee802514_header.src),sizeof(op
 1334              		.loc 1 591 0
 1335 08fc 40F20003 		movw	r3, #:lower16:ieee154e_vars
 1336 0900 C0F20003 		movt	r3, #:upper16:ieee154e_vars
 1337 0904 D3F83031 		ldr	r3, [r3, #304]
 1338 0908 3833     		adds	r3, r3, #56
 1339 090a 07F13D02 		add	r2, r7, #61
 1340 090e 1568     		ldr	r5, [r2]	@ unaligned
 1341 0910 5468     		ldr	r4, [r2, #4]	@ unaligned
 1342 0912 9068     		ldr	r0, [r2, #8]	@ unaligned
 1343 0914 D168     		ldr	r1, [r2, #12]	@ unaligned
 1344 0916 1D60     		str	r5, [r3]	@ unaligned
 1345 0918 5C60     		str	r4, [r3, #4]	@ unaligned
 1346 091a 9860     		str	r0, [r3, #8]	@ unaligned
 1347 091c D960     		str	r1, [r3, #12]	@ unaligned
 1348 091e 127C     		ldrb	r2, [r2, #16]
 1349 0920 1A74     		strb	r2, [r3, #16]
 592:build/openmote-cc2538_armgcc/openstack/02a-MAClow/IEEE802154E.c **** 
 593:build/openmote-cc2538_armgcc/openstack/02a-MAClow/IEEE802154E.c ****       if (ieee154e_vars.dataReceived->l2_securityLevel != IEEE154_ASH_SLF_TYPE_NOSEC) {
 1350              		.loc 1 593 0
 1351 0922 40F20003 		movw	r3, #:lower16:ieee154e_vars
 1352 0926 C0F20003 		movt	r3, #:upper16:ieee154e_vars
 1353 092a D3F83031 		ldr	r3, [r3, #304]
 1354 092e 93F86C30 		ldrb	r3, [r3, #108]	@ zero_extendqisi2
 1355 0932 002B     		cmp	r3, #0
 1356 0934 2AD0     		beq	.L81
 594:build/openmote-cc2538_armgcc/openstack/02a-MAClow/IEEE802154E.c ****          // If we are not synced, we need to parse IEs and retrieve the ASN
 595:build/openmote-cc2538_armgcc/openstack/02a-MAClow/IEEE802154E.c ****          // before authenticating the beacon, because nonce is created from the ASN
 596:build/openmote-cc2538_armgcc/openstack/02a-MAClow/IEEE802154E.c ****          if (!ieee154e_vars.isSync && ieee802514_header.frameType == IEEE154_TYPE_BEACON) {
 1357              		.loc 1 596 0
 1358 0936 40F20003 		movw	r3, #:lower16:ieee154e_vars
 1359 093a C0F20003 		movt	r3, #:upper16:ieee154e_vars
 1360 093e 1B7C     		ldrb	r3, [r3, #16]	@ zero_extendqisi2
 1361 0940 83F00103 		eor	r3, r3, #1
 1362 0944 DBB2     		uxtb	r3, r3
 1363 0946 002B     		cmp	r3, #0
 1364 0948 00F0A880 		beq	.L78
 1365              		.loc 1 596 0 is_stmt 0 discriminator 1
 1366 094c BB7C     		ldrb	r3, [r7, #18]	@ zero_extendqisi2
 1367 094e 002B     		cmp	r3, #0
 1368 0950 40F0A480 		bne	.L78
 597:build/openmote-cc2538_armgcc/openstack/02a-MAClow/IEEE802154E.c ****             if (!isValidJoin(ieee154e_vars.dataReceived, &ieee802514_header)) {
 1369              		.loc 1 597 0 is_stmt 1
 1370 0954 40F20003 		movw	r3, #:lower16:ieee154e_vars
 1371 0958 C0F20003 		movt	r3, #:upper16:ieee154e_vars
 1372 095c D3F83021 		ldr	r2, [r3, #304]
 1373 0960 07F11003 		add	r3, r7, #16
 1374 0964 1046     		mov	r0, r2
 1375 0966 1946     		mov	r1, r3
 1376 0968 FFF7FEFF 		bl	isValidJoin
 1377 096c 0346     		mov	r3, r0
 1378 096e 83F00103 		eor	r3, r3, #1
 1379 0972 DBB2     		uxtb	r3, r3
 1380 0974 002B     		cmp	r3, #0
 1381 0976 09D0     		beq	.L81
 598:build/openmote-cc2538_armgcc/openstack/02a-MAClow/IEEE802154E.c ****                // invalidate variables
 599:build/openmote-cc2538_armgcc/openstack/02a-MAClow/IEEE802154E.c ****                memset(&ieee154e_vars, 0, sizeof(ieee154e_vars_t));
 1382              		.loc 1 599 0
 1383 0978 40F20000 		movw	r0, #:lower16:ieee154e_vars
 1384 097c C0F20000 		movt	r0, #:upper16:ieee154e_vars
 1385 0980 0021     		movs	r1, #0
 1386 0982 4FF4B672 		mov	r2, #364
 1387 0986 FFF7FEFF 		bl	memset
 600:build/openmote-cc2538_armgcc/openstack/02a-MAClow/IEEE802154E.c ****                break;
 1388              		.loc 1 600 0
 1389 098a 87E0     		b	.L78
 1390              	.L81:
 601:build/openmote-cc2538_armgcc/openstack/02a-MAClow/IEEE802154E.c ****             }
 602:build/openmote-cc2538_armgcc/openstack/02a-MAClow/IEEE802154E.c ****          }
 603:build/openmote-cc2538_armgcc/openstack/02a-MAClow/IEEE802154E.c ****          else { // discard other frames as we cannot decrypt without being synced
 604:build/openmote-cc2538_armgcc/openstack/02a-MAClow/IEEE802154E.c ****             break;
 605:build/openmote-cc2538_armgcc/openstack/02a-MAClow/IEEE802154E.c ****          }
 606:build/openmote-cc2538_armgcc/openstack/02a-MAClow/IEEE802154E.c ****       } // checked if unsecured frame should pass during header retrieval
 607:build/openmote-cc2538_armgcc/openstack/02a-MAClow/IEEE802154E.c **** 
 608:build/openmote-cc2538_armgcc/openstack/02a-MAClow/IEEE802154E.c ****       // toss the IEEE802.15.4 header -- this does not include IEs as they are processed
 609:build/openmote-cc2538_armgcc/openstack/02a-MAClow/IEEE802154E.c ****       // next.
 610:build/openmote-cc2538_armgcc/openstack/02a-MAClow/IEEE802154E.c ****       packetfunctions_tossHeader(ieee154e_vars.dataReceived,ieee802514_header.headerLength);
 1391              		.loc 1 610 0
 1392 098c 40F20003 		movw	r3, #:lower16:ieee154e_vars
 1393 0990 C0F20003 		movt	r3, #:upper16:ieee154e_vars
 1394 0994 D3F83021 		ldr	r2, [r3, #304]
 1395 0998 7B7C     		ldrb	r3, [r7, #17]	@ zero_extendqisi2
 1396 099a 1046     		mov	r0, r2
 1397 099c 1946     		mov	r1, r3
 1398 099e FFF7FEFF 		bl	packetfunctions_tossHeader
 611:build/openmote-cc2538_armgcc/openstack/02a-MAClow/IEEE802154E.c ****      
 612:build/openmote-cc2538_armgcc/openstack/02a-MAClow/IEEE802154E.c ****       // process IEs
 613:build/openmote-cc2538_armgcc/openstack/02a-MAClow/IEEE802154E.c ****       lenIE = 0;
 1399              		.loc 1 613 0
 1400 09a2 0023     		movs	r3, #0
 1401 09a4 FB81     		strh	r3, [r7, #14]	@ movhi
 614:build/openmote-cc2538_armgcc/openstack/02a-MAClow/IEEE802154E.c ****       if (
 615:build/openmote-cc2538_armgcc/openstack/02a-MAClow/IEEE802154E.c ****             (
 616:build/openmote-cc2538_armgcc/openstack/02a-MAClow/IEEE802154E.c ****                ieee802514_header.valid==TRUE                                                       
 1402              		.loc 1 616 0
 1403 09a6 3B7C     		ldrb	r3, [r7, #16]	@ zero_extendqisi2
 617:build/openmote-cc2538_armgcc/openstack/02a-MAClow/IEEE802154E.c ****                ieee802514_header.ieListPresent==TRUE                                               
 618:build/openmote-cc2538_armgcc/openstack/02a-MAClow/IEEE802154E.c ****                ieee802514_header.frameType==IEEE154_TYPE_BEACON                                    
 619:build/openmote-cc2538_armgcc/openstack/02a-MAClow/IEEE802154E.c ****                packetfunctions_sameAddress(&ieee802514_header.panid,idmanager_getMyID(ADDR_PANID)) 
 1404              		.loc 1 619 0
 1405 09a8 002B     		cmp	r3, #0
 1406 09aa 24D0     		beq	.L82
 617:build/openmote-cc2538_armgcc/openstack/02a-MAClow/IEEE802154E.c ****                ieee802514_header.ieListPresent==TRUE                                               
 1407              		.loc 1 617 0
 1408 09ac FB7D     		ldrb	r3, [r7, #23]	@ zero_extendqisi2
 616:build/openmote-cc2538_armgcc/openstack/02a-MAClow/IEEE802154E.c ****                ieee802514_header.ieListPresent==TRUE                                               
 1409              		.loc 1 616 0
 1410 09ae 002B     		cmp	r3, #0
 1411 09b0 21D0     		beq	.L82
 618:build/openmote-cc2538_armgcc/openstack/02a-MAClow/IEEE802154E.c ****                packetfunctions_sameAddress(&ieee802514_header.panid,idmanager_getMyID(ADDR_PANID)) 
 1412              		.loc 1 618 0
 1413 09b2 BB7C     		ldrb	r3, [r7, #18]	@ zero_extendqisi2
 617:build/openmote-cc2538_armgcc/openstack/02a-MAClow/IEEE802154E.c ****                ieee802514_header.ieListPresent==TRUE                                               
 1414              		.loc 1 617 0
 1415 09b4 002B     		cmp	r3, #0
 1416 09b6 1ED1     		bne	.L82
 1417              		.loc 1 619 0
 1418 09b8 0420     		movs	r0, #4
 1419 09ba FFF7FEFF 		bl	idmanager_getMyID
 1420 09be 0346     		mov	r3, r0
 1421 09c0 07F11002 		add	r2, r7, #16
 1422 09c4 0B32     		adds	r2, r2, #11
 1423 09c6 1046     		mov	r0, r2
 1424 09c8 1946     		mov	r1, r3
 1425 09ca FFF7FEFF 		bl	packetfunctions_sameAddress
 1426 09ce 0346     		mov	r3, r0
 618:build/openmote-cc2538_armgcc/openstack/02a-MAClow/IEEE802154E.c ****                packetfunctions_sameAddress(&ieee802514_header.panid,idmanager_getMyID(ADDR_PANID)) 
 1427              		.loc 1 618 0
 1428 09d0 002B     		cmp	r3, #0
 1429 09d2 10D0     		beq	.L82
 620:build/openmote-cc2538_armgcc/openstack/02a-MAClow/IEEE802154E.c ****                ieee154e_processIEs(ieee154e_vars.dataReceived,&lenIE)
 1430              		.loc 1 620 0
 1431 09d4 40F20003 		movw	r3, #:lower16:ieee154e_vars
 1432 09d8 C0F20003 		movt	r3, #:upper16:ieee154e_vars
 1433 09dc D3F83021 		ldr	r2, [r3, #304]
 1434 09e0 07F10E03 		add	r3, r7, #14
 1435 09e4 1046     		mov	r0, r2
 1436 09e6 1946     		mov	r1, r3
 1437 09e8 FFF7FEFF 		bl	ieee154e_processIEs
 1438 09ec 0346     		mov	r3, r0
 619:build/openmote-cc2538_armgcc/openstack/02a-MAClow/IEEE802154E.c ****                ieee154e_processIEs(ieee154e_vars.dataReceived,&lenIE)
 1439              		.loc 1 619 0
 1440 09ee 002B     		cmp	r3, #0
 1441 09f0 01D0     		beq	.L82
 619:build/openmote-cc2538_armgcc/openstack/02a-MAClow/IEEE802154E.c ****                ieee154e_processIEs(ieee154e_vars.dataReceived,&lenIE)
 1442              		.loc 1 619 0 is_stmt 0 discriminator 2
 1443 09f2 0123     		movs	r3, #1
 1444 09f4 00E0     		b	.L83
 1445              	.L82:
 619:build/openmote-cc2538_armgcc/openstack/02a-MAClow/IEEE802154E.c ****                ieee154e_processIEs(ieee154e_vars.dataReceived,&lenIE)
 1446              		.loc 1 619 0 discriminator 1
 1447 09f6 0023     		movs	r3, #0
 1448              	.L83:
 614:build/openmote-cc2538_armgcc/openstack/02a-MAClow/IEEE802154E.c ****             (
 1449              		.loc 1 614 0 is_stmt 1
 1450 09f8 002B     		cmp	r3, #0
 1451 09fa 00D1     		bne	.L84
 621:build/openmote-cc2538_armgcc/openstack/02a-MAClow/IEEE802154E.c ****             )==FALSE) {
 622:build/openmote-cc2538_armgcc/openstack/02a-MAClow/IEEE802154E.c ****          // break from the do-while loop and execute the clean-up code below
 623:build/openmote-cc2538_armgcc/openstack/02a-MAClow/IEEE802154E.c ****          break;
 1452              		.loc 1 623 0
 1453 09fc 4EE0     		b	.L78
 1454              	.L84:
 624:build/openmote-cc2538_armgcc/openstack/02a-MAClow/IEEE802154E.c ****       }
 625:build/openmote-cc2538_armgcc/openstack/02a-MAClow/IEEE802154E.c ****     
 626:build/openmote-cc2538_armgcc/openstack/02a-MAClow/IEEE802154E.c ****       // turn off the radio
 627:build/openmote-cc2538_armgcc/openstack/02a-MAClow/IEEE802154E.c ****       radio_rfOff();
 1455              		.loc 1 627 0
 1456 09fe FFF7FEFF 		bl	radio_rfOff
 628:build/openmote-cc2538_armgcc/openstack/02a-MAClow/IEEE802154E.c ****       
 629:build/openmote-cc2538_armgcc/openstack/02a-MAClow/IEEE802154E.c ****       // compute radio duty cycle
 630:build/openmote-cc2538_armgcc/openstack/02a-MAClow/IEEE802154E.c ****       ieee154e_vars.radioOnTics += (radio_getTimerValue()-ieee154e_vars.radioOnInit);
 1457              		.loc 1 630 0
 1458 0a02 40F20003 		movw	r3, #:lower16:ieee154e_vars
 1459 0a06 C0F20003 		movt	r3, #:upper16:ieee154e_vars
 1460 0a0a D3F86041 		ldr	r4, [r3, #352]
 1461 0a0e FFF7FEFF 		bl	radio_getTimerValue
 1462 0a12 0246     		mov	r2, r0
 1463 0a14 40F20003 		movw	r3, #:lower16:ieee154e_vars
 1464 0a18 C0F20003 		movt	r3, #:upper16:ieee154e_vars
 1465 0a1c D3F85C31 		ldr	r3, [r3, #348]
 1466 0a20 D31A     		subs	r3, r2, r3
 1467 0a22 E218     		adds	r2, r4, r3
 1468 0a24 40F20003 		movw	r3, #:lower16:ieee154e_vars
 1469 0a28 C0F20003 		movt	r3, #:upper16:ieee154e_vars
 1470 0a2c C3F86021 		str	r2, [r3, #352]
 631:build/openmote-cc2538_armgcc/openstack/02a-MAClow/IEEE802154E.c **** 
 632:build/openmote-cc2538_armgcc/openstack/02a-MAClow/IEEE802154E.c ****       // toss the IEs
 633:build/openmote-cc2538_armgcc/openstack/02a-MAClow/IEEE802154E.c ****       packetfunctions_tossHeader(ieee154e_vars.dataReceived,lenIE);
 1471              		.loc 1 633 0
 1472 0a30 40F20003 		movw	r3, #:lower16:ieee154e_vars
 1473 0a34 C0F20003 		movt	r3, #:upper16:ieee154e_vars
 1474 0a38 D3F83021 		ldr	r2, [r3, #304]
 1475 0a3c FB89     		ldrh	r3, [r7, #14]
 1476 0a3e DBB2     		uxtb	r3, r3
 1477 0a40 1046     		mov	r0, r2
 1478 0a42 1946     		mov	r1, r3
 1479 0a44 FFF7FEFF 		bl	packetfunctions_tossHeader
 634:build/openmote-cc2538_armgcc/openstack/02a-MAClow/IEEE802154E.c ****       
 635:build/openmote-cc2538_armgcc/openstack/02a-MAClow/IEEE802154E.c ****       // synchronize (for the first time) to the sender's EB
 636:build/openmote-cc2538_armgcc/openstack/02a-MAClow/IEEE802154E.c ****       synchronizePacket(ieee154e_vars.syncCapturedTime);
 1480              		.loc 1 636 0
 1481 0a48 40F20003 		movw	r3, #:lower16:ieee154e_vars
 1482 0a4c C0F20003 		movt	r3, #:upper16:ieee154e_vars
 1483 0a50 D3F84031 		ldr	r3, [r3, #320]
 1484 0a54 1846     		mov	r0, r3
 1485 0a56 FFF7FEFF 		bl	synchronizePacket
 637:build/openmote-cc2538_armgcc/openstack/02a-MAClow/IEEE802154E.c ****       
 638:build/openmote-cc2538_armgcc/openstack/02a-MAClow/IEEE802154E.c ****       // declare synchronized
 639:build/openmote-cc2538_armgcc/openstack/02a-MAClow/IEEE802154E.c ****       changeIsSync(TRUE);
 1486              		.loc 1 639 0
 1487 0a5a 0120     		movs	r0, #1
 1488 0a5c FFF7FEFF 		bl	changeIsSync
 640:build/openmote-cc2538_armgcc/openstack/02a-MAClow/IEEE802154E.c ****       
 641:build/openmote-cc2538_armgcc/openstack/02a-MAClow/IEEE802154E.c ****       // log the info
 642:build/openmote-cc2538_armgcc/openstack/02a-MAClow/IEEE802154E.c ****       openserial_printInfo(COMPONENT_IEEE802154E,ERR_SYNCHRONIZED,
 1489              		.loc 1 642 0
 1490 0a60 40F20003 		movw	r3, #:lower16:ieee154e_vars
 1491 0a64 C0F20003 		movt	r3, #:upper16:ieee154e_vars
 1492 0a68 DB88     		ldrh	r3, [r3, #6]
 1493 0a6a 0920     		movs	r0, #9
 1494 0a6c 1B21     		movs	r1, #27
 1495 0a6e 1A46     		mov	r2, r3
 1496 0a70 0023     		movs	r3, #0
 1497 0a72 FFF7FEFF 		bl	openserial_printInfo
 643:build/openmote-cc2538_armgcc/openstack/02a-MAClow/IEEE802154E.c ****                             (errorparameter_t)ieee154e_vars.slotOffset,
 644:build/openmote-cc2538_armgcc/openstack/02a-MAClow/IEEE802154E.c ****                             (errorparameter_t)0);
 645:build/openmote-cc2538_armgcc/openstack/02a-MAClow/IEEE802154E.c ****       
 646:build/openmote-cc2538_armgcc/openstack/02a-MAClow/IEEE802154E.c ****       // send received EB up the stack so RES can update statistics (synchronizing)
 647:build/openmote-cc2538_armgcc/openstack/02a-MAClow/IEEE802154E.c ****       notif_receive(ieee154e_vars.dataReceived);
 1498              		.loc 1 647 0
 1499 0a76 40F20003 		movw	r3, #:lower16:ieee154e_vars
 1500 0a7a C0F20003 		movt	r3, #:upper16:ieee154e_vars
 1501 0a7e D3F83031 		ldr	r3, [r3, #304]
 1502 0a82 1846     		mov	r0, r3
 1503 0a84 FFF7FEFF 		bl	notif_receive
 648:build/openmote-cc2538_armgcc/openstack/02a-MAClow/IEEE802154E.c ****       
 649:build/openmote-cc2538_armgcc/openstack/02a-MAClow/IEEE802154E.c ****       // clear local variable
 650:build/openmote-cc2538_armgcc/openstack/02a-MAClow/IEEE802154E.c ****       ieee154e_vars.dataReceived = NULL;
 1504              		.loc 1 650 0
 1505 0a88 40F20003 		movw	r3, #:lower16:ieee154e_vars
 1506 0a8c C0F20003 		movt	r3, #:upper16:ieee154e_vars
 1507 0a90 0022     		movs	r2, #0
 1508 0a92 C3F83021 		str	r2, [r3, #304]
 651:build/openmote-cc2538_armgcc/openstack/02a-MAClow/IEEE802154E.c ****       
 652:build/openmote-cc2538_armgcc/openstack/02a-MAClow/IEEE802154E.c ****       // official end of synchronization
 653:build/openmote-cc2538_armgcc/openstack/02a-MAClow/IEEE802154E.c ****       endSlot();
 1509              		.loc 1 653 0
 1510 0a96 FFF7FEFF 		bl	endSlot
 654:build/openmote-cc2538_armgcc/openstack/02a-MAClow/IEEE802154E.c ****       
 655:build/openmote-cc2538_armgcc/openstack/02a-MAClow/IEEE802154E.c ****       // everything went well, return here not to execute the error code below
 656:build/openmote-cc2538_armgcc/openstack/02a-MAClow/IEEE802154E.c ****       return;
 1511              		.loc 1 656 0
 1512 0a9a 12E0     		b	.L72
 1513              	.L78:
 657:build/openmote-cc2538_armgcc/openstack/02a-MAClow/IEEE802154E.c ****       
 658:build/openmote-cc2538_armgcc/openstack/02a-MAClow/IEEE802154E.c ****    } while(0);
 659:build/openmote-cc2538_armgcc/openstack/02a-MAClow/IEEE802154E.c ****    
 660:build/openmote-cc2538_armgcc/openstack/02a-MAClow/IEEE802154E.c ****    // free the (invalid) received data buffer so RAM memory can be recycled
 661:build/openmote-cc2538_armgcc/openstack/02a-MAClow/IEEE802154E.c ****    openqueue_freePacketBuffer(ieee154e_vars.dataReceived);
 1514              		.loc 1 661 0
 1515 0a9c 40F20003 		movw	r3, #:lower16:ieee154e_vars
 1516 0aa0 C0F20003 		movt	r3, #:upper16:ieee154e_vars
 1517 0aa4 D3F83031 		ldr	r3, [r3, #304]
 1518 0aa8 1846     		mov	r0, r3
 1519 0aaa FFF7FEFF 		bl	openqueue_freePacketBuffer
 662:build/openmote-cc2538_armgcc/openstack/02a-MAClow/IEEE802154E.c ****    
 663:build/openmote-cc2538_armgcc/openstack/02a-MAClow/IEEE802154E.c ****    // clear local variable
 664:build/openmote-cc2538_armgcc/openstack/02a-MAClow/IEEE802154E.c ****    ieee154e_vars.dataReceived = NULL;
 1520              		.loc 1 664 0
 1521 0aae 40F20003 		movw	r3, #:lower16:ieee154e_vars
 1522 0ab2 C0F20003 		movt	r3, #:upper16:ieee154e_vars
 1523 0ab6 0022     		movs	r2, #0
 1524 0ab8 C3F83021 		str	r2, [r3, #304]
 665:build/openmote-cc2538_armgcc/openstack/02a-MAClow/IEEE802154E.c ****    
 666:build/openmote-cc2538_armgcc/openstack/02a-MAClow/IEEE802154E.c ****    // return to listening state
 667:build/openmote-cc2538_armgcc/openstack/02a-MAClow/IEEE802154E.c ****    changeState(S_SYNCLISTEN);
 1525              		.loc 1 667 0
 1526 0abc 0120     		movs	r0, #1
 1527 0abe FFF7FEFF 		bl	changeState
 1528              	.L72:
 668:build/openmote-cc2538_armgcc/openstack/02a-MAClow/IEEE802154E.c **** }
 1529              		.loc 1 668 0
 1530 0ac2 5037     		adds	r7, r7, #80
 1531 0ac4 BD46     		mov	sp, r7
 1532              		@ sp needed
 1533 0ac6 B0BD     		pop	{r4, r5, r7, pc}
 1534              		.cfi_endproc
 1535              	.LFE11:
 1537              		.align	2
 1538              		.global	ieee154e_processIEs
 1539              		.thumb
 1540              		.thumb_func
 1542              	ieee154e_processIEs:
 1543              	.LFB12:
 669:build/openmote-cc2538_armgcc/openstack/02a-MAClow/IEEE802154E.c **** 
 670:build/openmote-cc2538_armgcc/openstack/02a-MAClow/IEEE802154E.c **** port_INLINE bool ieee154e_processIEs(OpenQueueEntry_t* pkt, uint16_t* lenIE) {
 1544              		.loc 1 670 0
 1545              		.cfi_startproc
 1546              		@ args = 0, pretend = 0, frame = 24
 1547              		@ frame_needed = 1, uses_anonymous_args = 0
 1548 0ac8 80B5     		push	{r7, lr}
 1549              		.cfi_def_cfa_offset 8
 1550              		.cfi_offset 7, -8
 1551              		.cfi_offset 14, -4
 1552 0aca 86B0     		sub	sp, sp, #24
 1553              		.cfi_def_cfa_offset 32
 1554 0acc 00AF     		add	r7, sp, #0
 1555              		.cfi_def_cfa_register 7
 1556 0ace 7860     		str	r0, [r7, #4]
 1557 0ad0 3960     		str	r1, [r7]
 671:build/openmote-cc2538_armgcc/openstack/02a-MAClow/IEEE802154E.c ****    uint8_t               ptr;
 672:build/openmote-cc2538_armgcc/openstack/02a-MAClow/IEEE802154E.c ****    uint8_t               temp_8b;
 673:build/openmote-cc2538_armgcc/openstack/02a-MAClow/IEEE802154E.c ****    uint8_t               gr_elem_id;
 674:build/openmote-cc2538_armgcc/openstack/02a-MAClow/IEEE802154E.c ****    uint8_t               subid;
 675:build/openmote-cc2538_armgcc/openstack/02a-MAClow/IEEE802154E.c ****    uint16_t              temp_16b;
 676:build/openmote-cc2538_armgcc/openstack/02a-MAClow/IEEE802154E.c ****    uint16_t              len;
 677:build/openmote-cc2538_armgcc/openstack/02a-MAClow/IEEE802154E.c ****    uint16_t              sublen;
 678:build/openmote-cc2538_armgcc/openstack/02a-MAClow/IEEE802154E.c ****    // flag used for understanding if the slotoffset should be inferred from both ASN and slotframe 
 679:build/openmote-cc2538_armgcc/openstack/02a-MAClow/IEEE802154E.c ****    bool                  f_asn2slotoffset;
 680:build/openmote-cc2538_armgcc/openstack/02a-MAClow/IEEE802154E.c ****    uint8_t               i; // used for find the index in channel hopping template
 681:build/openmote-cc2538_armgcc/openstack/02a-MAClow/IEEE802154E.c ****    
 682:build/openmote-cc2538_armgcc/openstack/02a-MAClow/IEEE802154E.c ****    ptr=0;
 1558              		.loc 1 682 0
 1559 0ad2 0023     		movs	r3, #0
 1560 0ad4 FB72     		strb	r3, [r7, #11]
 683:build/openmote-cc2538_armgcc/openstack/02a-MAClow/IEEE802154E.c ****    
 684:build/openmote-cc2538_armgcc/openstack/02a-MAClow/IEEE802154E.c ****    // payload IE header, header IE is processed before when retrieve header  
 685:build/openmote-cc2538_armgcc/openstack/02a-MAClow/IEEE802154E.c ****    
 686:build/openmote-cc2538_armgcc/openstack/02a-MAClow/IEEE802154E.c ****    //candidate IE header  if type ==0 header IE if type==1 payload IE
 687:build/openmote-cc2538_armgcc/openstack/02a-MAClow/IEEE802154E.c ****    temp_8b    = *((uint8_t*)(pkt->payload)+ptr);
 1561              		.loc 1 687 0
 1562 0ad6 7B68     		ldr	r3, [r7, #4]
 1563 0ad8 5A68     		ldr	r2, [r3, #4]
 1564 0ada FB7A     		ldrb	r3, [r7, #11]	@ zero_extendqisi2
 1565 0adc 1344     		add	r3, r3, r2
 1566 0ade 1B78     		ldrb	r3, [r3]
 1567 0ae0 FB73     		strb	r3, [r7, #15]
 688:build/openmote-cc2538_armgcc/openstack/02a-MAClow/IEEE802154E.c ****    ptr++;
 1568              		.loc 1 688 0
 1569 0ae2 FB7A     		ldrb	r3, [r7, #11]	@ zero_extendqisi2
 1570 0ae4 0133     		adds	r3, r3, #1
 1571 0ae6 DBB2     		uxtb	r3, r3
 1572 0ae8 FB72     		strb	r3, [r7, #11]
 689:build/openmote-cc2538_armgcc/openstack/02a-MAClow/IEEE802154E.c ****    
 690:build/openmote-cc2538_armgcc/openstack/02a-MAClow/IEEE802154E.c ****    temp_16b   = temp_8b + ((*((uint8_t*)(pkt->payload)+ptr)) << 8);
 1573              		.loc 1 690 0
 1574 0aea FB7B     		ldrb	r3, [r7, #15]	@ zero_extendqisi2
 1575 0aec 9AB2     		uxth	r2, r3
 1576 0aee 7B68     		ldr	r3, [r7, #4]
 1577 0af0 5968     		ldr	r1, [r3, #4]
 1578 0af2 FB7A     		ldrb	r3, [r7, #11]	@ zero_extendqisi2
 1579 0af4 0B44     		add	r3, r3, r1
 1580 0af6 1B78     		ldrb	r3, [r3]	@ zero_extendqisi2
 1581 0af8 1B02     		lsls	r3, r3, #8
 1582 0afa 9BB2     		uxth	r3, r3
 1583 0afc 1344     		add	r3, r3, r2
 1584 0afe BB81     		strh	r3, [r7, #12]	@ movhi
 691:build/openmote-cc2538_armgcc/openstack/02a-MAClow/IEEE802154E.c ****    ptr++;
 1585              		.loc 1 691 0
 1586 0b00 FB7A     		ldrb	r3, [r7, #11]	@ zero_extendqisi2
 1587 0b02 0133     		adds	r3, r3, #1
 1588 0b04 DBB2     		uxtb	r3, r3
 1589 0b06 FB72     		strb	r3, [r7, #11]
 692:build/openmote-cc2538_armgcc/openstack/02a-MAClow/IEEE802154E.c ****    
 693:build/openmote-cc2538_armgcc/openstack/02a-MAClow/IEEE802154E.c ****    *lenIE     = ptr;
 1590              		.loc 1 693 0
 1591 0b08 FB7A     		ldrb	r3, [r7, #11]	@ zero_extendqisi2
 1592 0b0a 1A46     		mov	r2, r3
 1593 0b0c 3B68     		ldr	r3, [r7]
 1594 0b0e 1A80     		strh	r2, [r3]	@ movhi
 694:build/openmote-cc2538_armgcc/openstack/02a-MAClow/IEEE802154E.c ****    
 695:build/openmote-cc2538_armgcc/openstack/02a-MAClow/IEEE802154E.c ****    if ((temp_16b & IEEE802154E_DESC_TYPE_PAYLOAD_IE) == IEEE802154E_DESC_TYPE_PAYLOAD_IE){
 1595              		.loc 1 695 0
 1596 0b10 BB89     		ldrh	r3, [r7, #12]
 1597 0b12 1BB2     		sxth	r3, r3
 1598 0b14 002B     		cmp	r3, #0
 1599 0b16 09DA     		bge	.L87
 696:build/openmote-cc2538_armgcc/openstack/02a-MAClow/IEEE802154E.c ****       // payload IE
 697:build/openmote-cc2538_armgcc/openstack/02a-MAClow/IEEE802154E.c ****       
 698:build/openmote-cc2538_armgcc/openstack/02a-MAClow/IEEE802154E.c ****       len          = temp_16b & IEEE802154E_DESC_LEN_PAYLOAD_IE_MASK;
 1600              		.loc 1 698 0
 1601 0b18 BB89     		ldrh	r3, [r7, #12]	@ movhi
 1602 0b1a C3F30A03 		ubfx	r3, r3, #0, #11
 1603 0b1e BB82     		strh	r3, [r7, #20]	@ movhi
 699:build/openmote-cc2538_armgcc/openstack/02a-MAClow/IEEE802154E.c ****       gr_elem_id   = (temp_16b & IEEE802154E_DESC_GROUPID_PAYLOAD_IE_MASK)>>IEEE802154E_DESC_GROUPI
 1604              		.loc 1 699 0
 1605 0b20 BB89     		ldrh	r3, [r7, #12]
 1606 0b22 03F4F043 		and	r3, r3, #30720
 1607 0b26 DB12     		asrs	r3, r3, #11
 1608 0b28 FB75     		strb	r3, [r7, #23]
 1609 0b2a 08E0     		b	.L88
 1610              	.L87:
 700:build/openmote-cc2538_armgcc/openstack/02a-MAClow/IEEE802154E.c ****    } else {
 701:build/openmote-cc2538_armgcc/openstack/02a-MAClow/IEEE802154E.c ****       // header IE
 702:build/openmote-cc2538_armgcc/openstack/02a-MAClow/IEEE802154E.c ****       
 703:build/openmote-cc2538_armgcc/openstack/02a-MAClow/IEEE802154E.c ****       len          = temp_16b & IEEE802154E_DESC_LEN_HEADER_IE_MASK;
 1611              		.loc 1 703 0
 1612 0b2c BB89     		ldrh	r3, [r7, #12]	@ movhi
 1613 0b2e 03F07F03 		and	r3, r3, #127
 1614 0b32 BB82     		strh	r3, [r7, #20]	@ movhi
 704:build/openmote-cc2538_armgcc/openstack/02a-MAClow/IEEE802154E.c ****       gr_elem_id   = (temp_16b & IEEE802154E_DESC_ELEMENTID_HEADER_IE_MASK)>>IEEE802154E_DESC_ELEME
 1615              		.loc 1 704 0
 1616 0b34 BB89     		ldrh	r3, [r7, #12]
 1617 0b36 03F4FF43 		and	r3, r3, #32640
 1618 0b3a DB11     		asrs	r3, r3, #7
 1619 0b3c FB75     		strb	r3, [r7, #23]
 1620              	.L88:
 705:build/openmote-cc2538_armgcc/openstack/02a-MAClow/IEEE802154E.c ****    }
 706:build/openmote-cc2538_armgcc/openstack/02a-MAClow/IEEE802154E.c ****    
 707:build/openmote-cc2538_armgcc/openstack/02a-MAClow/IEEE802154E.c ****    *lenIE         += len;
 1621              		.loc 1 707 0
 1622 0b3e 3B68     		ldr	r3, [r7]
 1623 0b40 1A88     		ldrh	r2, [r3]
 1624 0b42 BB8A     		ldrh	r3, [r7, #20]	@ movhi
 1625 0b44 1344     		add	r3, r3, r2
 1626 0b46 9AB2     		uxth	r2, r3
 1627 0b48 3B68     		ldr	r3, [r7]
 1628 0b4a 1A80     		strh	r2, [r3]	@ movhi
 708:build/openmote-cc2538_armgcc/openstack/02a-MAClow/IEEE802154E.c ****    
 709:build/openmote-cc2538_armgcc/openstack/02a-MAClow/IEEE802154E.c ****    //===== sub-elements
 710:build/openmote-cc2538_armgcc/openstack/02a-MAClow/IEEE802154E.c ****    
 711:build/openmote-cc2538_armgcc/openstack/02a-MAClow/IEEE802154E.c ****    switch(gr_elem_id){
 1629              		.loc 1 711 0
 1630 0b4c FB7D     		ldrb	r3, [r7, #23]	@ zero_extendqisi2
 1631 0b4e 012B     		cmp	r3, #1
 1632 0b50 40F04881 		bne	.L114
 712:build/openmote-cc2538_armgcc/openstack/02a-MAClow/IEEE802154E.c ****       
 713:build/openmote-cc2538_armgcc/openstack/02a-MAClow/IEEE802154E.c ****       case IEEE802154E_MLME_IE_GROUPID:
 714:build/openmote-cc2538_armgcc/openstack/02a-MAClow/IEEE802154E.c ****          // MLME IE
 715:build/openmote-cc2538_armgcc/openstack/02a-MAClow/IEEE802154E.c ****          f_asn2slotoffset = FALSE;
 1633              		.loc 1 715 0
 1634 0b54 0023     		movs	r3, #0
 1635 0b56 7B74     		strb	r3, [r7, #17]
 1636              	.L105:
 716:build/openmote-cc2538_armgcc/openstack/02a-MAClow/IEEE802154E.c ****          do {
 717:build/openmote-cc2538_armgcc/openstack/02a-MAClow/IEEE802154E.c ****             
 718:build/openmote-cc2538_armgcc/openstack/02a-MAClow/IEEE802154E.c ****             //read sub IE header
 719:build/openmote-cc2538_armgcc/openstack/02a-MAClow/IEEE802154E.c ****             temp_8b     = *((uint8_t*)(pkt->payload)+ptr);
 1637              		.loc 1 719 0
 1638 0b58 7B68     		ldr	r3, [r7, #4]
 1639 0b5a 5A68     		ldr	r2, [r3, #4]
 1640 0b5c FB7A     		ldrb	r3, [r7, #11]	@ zero_extendqisi2
 1641 0b5e 1344     		add	r3, r3, r2
 1642 0b60 1B78     		ldrb	r3, [r3]
 1643 0b62 FB73     		strb	r3, [r7, #15]
 720:build/openmote-cc2538_armgcc/openstack/02a-MAClow/IEEE802154E.c ****             ptr         = ptr + 1;
 1644              		.loc 1 720 0
 1645 0b64 FB7A     		ldrb	r3, [r7, #11]	@ zero_extendqisi2
 1646 0b66 0133     		adds	r3, r3, #1
 1647 0b68 DBB2     		uxtb	r3, r3
 1648 0b6a FB72     		strb	r3, [r7, #11]
 721:build/openmote-cc2538_armgcc/openstack/02a-MAClow/IEEE802154E.c ****             temp_16b    = temp_8b  + ((*((uint8_t*)(pkt->payload)+ptr))<<8);
 1649              		.loc 1 721 0
 1650 0b6c FB7B     		ldrb	r3, [r7, #15]	@ zero_extendqisi2
 1651 0b6e 9AB2     		uxth	r2, r3
 1652 0b70 7B68     		ldr	r3, [r7, #4]
 1653 0b72 5968     		ldr	r1, [r3, #4]
 1654 0b74 FB7A     		ldrb	r3, [r7, #11]	@ zero_extendqisi2
 1655 0b76 0B44     		add	r3, r3, r1
 1656 0b78 1B78     		ldrb	r3, [r3]	@ zero_extendqisi2
 1657 0b7a 1B02     		lsls	r3, r3, #8
 1658 0b7c 9BB2     		uxth	r3, r3
 1659 0b7e 1344     		add	r3, r3, r2
 1660 0b80 BB81     		strh	r3, [r7, #12]	@ movhi
 722:build/openmote-cc2538_armgcc/openstack/02a-MAClow/IEEE802154E.c ****             ptr         = ptr + 1;
 1661              		.loc 1 722 0
 1662 0b82 FB7A     		ldrb	r3, [r7, #11]	@ zero_extendqisi2
 1663 0b84 0133     		adds	r3, r3, #1
 1664 0b86 DBB2     		uxtb	r3, r3
 1665 0b88 FB72     		strb	r3, [r7, #11]
 723:build/openmote-cc2538_armgcc/openstack/02a-MAClow/IEEE802154E.c ****             
 724:build/openmote-cc2538_armgcc/openstack/02a-MAClow/IEEE802154E.c ****             len         = len - 2; //remove header fields len
 1666              		.loc 1 724 0
 1667 0b8a BB8A     		ldrh	r3, [r7, #20]	@ movhi
 1668 0b8c 023B     		subs	r3, r3, #2
 1669 0b8e BB82     		strh	r3, [r7, #20]	@ movhi
 725:build/openmote-cc2538_armgcc/openstack/02a-MAClow/IEEE802154E.c ****             
 726:build/openmote-cc2538_armgcc/openstack/02a-MAClow/IEEE802154E.c ****             if ((temp_16b & IEEE802154E_DESC_TYPE_LONG) == IEEE802154E_DESC_TYPE_LONG){
 1670              		.loc 1 726 0
 1671 0b90 BB89     		ldrh	r3, [r7, #12]
 1672 0b92 1BB2     		sxth	r3, r3
 1673 0b94 002B     		cmp	r3, #0
 1674 0b96 09DA     		bge	.L91
 727:build/openmote-cc2538_armgcc/openstack/02a-MAClow/IEEE802154E.c ****                // long sub-IE
 728:build/openmote-cc2538_armgcc/openstack/02a-MAClow/IEEE802154E.c ****                
 729:build/openmote-cc2538_armgcc/openstack/02a-MAClow/IEEE802154E.c ****                sublen   = temp_16b & IEEE802154E_DESC_LEN_LONG_MLME_IE_MASK;
 1675              		.loc 1 729 0
 1676 0b98 BB89     		ldrh	r3, [r7, #12]	@ movhi
 1677 0b9a C3F30A03 		ubfx	r3, r3, #0, #11
 1678 0b9e 7B82     		strh	r3, [r7, #18]	@ movhi
 730:build/openmote-cc2538_armgcc/openstack/02a-MAClow/IEEE802154E.c ****                subid    = (temp_16b & IEEE802154E_DESC_SUBID_LONG_MLME_IE_MASK)>>IEEE802154E_DESC_S
 1679              		.loc 1 730 0
 1680 0ba0 BB89     		ldrh	r3, [r7, #12]
 1681 0ba2 03F4F043 		and	r3, r3, #30720
 1682 0ba6 DB12     		asrs	r3, r3, #11
 1683 0ba8 BB75     		strb	r3, [r7, #22]
 1684 0baa 07E0     		b	.L92
 1685              	.L91:
 731:build/openmote-cc2538_armgcc/openstack/02a-MAClow/IEEE802154E.c ****             } else {
 732:build/openmote-cc2538_armgcc/openstack/02a-MAClow/IEEE802154E.c ****                // short sub-IE
 733:build/openmote-cc2538_armgcc/openstack/02a-MAClow/IEEE802154E.c ****                
 734:build/openmote-cc2538_armgcc/openstack/02a-MAClow/IEEE802154E.c ****                sublen   = temp_16b & IEEE802154E_DESC_LEN_SHORT_MLME_IE_MASK;
 1686              		.loc 1 734 0
 1687 0bac BB89     		ldrh	r3, [r7, #12]	@ movhi
 1688 0bae DBB2     		uxtb	r3, r3
 1689 0bb0 7B82     		strh	r3, [r7, #18]	@ movhi
 735:build/openmote-cc2538_armgcc/openstack/02a-MAClow/IEEE802154E.c ****                subid    = (temp_16b & IEEE802154E_DESC_SUBID_SHORT_MLME_IE_MASK)>>IEEE802154E_DESC_
 1690              		.loc 1 735 0
 1691 0bb2 BB89     		ldrh	r3, [r7, #12]
 1692 0bb4 03F4FE43 		and	r3, r3, #32512
 1693 0bb8 1B12     		asrs	r3, r3, #8
 1694 0bba BB75     		strb	r3, [r7, #22]
 1695              	.L92:
 736:build/openmote-cc2538_armgcc/openstack/02a-MAClow/IEEE802154E.c ****             }
 737:build/openmote-cc2538_armgcc/openstack/02a-MAClow/IEEE802154E.c ****             
 738:build/openmote-cc2538_armgcc/openstack/02a-MAClow/IEEE802154E.c ****             switch(subid){
 1696              		.loc 1 738 0
 1697 0bbc BB7D     		ldrb	r3, [r7, #22]	@ zero_extendqisi2
 1698 0bbe 093B     		subs	r3, r3, #9
 1699 0bc0 132B     		cmp	r3, #19
 1700 0bc2 00F2C580 		bhi	.L93
 1701 0bc6 01A2     		adr	r2, .L95
 1702 0bc8 52F823F0 		ldr	pc, [r2, r3, lsl #2]
 1703              		.p2align 2
 1704              	.L95:
 1705 0bcc 250D0000 		.word	.L94+1
 1706 0bd0 510D0000 		.word	.L93+1
 1707 0bd4 510D0000 		.word	.L93+1
 1708 0bd8 510D0000 		.word	.L93+1
 1709 0bdc 510D0000 		.word	.L93+1
 1710 0be0 510D0000 		.word	.L93+1
 1711 0be4 510D0000 		.word	.L93+1
 1712 0be8 510D0000 		.word	.L93+1
 1713 0bec 510D0000 		.word	.L93+1
 1714 0bf0 510D0000 		.word	.L93+1
 1715 0bf4 510D0000 		.word	.L93+1
 1716 0bf8 510D0000 		.word	.L93+1
 1717 0bfc 510D0000 		.word	.L93+1
 1718 0c00 510D0000 		.word	.L93+1
 1719 0c04 510D0000 		.word	.L93+1
 1720 0c08 510D0000 		.word	.L93+1
 1721 0c0c 510D0000 		.word	.L93+1
 1722 0c10 1D0C0000 		.word	.L96+1
 1723 0c14 630C0000 		.word	.L97+1
 1724 0c18 930C0000 		.word	.L98+1
 1725              	.L96:
 739:build/openmote-cc2538_armgcc/openstack/02a-MAClow/IEEE802154E.c ****                
 740:build/openmote-cc2538_armgcc/openstack/02a-MAClow/IEEE802154E.c ****                case IEEE802154E_MLME_SYNC_IE_SUBID:
 741:build/openmote-cc2538_armgcc/openstack/02a-MAClow/IEEE802154E.c ****                   // Sync IE: ASN and Join Priority 
 742:build/openmote-cc2538_armgcc/openstack/02a-MAClow/IEEE802154E.c ****                   
 743:build/openmote-cc2538_armgcc/openstack/02a-MAClow/IEEE802154E.c ****                   if (idmanager_getIsDAGroot()==FALSE) {
 1726              		.loc 1 743 0
 1727 0c1c FFF7FEFF 		bl	idmanager_getIsDAGroot
 1728 0c20 0346     		mov	r3, r0
 1729 0c22 83F00103 		eor	r3, r3, #1
 1730 0c26 DBB2     		uxtb	r3, r3
 1731 0c28 002B     		cmp	r3, #0
 1732 0c2a 19D0     		beq	.L99
 744:build/openmote-cc2538_armgcc/openstack/02a-MAClow/IEEE802154E.c ****                      // ASN
 745:build/openmote-cc2538_armgcc/openstack/02a-MAClow/IEEE802154E.c ****                      asnStoreFromEB((uint8_t*)(pkt->payload)+ptr);
 1733              		.loc 1 745 0
 1734 0c2c 7B68     		ldr	r3, [r7, #4]
 1735 0c2e 5A68     		ldr	r2, [r3, #4]
 1736 0c30 FB7A     		ldrb	r3, [r7, #11]	@ zero_extendqisi2
 1737 0c32 1344     		add	r3, r3, r2
 1738 0c34 1846     		mov	r0, r3
 1739 0c36 FFF7FEFF 		bl	asnStoreFromEB
 746:build/openmote-cc2538_armgcc/openstack/02a-MAClow/IEEE802154E.c ****                      // ASN is known, but the frame length is not
 747:build/openmote-cc2538_armgcc/openstack/02a-MAClow/IEEE802154E.c ****                      // frame length will be known after parsing the frame and link IE
 748:build/openmote-cc2538_armgcc/openstack/02a-MAClow/IEEE802154E.c ****                      f_asn2slotoffset = TRUE;
 1740              		.loc 1 748 0
 1741 0c3a 0123     		movs	r3, #1
 1742 0c3c 7B74     		strb	r3, [r7, #17]
 749:build/openmote-cc2538_armgcc/openstack/02a-MAClow/IEEE802154E.c ****                      ptr = ptr + 5;
 1743              		.loc 1 749 0
 1744 0c3e FB7A     		ldrb	r3, [r7, #11]	@ zero_extendqisi2
 1745 0c40 0533     		adds	r3, r3, #5
 1746 0c42 DBB2     		uxtb	r3, r3
 1747 0c44 FB72     		strb	r3, [r7, #11]
 750:build/openmote-cc2538_armgcc/openstack/02a-MAClow/IEEE802154E.c ****                      // join priority
 751:build/openmote-cc2538_armgcc/openstack/02a-MAClow/IEEE802154E.c ****                      joinPriorityStoreFromEB(*((uint8_t*)(pkt->payload)+ptr));
 1748              		.loc 1 751 0
 1749 0c46 7B68     		ldr	r3, [r7, #4]
 1750 0c48 5A68     		ldr	r2, [r3, #4]
 1751 0c4a FB7A     		ldrb	r3, [r7, #11]	@ zero_extendqisi2
 1752 0c4c 1344     		add	r3, r3, r2
 1753 0c4e 1B78     		ldrb	r3, [r3]	@ zero_extendqisi2
 1754 0c50 1846     		mov	r0, r3
 1755 0c52 FFF7FEFF 		bl	joinPriorityStoreFromEB
 752:build/openmote-cc2538_armgcc/openstack/02a-MAClow/IEEE802154E.c ****                      ptr = ptr + 1;
 1756              		.loc 1 752 0
 1757 0c56 FB7A     		ldrb	r3, [r7, #11]	@ zero_extendqisi2
 1758 0c58 0133     		adds	r3, r3, #1
 1759 0c5a DBB2     		uxtb	r3, r3
 1760 0c5c FB72     		strb	r3, [r7, #11]
 753:build/openmote-cc2538_armgcc/openstack/02a-MAClow/IEEE802154E.c ****                   }
 754:build/openmote-cc2538_armgcc/openstack/02a-MAClow/IEEE802154E.c ****                   break;
 1761              		.loc 1 754 0
 1762 0c5e 79E0     		b	.L100
 1763              	.L99:
 1764 0c60 78E0     		b	.L100
 1765              	.L97:
 755:build/openmote-cc2538_armgcc/openstack/02a-MAClow/IEEE802154E.c ****                
 756:build/openmote-cc2538_armgcc/openstack/02a-MAClow/IEEE802154E.c ****                case IEEE802154E_MLME_SLOTFRAME_LINK_IE_SUBID:
 757:build/openmote-cc2538_armgcc/openstack/02a-MAClow/IEEE802154E.c ****                   if ((idmanager_getIsDAGroot()==FALSE) && (ieee154e_isSynch()==FALSE)) {
 1766              		.loc 1 757 0
 1767 0c62 FFF7FEFF 		bl	idmanager_getIsDAGroot
 1768 0c66 0346     		mov	r3, r0
 1769 0c68 83F00103 		eor	r3, r3, #1
 1770 0c6c DBB2     		uxtb	r3, r3
 1771 0c6e 002B     		cmp	r3, #0
 1772 0c70 0ED0     		beq	.L101
 1773              		.loc 1 757 0 is_stmt 0 discriminator 1
 1774 0c72 FFF7FEFF 		bl	ieee154e_isSynch
 1775 0c76 0346     		mov	r3, r0
 1776 0c78 83F00103 		eor	r3, r3, #1
 1777 0c7c DBB2     		uxtb	r3, r3
 1778 0c7e 002B     		cmp	r3, #0
 1779 0c80 06D0     		beq	.L101
 758:build/openmote-cc2538_armgcc/openstack/02a-MAClow/IEEE802154E.c ****                      processIE_retrieveSlotframeLinkIE(pkt,&ptr);
 1780              		.loc 1 758 0 is_stmt 1
 1781 0c82 07F10B03 		add	r3, r7, #11
 1782 0c86 7868     		ldr	r0, [r7, #4]
 1783 0c88 1946     		mov	r1, r3
 1784 0c8a FFF7FEFF 		bl	processIE_retrieveSlotframeLinkIE
 759:build/openmote-cc2538_armgcc/openstack/02a-MAClow/IEEE802154E.c ****                   }
 760:build/openmote-cc2538_armgcc/openstack/02a-MAClow/IEEE802154E.c ****                   break;
 1785              		.loc 1 760 0
 1786 0c8e 61E0     		b	.L100
 1787              	.L101:
 1788 0c90 60E0     		b	.L100
 1789              	.L98:
 761:build/openmote-cc2538_armgcc/openstack/02a-MAClow/IEEE802154E.c ****                
 762:build/openmote-cc2538_armgcc/openstack/02a-MAClow/IEEE802154E.c ****                case IEEE802154E_MLME_TIMESLOT_IE_SUBID:
 763:build/openmote-cc2538_armgcc/openstack/02a-MAClow/IEEE802154E.c ****                   if (idmanager_getIsDAGroot()==FALSE) {
 1790              		.loc 1 763 0
 1791 0c92 FFF7FEFF 		bl	idmanager_getIsDAGroot
 1792 0c96 0346     		mov	r3, r0
 1793 0c98 83F00103 		eor	r3, r3, #1
 1794 0c9c DBB2     		uxtb	r3, r3
 1795 0c9e 002B     		cmp	r3, #0
 1796 0ca0 3FD0     		beq	.L102
 764:build/openmote-cc2538_armgcc/openstack/02a-MAClow/IEEE802154E.c ****                       // timeslot template ID
 765:build/openmote-cc2538_armgcc/openstack/02a-MAClow/IEEE802154E.c ****                       timeslotTemplateIDStoreFromEB(*((uint8_t*)(pkt->payload)+ptr));
 1797              		.loc 1 765 0
 1798 0ca2 7B68     		ldr	r3, [r7, #4]
 1799 0ca4 5A68     		ldr	r2, [r3, #4]
 1800 0ca6 FB7A     		ldrb	r3, [r7, #11]	@ zero_extendqisi2
 1801 0ca8 1344     		add	r3, r3, r2
 1802 0caa 1B78     		ldrb	r3, [r3]	@ zero_extendqisi2
 1803 0cac 1846     		mov	r0, r3
 1804 0cae FFF7FEFF 		bl	timeslotTemplateIDStoreFromEB
 766:build/openmote-cc2538_armgcc/openstack/02a-MAClow/IEEE802154E.c ****                       ptr = ptr + 1;
 1805              		.loc 1 766 0
 1806 0cb2 FB7A     		ldrb	r3, [r7, #11]	@ zero_extendqisi2
 1807 0cb4 0133     		adds	r3, r3, #1
 1808 0cb6 DBB2     		uxtb	r3, r3
 1809 0cb8 FB72     		strb	r3, [r7, #11]
 767:build/openmote-cc2538_armgcc/openstack/02a-MAClow/IEEE802154E.c ****                       if (ieee154e_vars.tsTemplateId != TIMESLOT_TEMPLATE_ID){
 1810              		.loc 1 767 0
 1811 0cba 40F20003 		movw	r3, #:lower16:ieee154e_vars
 1812 0cbe C0F20003 		movt	r3, #:upper16:ieee154e_vars
 1813 0cc2 93F85831 		ldrb	r3, [r3, #344]	@ zero_extendqisi2
 1814 0cc6 002B     		cmp	r3, #0
 1815 0cc8 2BD0     		beq	.L102
 768:build/openmote-cc2538_armgcc/openstack/02a-MAClow/IEEE802154E.c ****                           ieee154e_vars.slotDuration = *((uint8_t*)(pkt->payload)+ptr);
 1816              		.loc 1 768 0
 1817 0cca 7B68     		ldr	r3, [r7, #4]
 1818 0ccc 5A68     		ldr	r2, [r3, #4]
 1819 0cce FB7A     		ldrb	r3, [r7, #11]	@ zero_extendqisi2
 1820 0cd0 1344     		add	r3, r3, r2
 1821 0cd2 1B78     		ldrb	r3, [r3]	@ zero_extendqisi2
 1822 0cd4 1A46     		mov	r2, r3
 1823 0cd6 40F20003 		movw	r3, #:lower16:ieee154e_vars
 1824 0cda C0F20003 		movt	r3, #:upper16:ieee154e_vars
 1825 0cde A3F86A21 		strh	r2, [r3, #362]	@ movhi
 769:build/openmote-cc2538_armgcc/openstack/02a-MAClow/IEEE802154E.c ****                           ptr = ptr + 1;
 1826              		.loc 1 769 0
 1827 0ce2 FB7A     		ldrb	r3, [r7, #11]	@ zero_extendqisi2
 1828 0ce4 0133     		adds	r3, r3, #1
 1829 0ce6 DBB2     		uxtb	r3, r3
 1830 0ce8 FB72     		strb	r3, [r7, #11]
 770:build/openmote-cc2538_armgcc/openstack/02a-MAClow/IEEE802154E.c ****                           ieee154e_vars.slotDuration |= ((*((uint8_t*)(pkt->payload)+ptr))<<8) & 0x
 1831              		.loc 1 770 0
 1832 0cea 40F20003 		movw	r3, #:lower16:ieee154e_vars
 1833 0cee C0F20003 		movt	r3, #:upper16:ieee154e_vars
 1834 0cf2 B3F86A31 		ldrh	r3, [r3, #362]
 1835 0cf6 9AB2     		uxth	r2, r3
 1836 0cf8 7B68     		ldr	r3, [r7, #4]
 1837 0cfa 5968     		ldr	r1, [r3, #4]
 1838 0cfc FB7A     		ldrb	r3, [r7, #11]	@ zero_extendqisi2
 1839 0cfe 0B44     		add	r3, r3, r1
 1840 0d00 1B78     		ldrb	r3, [r3]	@ zero_extendqisi2
 1841 0d02 1B02     		lsls	r3, r3, #8
 1842 0d04 9BB2     		uxth	r3, r3
 1843 0d06 1343     		orrs	r3, r3, r2
 1844 0d08 9BB2     		uxth	r3, r3
 1845 0d0a 9AB2     		uxth	r2, r3
 1846 0d0c 40F20003 		movw	r3, #:lower16:ieee154e_vars
 1847 0d10 C0F20003 		movt	r3, #:upper16:ieee154e_vars
 1848 0d14 A3F86A21 		strh	r2, [r3, #362]	@ movhi
 771:build/openmote-cc2538_armgcc/openstack/02a-MAClow/IEEE802154E.c ****                           ptr = ptr + 1;
 1849              		.loc 1 771 0
 1850 0d18 FB7A     		ldrb	r3, [r7, #11]	@ zero_extendqisi2
 1851 0d1a 0133     		adds	r3, r3, #1
 1852 0d1c DBB2     		uxtb	r3, r3
 1853 0d1e FB72     		strb	r3, [r7, #11]
 772:build/openmote-cc2538_armgcc/openstack/02a-MAClow/IEEE802154E.c ****                       }
 773:build/openmote-cc2538_armgcc/openstack/02a-MAClow/IEEE802154E.c ****                   }
 774:build/openmote-cc2538_armgcc/openstack/02a-MAClow/IEEE802154E.c ****                   break;
 1854              		.loc 1 774 0
 1855 0d20 18E0     		b	.L100
 1856              	.L102:
 1857 0d22 17E0     		b	.L100
 1858              	.L94:
 775:build/openmote-cc2538_armgcc/openstack/02a-MAClow/IEEE802154E.c ****                   
 776:build/openmote-cc2538_armgcc/openstack/02a-MAClow/IEEE802154E.c ****                case IEEE802154E_MLME_CHANNELHOPPING_IE_SUBID:
 777:build/openmote-cc2538_armgcc/openstack/02a-MAClow/IEEE802154E.c ****                   if (idmanager_getIsDAGroot()==FALSE) {
 1859              		.loc 1 777 0
 1860 0d24 FFF7FEFF 		bl	idmanager_getIsDAGroot
 1861 0d28 0346     		mov	r3, r0
 1862 0d2a 83F00103 		eor	r3, r3, #1
 1863 0d2e DBB2     		uxtb	r3, r3
 1864 0d30 002B     		cmp	r3, #0
 1865 0d32 0CD0     		beq	.L103
 778:build/openmote-cc2538_armgcc/openstack/02a-MAClow/IEEE802154E.c ****                       // channelhopping template ID
 779:build/openmote-cc2538_armgcc/openstack/02a-MAClow/IEEE802154E.c ****                       channelhoppingTemplateIDStoreFromEB(*((uint8_t*)(pkt->payload)+ptr));
 1866              		.loc 1 779 0
 1867 0d34 7B68     		ldr	r3, [r7, #4]
 1868 0d36 5A68     		ldr	r2, [r3, #4]
 1869 0d38 FB7A     		ldrb	r3, [r7, #11]	@ zero_extendqisi2
 1870 0d3a 1344     		add	r3, r3, r2
 1871 0d3c 1B78     		ldrb	r3, [r3]	@ zero_extendqisi2
 1872 0d3e 1846     		mov	r0, r3
 1873 0d40 FFF7FEFF 		bl	channelhoppingTemplateIDStoreFromEB
 780:build/openmote-cc2538_armgcc/openstack/02a-MAClow/IEEE802154E.c ****                       ptr = ptr + 1;
 1874              		.loc 1 780 0
 1875 0d44 FB7A     		ldrb	r3, [r7, #11]	@ zero_extendqisi2
 1876 0d46 0133     		adds	r3, r3, #1
 1877 0d48 DBB2     		uxtb	r3, r3
 1878 0d4a FB72     		strb	r3, [r7, #11]
 781:build/openmote-cc2538_armgcc/openstack/02a-MAClow/IEEE802154E.c ****                   }
 782:build/openmote-cc2538_armgcc/openstack/02a-MAClow/IEEE802154E.c ****                   break;
 1879              		.loc 1 782 0
 1880 0d4c 02E0     		b	.L100
 1881              	.L103:
 1882 0d4e 01E0     		b	.L100
 1883              	.L93:
 783:build/openmote-cc2538_armgcc/openstack/02a-MAClow/IEEE802154E.c ****                default:
 784:build/openmote-cc2538_armgcc/openstack/02a-MAClow/IEEE802154E.c ****                   return FALSE;
 1884              		.loc 1 784 0
 1885 0d50 0023     		movs	r3, #0
 1886 0d52 59E0     		b	.L113
 1887              	.L100:
 785:build/openmote-cc2538_armgcc/openstack/02a-MAClow/IEEE802154E.c ****                   break;
 786:build/openmote-cc2538_armgcc/openstack/02a-MAClow/IEEE802154E.c ****             }
 787:build/openmote-cc2538_armgcc/openstack/02a-MAClow/IEEE802154E.c ****             
 788:build/openmote-cc2538_armgcc/openstack/02a-MAClow/IEEE802154E.c ****             len = len - sublen;
 1888              		.loc 1 788 0
 1889 0d54 BA8A     		ldrh	r2, [r7, #20]	@ movhi
 1890 0d56 7B8A     		ldrh	r3, [r7, #18]	@ movhi
 1891 0d58 D31A     		subs	r3, r2, r3
 1892 0d5a BB82     		strh	r3, [r7, #20]	@ movhi
 789:build/openmote-cc2538_armgcc/openstack/02a-MAClow/IEEE802154E.c ****          } while(len>0);
 1893              		.loc 1 789 0
 1894 0d5c BB8A     		ldrh	r3, [r7, #20]
 1895 0d5e 002B     		cmp	r3, #0
 1896 0d60 7FF4FAAE 		bne	.L105
 790:build/openmote-cc2538_armgcc/openstack/02a-MAClow/IEEE802154E.c ****          if (f_asn2slotoffset == TRUE) {
 1897              		.loc 1 790 0
 1898 0d64 7B7C     		ldrb	r3, [r7, #17]	@ zero_extendqisi2
 1899 0d66 002B     		cmp	r3, #0
 1900 0d68 3BD0     		beq	.L106
 791:build/openmote-cc2538_armgcc/openstack/02a-MAClow/IEEE802154E.c ****             // at this point, ASN and frame length are known
 792:build/openmote-cc2538_armgcc/openstack/02a-MAClow/IEEE802154E.c ****             // the current slotoffset can be inferred
 793:build/openmote-cc2538_armgcc/openstack/02a-MAClow/IEEE802154E.c ****             ieee154e_syncSlotOffset();
 1901              		.loc 1 793 0
 1902 0d6a FFF7FEFF 		bl	ieee154e_syncSlotOffset
 794:build/openmote-cc2538_armgcc/openstack/02a-MAClow/IEEE802154E.c ****             schedule_syncSlotOffset(ieee154e_vars.slotOffset);
 1903              		.loc 1 794 0
 1904 0d6e 40F20003 		movw	r3, #:lower16:ieee154e_vars
 1905 0d72 C0F20003 		movt	r3, #:upper16:ieee154e_vars
 1906 0d76 DB88     		ldrh	r3, [r3, #6]
 1907 0d78 1846     		mov	r0, r3
 1908 0d7a FFF7FEFF 		bl	schedule_syncSlotOffset
 795:build/openmote-cc2538_armgcc/openstack/02a-MAClow/IEEE802154E.c ****             ieee154e_vars.nextActiveSlotOffset = schedule_getNextActiveSlotOffset();
 1909              		.loc 1 795 0
 1910 0d7e FFF7FEFF 		bl	schedule_getNextActiveSlotOffset
 1911 0d82 0346     		mov	r3, r0
 1912 0d84 1A46     		mov	r2, r3
 1913 0d86 40F20003 		movw	r3, #:lower16:ieee154e_vars
 1914 0d8a C0F20003 		movt	r3, #:upper16:ieee154e_vars
 1915 0d8e 1A81     		strh	r2, [r3, #8]	@ movhi
 796:build/openmote-cc2538_armgcc/openstack/02a-MAClow/IEEE802154E.c ****             /* 
 797:build/openmote-cc2538_armgcc/openstack/02a-MAClow/IEEE802154E.c ****             infer the asnOffset based on the fact that
 798:build/openmote-cc2538_armgcc/openstack/02a-MAClow/IEEE802154E.c ****             ieee154e_vars.freq = 11 + (asnOffset + channelOffset)%16 
 799:build/openmote-cc2538_armgcc/openstack/02a-MAClow/IEEE802154E.c ****             */
 800:build/openmote-cc2538_armgcc/openstack/02a-MAClow/IEEE802154E.c ****             for (i=0;i<16;i++){
 1916              		.loc 1 800 0
 1917 0d90 0023     		movs	r3, #0
 1918 0d92 3B74     		strb	r3, [r7, #16]
 1919 0d94 15E0     		b	.L107
 1920              	.L110:
 801:build/openmote-cc2538_armgcc/openstack/02a-MAClow/IEEE802154E.c ****                 if ((ieee154e_vars.freq - 11)==ieee154e_vars.chTemplate[i]){
 1921              		.loc 1 801 0
 1922 0d96 40F20003 		movw	r3, #:lower16:ieee154e_vars
 1923 0d9a C0F20003 		movt	r3, #:upper16:ieee154e_vars
 1924 0d9e 93F84431 		ldrb	r3, [r3, #324]	@ zero_extendqisi2
 1925 0da2 A3F10B02 		sub	r2, r3, #11
 1926 0da6 397C     		ldrb	r1, [r7, #16]	@ zero_extendqisi2
 1927 0da8 40F20003 		movw	r3, #:lower16:ieee154e_vars
 1928 0dac C0F20003 		movt	r3, #:upper16:ieee154e_vars
 1929 0db0 0B44     		add	r3, r3, r1
 1930 0db2 93F84831 		ldrb	r3, [r3, #328]	@ zero_extendqisi2
 1931 0db6 9A42     		cmp	r2, r3
 1932 0db8 00D1     		bne	.L108
 802:build/openmote-cc2538_armgcc/openstack/02a-MAClow/IEEE802154E.c ****                     break;
 1933              		.loc 1 802 0
 1934 0dba 05E0     		b	.L109
 1935              	.L108:
 800:build/openmote-cc2538_armgcc/openstack/02a-MAClow/IEEE802154E.c ****                 if ((ieee154e_vars.freq - 11)==ieee154e_vars.chTemplate[i]){
 1936              		.loc 1 800 0
 1937 0dbc 3B7C     		ldrb	r3, [r7, #16]	@ zero_extendqisi2
 1938 0dbe 0133     		adds	r3, r3, #1
 1939 0dc0 3B74     		strb	r3, [r7, #16]
 1940              	.L107:
 800:build/openmote-cc2538_armgcc/openstack/02a-MAClow/IEEE802154E.c ****                 if ((ieee154e_vars.freq - 11)==ieee154e_vars.chTemplate[i]){
 1941              		.loc 1 800 0 is_stmt 0 discriminator 1
 1942 0dc2 3B7C     		ldrb	r3, [r7, #16]	@ zero_extendqisi2
 1943 0dc4 0F2B     		cmp	r3, #15
 1944 0dc6 E6D9     		bls	.L110
 1945              	.L109:
 803:build/openmote-cc2538_armgcc/openstack/02a-MAClow/IEEE802154E.c ****                 }
 804:build/openmote-cc2538_armgcc/openstack/02a-MAClow/IEEE802154E.c ****             }
 805:build/openmote-cc2538_armgcc/openstack/02a-MAClow/IEEE802154E.c ****             ieee154e_vars.asnOffset = i - schedule_getChannelOffset();
 1946              		.loc 1 805 0 is_stmt 1
 1947 0dc8 FFF7FEFF 		bl	schedule_getChannelOffset
 1948 0dcc 0346     		mov	r3, r0
 1949 0dce 3A7C     		ldrb	r2, [r7, #16]
 1950 0dd0 D31A     		subs	r3, r2, r3
 1951 0dd2 DAB2     		uxtb	r2, r3
 1952 0dd4 40F20003 		movw	r3, #:lower16:ieee154e_vars
 1953 0dd8 C0F20003 		movt	r3, #:upper16:ieee154e_vars
 1954 0ddc 83F84521 		strb	r2, [r3, #325]
 806:build/openmote-cc2538_armgcc/openstack/02a-MAClow/IEEE802154E.c ****          }
 807:build/openmote-cc2538_armgcc/openstack/02a-MAClow/IEEE802154E.c ****          break;
 1955              		.loc 1 807 0
 1956 0de0 05E0     		b	.L111
 1957              	.L106:
 1958 0de2 04E0     		b	.L111
 1959              	.L114:
 808:build/openmote-cc2538_armgcc/openstack/02a-MAClow/IEEE802154E.c ****          
 809:build/openmote-cc2538_armgcc/openstack/02a-MAClow/IEEE802154E.c ****       default:
 810:build/openmote-cc2538_armgcc/openstack/02a-MAClow/IEEE802154E.c ****          *lenIE = 0; //no header or not recognized.
 1960              		.loc 1 810 0
 1961 0de4 3B68     		ldr	r3, [r7]
 1962 0de6 0022     		movs	r2, #0
 1963 0de8 1A80     		strh	r2, [r3]	@ movhi
 811:build/openmote-cc2538_armgcc/openstack/02a-MAClow/IEEE802154E.c ****          return FALSE;
 1964              		.loc 1 811 0
 1965 0dea 0023     		movs	r3, #0
 1966 0dec 0CE0     		b	.L113
 1967              	.L111:
 812:build/openmote-cc2538_armgcc/openstack/02a-MAClow/IEEE802154E.c ****    }
 813:build/openmote-cc2538_armgcc/openstack/02a-MAClow/IEEE802154E.c ****    
 814:build/openmote-cc2538_armgcc/openstack/02a-MAClow/IEEE802154E.c ****    if(*lenIE>127) {
 1968              		.loc 1 814 0
 1969 0dee 3B68     		ldr	r3, [r7]
 1970 0df0 1B88     		ldrh	r3, [r3]
 1971 0df2 7F2B     		cmp	r3, #127
 1972 0df4 07D9     		bls	.L112
 815:build/openmote-cc2538_armgcc/openstack/02a-MAClow/IEEE802154E.c ****       // log the error
 816:build/openmote-cc2538_armgcc/openstack/02a-MAClow/IEEE802154E.c ****       openserial_printError(
 1973              		.loc 1 816 0
 1974 0df6 3B68     		ldr	r3, [r7]
 1975 0df8 1B88     		ldrh	r3, [r3]
 1976 0dfa 0920     		movs	r0, #9
 1977 0dfc 3321     		movs	r1, #51
 1978 0dfe 1A46     		mov	r2, r3
 1979 0e00 0123     		movs	r3, #1
 1980 0e02 FFF7FEFF 		bl	openserial_printError
 1981              	.L112:
 817:build/openmote-cc2538_armgcc/openstack/02a-MAClow/IEEE802154E.c ****          COMPONENT_IEEE802154E,
 818:build/openmote-cc2538_armgcc/openstack/02a-MAClow/IEEE802154E.c ****          ERR_HEADER_TOO_LONG,
 819:build/openmote-cc2538_armgcc/openstack/02a-MAClow/IEEE802154E.c ****          (errorparameter_t)*lenIE,
 820:build/openmote-cc2538_armgcc/openstack/02a-MAClow/IEEE802154E.c ****          (errorparameter_t)1
 821:build/openmote-cc2538_armgcc/openstack/02a-MAClow/IEEE802154E.c ****       );
 822:build/openmote-cc2538_armgcc/openstack/02a-MAClow/IEEE802154E.c ****    }
 823:build/openmote-cc2538_armgcc/openstack/02a-MAClow/IEEE802154E.c ****    return TRUE;
 1982              		.loc 1 823 0
 1983 0e06 0123     		movs	r3, #1
 1984              	.L113:
 824:build/openmote-cc2538_armgcc/openstack/02a-MAClow/IEEE802154E.c **** }
 1985              		.loc 1 824 0
 1986 0e08 1846     		mov	r0, r3
 1987 0e0a 1837     		adds	r7, r7, #24
 1988 0e0c BD46     		mov	sp, r7
 1989              		@ sp needed
 1990 0e0e 80BD     		pop	{r7, pc}
 1991              		.cfi_endproc
 1992              	.LFE12:
 1994              		.align	2
 1995              		.global	activity_ti1ORri1
 1996              		.thumb
 1997              		.thumb_func
 1999              	activity_ti1ORri1:
 2000              	.LFB13:
 825:build/openmote-cc2538_armgcc/openstack/02a-MAClow/IEEE802154E.c **** 
 826:build/openmote-cc2538_armgcc/openstack/02a-MAClow/IEEE802154E.c **** //======= TX
 827:build/openmote-cc2538_armgcc/openstack/02a-MAClow/IEEE802154E.c **** 
 828:build/openmote-cc2538_armgcc/openstack/02a-MAClow/IEEE802154E.c **** port_INLINE void activity_ti1ORri1() {
 2001              		.loc 1 828 0
 2002              		.cfi_startproc
 2003              		@ args = 0, pretend = 0, frame = 32
 2004              		@ frame_needed = 1, uses_anonymous_args = 0
 2005 0e10 80B5     		push	{r7, lr}
 2006              		.cfi_def_cfa_offset 8
 2007              		.cfi_offset 7, -8
 2008              		.cfi_offset 14, -4
 2009 0e12 88B0     		sub	sp, sp, #32
 2010              		.cfi_def_cfa_offset 40
 2011 0e14 00AF     		add	r7, sp, #0
 2012              		.cfi_def_cfa_register 7
 829:build/openmote-cc2538_armgcc/openstack/02a-MAClow/IEEE802154E.c ****    cellType_t  cellType;
 830:build/openmote-cc2538_armgcc/openstack/02a-MAClow/IEEE802154E.c ****    open_addr_t neighbor;
 831:build/openmote-cc2538_armgcc/openstack/02a-MAClow/IEEE802154E.c ****    uint8_t     i;
 832:build/openmote-cc2538_armgcc/openstack/02a-MAClow/IEEE802154E.c ****    sync_IE_ht  sync_IE;
 833:build/openmote-cc2538_armgcc/openstack/02a-MAClow/IEEE802154E.c ****    bool        changeToRX=FALSE;
 2013              		.loc 1 833 0
 2014 0e16 0023     		movs	r3, #0
 2015 0e18 BB77     		strb	r3, [r7, #30]
 834:build/openmote-cc2538_armgcc/openstack/02a-MAClow/IEEE802154E.c ****    bool        couldSendEB=FALSE;
 2016              		.loc 1 834 0
 2017 0e1a 0023     		movs	r3, #0
 2018 0e1c 7B77     		strb	r3, [r7, #29]
 835:build/openmote-cc2538_armgcc/openstack/02a-MAClow/IEEE802154E.c **** 
 836:build/openmote-cc2538_armgcc/openstack/02a-MAClow/IEEE802154E.c ****    // increment ASN (do this first so debug pins are in sync)
 837:build/openmote-cc2538_armgcc/openstack/02a-MAClow/IEEE802154E.c ****    incrementAsnOffset();
 2019              		.loc 1 837 0
 2020 0e1e FFF7FEFF 		bl	incrementAsnOffset
 838:build/openmote-cc2538_armgcc/openstack/02a-MAClow/IEEE802154E.c ****    
 839:build/openmote-cc2538_armgcc/openstack/02a-MAClow/IEEE802154E.c ****    // wiggle debug pins
 840:build/openmote-cc2538_armgcc/openstack/02a-MAClow/IEEE802154E.c ****    debugpins_slot_toggle();
 2021              		.loc 1 840 0
 2022 0e22 FFF7FEFF 		bl	debugpins_slot_toggle
 841:build/openmote-cc2538_armgcc/openstack/02a-MAClow/IEEE802154E.c ****    if (ieee154e_vars.slotOffset==0) {
 2023              		.loc 1 841 0
 2024 0e26 40F20003 		movw	r3, #:lower16:ieee154e_vars
 2025 0e2a C0F20003 		movt	r3, #:upper16:ieee154e_vars
 2026 0e2e DB88     		ldrh	r3, [r3, #6]
 2027 0e30 002B     		cmp	r3, #0
 2028 0e32 01D1     		bne	.L116
 842:build/openmote-cc2538_armgcc/openstack/02a-MAClow/IEEE802154E.c ****       debugpins_frame_toggle();
 2029              		.loc 1 842 0
 2030 0e34 FFF7FEFF 		bl	debugpins_frame_toggle
 2031              	.L116:
 843:build/openmote-cc2538_armgcc/openstack/02a-MAClow/IEEE802154E.c ****    }
 844:build/openmote-cc2538_armgcc/openstack/02a-MAClow/IEEE802154E.c ****    
 845:build/openmote-cc2538_armgcc/openstack/02a-MAClow/IEEE802154E.c ****    // desynchronize if needed
 846:build/openmote-cc2538_armgcc/openstack/02a-MAClow/IEEE802154E.c ****    if (idmanager_getIsDAGroot()==FALSE) {
 2032              		.loc 1 846 0
 2033 0e38 FFF7FEFF 		bl	idmanager_getIsDAGroot
 2034 0e3c 0346     		mov	r3, r0
 2035 0e3e 83F00103 		eor	r3, r3, #1
 2036 0e42 DBB2     		uxtb	r3, r3
 2037 0e44 002B     		cmp	r3, #0
 2038 0e46 42D0     		beq	.L117
 847:build/openmote-cc2538_armgcc/openstack/02a-MAClow/IEEE802154E.c ****       if(ieee154e_vars.deSyncTimeout > ieee154e_vars.numOfSleepSlots){
 2039              		.loc 1 847 0
 2040 0e48 40F20003 		movw	r3, #:lower16:ieee154e_vars
 2041 0e4c C0F20003 		movt	r3, #:upper16:ieee154e_vars
 2042 0e50 DA68     		ldr	r2, [r3, #12]
 2043 0e52 40F20003 		movw	r3, #:lower16:ieee154e_vars
 2044 0e56 C0F20003 		movt	r3, #:upper16:ieee154e_vars
 2045 0e5a D3F82431 		ldr	r3, [r3, #292]
 2046 0e5e 9A42     		cmp	r2, r3
 2047 0e60 11D9     		bls	.L118
 848:build/openmote-cc2538_armgcc/openstack/02a-MAClow/IEEE802154E.c ****          ieee154e_vars.deSyncTimeout -= ieee154e_vars.numOfSleepSlots;
 2048              		.loc 1 848 0
 2049 0e62 40F20003 		movw	r3, #:lower16:ieee154e_vars
 2050 0e66 C0F20003 		movt	r3, #:upper16:ieee154e_vars
 2051 0e6a DA68     		ldr	r2, [r3, #12]
 2052 0e6c 40F20003 		movw	r3, #:lower16:ieee154e_vars
 2053 0e70 C0F20003 		movt	r3, #:upper16:ieee154e_vars
 2054 0e74 D3F82431 		ldr	r3, [r3, #292]
 2055 0e78 D21A     		subs	r2, r2, r3
 2056 0e7a 40F20003 		movw	r3, #:lower16:ieee154e_vars
 2057 0e7e C0F20003 		movt	r3, #:upper16:ieee154e_vars
 2058 0e82 DA60     		str	r2, [r3, #12]
 2059 0e84 23E0     		b	.L117
 2060              	.L118:
 849:build/openmote-cc2538_armgcc/openstack/02a-MAClow/IEEE802154E.c ****       }
 850:build/openmote-cc2538_armgcc/openstack/02a-MAClow/IEEE802154E.c ****       else{
 851:build/openmote-cc2538_armgcc/openstack/02a-MAClow/IEEE802154E.c ****             // Reset sleep slots
 852:build/openmote-cc2538_armgcc/openstack/02a-MAClow/IEEE802154E.c ****             ieee154e_vars.numOfSleepSlots = 1;
 2061              		.loc 1 852 0
 2062 0e86 40F20003 		movw	r3, #:lower16:ieee154e_vars
 2063 0e8a C0F20003 		movt	r3, #:upper16:ieee154e_vars
 2064 0e8e 0122     		movs	r2, #1
 2065 0e90 C3F82421 		str	r2, [r3, #292]
 853:build/openmote-cc2538_armgcc/openstack/02a-MAClow/IEEE802154E.c ****         
 854:build/openmote-cc2538_armgcc/openstack/02a-MAClow/IEEE802154E.c ****             // declare myself desynchronized
 855:build/openmote-cc2538_armgcc/openstack/02a-MAClow/IEEE802154E.c ****             changeIsSync(FALSE);
 2066              		.loc 1 855 0
 2067 0e94 0020     		movs	r0, #0
 2068 0e96 FFF7FEFF 		bl	changeIsSync
 856:build/openmote-cc2538_armgcc/openstack/02a-MAClow/IEEE802154E.c ****             
 857:build/openmote-cc2538_armgcc/openstack/02a-MAClow/IEEE802154E.c ****             // log the error
 858:build/openmote-cc2538_armgcc/openstack/02a-MAClow/IEEE802154E.c ****             openserial_printError(COMPONENT_IEEE802154E,ERR_DESYNCHRONIZED,
 2069              		.loc 1 858 0
 2070 0e9a 40F20003 		movw	r3, #:lower16:ieee154e_vars
 2071 0e9e C0F20003 		movt	r3, #:upper16:ieee154e_vars
 2072 0ea2 DB88     		ldrh	r3, [r3, #6]
 2073 0ea4 0920     		movs	r0, #9
 2074 0ea6 1A21     		movs	r1, #26
 2075 0ea8 1A46     		mov	r2, r3
 2076 0eaa 0023     		movs	r3, #0
 2077 0eac FFF7FEFF 		bl	openserial_printError
 859:build/openmote-cc2538_armgcc/openstack/02a-MAClow/IEEE802154E.c ****                                   (errorparameter_t)ieee154e_vars.slotOffset,
 860:build/openmote-cc2538_armgcc/openstack/02a-MAClow/IEEE802154E.c ****                                   (errorparameter_t)0);
 861:build/openmote-cc2538_armgcc/openstack/02a-MAClow/IEEE802154E.c ****             
 862:build/openmote-cc2538_armgcc/openstack/02a-MAClow/IEEE802154E.c ****             // update the statistics
 863:build/openmote-cc2538_armgcc/openstack/02a-MAClow/IEEE802154E.c ****             ieee154e_stats.numDeSync++;
 2078              		.loc 1 863 0
 2079 0eb0 40F20003 		movw	r3, #:lower16:ieee154e_stats
 2080 0eb4 C0F20003 		movt	r3, #:upper16:ieee154e_stats
 2081 0eb8 9B79     		ldrb	r3, [r3, #6]	@ zero_extendqisi2
 2082 0eba 0133     		adds	r3, r3, #1
 2083 0ebc DAB2     		uxtb	r2, r3
 2084 0ebe 40F20003 		movw	r3, #:lower16:ieee154e_stats
 2085 0ec2 C0F20003 		movt	r3, #:upper16:ieee154e_stats
 2086 0ec6 9A71     		strb	r2, [r3, #6]
 864:build/openmote-cc2538_armgcc/openstack/02a-MAClow/IEEE802154E.c ****                
 865:build/openmote-cc2538_armgcc/openstack/02a-MAClow/IEEE802154E.c ****             // abort
 866:build/openmote-cc2538_armgcc/openstack/02a-MAClow/IEEE802154E.c ****             endSlot();
 2087              		.loc 1 866 0
 2088 0ec8 FFF7FEFF 		bl	endSlot
 867:build/openmote-cc2538_armgcc/openstack/02a-MAClow/IEEE802154E.c ****             return;
 2089              		.loc 1 867 0
 2090 0ecc 05E2     		b	.L115
 2091              	.L117:
 868:build/openmote-cc2538_armgcc/openstack/02a-MAClow/IEEE802154E.c ****       }
 869:build/openmote-cc2538_armgcc/openstack/02a-MAClow/IEEE802154E.c ****    }
 870:build/openmote-cc2538_armgcc/openstack/02a-MAClow/IEEE802154E.c ****    
 871:build/openmote-cc2538_armgcc/openstack/02a-MAClow/IEEE802154E.c ****    // if the previous slot took too long, we will not be in the right state
 872:build/openmote-cc2538_armgcc/openstack/02a-MAClow/IEEE802154E.c ****    if (ieee154e_vars.state!=S_SLEEP) {
 2092              		.loc 1 872 0
 2093 0ece 40F20003 		movw	r3, #:lower16:ieee154e_vars
 2094 0ed2 C0F20003 		movt	r3, #:upper16:ieee154e_vars
 2095 0ed6 93F82831 		ldrb	r3, [r3, #296]	@ zero_extendqisi2
 2096 0eda 002B     		cmp	r3, #0
 2097 0edc 12D0     		beq	.L120
 873:build/openmote-cc2538_armgcc/openstack/02a-MAClow/IEEE802154E.c ****       // log the error
 874:build/openmote-cc2538_armgcc/openstack/02a-MAClow/IEEE802154E.c ****       openserial_printError(COMPONENT_IEEE802154E,ERR_WRONG_STATE_IN_STARTSLOT,
 875:build/openmote-cc2538_armgcc/openstack/02a-MAClow/IEEE802154E.c ****                             (errorparameter_t)ieee154e_vars.state,
 2098              		.loc 1 875 0
 2099 0ede 40F20003 		movw	r3, #:lower16:ieee154e_vars
 2100 0ee2 C0F20003 		movt	r3, #:upper16:ieee154e_vars
 2101 0ee6 93F82831 		ldrb	r3, [r3, #296]	@ zero_extendqisi2
 874:build/openmote-cc2538_armgcc/openstack/02a-MAClow/IEEE802154E.c ****                             (errorparameter_t)ieee154e_vars.state,
 2102              		.loc 1 874 0
 2103 0eea 1A46     		mov	r2, r3
 2104 0eec 40F20003 		movw	r3, #:lower16:ieee154e_vars
 2105 0ef0 C0F20003 		movt	r3, #:upper16:ieee154e_vars
 2106 0ef4 DB88     		ldrh	r3, [r3, #6]
 2107 0ef6 0920     		movs	r0, #9
 2108 0ef8 1E21     		movs	r1, #30
 2109 0efa FFF7FEFF 		bl	openserial_printError
 876:build/openmote-cc2538_armgcc/openstack/02a-MAClow/IEEE802154E.c ****                             (errorparameter_t)ieee154e_vars.slotOffset);
 877:build/openmote-cc2538_armgcc/openstack/02a-MAClow/IEEE802154E.c ****       // abort
 878:build/openmote-cc2538_armgcc/openstack/02a-MAClow/IEEE802154E.c ****       endSlot();
 2110              		.loc 1 878 0
 2111 0efe FFF7FEFF 		bl	endSlot
 879:build/openmote-cc2538_armgcc/openstack/02a-MAClow/IEEE802154E.c ****       return;
 2112              		.loc 1 879 0
 2113 0f02 EAE1     		b	.L115
 2114              	.L120:
 880:build/openmote-cc2538_armgcc/openstack/02a-MAClow/IEEE802154E.c ****    }
 881:build/openmote-cc2538_armgcc/openstack/02a-MAClow/IEEE802154E.c ****    
 882:build/openmote-cc2538_armgcc/openstack/02a-MAClow/IEEE802154E.c ****    // Reset sleep slots
 883:build/openmote-cc2538_armgcc/openstack/02a-MAClow/IEEE802154E.c ****    ieee154e_vars.numOfSleepSlots = 1;
 2115              		.loc 1 883 0
 2116 0f04 40F20003 		movw	r3, #:lower16:ieee154e_vars
 2117 0f08 C0F20003 		movt	r3, #:upper16:ieee154e_vars
 2118 0f0c 0122     		movs	r2, #1
 2119 0f0e C3F82421 		str	r2, [r3, #292]
 884:build/openmote-cc2538_armgcc/openstack/02a-MAClow/IEEE802154E.c ****    
 885:build/openmote-cc2538_armgcc/openstack/02a-MAClow/IEEE802154E.c ****    if (ieee154e_vars.slotOffset==ieee154e_vars.nextActiveSlotOffset) {
 2120              		.loc 1 885 0
 2121 0f12 40F20003 		movw	r3, #:lower16:ieee154e_vars
 2122 0f16 C0F20003 		movt	r3, #:upper16:ieee154e_vars
 2123 0f1a DA88     		ldrh	r2, [r3, #6]
 2124 0f1c 40F20003 		movw	r3, #:lower16:ieee154e_vars
 2125 0f20 C0F20003 		movt	r3, #:upper16:ieee154e_vars
 2126 0f24 1B89     		ldrh	r3, [r3, #8]
 2127 0f26 9A42     		cmp	r2, r3
 2128 0f28 40F09C80 		bne	.L121
 886:build/openmote-cc2538_armgcc/openstack/02a-MAClow/IEEE802154E.c ****       // this is the next active slot
 887:build/openmote-cc2538_armgcc/openstack/02a-MAClow/IEEE802154E.c ****       
 888:build/openmote-cc2538_armgcc/openstack/02a-MAClow/IEEE802154E.c ****       // advance the schedule
 889:build/openmote-cc2538_armgcc/openstack/02a-MAClow/IEEE802154E.c ****       schedule_advanceSlot();
 2129              		.loc 1 889 0
 2130 0f2c FFF7FEFF 		bl	schedule_advanceSlot
 890:build/openmote-cc2538_armgcc/openstack/02a-MAClow/IEEE802154E.c ****       
 891:build/openmote-cc2538_armgcc/openstack/02a-MAClow/IEEE802154E.c ****       // calculate the frequency to transmit on
 892:build/openmote-cc2538_armgcc/openstack/02a-MAClow/IEEE802154E.c ****       ieee154e_vars.freq = calculateFrequency(schedule_getChannelOffset()); 
 2131              		.loc 1 892 0
 2132 0f30 FFF7FEFF 		bl	schedule_getChannelOffset
 2133 0f34 0346     		mov	r3, r0
 2134 0f36 1846     		mov	r0, r3
 2135 0f38 FFF7FEFF 		bl	calculateFrequency
 2136 0f3c 0346     		mov	r3, r0
 2137 0f3e 1A46     		mov	r2, r3
 2138 0f40 40F20003 		movw	r3, #:lower16:ieee154e_vars
 2139 0f44 C0F20003 		movt	r3, #:upper16:ieee154e_vars
 2140 0f48 83F84421 		strb	r2, [r3, #324]
 893:build/openmote-cc2538_armgcc/openstack/02a-MAClow/IEEE802154E.c ****       
 894:build/openmote-cc2538_armgcc/openstack/02a-MAClow/IEEE802154E.c ****       // find the next one
 895:build/openmote-cc2538_armgcc/openstack/02a-MAClow/IEEE802154E.c ****       ieee154e_vars.nextActiveSlotOffset = schedule_getNextActiveSlotOffset();
 2141              		.loc 1 895 0
 2142 0f4c FFF7FEFF 		bl	schedule_getNextActiveSlotOffset
 2143 0f50 0346     		mov	r3, r0
 2144 0f52 1A46     		mov	r2, r3
 2145 0f54 40F20003 		movw	r3, #:lower16:ieee154e_vars
 2146 0f58 C0F20003 		movt	r3, #:upper16:ieee154e_vars
 2147 0f5c 1A81     		strh	r2, [r3, #8]	@ movhi
 896:build/openmote-cc2538_armgcc/openstack/02a-MAClow/IEEE802154E.c ****       if (idmanager_getIsSlotSkip() && idmanager_getIsDAGroot()==FALSE) {
 2148              		.loc 1 896 0
 2149 0f5e FFF7FEFF 		bl	idmanager_getIsSlotSkip
 2150 0f62 0346     		mov	r3, r0
 2151 0f64 002B     		cmp	r3, #0
 2152 0f66 5DD0     		beq	.L122
 2153              		.loc 1 896 0 is_stmt 0 discriminator 1
 2154 0f68 FFF7FEFF 		bl	idmanager_getIsDAGroot
 2155 0f6c 0346     		mov	r3, r0
 2156 0f6e 83F00103 		eor	r3, r3, #1
 2157 0f72 DBB2     		uxtb	r3, r3
 2158 0f74 002B     		cmp	r3, #0
 2159 0f76 55D0     		beq	.L122
 897:build/openmote-cc2538_armgcc/openstack/02a-MAClow/IEEE802154E.c ****           if (ieee154e_vars.nextActiveSlotOffset>ieee154e_vars.slotOffset) {
 2160              		.loc 1 897 0 is_stmt 1
 2161 0f78 40F20003 		movw	r3, #:lower16:ieee154e_vars
 2162 0f7c C0F20003 		movt	r3, #:upper16:ieee154e_vars
 2163 0f80 1A89     		ldrh	r2, [r3, #8]
 2164 0f82 40F20003 		movw	r3, #:lower16:ieee154e_vars
 2165 0f86 C0F20003 		movt	r3, #:upper16:ieee154e_vars
 2166 0f8a DB88     		ldrh	r3, [r3, #6]
 2167 0f8c 9A42     		cmp	r2, r3
 2168 0f8e 13D9     		bls	.L123
 898:build/openmote-cc2538_armgcc/openstack/02a-MAClow/IEEE802154E.c ****                ieee154e_vars.numOfSleepSlots = ieee154e_vars.nextActiveSlotOffset-ieee154e_vars.slo
 2169              		.loc 1 898 0
 2170 0f90 40F20003 		movw	r3, #:lower16:ieee154e_vars
 2171 0f94 C0F20003 		movt	r3, #:upper16:ieee154e_vars
 2172 0f98 1B89     		ldrh	r3, [r3, #8]
 2173 0f9a 1A46     		mov	r2, r3
 2174 0f9c 40F20003 		movw	r3, #:lower16:ieee154e_vars
 2175 0fa0 C0F20003 		movt	r3, #:upper16:ieee154e_vars
 2176 0fa4 DB88     		ldrh	r3, [r3, #6]
 2177 0fa6 D31A     		subs	r3, r2, r3
 2178 0fa8 1A46     		mov	r2, r3
 2179 0faa 40F20003 		movw	r3, #:lower16:ieee154e_vars
 2180 0fae C0F20003 		movt	r3, #:upper16:ieee154e_vars
 2181 0fb2 C3F82421 		str	r2, [r3, #292]
 2182 0fb6 16E0     		b	.L124
 2183              	.L123:
 899:build/openmote-cc2538_armgcc/openstack/02a-MAClow/IEEE802154E.c ****           } else {
 900:build/openmote-cc2538_armgcc/openstack/02a-MAClow/IEEE802154E.c ****                ieee154e_vars.numOfSleepSlots = schedule_getFrameLength()+ieee154e_vars.nextActiveSl
 2184              		.loc 1 900 0
 2185 0fb8 FFF7FEFF 		bl	schedule_getFrameLength
 2186 0fbc 0346     		mov	r3, r0
 2187 0fbe 1A46     		mov	r2, r3
 2188 0fc0 40F20003 		movw	r3, #:lower16:ieee154e_vars
 2189 0fc4 C0F20003 		movt	r3, #:upper16:ieee154e_vars
 2190 0fc8 1B89     		ldrh	r3, [r3, #8]
 2191 0fca 1A44     		add	r2, r2, r3
 2192 0fcc 40F20003 		movw	r3, #:lower16:ieee154e_vars
 2193 0fd0 C0F20003 		movt	r3, #:upper16:ieee154e_vars
 2194 0fd4 DB88     		ldrh	r3, [r3, #6]
 2195 0fd6 D31A     		subs	r3, r2, r3
 2196 0fd8 1A46     		mov	r2, r3
 2197 0fda 40F20003 		movw	r3, #:lower16:ieee154e_vars
 2198 0fde C0F20003 		movt	r3, #:upper16:ieee154e_vars
 2199 0fe2 C3F82421 		str	r2, [r3, #292]
 2200              	.L124:
 901:build/openmote-cc2538_armgcc/openstack/02a-MAClow/IEEE802154E.c ****           }
 902:build/openmote-cc2538_armgcc/openstack/02a-MAClow/IEEE802154E.c ****           
 903:build/openmote-cc2538_armgcc/openstack/02a-MAClow/IEEE802154E.c ****           radio_setTimerPeriod(TsSlotDuration*(ieee154e_vars.numOfSleepSlots));
 2201              		.loc 1 903 0
 2202 0fe6 40F20003 		movw	r3, #:lower16:ieee154e_vars
 2203 0fea C0F20003 		movt	r3, #:upper16:ieee154e_vars
 2204 0fee D3F82431 		ldr	r3, [r3, #292]
 2205 0ff2 4FF4F672 		mov	r2, #492
 2206 0ff6 02FB03F3 		mul	r3, r2, r3
 2207 0ffa 1846     		mov	r0, r3
 2208 0ffc FFF7FEFF 		bl	radio_setTimerPeriod
 904:build/openmote-cc2538_armgcc/openstack/02a-MAClow/IEEE802154E.c ****            
 905:build/openmote-cc2538_armgcc/openstack/02a-MAClow/IEEE802154E.c ****           //increase ASN by numOfSleepSlots-1 slots as at this slot is already incremented by 1
 906:build/openmote-cc2538_armgcc/openstack/02a-MAClow/IEEE802154E.c ****           for (i=0;i<ieee154e_vars.numOfSleepSlots-1;i++){
 2209              		.loc 1 906 0
 2210 1000 0023     		movs	r3, #0
 2211 1002 FB77     		strb	r3, [r7, #31]
 2212 1004 04E0     		b	.L125
 2213              	.L126:
 907:build/openmote-cc2538_armgcc/openstack/02a-MAClow/IEEE802154E.c ****              incrementAsnOffset();
 2214              		.loc 1 907 0 discriminator 2
 2215 1006 FFF7FEFF 		bl	incrementAsnOffset
 906:build/openmote-cc2538_armgcc/openstack/02a-MAClow/IEEE802154E.c ****              incrementAsnOffset();
 2216              		.loc 1 906 0 discriminator 2
 2217 100a FB7F     		ldrb	r3, [r7, #31]	@ zero_extendqisi2
 2218 100c 0133     		adds	r3, r3, #1
 2219 100e FB77     		strb	r3, [r7, #31]
 2220              	.L125:
 906:build/openmote-cc2538_armgcc/openstack/02a-MAClow/IEEE802154E.c ****              incrementAsnOffset();
 2221              		.loc 1 906 0 is_stmt 0 discriminator 1
 2222 1010 FA7F     		ldrb	r2, [r7, #31]	@ zero_extendqisi2
 2223 1012 40F20003 		movw	r3, #:lower16:ieee154e_vars
 2224 1016 C0F20003 		movt	r3, #:upper16:ieee154e_vars
 2225 101a D3F82431 		ldr	r3, [r3, #292]
 2226 101e 013B     		subs	r3, r3, #1
 2227 1020 9A42     		cmp	r2, r3
 2228 1022 F0D3     		bcc	.L126
 2229              	.L122:
 908:build/openmote-cc2538_armgcc/openstack/02a-MAClow/IEEE802154E.c ****           }
 909:build/openmote-cc2538_armgcc/openstack/02a-MAClow/IEEE802154E.c ****       }  
 910:build/openmote-cc2538_armgcc/openstack/02a-MAClow/IEEE802154E.c ****       ieee154e_vars.nextActiveSlotOffset = schedule_getNextActiveSlotOffset();      
 2230              		.loc 1 910 0 is_stmt 1
 2231 1024 FFF7FEFF 		bl	schedule_getNextActiveSlotOffset
 2232 1028 0346     		mov	r3, r0
 2233 102a 1A46     		mov	r2, r3
 2234 102c 40F20003 		movw	r3, #:lower16:ieee154e_vars
 2235 1030 C0F20003 		movt	r3, #:upper16:ieee154e_vars
 2236 1034 1A81     		strh	r2, [r3, #8]	@ movhi
 911:build/openmote-cc2538_armgcc/openstack/02a-MAClow/IEEE802154E.c ****    } else {
 912:build/openmote-cc2538_armgcc/openstack/02a-MAClow/IEEE802154E.c ****       // this is NOT the next active slot, abort
 913:build/openmote-cc2538_armgcc/openstack/02a-MAClow/IEEE802154E.c ****       // stop using serial
 914:build/openmote-cc2538_armgcc/openstack/02a-MAClow/IEEE802154E.c ****       openserial_stop();
 915:build/openmote-cc2538_armgcc/openstack/02a-MAClow/IEEE802154E.c ****       // abort the slot
 916:build/openmote-cc2538_armgcc/openstack/02a-MAClow/IEEE802154E.c ****       endSlot();
 917:build/openmote-cc2538_armgcc/openstack/02a-MAClow/IEEE802154E.c ****       //start outputing serial
 918:build/openmote-cc2538_armgcc/openstack/02a-MAClow/IEEE802154E.c ****       openserial_startOutput();
 919:build/openmote-cc2538_armgcc/openstack/02a-MAClow/IEEE802154E.c ****       return;
 920:build/openmote-cc2538_armgcc/openstack/02a-MAClow/IEEE802154E.c ****    }
 921:build/openmote-cc2538_armgcc/openstack/02a-MAClow/IEEE802154E.c ****    
 922:build/openmote-cc2538_armgcc/openstack/02a-MAClow/IEEE802154E.c ****    // check the schedule to see what type of slot this is
 923:build/openmote-cc2538_armgcc/openstack/02a-MAClow/IEEE802154E.c ****    cellType = schedule_getType();
 2237              		.loc 1 923 0
 2238 1036 FFF7FEFF 		bl	schedule_getType
 2239 103a 0346     		mov	r3, r0
 2240 103c 3B77     		strb	r3, [r7, #28]
 924:build/openmote-cc2538_armgcc/openstack/02a-MAClow/IEEE802154E.c ****    switch (cellType) {
 2241              		.loc 1 924 0
 2242 103e 3B7F     		ldrb	r3, [r7, #28]	@ zero_extendqisi2
 2243 1040 013B     		subs	r3, r3, #1
 2244 1042 042B     		cmp	r3, #4
 2245 1044 00F23881 		bhi	.L128
 2246 1048 01A2     		adr	r2, .L130
 2247 104a 52F823F0 		ldr	pc, [r2, r3, lsl #2]
 2248 104e 00BF     		.p2align 2
 2249              	.L130:
 2250 1050 73100000 		.word	.L129+1
 2251 1054 7B110000 		.word	.L131+1
 2252 1058 73100000 		.word	.L129+1
 2253 105c A7110000 		.word	.L132+1
 2254 1060 D9120000 		.word	.L148+1
 2255              	.L121:
 914:build/openmote-cc2538_armgcc/openstack/02a-MAClow/IEEE802154E.c ****       // abort the slot
 2256              		.loc 1 914 0
 2257 1064 FFF7FEFF 		bl	openserial_stop
 916:build/openmote-cc2538_armgcc/openstack/02a-MAClow/IEEE802154E.c ****       //start outputing serial
 2258              		.loc 1 916 0
 2259 1068 FFF7FEFF 		bl	endSlot
 918:build/openmote-cc2538_armgcc/openstack/02a-MAClow/IEEE802154E.c ****       return;
 2260              		.loc 1 918 0
 2261 106c FFF7FEFF 		bl	openserial_startOutput
 919:build/openmote-cc2538_armgcc/openstack/02a-MAClow/IEEE802154E.c ****    }
 2262              		.loc 1 919 0
 2263 1070 33E1     		b	.L115
 2264              	.L129:
 925:build/openmote-cc2538_armgcc/openstack/02a-MAClow/IEEE802154E.c ****       case CELLTYPE_TXRX:
 926:build/openmote-cc2538_armgcc/openstack/02a-MAClow/IEEE802154E.c ****       case CELLTYPE_TX:
 927:build/openmote-cc2538_armgcc/openstack/02a-MAClow/IEEE802154E.c ****          // stop using serial
 928:build/openmote-cc2538_armgcc/openstack/02a-MAClow/IEEE802154E.c ****          openserial_stop();
 2265              		.loc 1 928 0
 2266 1072 FFF7FEFF 		bl	openserial_stop
 929:build/openmote-cc2538_armgcc/openstack/02a-MAClow/IEEE802154E.c ****          // assuming that there is nothing to send
 930:build/openmote-cc2538_armgcc/openstack/02a-MAClow/IEEE802154E.c ****          ieee154e_vars.dataToSend = NULL;
 2267              		.loc 1 930 0
 2268 1076 40F20003 		movw	r3, #:lower16:ieee154e_vars
 2269 107a C0F20003 		movt	r3, #:upper16:ieee154e_vars
 2270 107e 0022     		movs	r2, #0
 2271 1080 C3F82C21 		str	r2, [r3, #300]
 931:build/openmote-cc2538_armgcc/openstack/02a-MAClow/IEEE802154E.c ****          // check whether we can send
 932:build/openmote-cc2538_armgcc/openstack/02a-MAClow/IEEE802154E.c ****          if (schedule_getOkToSend()) {
 2272              		.loc 1 932 0
 2273 1084 FFF7FEFF 		bl	schedule_getOkToSend
 2274 1088 0346     		mov	r3, r0
 2275 108a 002B     		cmp	r3, #0
 2276 108c 26D0     		beq	.L134
 933:build/openmote-cc2538_armgcc/openstack/02a-MAClow/IEEE802154E.c ****             schedule_getNeighbor(&neighbor);
 2277              		.loc 1 933 0
 2278 108e 07F10803 		add	r3, r7, #8
 2279 1092 1846     		mov	r0, r3
 2280 1094 FFF7FEFF 		bl	schedule_getNeighbor
 934:build/openmote-cc2538_armgcc/openstack/02a-MAClow/IEEE802154E.c ****             ieee154e_vars.dataToSend = openqueue_macGetDataPacket(&neighbor);
 2281              		.loc 1 934 0
 2282 1098 07F10803 		add	r3, r7, #8
 2283 109c 1846     		mov	r0, r3
 2284 109e FFF7FEFF 		bl	openqueue_macGetDataPacket
 2285 10a2 0246     		mov	r2, r0
 2286 10a4 40F20003 		movw	r3, #:lower16:ieee154e_vars
 2287 10a8 C0F20003 		movt	r3, #:upper16:ieee154e_vars
 2288 10ac C3F82C21 		str	r2, [r3, #300]
 935:build/openmote-cc2538_armgcc/openstack/02a-MAClow/IEEE802154E.c ****             if ((ieee154e_vars.dataToSend==NULL) && (cellType==CELLTYPE_TXRX)) {
 2289              		.loc 1 935 0
 2290 10b0 40F20003 		movw	r3, #:lower16:ieee154e_vars
 2291 10b4 C0F20003 		movt	r3, #:upper16:ieee154e_vars
 2292 10b8 D3F82C31 		ldr	r3, [r3, #300]
 2293 10bc 002B     		cmp	r3, #0
 2294 10be 0DD1     		bne	.L134
 2295              		.loc 1 935 0 is_stmt 0 discriminator 1
 2296 10c0 3B7F     		ldrb	r3, [r7, #28]	@ zero_extendqisi2
 2297 10c2 032B     		cmp	r3, #3
 2298 10c4 0AD1     		bne	.L134
 936:build/openmote-cc2538_armgcc/openstack/02a-MAClow/IEEE802154E.c ****                couldSendEB=TRUE;
 2299              		.loc 1 936 0 is_stmt 1
 2300 10c6 0123     		movs	r3, #1
 2301 10c8 7B77     		strb	r3, [r7, #29]
 937:build/openmote-cc2538_armgcc/openstack/02a-MAClow/IEEE802154E.c ****                // look for an EB packet in the queue
 938:build/openmote-cc2538_armgcc/openstack/02a-MAClow/IEEE802154E.c ****                ieee154e_vars.dataToSend = openqueue_macGetEBPacket();
 2302              		.loc 1 938 0
 2303 10ca FFF7FEFF 		bl	openqueue_macGetEBPacket
 2304 10ce 0246     		mov	r2, r0
 2305 10d0 40F20003 		movw	r3, #:lower16:ieee154e_vars
 2306 10d4 C0F20003 		movt	r3, #:upper16:ieee154e_vars
 2307 10d8 C3F82C21 		str	r2, [r3, #300]
 2308              	.L134:
 939:build/openmote-cc2538_armgcc/openstack/02a-MAClow/IEEE802154E.c ****             }
 940:build/openmote-cc2538_armgcc/openstack/02a-MAClow/IEEE802154E.c ****          }
 941:build/openmote-cc2538_armgcc/openstack/02a-MAClow/IEEE802154E.c ****          if (ieee154e_vars.dataToSend==NULL) {
 2309              		.loc 1 941 0
 2310 10dc 40F20003 		movw	r3, #:lower16:ieee154e_vars
 2311 10e0 C0F20003 		movt	r3, #:upper16:ieee154e_vars
 2312 10e4 D3F82C31 		ldr	r3, [r3, #300]
 2313 10e8 002B     		cmp	r3, #0
 2314 10ea 08D1     		bne	.L135
 942:build/openmote-cc2538_armgcc/openstack/02a-MAClow/IEEE802154E.c ****             if (cellType==CELLTYPE_TX) {
 2315              		.loc 1 942 0
 2316 10ec 3B7F     		ldrb	r3, [r7, #28]	@ zero_extendqisi2
 2317 10ee 012B     		cmp	r3, #1
 2318 10f0 02D1     		bne	.L136
 943:build/openmote-cc2538_armgcc/openstack/02a-MAClow/IEEE802154E.c ****                // abort
 944:build/openmote-cc2538_armgcc/openstack/02a-MAClow/IEEE802154E.c ****                endSlot();
 2319              		.loc 1 944 0
 2320 10f2 FFF7FEFF 		bl	endSlot
 945:build/openmote-cc2538_armgcc/openstack/02a-MAClow/IEEE802154E.c ****                break;
 2321              		.loc 1 945 0
 2322 10f6 F0E0     		b	.L137
 2323              	.L136:
 946:build/openmote-cc2538_armgcc/openstack/02a-MAClow/IEEE802154E.c ****             } else {
 947:build/openmote-cc2538_armgcc/openstack/02a-MAClow/IEEE802154E.c ****                changeToRX=TRUE;
 2324              		.loc 1 947 0
 2325 10f8 0123     		movs	r3, #1
 2326 10fa BB77     		strb	r3, [r7, #30]
 2327 10fc 3DE0     		b	.L131
 2328              	.L135:
 948:build/openmote-cc2538_armgcc/openstack/02a-MAClow/IEEE802154E.c ****             }
 949:build/openmote-cc2538_armgcc/openstack/02a-MAClow/IEEE802154E.c ****          } else {
 950:build/openmote-cc2538_armgcc/openstack/02a-MAClow/IEEE802154E.c ****             // change state
 951:build/openmote-cc2538_armgcc/openstack/02a-MAClow/IEEE802154E.c ****             changeState(S_TXDATAOFFSET);
 2329              		.loc 1 951 0
 2330 10fe 0420     		movs	r0, #4
 2331 1100 FFF7FEFF 		bl	changeState
 952:build/openmote-cc2538_armgcc/openstack/02a-MAClow/IEEE802154E.c ****             // change owner
 953:build/openmote-cc2538_armgcc/openstack/02a-MAClow/IEEE802154E.c ****             ieee154e_vars.dataToSend->owner = COMPONENT_IEEE802154E;
 2332              		.loc 1 953 0
 2333 1104 40F20003 		movw	r3, #:lower16:ieee154e_vars
 2334 1108 C0F20003 		movt	r3, #:upper16:ieee154e_vars
 2335 110c D3F82C31 		ldr	r3, [r3, #300]
 2336 1110 0922     		movs	r2, #9
 2337 1112 5A70     		strb	r2, [r3, #1]
 954:build/openmote-cc2538_armgcc/openstack/02a-MAClow/IEEE802154E.c ****             if (couldSendEB==TRUE) {        // I will be sending an EB
 2338              		.loc 1 954 0
 2339 1114 7B7F     		ldrb	r3, [r7, #29]	@ zero_extendqisi2
 2340 1116 002B     		cmp	r3, #0
 2341 1118 18D0     		beq	.L138
 955:build/openmote-cc2538_armgcc/openstack/02a-MAClow/IEEE802154E.c ****                //copy synch IE  -- should be Little endian???
 956:build/openmote-cc2538_armgcc/openstack/02a-MAClow/IEEE802154E.c ****                // fill in the ASN field of the EB
 957:build/openmote-cc2538_armgcc/openstack/02a-MAClow/IEEE802154E.c ****                ieee154e_getAsn(sync_IE.asn);
 2342              		.loc 1 957 0
 2343 111a 3B46     		mov	r3, r7
 2344 111c 1846     		mov	r0, r3
 2345 111e FFF7FEFF 		bl	ieee154e_getAsn
 958:build/openmote-cc2538_armgcc/openstack/02a-MAClow/IEEE802154E.c ****                sync_IE.join_priority = (icmpv6rpl_getMyDAGrank()/MINHOPRANKINCREASE)-1; //poipoi --
 2346              		.loc 1 958 0
 2347 1122 FFF7FEFF 		bl	icmpv6rpl_getMyDAGrank
 2348 1126 0346     		mov	r3, r0
 2349 1128 1B0A     		lsrs	r3, r3, #8
 2350 112a 9BB2     		uxth	r3, r3
 2351 112c DBB2     		uxtb	r3, r3
 2352 112e 013B     		subs	r3, r3, #1
 2353 1130 DBB2     		uxtb	r3, r3
 2354 1132 7B71     		strb	r3, [r7, #5]
 959:build/openmote-cc2538_armgcc/openstack/02a-MAClow/IEEE802154E.c ****                memcpy(ieee154e_vars.dataToSend->l2_ASNpayload,&sync_IE,sizeof(sync_IE_ht));
 2355              		.loc 1 959 0
 2356 1134 40F20003 		movw	r3, #:lower16:ieee154e_vars
 2357 1138 C0F20003 		movt	r3, #:upper16:ieee154e_vars
 2358 113c D3F82C31 		ldr	r3, [r3, #300]
 2359 1140 1B6E     		ldr	r3, [r3, #96]
 2360 1142 3A46     		mov	r2, r7
 2361 1144 1068     		ldr	r0, [r2]	@ unaligned
 2362 1146 1860     		str	r0, [r3]	@ unaligned
 2363 1148 9288     		ldrh	r2, [r2, #4]	@ unaligned
 2364 114a 9A80     		strh	r2, [r3, #4]	@ unaligned
 2365              	.L138:
 960:build/openmote-cc2538_armgcc/openstack/02a-MAClow/IEEE802154E.c ****             }
 961:build/openmote-cc2538_armgcc/openstack/02a-MAClow/IEEE802154E.c ****             // record that I attempt to transmit this packet
 962:build/openmote-cc2538_armgcc/openstack/02a-MAClow/IEEE802154E.c ****             ieee154e_vars.dataToSend->l2_numTxAttempts++;
 2366              		.loc 1 962 0
 2367 114c 40F20003 		movw	r3, #:lower16:ieee154e_vars
 2368 1150 C0F20003 		movt	r3, #:upper16:ieee154e_vars
 2369 1154 D3F82C31 		ldr	r3, [r3, #300]
 2370 1158 93F84C20 		ldrb	r2, [r3, #76]	@ zero_extendqisi2
 2371 115c 0132     		adds	r2, r2, #1
 2372 115e D2B2     		uxtb	r2, r2
 2373 1160 83F84C20 		strb	r2, [r3, #76]
 963:build/openmote-cc2538_armgcc/openstack/02a-MAClow/IEEE802154E.c **** #ifdef SLOT_FSM_IMPLEMENTATION_MULTIPLE_TIMER_INTERRUPT
 964:build/openmote-cc2538_armgcc/openstack/02a-MAClow/IEEE802154E.c ****             // 1. schedule timer for loading packet
 965:build/openmote-cc2538_armgcc/openstack/02a-MAClow/IEEE802154E.c ****             radiotimer_schedule(ACTION_LOAD_PACKET,      DURATION_tt1);
 966:build/openmote-cc2538_armgcc/openstack/02a-MAClow/IEEE802154E.c ****             // prepare the packet for load packet action at DURATION_tt1
 967:build/openmote-cc2538_armgcc/openstack/02a-MAClow/IEEE802154E.c ****             // make a local copy of the frame
 968:build/openmote-cc2538_armgcc/openstack/02a-MAClow/IEEE802154E.c ****             packetfunctions_duplicatePacket(&ieee154e_vars.localCopyForTransmission, ieee154e_vars.
 969:build/openmote-cc2538_armgcc/openstack/02a-MAClow/IEEE802154E.c **** 
 970:build/openmote-cc2538_armgcc/openstack/02a-MAClow/IEEE802154E.c ****             // check if packet needs to be encrypted/authenticated before transmission 
 971:build/openmote-cc2538_armgcc/openstack/02a-MAClow/IEEE802154E.c ****             if (ieee154e_vars.localCopyForTransmission.l2_securityLevel != IEEE154_ASH_SLF_TYPE_NOS
 972:build/openmote-cc2538_armgcc/openstack/02a-MAClow/IEEE802154E.c ****                 // encrypt in a local copy
 973:build/openmote-cc2538_armgcc/openstack/02a-MAClow/IEEE802154E.c ****                 if (IEEE802154_SECURITY.outgoingFrame(&ieee154e_vars.localCopyForTransmission) != E
 974:build/openmote-cc2538_armgcc/openstack/02a-MAClow/IEEE802154E.c ****                     // keep the frame in the OpenQueue in order to retry later
 975:build/openmote-cc2538_armgcc/openstack/02a-MAClow/IEEE802154E.c ****                     endSlot(); // abort
 976:build/openmote-cc2538_armgcc/openstack/02a-MAClow/IEEE802154E.c ****                     return;
 977:build/openmote-cc2538_armgcc/openstack/02a-MAClow/IEEE802154E.c ****                 }
 978:build/openmote-cc2538_armgcc/openstack/02a-MAClow/IEEE802154E.c ****             }
 979:build/openmote-cc2538_armgcc/openstack/02a-MAClow/IEEE802154E.c ****             // add 2 CRC bytes only to the local copy as we end up here for each retransmission
 980:build/openmote-cc2538_armgcc/openstack/02a-MAClow/IEEE802154E.c ****             packetfunctions_reserveFooterSize(&ieee154e_vars.localCopyForTransmission, 2);
 981:build/openmote-cc2538_armgcc/openstack/02a-MAClow/IEEE802154E.c ****             // set the tx buffer address and length register.(packet is NOT loaded at this moment)
 982:build/openmote-cc2538_armgcc/openstack/02a-MAClow/IEEE802154E.c ****             radio_loadPacket_prepare(ieee154e_vars.localCopyForTransmission.payload,
 983:build/openmote-cc2538_armgcc/openstack/02a-MAClow/IEEE802154E.c ****                                      ieee154e_vars.localCopyForTransmission.length);
 984:build/openmote-cc2538_armgcc/openstack/02a-MAClow/IEEE802154E.c ****             // 2. schedule timer for sending packet
 985:build/openmote-cc2538_armgcc/openstack/02a-MAClow/IEEE802154E.c ****             radiotimer_schedule(ACTION_SEND_PACKET,  DURATION_tt2);
 986:build/openmote-cc2538_armgcc/openstack/02a-MAClow/IEEE802154E.c ****             // 3. schedule timer radio tx watchdog
 987:build/openmote-cc2538_armgcc/openstack/02a-MAClow/IEEE802154E.c ****             radiotimer_schedule(ACTION_NORMAL_TIMER, DURATION_tt3);
 988:build/openmote-cc2538_armgcc/openstack/02a-MAClow/IEEE802154E.c ****             // 4. set capture interrupt for Tx SFD senddone and packet senddone
 989:build/openmote-cc2538_armgcc/openstack/02a-MAClow/IEEE802154E.c ****             radiotimer_setCapture(ACTION_TX_SFD_DONE);
 990:build/openmote-cc2538_armgcc/openstack/02a-MAClow/IEEE802154E.c ****             radiotimer_setCapture(ACTION_TX_SEND_DONE);
 991:build/openmote-cc2538_armgcc/openstack/02a-MAClow/IEEE802154E.c **** #else
 992:build/openmote-cc2538_armgcc/openstack/02a-MAClow/IEEE802154E.c ****             // arm tt1
 993:build/openmote-cc2538_armgcc/openstack/02a-MAClow/IEEE802154E.c ****             radiotimer_schedule(DURATION_tt1);
 2374              		.loc 1 993 0
 2375 1164 40F20003 		movw	r3, #:lower16:ieee154e_vars
 2376 1168 C0F20003 		movt	r3, #:upper16:ieee154e_vars
 2377 116c D3F83C31 		ldr	r3, [r3, #316]
 2378 1170 3533     		adds	r3, r3, #53
 2379 1172 1846     		mov	r0, r3
 2380 1174 FFF7FEFF 		bl	radiotimer_schedule
 994:build/openmote-cc2538_armgcc/openstack/02a-MAClow/IEEE802154E.c **** #endif
 995:build/openmote-cc2538_armgcc/openstack/02a-MAClow/IEEE802154E.c ****             break;
 2381              		.loc 1 995 0
 2382 1178 AFE0     		b	.L137
 2383              	.L131:
 996:build/openmote-cc2538_armgcc/openstack/02a-MAClow/IEEE802154E.c ****          }
 997:build/openmote-cc2538_armgcc/openstack/02a-MAClow/IEEE802154E.c ****       case CELLTYPE_RX:
 998:build/openmote-cc2538_armgcc/openstack/02a-MAClow/IEEE802154E.c ****          if (changeToRX==FALSE) {
 2384              		.loc 1 998 0
 2385 117a BB7F     		ldrb	r3, [r7, #30]
 2386 117c 83F00103 		eor	r3, r3, #1
 2387 1180 DBB2     		uxtb	r3, r3
 2388 1182 002B     		cmp	r3, #0
 2389 1184 01D0     		beq	.L139
 999:build/openmote-cc2538_armgcc/openstack/02a-MAClow/IEEE802154E.c ****             // stop using serial
1000:build/openmote-cc2538_armgcc/openstack/02a-MAClow/IEEE802154E.c ****             openserial_stop();
 2390              		.loc 1 1000 0
 2391 1186 FFF7FEFF 		bl	openserial_stop
 2392              	.L139:
1001:build/openmote-cc2538_armgcc/openstack/02a-MAClow/IEEE802154E.c ****          }
1002:build/openmote-cc2538_armgcc/openstack/02a-MAClow/IEEE802154E.c ****          // change state
1003:build/openmote-cc2538_armgcc/openstack/02a-MAClow/IEEE802154E.c ****          changeState(S_RXDATAOFFSET);
 2393              		.loc 1 1003 0
 2394 118a 0F20     		movs	r0, #15
 2395 118c FFF7FEFF 		bl	changeState
1004:build/openmote-cc2538_armgcc/openstack/02a-MAClow/IEEE802154E.c **** #ifdef SLOT_FSM_IMPLEMENTATION_MULTIPLE_TIMER_INTERRUPT
1005:build/openmote-cc2538_armgcc/openstack/02a-MAClow/IEEE802154E.c ****          // arm rt1
1006:build/openmote-cc2538_armgcc/openstack/02a-MAClow/IEEE802154E.c ****          radiotimer_schedule(ACTION_RADIORX_ENABLE,DURATION_rt1);
1007:build/openmote-cc2538_armgcc/openstack/02a-MAClow/IEEE802154E.c ****          radio_rxPacket_prepare();
1008:build/openmote-cc2538_armgcc/openstack/02a-MAClow/IEEE802154E.c ****          // 2. schedule timer for starting 
1009:build/openmote-cc2538_armgcc/openstack/02a-MAClow/IEEE802154E.c ****          radiotimer_schedule(ACTION_NORMAL_TIMER,DURATION_rt2);
1010:build/openmote-cc2538_armgcc/openstack/02a-MAClow/IEEE802154E.c ****          // 3.  set capture interrupt for Rx SFD done and receiving packet done
1011:build/openmote-cc2538_armgcc/openstack/02a-MAClow/IEEE802154E.c ****          radiotimer_setCapture(ACTION_RX_SFD_DONE);
1012:build/openmote-cc2538_armgcc/openstack/02a-MAClow/IEEE802154E.c ****          radiotimer_setCapture(ACTION_RX_DONE);
1013:build/openmote-cc2538_armgcc/openstack/02a-MAClow/IEEE802154E.c **** #else
1014:build/openmote-cc2538_armgcc/openstack/02a-MAClow/IEEE802154E.c ****          // arm rt1
1015:build/openmote-cc2538_armgcc/openstack/02a-MAClow/IEEE802154E.c ****          radiotimer_schedule(DURATION_rt1);
 2396              		.loc 1 1015 0
 2397 1190 40F20003 		movw	r3, #:lower16:ieee154e_vars
 2398 1194 C0F20003 		movt	r3, #:upper16:ieee154e_vars
 2399 1198 D3F83C31 		ldr	r3, [r3, #316]
 2400 119c 3733     		adds	r3, r3, #55
 2401 119e 1846     		mov	r0, r3
 2402 11a0 FFF7FEFF 		bl	radiotimer_schedule
1016:build/openmote-cc2538_armgcc/openstack/02a-MAClow/IEEE802154E.c **** #endif
1017:build/openmote-cc2538_armgcc/openstack/02a-MAClow/IEEE802154E.c ****          break;
 2403              		.loc 1 1017 0
 2404 11a4 99E0     		b	.L137
 2405              	.L132:
1018:build/openmote-cc2538_armgcc/openstack/02a-MAClow/IEEE802154E.c ****       case CELLTYPE_SERIALRX:
1019:build/openmote-cc2538_armgcc/openstack/02a-MAClow/IEEE802154E.c ****          // stop using serial
1020:build/openmote-cc2538_armgcc/openstack/02a-MAClow/IEEE802154E.c ****          openserial_stop();
 2406              		.loc 1 1020 0
 2407 11a6 FFF7FEFF 		bl	openserial_stop
1021:build/openmote-cc2538_armgcc/openstack/02a-MAClow/IEEE802154E.c ****          // abort the slot
1022:build/openmote-cc2538_armgcc/openstack/02a-MAClow/IEEE802154E.c ****          endSlot();
 2408              		.loc 1 1022 0
 2409 11aa FFF7FEFF 		bl	endSlot
1023:build/openmote-cc2538_armgcc/openstack/02a-MAClow/IEEE802154E.c ****          //start inputting serial data
1024:build/openmote-cc2538_armgcc/openstack/02a-MAClow/IEEE802154E.c ****          openserial_startInput();
 2410              		.loc 1 1024 0
 2411 11ae FFF7FEFF 		bl	openserial_startInput
1025:build/openmote-cc2538_armgcc/openstack/02a-MAClow/IEEE802154E.c ****          //this is to emulate a set of serial input slots without having the slotted structure.
1026:build/openmote-cc2538_armgcc/openstack/02a-MAClow/IEEE802154E.c **** 
1027:build/openmote-cc2538_armgcc/openstack/02a-MAClow/IEEE802154E.c ****          //skip the serial rx slots
1028:build/openmote-cc2538_armgcc/openstack/02a-MAClow/IEEE802154E.c ****          ieee154e_vars.numOfSleepSlots = NUMSERIALRX;
 2412              		.loc 1 1028 0
 2413 11b2 40F20003 		movw	r3, #:lower16:ieee154e_vars
 2414 11b6 C0F20003 		movt	r3, #:upper16:ieee154e_vars
 2415 11ba 0322     		movs	r2, #3
 2416 11bc C3F82421 		str	r2, [r3, #292]
1029:build/openmote-cc2538_armgcc/openstack/02a-MAClow/IEEE802154E.c ****          
1030:build/openmote-cc2538_armgcc/openstack/02a-MAClow/IEEE802154E.c ****          //increase ASN by NUMSERIALRX-1 slots as at this slot is already incremented by 1
1031:build/openmote-cc2538_armgcc/openstack/02a-MAClow/IEEE802154E.c ****          for (i=0;i<NUMSERIALRX-1;i++){
 2417              		.loc 1 1031 0
 2418 11c0 0023     		movs	r3, #0
 2419 11c2 FB77     		strb	r3, [r7, #31]
 2420 11c4 0FE0     		b	.L140
 2421              	.L141:
1032:build/openmote-cc2538_armgcc/openstack/02a-MAClow/IEEE802154E.c ****             incrementAsnOffset();
 2422              		.loc 1 1032 0 discriminator 2
 2423 11c6 FFF7FEFF 		bl	incrementAsnOffset
1033:build/openmote-cc2538_armgcc/openstack/02a-MAClow/IEEE802154E.c ****             // advance the schedule
1034:build/openmote-cc2538_armgcc/openstack/02a-MAClow/IEEE802154E.c ****             schedule_advanceSlot();
 2424              		.loc 1 1034 0 discriminator 2
 2425 11ca FFF7FEFF 		bl	schedule_advanceSlot
1035:build/openmote-cc2538_armgcc/openstack/02a-MAClow/IEEE802154E.c ****             // find the next one
1036:build/openmote-cc2538_armgcc/openstack/02a-MAClow/IEEE802154E.c ****             ieee154e_vars.nextActiveSlotOffset = schedule_getNextActiveSlotOffset();
 2426              		.loc 1 1036 0 discriminator 2
 2427 11ce FFF7FEFF 		bl	schedule_getNextActiveSlotOffset
 2428 11d2 0346     		mov	r3, r0
 2429 11d4 1A46     		mov	r2, r3
 2430 11d6 40F20003 		movw	r3, #:lower16:ieee154e_vars
 2431 11da C0F20003 		movt	r3, #:upper16:ieee154e_vars
 2432 11de 1A81     		strh	r2, [r3, #8]	@ movhi
1031:build/openmote-cc2538_armgcc/openstack/02a-MAClow/IEEE802154E.c ****             incrementAsnOffset();
 2433              		.loc 1 1031 0 discriminator 2
 2434 11e0 FB7F     		ldrb	r3, [r7, #31]	@ zero_extendqisi2
 2435 11e2 0133     		adds	r3, r3, #1
 2436 11e4 FB77     		strb	r3, [r7, #31]
 2437              	.L140:
1031:build/openmote-cc2538_armgcc/openstack/02a-MAClow/IEEE802154E.c ****             incrementAsnOffset();
 2438              		.loc 1 1031 0 is_stmt 0 discriminator 1
 2439 11e6 FB7F     		ldrb	r3, [r7, #31]	@ zero_extendqisi2
 2440 11e8 012B     		cmp	r3, #1
 2441 11ea ECD9     		bls	.L141
1037:build/openmote-cc2538_armgcc/openstack/02a-MAClow/IEEE802154E.c ****          }
1038:build/openmote-cc2538_armgcc/openstack/02a-MAClow/IEEE802154E.c ****          // possibly skip additional slots if enabled
1039:build/openmote-cc2538_armgcc/openstack/02a-MAClow/IEEE802154E.c ****          if (idmanager_getIsSlotSkip() && idmanager_getIsDAGroot()==FALSE) {
 2442              		.loc 1 1039 0 is_stmt 1
 2443 11ec FFF7FEFF 		bl	idmanager_getIsSlotSkip
 2444 11f0 0346     		mov	r3, r0
 2445 11f2 002B     		cmp	r3, #0
 2446 11f4 52D0     		beq	.L142
 2447              		.loc 1 1039 0 is_stmt 0 discriminator 1
 2448 11f6 FFF7FEFF 		bl	idmanager_getIsDAGroot
 2449 11fa 0346     		mov	r3, r0
 2450 11fc 83F00103 		eor	r3, r3, #1
 2451 1200 DBB2     		uxtb	r3, r3
 2452 1202 002B     		cmp	r3, #0
 2453 1204 4AD0     		beq	.L142
1040:build/openmote-cc2538_armgcc/openstack/02a-MAClow/IEEE802154E.c ****              if (ieee154e_vars.nextActiveSlotOffset>ieee154e_vars.slotOffset) {
 2454              		.loc 1 1040 0 is_stmt 1
 2455 1206 40F20003 		movw	r3, #:lower16:ieee154e_vars
 2456 120a C0F20003 		movt	r3, #:upper16:ieee154e_vars
 2457 120e 1A89     		ldrh	r2, [r3, #8]
 2458 1210 40F20003 		movw	r3, #:lower16:ieee154e_vars
 2459 1214 C0F20003 		movt	r3, #:upper16:ieee154e_vars
 2460 1218 DB88     		ldrh	r3, [r3, #6]
 2461 121a 9A42     		cmp	r2, r3
 2462 121c 14D9     		bls	.L143
1041:build/openmote-cc2538_armgcc/openstack/02a-MAClow/IEEE802154E.c ****                  ieee154e_vars.numOfSleepSlots = ieee154e_vars.nextActiveSlotOffset-ieee154e_vars.s
 2463              		.loc 1 1041 0
 2464 121e 40F20003 		movw	r3, #:lower16:ieee154e_vars
 2465 1222 C0F20003 		movt	r3, #:upper16:ieee154e_vars
 2466 1226 1B89     		ldrh	r3, [r3, #8]
 2467 1228 1A46     		mov	r2, r3
 2468 122a 40F20003 		movw	r3, #:lower16:ieee154e_vars
 2469 122e C0F20003 		movt	r3, #:upper16:ieee154e_vars
 2470 1232 DB88     		ldrh	r3, [r3, #6]
 2471 1234 D31A     		subs	r3, r2, r3
 2472 1236 0233     		adds	r3, r3, #2
 2473 1238 1A46     		mov	r2, r3
 2474 123a 40F20003 		movw	r3, #:lower16:ieee154e_vars
 2475 123e C0F20003 		movt	r3, #:upper16:ieee154e_vars
 2476 1242 C3F82421 		str	r2, [r3, #292]
 2477 1246 17E0     		b	.L144
 2478              	.L143:
1042:build/openmote-cc2538_armgcc/openstack/02a-MAClow/IEEE802154E.c ****              } else {
1043:build/openmote-cc2538_armgcc/openstack/02a-MAClow/IEEE802154E.c ****                  ieee154e_vars.numOfSleepSlots = schedule_getFrameLength()+ieee154e_vars.nextActive
 2479              		.loc 1 1043 0
 2480 1248 FFF7FEFF 		bl	schedule_getFrameLength
 2481 124c 0346     		mov	r3, r0
 2482 124e 1A46     		mov	r2, r3
 2483 1250 40F20003 		movw	r3, #:lower16:ieee154e_vars
 2484 1254 C0F20003 		movt	r3, #:upper16:ieee154e_vars
 2485 1258 1B89     		ldrh	r3, [r3, #8]
 2486 125a 1A44     		add	r2, r2, r3
 2487 125c 40F20003 		movw	r3, #:lower16:ieee154e_vars
 2488 1260 C0F20003 		movt	r3, #:upper16:ieee154e_vars
 2489 1264 DB88     		ldrh	r3, [r3, #6]
 2490 1266 D31A     		subs	r3, r2, r3
 2491 1268 0233     		adds	r3, r3, #2
 2492 126a 1A46     		mov	r2, r3
 2493 126c 40F20003 		movw	r3, #:lower16:ieee154e_vars
 2494 1270 C0F20003 		movt	r3, #:upper16:ieee154e_vars
 2495 1274 C3F82421 		str	r2, [r3, #292]
 2496              	.L144:
1044:build/openmote-cc2538_armgcc/openstack/02a-MAClow/IEEE802154E.c ****              }
1045:build/openmote-cc2538_armgcc/openstack/02a-MAClow/IEEE802154E.c ****               
1046:build/openmote-cc2538_armgcc/openstack/02a-MAClow/IEEE802154E.c ****              //only increase ASN by numOfSleepSlots-NUMSERIALRX
1047:build/openmote-cc2538_armgcc/openstack/02a-MAClow/IEEE802154E.c ****              for (i=0;i<ieee154e_vars.numOfSleepSlots-NUMSERIALRX;i++){
 2497              		.loc 1 1047 0
 2498 1278 0023     		movs	r3, #0
 2499 127a FB77     		strb	r3, [r7, #31]
 2500 127c 04E0     		b	.L145
 2501              	.L146:
1048:build/openmote-cc2538_armgcc/openstack/02a-MAClow/IEEE802154E.c ****                 incrementAsnOffset();
 2502              		.loc 1 1048 0 discriminator 2
 2503 127e FFF7FEFF 		bl	incrementAsnOffset
1047:build/openmote-cc2538_armgcc/openstack/02a-MAClow/IEEE802154E.c ****                 incrementAsnOffset();
 2504              		.loc 1 1047 0 discriminator 2
 2505 1282 FB7F     		ldrb	r3, [r7, #31]	@ zero_extendqisi2
 2506 1284 0133     		adds	r3, r3, #1
 2507 1286 FB77     		strb	r3, [r7, #31]
 2508              	.L145:
1047:build/openmote-cc2538_armgcc/openstack/02a-MAClow/IEEE802154E.c ****                 incrementAsnOffset();
 2509              		.loc 1 1047 0 is_stmt 0 discriminator 1
 2510 1288 FA7F     		ldrb	r2, [r7, #31]	@ zero_extendqisi2
 2511 128a 40F20003 		movw	r3, #:lower16:ieee154e_vars
 2512 128e C0F20003 		movt	r3, #:upper16:ieee154e_vars
 2513 1292 D3F82431 		ldr	r3, [r3, #292]
 2514 1296 033B     		subs	r3, r3, #3
 2515 1298 9A42     		cmp	r2, r3
 2516 129a F0D3     		bcc	.L146
 2517              	.L142:
1049:build/openmote-cc2538_armgcc/openstack/02a-MAClow/IEEE802154E.c ****              }
1050:build/openmote-cc2538_armgcc/openstack/02a-MAClow/IEEE802154E.c ****          }
1051:build/openmote-cc2538_armgcc/openstack/02a-MAClow/IEEE802154E.c ****          // set the timer based on calcualted number of slots to skip
1052:build/openmote-cc2538_armgcc/openstack/02a-MAClow/IEEE802154E.c ****          radio_setTimerPeriod(TsSlotDuration*(ieee154e_vars.numOfSleepSlots));
 2518              		.loc 1 1052 0 is_stmt 1
 2519 129c 40F20003 		movw	r3, #:lower16:ieee154e_vars
 2520 12a0 C0F20003 		movt	r3, #:upper16:ieee154e_vars
 2521 12a4 D3F82431 		ldr	r3, [r3, #292]
 2522 12a8 4FF4F672 		mov	r2, #492
 2523 12ac 02FB03F3 		mul	r3, r2, r3
 2524 12b0 1846     		mov	r0, r3
 2525 12b2 FFF7FEFF 		bl	radio_setTimerPeriod
1053:build/openmote-cc2538_armgcc/openstack/02a-MAClow/IEEE802154E.c ****          
1054:build/openmote-cc2538_armgcc/openstack/02a-MAClow/IEEE802154E.c **** #ifdef ADAPTIVE_SYNC
1055:build/openmote-cc2538_armgcc/openstack/02a-MAClow/IEEE802154E.c ****          // deal with the case when schedule multi slots
1056:build/openmote-cc2538_armgcc/openstack/02a-MAClow/IEEE802154E.c ****          adaptive_sync_countCompensationTimeout_compoundSlots(NUMSERIALRX-1);
1057:build/openmote-cc2538_armgcc/openstack/02a-MAClow/IEEE802154E.c **** #endif
1058:build/openmote-cc2538_armgcc/openstack/02a-MAClow/IEEE802154E.c ****          break;
 2526              		.loc 1 1058 0
 2527 12b6 10E0     		b	.L137
 2528              	.L128:
1059:build/openmote-cc2538_armgcc/openstack/02a-MAClow/IEEE802154E.c ****       case CELLTYPE_MORESERIALRX:
1060:build/openmote-cc2538_armgcc/openstack/02a-MAClow/IEEE802154E.c ****          // do nothing (not even endSlot())
1061:build/openmote-cc2538_armgcc/openstack/02a-MAClow/IEEE802154E.c ****          break;
1062:build/openmote-cc2538_armgcc/openstack/02a-MAClow/IEEE802154E.c ****       default:
1063:build/openmote-cc2538_armgcc/openstack/02a-MAClow/IEEE802154E.c ****          // stop using serial
1064:build/openmote-cc2538_armgcc/openstack/02a-MAClow/IEEE802154E.c ****          openserial_stop();
 2529              		.loc 1 1064 0
 2530 12b8 FFF7FEFF 		bl	openserial_stop
1065:build/openmote-cc2538_armgcc/openstack/02a-MAClow/IEEE802154E.c ****          // log the error
1066:build/openmote-cc2538_armgcc/openstack/02a-MAClow/IEEE802154E.c ****          openserial_printCritical(COMPONENT_IEEE802154E,ERR_WRONG_CELLTYPE,
 2531              		.loc 1 1066 0
 2532 12bc 3B7F     		ldrb	r3, [r7, #28]	@ zero_extendqisi2
 2533 12be 9AB2     		uxth	r2, r3
 2534 12c0 40F20003 		movw	r3, #:lower16:ieee154e_vars
 2535 12c4 C0F20003 		movt	r3, #:upper16:ieee154e_vars
 2536 12c8 DB88     		ldrh	r3, [r3, #6]
 2537 12ca 0920     		movs	r0, #9
 2538 12cc 1821     		movs	r1, #24
 2539 12ce FFF7FEFF 		bl	openserial_printCritical
1067:build/openmote-cc2538_armgcc/openstack/02a-MAClow/IEEE802154E.c ****                                (errorparameter_t)cellType,
1068:build/openmote-cc2538_armgcc/openstack/02a-MAClow/IEEE802154E.c ****                                (errorparameter_t)ieee154e_vars.slotOffset);
1069:build/openmote-cc2538_armgcc/openstack/02a-MAClow/IEEE802154E.c ****          // abort
1070:build/openmote-cc2538_armgcc/openstack/02a-MAClow/IEEE802154E.c ****          endSlot();
 2540              		.loc 1 1070 0
 2541 12d2 FFF7FEFF 		bl	endSlot
1071:build/openmote-cc2538_armgcc/openstack/02a-MAClow/IEEE802154E.c ****          break;
 2542              		.loc 1 1071 0
 2543 12d6 00E0     		b	.L137
 2544              	.L148:
1061:build/openmote-cc2538_armgcc/openstack/02a-MAClow/IEEE802154E.c ****       default:
 2545              		.loc 1 1061 0
 2546 12d8 00BF     		nop
 2547              	.L137:
 2548              	.L115:
1072:build/openmote-cc2538_armgcc/openstack/02a-MAClow/IEEE802154E.c ****    }
1073:build/openmote-cc2538_armgcc/openstack/02a-MAClow/IEEE802154E.c **** }
 2549              		.loc 1 1073 0
 2550 12da 2037     		adds	r7, r7, #32
 2551 12dc BD46     		mov	sp, r7
 2552              		@ sp needed
 2553 12de 80BD     		pop	{r7, pc}
 2554              		.cfi_endproc
 2555              	.LFE13:
 2557              		.align	2
 2558              		.global	activity_ti2
 2559              		.thumb
 2560              		.thumb_func
 2562              	activity_ti2:
 2563              	.LFB14:
1074:build/openmote-cc2538_armgcc/openstack/02a-MAClow/IEEE802154E.c **** 
1075:build/openmote-cc2538_armgcc/openstack/02a-MAClow/IEEE802154E.c **** port_INLINE void activity_ti2() {
 2564              		.loc 1 1075 0
 2565              		.cfi_startproc
 2566              		@ args = 0, pretend = 0, frame = 0
 2567              		@ frame_needed = 1, uses_anonymous_args = 0
 2568 12e0 80B5     		push	{r7, lr}
 2569              		.cfi_def_cfa_offset 8
 2570              		.cfi_offset 7, -8
 2571              		.cfi_offset 14, -4
 2572 12e2 00AF     		add	r7, sp, #0
 2573              		.cfi_def_cfa_register 7
1076:build/openmote-cc2538_armgcc/openstack/02a-MAClow/IEEE802154E.c ****    
1077:build/openmote-cc2538_armgcc/openstack/02a-MAClow/IEEE802154E.c ****     // change state
1078:build/openmote-cc2538_armgcc/openstack/02a-MAClow/IEEE802154E.c ****     changeState(S_TXDATAPREPARE);
 2574              		.loc 1 1078 0
 2575 12e4 0520     		movs	r0, #5
 2576 12e6 FFF7FEFF 		bl	changeState
1079:build/openmote-cc2538_armgcc/openstack/02a-MAClow/IEEE802154E.c ****     
1080:build/openmote-cc2538_armgcc/openstack/02a-MAClow/IEEE802154E.c **** #ifdef SLOT_FSM_IMPLEMENTATION_MULTIPLE_TIMER_INTERRUPT
1081:build/openmote-cc2538_armgcc/openstack/02a-MAClow/IEEE802154E.c **** #else
1082:build/openmote-cc2538_armgcc/openstack/02a-MAClow/IEEE802154E.c ****     // arm tt2
1083:build/openmote-cc2538_armgcc/openstack/02a-MAClow/IEEE802154E.c ****     radiotimer_schedule(DURATION_tt2);
 2577              		.loc 1 1083 0
 2578 12ea 40F20003 		movw	r3, #:lower16:ieee154e_vars
 2579 12ee C0F20003 		movt	r3, #:upper16:ieee154e_vars
 2580 12f2 D3F83C31 		ldr	r3, [r3, #316]
 2581 12f6 7733     		adds	r3, r3, #119
 2582 12f8 1846     		mov	r0, r3
 2583 12fa FFF7FEFF 		bl	radiotimer_schedule
1084:build/openmote-cc2538_armgcc/openstack/02a-MAClow/IEEE802154E.c **** 
1085:build/openmote-cc2538_armgcc/openstack/02a-MAClow/IEEE802154E.c ****     // make a local copy of the frame
1086:build/openmote-cc2538_armgcc/openstack/02a-MAClow/IEEE802154E.c ****     packetfunctions_duplicatePacket(&ieee154e_vars.localCopyForTransmission, ieee154e_vars.dataToSe
 2584              		.loc 1 1086 0
 2585 12fe 40F20003 		movw	r3, #:lower16:ieee154e_vars
 2586 1302 C0F20003 		movt	r3, #:upper16:ieee154e_vars
 2587 1306 D3F82C31 		ldr	r3, [r3, #300]
 2588 130a 2548     		ldr	r0, .L152
 2589 130c 1946     		mov	r1, r3
 2590 130e FFF7FEFF 		bl	packetfunctions_duplicatePacket
1087:build/openmote-cc2538_armgcc/openstack/02a-MAClow/IEEE802154E.c **** 
1088:build/openmote-cc2538_armgcc/openstack/02a-MAClow/IEEE802154E.c ****     // check if packet needs to be encrypted/authenticated before transmission 
1089:build/openmote-cc2538_armgcc/openstack/02a-MAClow/IEEE802154E.c ****     if (ieee154e_vars.localCopyForTransmission.l2_securityLevel != IEEE154_ASH_SLF_TYPE_NOSEC) { //
 2591              		.loc 1 1089 0
 2592 1312 40F20003 		movw	r3, #:lower16:ieee154e_vars
 2593 1316 C0F20003 		movt	r3, #:upper16:ieee154e_vars
 2594 131a 93F88030 		ldrb	r3, [r3, #128]	@ zero_extendqisi2
 2595 131e 002B     		cmp	r3, #0
 2596 1320 0CD0     		beq	.L150
1090:build/openmote-cc2538_armgcc/openstack/02a-MAClow/IEEE802154E.c ****         // encrypt in a local copy
1091:build/openmote-cc2538_armgcc/openstack/02a-MAClow/IEEE802154E.c ****         if (IEEE802154_SECURITY.outgoingFrame(&ieee154e_vars.localCopyForTransmission) != E_SUCCESS
 2597              		.loc 1 1091 0
 2598 1322 40F20003 		movw	r3, #:lower16:IEEE802154_dummy_security
 2599 1326 C0F20003 		movt	r3, #:upper16:IEEE802154_dummy_security
 2600 132a DB68     		ldr	r3, [r3, #12]
 2601 132c 1C48     		ldr	r0, .L152
 2602 132e 9847     		blx	r3
 2603 1330 0346     		mov	r3, r0
 2604 1332 002B     		cmp	r3, #0
 2605 1334 02D0     		beq	.L150
1092:build/openmote-cc2538_armgcc/openstack/02a-MAClow/IEEE802154E.c ****             // keep the frame in the OpenQueue in order to retry later
1093:build/openmote-cc2538_armgcc/openstack/02a-MAClow/IEEE802154E.c ****             endSlot(); // abort
 2606              		.loc 1 1093 0
 2607 1336 FFF7FEFF 		bl	endSlot
1094:build/openmote-cc2538_armgcc/openstack/02a-MAClow/IEEE802154E.c ****             return;
 2608              		.loc 1 1094 0
 2609 133a 2FE0     		b	.L149
 2610              	.L150:
1095:build/openmote-cc2538_armgcc/openstack/02a-MAClow/IEEE802154E.c ****         }
1096:build/openmote-cc2538_armgcc/openstack/02a-MAClow/IEEE802154E.c ****     }
1097:build/openmote-cc2538_armgcc/openstack/02a-MAClow/IEEE802154E.c ****    
1098:build/openmote-cc2538_armgcc/openstack/02a-MAClow/IEEE802154E.c ****     // add 2 CRC bytes only to the local copy as we end up here for each retransmission
1099:build/openmote-cc2538_armgcc/openstack/02a-MAClow/IEEE802154E.c ****     packetfunctions_reserveFooterSize(&ieee154e_vars.localCopyForTransmission, 2);
 2611              		.loc 1 1099 0
 2612 133c 1848     		ldr	r0, .L152
 2613 133e 0221     		movs	r1, #2
 2614 1340 FFF7FEFF 		bl	packetfunctions_reserveFooterSize
1100:build/openmote-cc2538_armgcc/openstack/02a-MAClow/IEEE802154E.c **** #endif
1101:build/openmote-cc2538_armgcc/openstack/02a-MAClow/IEEE802154E.c ****    
1102:build/openmote-cc2538_armgcc/openstack/02a-MAClow/IEEE802154E.c ****     // configure the radio for that frequency
1103:build/openmote-cc2538_armgcc/openstack/02a-MAClow/IEEE802154E.c ****     radio_setFrequency(ieee154e_vars.freq);
 2615              		.loc 1 1103 0
 2616 1344 40F20003 		movw	r3, #:lower16:ieee154e_vars
 2617 1348 C0F20003 		movt	r3, #:upper16:ieee154e_vars
 2618 134c 93F84431 		ldrb	r3, [r3, #324]	@ zero_extendqisi2
 2619 1350 1846     		mov	r0, r3
 2620 1352 FFF7FEFF 		bl	radio_setFrequency
1104:build/openmote-cc2538_armgcc/openstack/02a-MAClow/IEEE802154E.c **** 
1105:build/openmote-cc2538_armgcc/openstack/02a-MAClow/IEEE802154E.c ****     // load the packet in the radio's Tx buffer
1106:build/openmote-cc2538_armgcc/openstack/02a-MAClow/IEEE802154E.c ****     radio_loadPacket(ieee154e_vars.localCopyForTransmission.payload,
 2621              		.loc 1 1106 0
 2622 1356 40F20003 		movw	r3, #:lower16:ieee154e_vars
 2623 135a C0F20003 		movt	r3, #:upper16:ieee154e_vars
 2624 135e 9A69     		ldr	r2, [r3, #24]
1107:build/openmote-cc2538_armgcc/openstack/02a-MAClow/IEEE802154E.c ****                      ieee154e_vars.localCopyForTransmission.length);
 2625              		.loc 1 1107 0
 2626 1360 40F20003 		movw	r3, #:lower16:ieee154e_vars
 2627 1364 C0F20003 		movt	r3, #:upper16:ieee154e_vars
 2628 1368 1B7F     		ldrb	r3, [r3, #28]	@ zero_extendqisi2
1106:build/openmote-cc2538_armgcc/openstack/02a-MAClow/IEEE802154E.c ****                      ieee154e_vars.localCopyForTransmission.length);
 2629              		.loc 1 1106 0
 2630 136a 1046     		mov	r0, r2
 2631 136c 1946     		mov	r1, r3
 2632 136e FFF7FEFF 		bl	radio_loadPacket
1108:build/openmote-cc2538_armgcc/openstack/02a-MAClow/IEEE802154E.c ****     // enable the radio in Tx mode. This does not send the packet.
1109:build/openmote-cc2538_armgcc/openstack/02a-MAClow/IEEE802154E.c ****     radio_txEnable();
 2633              		.loc 1 1109 0
 2634 1372 FFF7FEFF 		bl	radio_txEnable
1110:build/openmote-cc2538_armgcc/openstack/02a-MAClow/IEEE802154E.c **** 
1111:build/openmote-cc2538_armgcc/openstack/02a-MAClow/IEEE802154E.c ****     ieee154e_vars.radioOnInit=radio_getTimerValue();
 2635              		.loc 1 1111 0
 2636 1376 FFF7FEFF 		bl	radio_getTimerValue
 2637 137a 0246     		mov	r2, r0
 2638 137c 40F20003 		movw	r3, #:lower16:ieee154e_vars
 2639 1380 C0F20003 		movt	r3, #:upper16:ieee154e_vars
 2640 1384 C3F85C21 		str	r2, [r3, #348]
1112:build/openmote-cc2538_armgcc/openstack/02a-MAClow/IEEE802154E.c ****     ieee154e_vars.radioOnThisSlot=TRUE;
 2641              		.loc 1 1112 0
 2642 1388 40F20003 		movw	r3, #:lower16:ieee154e_vars
 2643 138c C0F20003 		movt	r3, #:upper16:ieee154e_vars
 2644 1390 0122     		movs	r2, #1
 2645 1392 83F86421 		strb	r2, [r3, #356]
1113:build/openmote-cc2538_armgcc/openstack/02a-MAClow/IEEE802154E.c ****     // change state
1114:build/openmote-cc2538_armgcc/openstack/02a-MAClow/IEEE802154E.c ****     changeState(S_TXDATAREADY);
 2646              		.loc 1 1114 0
 2647 1396 0620     		movs	r0, #6
 2648 1398 FFF7FEFF 		bl	changeState
 2649              	.L149:
1115:build/openmote-cc2538_armgcc/openstack/02a-MAClow/IEEE802154E.c **** #ifdef SLOT_FSM_IMPLEMENTATION_MULTIPLE_TIMER_INTERRUPT
1116:build/openmote-cc2538_armgcc/openstack/02a-MAClow/IEEE802154E.c ****     // update state in advance
1117:build/openmote-cc2538_armgcc/openstack/02a-MAClow/IEEE802154E.c ****     changeState(S_TXDATADELAY);
1118:build/openmote-cc2538_armgcc/openstack/02a-MAClow/IEEE802154E.c **** #endif
1119:build/openmote-cc2538_armgcc/openstack/02a-MAClow/IEEE802154E.c **** }
 2650              		.loc 1 1119 0
 2651 139c 80BD     		pop	{r7, pc}
 2652              	.L153:
 2653 139e 00BF     		.align	2
 2654              	.L152:
 2655 13a0 14000000 		.word	ieee154e_vars+20
 2656              		.cfi_endproc
 2657              	.LFE14:
 2659              		.align	2
 2660              		.global	activity_tie1
 2661              		.thumb
 2662              		.thumb_func
 2664              	activity_tie1:
 2665              	.LFB15:
1120:build/openmote-cc2538_armgcc/openstack/02a-MAClow/IEEE802154E.c **** 
1121:build/openmote-cc2538_armgcc/openstack/02a-MAClow/IEEE802154E.c **** port_INLINE void activity_tie1() {
 2666              		.loc 1 1121 0
 2667              		.cfi_startproc
 2668              		@ args = 0, pretend = 0, frame = 0
 2669              		@ frame_needed = 1, uses_anonymous_args = 0
 2670 13a4 80B5     		push	{r7, lr}
 2671              		.cfi_def_cfa_offset 8
 2672              		.cfi_offset 7, -8
 2673              		.cfi_offset 14, -4
 2674 13a6 00AF     		add	r7, sp, #0
 2675              		.cfi_def_cfa_register 7
1122:build/openmote-cc2538_armgcc/openstack/02a-MAClow/IEEE802154E.c ****    // log the error
1123:build/openmote-cc2538_armgcc/openstack/02a-MAClow/IEEE802154E.c ****    openserial_printError(COMPONENT_IEEE802154E,ERR_MAXTXDATAPREPARE_OVERFLOW,
1124:build/openmote-cc2538_armgcc/openstack/02a-MAClow/IEEE802154E.c ****                          (errorparameter_t)ieee154e_vars.state,
 2676              		.loc 1 1124 0
 2677 13a8 40F20003 		movw	r3, #:lower16:ieee154e_vars
 2678 13ac C0F20003 		movt	r3, #:upper16:ieee154e_vars
 2679 13b0 93F82831 		ldrb	r3, [r3, #296]	@ zero_extendqisi2
1123:build/openmote-cc2538_armgcc/openstack/02a-MAClow/IEEE802154E.c ****                          (errorparameter_t)ieee154e_vars.state,
 2680              		.loc 1 1123 0
 2681 13b4 1A46     		mov	r2, r3
 2682 13b6 40F20003 		movw	r3, #:lower16:ieee154e_vars
 2683 13ba C0F20003 		movt	r3, #:upper16:ieee154e_vars
 2684 13be DB88     		ldrh	r3, [r3, #6]
 2685 13c0 0920     		movs	r0, #9
 2686 13c2 2221     		movs	r1, #34
 2687 13c4 FFF7FEFF 		bl	openserial_printError
1125:build/openmote-cc2538_armgcc/openstack/02a-MAClow/IEEE802154E.c ****                          (errorparameter_t)ieee154e_vars.slotOffset);
1126:build/openmote-cc2538_armgcc/openstack/02a-MAClow/IEEE802154E.c ****    
1127:build/openmote-cc2538_armgcc/openstack/02a-MAClow/IEEE802154E.c ****    // abort
1128:build/openmote-cc2538_armgcc/openstack/02a-MAClow/IEEE802154E.c ****    endSlot();
 2688              		.loc 1 1128 0
 2689 13c8 FFF7FEFF 		bl	endSlot
1129:build/openmote-cc2538_armgcc/openstack/02a-MAClow/IEEE802154E.c **** }
 2690              		.loc 1 1129 0
 2691 13cc 80BD     		pop	{r7, pc}
 2692              		.cfi_endproc
 2693              	.LFE15:
 2695 13ce 00BF     		.align	2
 2696              		.global	activity_ti3
 2697              		.thumb
 2698              		.thumb_func
 2700              	activity_ti3:
 2701              	.LFB16:
1130:build/openmote-cc2538_armgcc/openstack/02a-MAClow/IEEE802154E.c **** 
1131:build/openmote-cc2538_armgcc/openstack/02a-MAClow/IEEE802154E.c **** port_INLINE void activity_ti3() {
 2702              		.loc 1 1131 0
 2703              		.cfi_startproc
 2704              		@ args = 0, pretend = 0, frame = 0
 2705              		@ frame_needed = 1, uses_anonymous_args = 0
 2706 13d0 80B5     		push	{r7, lr}
 2707              		.cfi_def_cfa_offset 8
 2708              		.cfi_offset 7, -8
 2709              		.cfi_offset 14, -4
 2710 13d2 00AF     		add	r7, sp, #0
 2711              		.cfi_def_cfa_register 7
1132:build/openmote-cc2538_armgcc/openstack/02a-MAClow/IEEE802154E.c ****     // change state
1133:build/openmote-cc2538_armgcc/openstack/02a-MAClow/IEEE802154E.c ****     changeState(S_TXDATADELAY);
 2712              		.loc 1 1133 0
 2713 13d4 0720     		movs	r0, #7
 2714 13d6 FFF7FEFF 		bl	changeState
1134:build/openmote-cc2538_armgcc/openstack/02a-MAClow/IEEE802154E.c **** #ifdef SLOT_FSM_IMPLEMENTATION_MULTIPLE_TIMER_INTERRUPT
1135:build/openmote-cc2538_armgcc/openstack/02a-MAClow/IEEE802154E.c **** #else
1136:build/openmote-cc2538_armgcc/openstack/02a-MAClow/IEEE802154E.c ****     // arm tt3
1137:build/openmote-cc2538_armgcc/openstack/02a-MAClow/IEEE802154E.c ****     radiotimer_schedule(DURATION_tt3);
 2715              		.loc 1 1137 0
 2716 13da 40F20003 		movw	r3, #:lower16:ieee154e_vars
 2717 13de C0F20003 		movt	r3, #:upper16:ieee154e_vars
 2718 13e2 D3F83C31 		ldr	r3, [r3, #316]
 2719 13e6 9833     		adds	r3, r3, #152
 2720 13e8 1846     		mov	r0, r3
 2721 13ea FFF7FEFF 		bl	radiotimer_schedule
1138:build/openmote-cc2538_armgcc/openstack/02a-MAClow/IEEE802154E.c ****     
1139:build/openmote-cc2538_armgcc/openstack/02a-MAClow/IEEE802154E.c ****     // give the 'go' to transmit
1140:build/openmote-cc2538_armgcc/openstack/02a-MAClow/IEEE802154E.c ****     radio_txNow();
 2722              		.loc 1 1140 0
 2723 13ee FFF7FEFF 		bl	radio_txNow
1141:build/openmote-cc2538_armgcc/openstack/02a-MAClow/IEEE802154E.c **** #endif
1142:build/openmote-cc2538_armgcc/openstack/02a-MAClow/IEEE802154E.c **** }
 2724              		.loc 1 1142 0
 2725 13f2 80BD     		pop	{r7, pc}
 2726              		.cfi_endproc
 2727              	.LFE16:
 2729              		.align	2
 2730              		.global	activity_tie2
 2731              		.thumb
 2732              		.thumb_func
 2734              	activity_tie2:
 2735              	.LFB17:
1143:build/openmote-cc2538_armgcc/openstack/02a-MAClow/IEEE802154E.c **** 
1144:build/openmote-cc2538_armgcc/openstack/02a-MAClow/IEEE802154E.c **** port_INLINE void activity_tie2() {
 2736              		.loc 1 1144 0
 2737              		.cfi_startproc
 2738              		@ args = 0, pretend = 0, frame = 0
 2739              		@ frame_needed = 1, uses_anonymous_args = 0
 2740 13f4 80B5     		push	{r7, lr}
 2741              		.cfi_def_cfa_offset 8
 2742              		.cfi_offset 7, -8
 2743              		.cfi_offset 14, -4
 2744 13f6 00AF     		add	r7, sp, #0
 2745              		.cfi_def_cfa_register 7
1145:build/openmote-cc2538_armgcc/openstack/02a-MAClow/IEEE802154E.c ****     // log the error
1146:build/openmote-cc2538_armgcc/openstack/02a-MAClow/IEEE802154E.c ****    openserial_printError(COMPONENT_IEEE802154E,ERR_WDRADIO_OVERFLOWS,
1147:build/openmote-cc2538_armgcc/openstack/02a-MAClow/IEEE802154E.c ****                          (errorparameter_t)ieee154e_vars.state,
 2746              		.loc 1 1147 0
 2747 13f8 40F20003 		movw	r3, #:lower16:ieee154e_vars
 2748 13fc C0F20003 		movt	r3, #:upper16:ieee154e_vars
 2749 1400 93F82831 		ldrb	r3, [r3, #296]	@ zero_extendqisi2
1146:build/openmote-cc2538_armgcc/openstack/02a-MAClow/IEEE802154E.c ****                          (errorparameter_t)ieee154e_vars.state,
 2750              		.loc 1 1146 0
 2751 1404 1A46     		mov	r2, r3
 2752 1406 40F20003 		movw	r3, #:lower16:ieee154e_vars
 2753 140a C0F20003 		movt	r3, #:upper16:ieee154e_vars
 2754 140e DB88     		ldrh	r3, [r3, #6]
 2755 1410 0920     		movs	r0, #9
 2756 1412 2721     		movs	r1, #39
 2757 1414 FFF7FEFF 		bl	openserial_printError
1148:build/openmote-cc2538_armgcc/openstack/02a-MAClow/IEEE802154E.c ****                          (errorparameter_t)ieee154e_vars.slotOffset);
1149:build/openmote-cc2538_armgcc/openstack/02a-MAClow/IEEE802154E.c ****    
1150:build/openmote-cc2538_armgcc/openstack/02a-MAClow/IEEE802154E.c ****     // abort
1151:build/openmote-cc2538_armgcc/openstack/02a-MAClow/IEEE802154E.c ****     endSlot();
 2758              		.loc 1 1151 0
 2759 1418 FFF7FEFF 		bl	endSlot
1152:build/openmote-cc2538_armgcc/openstack/02a-MAClow/IEEE802154E.c **** }
 2760              		.loc 1 1152 0
 2761 141c 80BD     		pop	{r7, pc}
 2762              		.cfi_endproc
 2763              	.LFE17:
 2765 141e 00BF     		.align	2
 2766              		.global	activity_ti4
 2767              		.thumb
 2768              		.thumb_func
 2770              	activity_ti4:
 2771              	.LFB18:
1153:build/openmote-cc2538_armgcc/openstack/02a-MAClow/IEEE802154E.c **** 
1154:build/openmote-cc2538_armgcc/openstack/02a-MAClow/IEEE802154E.c **** //start of frame interrupt
1155:build/openmote-cc2538_armgcc/openstack/02a-MAClow/IEEE802154E.c **** port_INLINE void activity_ti4(PORT_RADIOTIMER_WIDTH capturedTime) {
 2772              		.loc 1 1155 0
 2773              		.cfi_startproc
 2774              		@ args = 0, pretend = 0, frame = 8
 2775              		@ frame_needed = 1, uses_anonymous_args = 0
 2776 1420 80B5     		push	{r7, lr}
 2777              		.cfi_def_cfa_offset 8
 2778              		.cfi_offset 7, -8
 2779              		.cfi_offset 14, -4
 2780 1422 82B0     		sub	sp, sp, #8
 2781              		.cfi_def_cfa_offset 16
 2782 1424 00AF     		add	r7, sp, #0
 2783              		.cfi_def_cfa_register 7
 2784 1426 7860     		str	r0, [r7, #4]
1156:build/openmote-cc2538_armgcc/openstack/02a-MAClow/IEEE802154E.c ****     // change state
1157:build/openmote-cc2538_armgcc/openstack/02a-MAClow/IEEE802154E.c ****     changeState(S_TXDATA);
 2785              		.loc 1 1157 0
 2786 1428 0820     		movs	r0, #8
 2787 142a FFF7FEFF 		bl	changeState
1158:build/openmote-cc2538_armgcc/openstack/02a-MAClow/IEEE802154E.c **** #ifdef SLOT_FSM_IMPLEMENTATION_MULTIPLE_TIMER_INTERRUPT
1159:build/openmote-cc2538_armgcc/openstack/02a-MAClow/IEEE802154E.c ****     // cancel tt3
1160:build/openmote-cc2538_armgcc/openstack/02a-MAClow/IEEE802154E.c ****     radiotimer_cancel(ACTION_NORMAL_TIMER);
1161:build/openmote-cc2538_armgcc/openstack/02a-MAClow/IEEE802154E.c **** #else
1162:build/openmote-cc2538_armgcc/openstack/02a-MAClow/IEEE802154E.c ****     // cancel tt3
1163:build/openmote-cc2538_armgcc/openstack/02a-MAClow/IEEE802154E.c ****     radiotimer_cancel();
 2788              		.loc 1 1163 0
 2789 142e FFF7FEFF 		bl	radiotimer_cancel
1164:build/openmote-cc2538_armgcc/openstack/02a-MAClow/IEEE802154E.c **** #endif
1165:build/openmote-cc2538_armgcc/openstack/02a-MAClow/IEEE802154E.c ****     // record the captured time
1166:build/openmote-cc2538_armgcc/openstack/02a-MAClow/IEEE802154E.c ****     ieee154e_vars.lastCapturedTime = capturedTime;
 2790              		.loc 1 1166 0
 2791 1432 40F20003 		movw	r3, #:lower16:ieee154e_vars
 2792 1436 C0F20003 		movt	r3, #:upper16:ieee154e_vars
 2793 143a 7A68     		ldr	r2, [r7, #4]
 2794 143c C3F83C21 		str	r2, [r3, #316]
1167:build/openmote-cc2538_armgcc/openstack/02a-MAClow/IEEE802154E.c **** #ifdef SLOT_FSM_IMPLEMENTATION_MULTIPLE_TIMER_INTERRUPT
1168:build/openmote-cc2538_armgcc/openstack/02a-MAClow/IEEE802154E.c ****     // arm tt4
1169:build/openmote-cc2538_armgcc/openstack/02a-MAClow/IEEE802154E.c ****     radiotimer_schedule(ACTION_NORMAL_TIMER,DURATION_tt4);
1170:build/openmote-cc2538_armgcc/openstack/02a-MAClow/IEEE802154E.c **** #else
1171:build/openmote-cc2538_armgcc/openstack/02a-MAClow/IEEE802154E.c ****     // arm tt4
1172:build/openmote-cc2538_armgcc/openstack/02a-MAClow/IEEE802154E.c ****     radiotimer_schedule(DURATION_tt4);
 2795              		.loc 1 1172 0
 2796 1440 40F20003 		movw	r3, #:lower16:ieee154e_vars
 2797 1444 C0F20003 		movt	r3, #:upper16:ieee154e_vars
 2798 1448 D3F83C31 		ldr	r3, [r3, #316]
 2799 144c A433     		adds	r3, r3, #164
 2800 144e 1846     		mov	r0, r3
 2801 1450 FFF7FEFF 		bl	radiotimer_schedule
1173:build/openmote-cc2538_armgcc/openstack/02a-MAClow/IEEE802154E.c **** #endif
1174:build/openmote-cc2538_armgcc/openstack/02a-MAClow/IEEE802154E.c **** }
 2802              		.loc 1 1174 0
 2803 1454 0837     		adds	r7, r7, #8
 2804 1456 BD46     		mov	sp, r7
 2805              		@ sp needed
 2806 1458 80BD     		pop	{r7, pc}
 2807              		.cfi_endproc
 2808              	.LFE18:
 2810 145a 00BF     		.align	2
 2811              		.global	activity_tie3
 2812              		.thumb
 2813              		.thumb_func
 2815              	activity_tie3:
 2816              	.LFB19:
1175:build/openmote-cc2538_armgcc/openstack/02a-MAClow/IEEE802154E.c **** 
1176:build/openmote-cc2538_armgcc/openstack/02a-MAClow/IEEE802154E.c **** port_INLINE void activity_tie3() {
 2817              		.loc 1 1176 0
 2818              		.cfi_startproc
 2819              		@ args = 0, pretend = 0, frame = 0
 2820              		@ frame_needed = 1, uses_anonymous_args = 0
 2821 145c 80B5     		push	{r7, lr}
 2822              		.cfi_def_cfa_offset 8
 2823              		.cfi_offset 7, -8
 2824              		.cfi_offset 14, -4
 2825 145e 00AF     		add	r7, sp, #0
 2826              		.cfi_def_cfa_register 7
1177:build/openmote-cc2538_armgcc/openstack/02a-MAClow/IEEE802154E.c ****     // log the error
1178:build/openmote-cc2538_armgcc/openstack/02a-MAClow/IEEE802154E.c ****     openserial_printError(COMPONENT_IEEE802154E,ERR_WDDATADURATION_OVERFLOWS,
1179:build/openmote-cc2538_armgcc/openstack/02a-MAClow/IEEE802154E.c ****                          (errorparameter_t)ieee154e_vars.state,
 2827              		.loc 1 1179 0
 2828 1460 40F20003 		movw	r3, #:lower16:ieee154e_vars
 2829 1464 C0F20003 		movt	r3, #:upper16:ieee154e_vars
 2830 1468 93F82831 		ldrb	r3, [r3, #296]	@ zero_extendqisi2
1178:build/openmote-cc2538_armgcc/openstack/02a-MAClow/IEEE802154E.c ****                          (errorparameter_t)ieee154e_vars.state,
 2831              		.loc 1 1178 0
 2832 146c 1A46     		mov	r2, r3
 2833 146e 40F20003 		movw	r3, #:lower16:ieee154e_vars
 2834 1472 C0F20003 		movt	r3, #:upper16:ieee154e_vars
 2835 1476 DB88     		ldrh	r3, [r3, #6]
 2836 1478 0920     		movs	r0, #9
 2837 147a 2621     		movs	r1, #38
 2838 147c FFF7FEFF 		bl	openserial_printError
1180:build/openmote-cc2538_armgcc/openstack/02a-MAClow/IEEE802154E.c ****                          (errorparameter_t)ieee154e_vars.slotOffset);
1181:build/openmote-cc2538_armgcc/openstack/02a-MAClow/IEEE802154E.c ****    
1182:build/openmote-cc2538_armgcc/openstack/02a-MAClow/IEEE802154E.c ****     // abort
1183:build/openmote-cc2538_armgcc/openstack/02a-MAClow/IEEE802154E.c ****     endSlot();
 2839              		.loc 1 1183 0
 2840 1480 FFF7FEFF 		bl	endSlot
1184:build/openmote-cc2538_armgcc/openstack/02a-MAClow/IEEE802154E.c **** }
 2841              		.loc 1 1184 0
 2842 1484 80BD     		pop	{r7, pc}
 2843              		.cfi_endproc
 2844              	.LFE19:
 2846 1486 00BF     		.align	2
 2847              		.global	activity_ti5
 2848              		.thumb
 2849              		.thumb_func
 2851              	activity_ti5:
 2852              	.LFB20:
1185:build/openmote-cc2538_armgcc/openstack/02a-MAClow/IEEE802154E.c **** 
1186:build/openmote-cc2538_armgcc/openstack/02a-MAClow/IEEE802154E.c **** port_INLINE void activity_ti5(PORT_RADIOTIMER_WIDTH capturedTime) {
 2853              		.loc 1 1186 0
 2854              		.cfi_startproc
 2855              		@ args = 0, pretend = 0, frame = 16
 2856              		@ frame_needed = 1, uses_anonymous_args = 0
 2857 1488 90B5     		push	{r4, r7, lr}
 2858              		.cfi_def_cfa_offset 12
 2859              		.cfi_offset 4, -12
 2860              		.cfi_offset 7, -8
 2861              		.cfi_offset 14, -4
 2862 148a 85B0     		sub	sp, sp, #20
 2863              		.cfi_def_cfa_offset 32
 2864 148c 00AF     		add	r7, sp, #0
 2865              		.cfi_def_cfa_register 7
 2866 148e 7860     		str	r0, [r7, #4]
1187:build/openmote-cc2538_armgcc/openstack/02a-MAClow/IEEE802154E.c ****     bool listenForAck;
1188:build/openmote-cc2538_armgcc/openstack/02a-MAClow/IEEE802154E.c ****     
1189:build/openmote-cc2538_armgcc/openstack/02a-MAClow/IEEE802154E.c ****     // change state
1190:build/openmote-cc2538_armgcc/openstack/02a-MAClow/IEEE802154E.c ****     changeState(S_RXACKOFFSET);
 2867              		.loc 1 1190 0
 2868 1490 0920     		movs	r0, #9
 2869 1492 FFF7FEFF 		bl	changeState
1191:build/openmote-cc2538_armgcc/openstack/02a-MAClow/IEEE802154E.c **** #ifdef SLOT_FSM_IMPLEMENTATION_MULTIPLE_TIMER_INTERRUPT
1192:build/openmote-cc2538_armgcc/openstack/02a-MAClow/IEEE802154E.c ****     // cancel tt4
1193:build/openmote-cc2538_armgcc/openstack/02a-MAClow/IEEE802154E.c ****     radiotimer_cancel(ACTION_NORMAL_TIMER);
1194:build/openmote-cc2538_armgcc/openstack/02a-MAClow/IEEE802154E.c **** #else
1195:build/openmote-cc2538_armgcc/openstack/02a-MAClow/IEEE802154E.c ****     // cancel tt4
1196:build/openmote-cc2538_armgcc/openstack/02a-MAClow/IEEE802154E.c ****     radiotimer_cancel();
 2870              		.loc 1 1196 0
 2871 1496 FFF7FEFF 		bl	radiotimer_cancel
1197:build/openmote-cc2538_armgcc/openstack/02a-MAClow/IEEE802154E.c **** #endif
1198:build/openmote-cc2538_armgcc/openstack/02a-MAClow/IEEE802154E.c ****     // turn off the radio
1199:build/openmote-cc2538_armgcc/openstack/02a-MAClow/IEEE802154E.c ****     radio_rfOff();
 2872              		.loc 1 1199 0
 2873 149a FFF7FEFF 		bl	radio_rfOff
1200:build/openmote-cc2538_armgcc/openstack/02a-MAClow/IEEE802154E.c ****     ieee154e_vars.radioOnTics+=(radio_getTimerValue()-ieee154e_vars.radioOnInit);
 2874              		.loc 1 1200 0
 2875 149e 40F20003 		movw	r3, #:lower16:ieee154e_vars
 2876 14a2 C0F20003 		movt	r3, #:upper16:ieee154e_vars
 2877 14a6 D3F86041 		ldr	r4, [r3, #352]
 2878 14aa FFF7FEFF 		bl	radio_getTimerValue
 2879 14ae 0246     		mov	r2, r0
 2880 14b0 40F20003 		movw	r3, #:lower16:ieee154e_vars
 2881 14b4 C0F20003 		movt	r3, #:upper16:ieee154e_vars
 2882 14b8 D3F85C31 		ldr	r3, [r3, #348]
 2883 14bc D31A     		subs	r3, r2, r3
 2884 14be E218     		adds	r2, r4, r3
 2885 14c0 40F20003 		movw	r3, #:lower16:ieee154e_vars
 2886 14c4 C0F20003 		movt	r3, #:upper16:ieee154e_vars
 2887 14c8 C3F86021 		str	r2, [r3, #352]
1201:build/openmote-cc2538_armgcc/openstack/02a-MAClow/IEEE802154E.c ****    
1202:build/openmote-cc2538_armgcc/openstack/02a-MAClow/IEEE802154E.c ****     // record the captured time
1203:build/openmote-cc2538_armgcc/openstack/02a-MAClow/IEEE802154E.c ****     ieee154e_vars.lastCapturedTime = capturedTime;
 2888              		.loc 1 1203 0
 2889 14cc 40F20003 		movw	r3, #:lower16:ieee154e_vars
 2890 14d0 C0F20003 		movt	r3, #:upper16:ieee154e_vars
 2891 14d4 7A68     		ldr	r2, [r7, #4]
 2892 14d6 C3F83C21 		str	r2, [r3, #316]
1204:build/openmote-cc2538_armgcc/openstack/02a-MAClow/IEEE802154E.c ****    
1205:build/openmote-cc2538_armgcc/openstack/02a-MAClow/IEEE802154E.c ****     // decides whether to listen for an ACK
1206:build/openmote-cc2538_armgcc/openstack/02a-MAClow/IEEE802154E.c ****     if (packetfunctions_isBroadcastMulticast(&ieee154e_vars.dataToSend->l2_nextORpreviousHop)==TRUE
 2893              		.loc 1 1206 0
 2894 14da 40F20003 		movw	r3, #:lower16:ieee154e_vars
 2895 14de C0F20003 		movt	r3, #:upper16:ieee154e_vars
 2896 14e2 D3F82C31 		ldr	r3, [r3, #300]
 2897 14e6 3833     		adds	r3, r3, #56
 2898 14e8 1846     		mov	r0, r3
 2899 14ea FFF7FEFF 		bl	packetfunctions_isBroadcastMulticast
 2900 14ee 0346     		mov	r3, r0
 2901 14f0 002B     		cmp	r3, #0
 2902 14f2 02D0     		beq	.L160
1207:build/openmote-cc2538_armgcc/openstack/02a-MAClow/IEEE802154E.c ****         listenForAck = FALSE;
 2903              		.loc 1 1207 0
 2904 14f4 0023     		movs	r3, #0
 2905 14f6 FB73     		strb	r3, [r7, #15]
 2906 14f8 01E0     		b	.L161
 2907              	.L160:
1208:build/openmote-cc2538_armgcc/openstack/02a-MAClow/IEEE802154E.c ****     } else {
1209:build/openmote-cc2538_armgcc/openstack/02a-MAClow/IEEE802154E.c ****         listenForAck = TRUE;
 2908              		.loc 1 1209 0
 2909 14fa 0123     		movs	r3, #1
 2910 14fc FB73     		strb	r3, [r7, #15]
 2911              	.L161:
1210:build/openmote-cc2538_armgcc/openstack/02a-MAClow/IEEE802154E.c ****     }
1211:build/openmote-cc2538_armgcc/openstack/02a-MAClow/IEEE802154E.c ****    
1212:build/openmote-cc2538_armgcc/openstack/02a-MAClow/IEEE802154E.c ****     if (listenForAck==TRUE) {
 2912              		.loc 1 1212 0
 2913 14fe FB7B     		ldrb	r3, [r7, #15]	@ zero_extendqisi2
 2914 1500 002B     		cmp	r3, #0
 2915 1502 0AD0     		beq	.L162
1213:build/openmote-cc2538_armgcc/openstack/02a-MAClow/IEEE802154E.c **** #ifdef SLOT_FSM_IMPLEMENTATION_MULTIPLE_TIMER_INTERRUPT
1214:build/openmote-cc2538_armgcc/openstack/02a-MAClow/IEEE802154E.c ****         // 1. schedule timer for enabling receiving
1215:build/openmote-cc2538_armgcc/openstack/02a-MAClow/IEEE802154E.c ****         // arm tt5
1216:build/openmote-cc2538_armgcc/openstack/02a-MAClow/IEEE802154E.c ****         radiotimer_schedule(ACTION_RADIORX_ENABLE,DURATION_tt5);
1217:build/openmote-cc2538_armgcc/openstack/02a-MAClow/IEEE802154E.c ****         // set receiving buffer address (radio is NOT enabled at this moment)
1218:build/openmote-cc2538_armgcc/openstack/02a-MAClow/IEEE802154E.c ****         radio_rxPacket_prepare();
1219:build/openmote-cc2538_armgcc/openstack/02a-MAClow/IEEE802154E.c ****         // 2. schedule timer for starting receiving
1220:build/openmote-cc2538_armgcc/openstack/02a-MAClow/IEEE802154E.c ****         radiotimer_schedule(ACTION_NORMAL_TIMER,DURATION_tt6);
1221:build/openmote-cc2538_armgcc/openstack/02a-MAClow/IEEE802154E.c ****         // 3. set capture for receiving SFD and packet receiving done
1222:build/openmote-cc2538_armgcc/openstack/02a-MAClow/IEEE802154E.c ****         radiotimer_setCapture(ACTION_RX_SFD_DONE);
1223:build/openmote-cc2538_armgcc/openstack/02a-MAClow/IEEE802154E.c ****         radiotimer_setCapture(ACTION_RX_DONE);
1224:build/openmote-cc2538_armgcc/openstack/02a-MAClow/IEEE802154E.c **** #else
1225:build/openmote-cc2538_armgcc/openstack/02a-MAClow/IEEE802154E.c ****         // arm tt5
1226:build/openmote-cc2538_armgcc/openstack/02a-MAClow/IEEE802154E.c ****         radiotimer_schedule(DURATION_tt5);
 2916              		.loc 1 1226 0
 2917 1504 40F20003 		movw	r3, #:lower16:ieee154e_vars
 2918 1508 C0F20003 		movt	r3, #:upper16:ieee154e_vars
 2919 150c D3F83C31 		ldr	r3, [r3, #316]
 2920 1510 7D33     		adds	r3, r3, #125
 2921 1512 1846     		mov	r0, r3
 2922 1514 FFF7FEFF 		bl	radiotimer_schedule
 2923 1518 19E0     		b	.L159
 2924              	.L162:
1227:build/openmote-cc2538_armgcc/openstack/02a-MAClow/IEEE802154E.c **** #endif
1228:build/openmote-cc2538_armgcc/openstack/02a-MAClow/IEEE802154E.c ****     } else {
1229:build/openmote-cc2538_armgcc/openstack/02a-MAClow/IEEE802154E.c ****         // indicate succesful Tx to schedule to keep statistics
1230:build/openmote-cc2538_armgcc/openstack/02a-MAClow/IEEE802154E.c ****         schedule_indicateTx(&ieee154e_vars.asn,TRUE);
 2925              		.loc 1 1230 0
 2926 151a 40F20000 		movw	r0, #:lower16:ieee154e_vars
 2927 151e C0F20000 		movt	r0, #:upper16:ieee154e_vars
 2928 1522 0121     		movs	r1, #1
 2929 1524 FFF7FEFF 		bl	schedule_indicateTx
1231:build/openmote-cc2538_armgcc/openstack/02a-MAClow/IEEE802154E.c ****         // indicate to upper later the packet was sent successfully
1232:build/openmote-cc2538_armgcc/openstack/02a-MAClow/IEEE802154E.c ****         notif_sendDone(ieee154e_vars.dataToSend,E_SUCCESS);
 2930              		.loc 1 1232 0
 2931 1528 40F20003 		movw	r3, #:lower16:ieee154e_vars
 2932 152c C0F20003 		movt	r3, #:upper16:ieee154e_vars
 2933 1530 D3F82C31 		ldr	r3, [r3, #300]
 2934 1534 1846     		mov	r0, r3
 2935 1536 0021     		movs	r1, #0
 2936 1538 FFF7FEFF 		bl	notif_sendDone
1233:build/openmote-cc2538_armgcc/openstack/02a-MAClow/IEEE802154E.c ****         // reset local variable
1234:build/openmote-cc2538_armgcc/openstack/02a-MAClow/IEEE802154E.c ****         ieee154e_vars.dataToSend = NULL;
 2937              		.loc 1 1234 0
 2938 153c 40F20003 		movw	r3, #:lower16:ieee154e_vars
 2939 1540 C0F20003 		movt	r3, #:upper16:ieee154e_vars
 2940 1544 0022     		movs	r2, #0
 2941 1546 C3F82C21 		str	r2, [r3, #300]
1235:build/openmote-cc2538_armgcc/openstack/02a-MAClow/IEEE802154E.c ****         // abort
1236:build/openmote-cc2538_armgcc/openstack/02a-MAClow/IEEE802154E.c ****         endSlot();
 2942              		.loc 1 1236 0
 2943 154a FFF7FEFF 		bl	endSlot
 2944              	.L159:
1237:build/openmote-cc2538_armgcc/openstack/02a-MAClow/IEEE802154E.c ****     }
1238:build/openmote-cc2538_armgcc/openstack/02a-MAClow/IEEE802154E.c **** }
 2945              		.loc 1 1238 0
 2946 154e 1437     		adds	r7, r7, #20
 2947 1550 BD46     		mov	sp, r7
 2948              		@ sp needed
 2949 1552 90BD     		pop	{r4, r7, pc}
 2950              		.cfi_endproc
 2951              	.LFE20:
 2953              		.align	2
 2954              		.global	activity_ti6
 2955              		.thumb
 2956              		.thumb_func
 2958              	activity_ti6:
 2959              	.LFB21:
1239:build/openmote-cc2538_armgcc/openstack/02a-MAClow/IEEE802154E.c **** 
1240:build/openmote-cc2538_armgcc/openstack/02a-MAClow/IEEE802154E.c **** port_INLINE void activity_ti6() {
 2960              		.loc 1 1240 0
 2961              		.cfi_startproc
 2962              		@ args = 0, pretend = 0, frame = 0
 2963              		@ frame_needed = 1, uses_anonymous_args = 0
 2964 1554 80B5     		push	{r7, lr}
 2965              		.cfi_def_cfa_offset 8
 2966              		.cfi_offset 7, -8
 2967              		.cfi_offset 14, -4
 2968 1556 00AF     		add	r7, sp, #0
 2969              		.cfi_def_cfa_register 7
1241:build/openmote-cc2538_armgcc/openstack/02a-MAClow/IEEE802154E.c ****     // change state
1242:build/openmote-cc2538_armgcc/openstack/02a-MAClow/IEEE802154E.c ****     changeState(S_RXACKPREPARE);
 2970              		.loc 1 1242 0
 2971 1558 0A20     		movs	r0, #10
 2972 155a FFF7FEFF 		bl	changeState
1243:build/openmote-cc2538_armgcc/openstack/02a-MAClow/IEEE802154E.c **** #ifdef SLOT_FSM_IMPLEMENTATION_MULTIPLE_TIMER_INTERRUPT
1244:build/openmote-cc2538_armgcc/openstack/02a-MAClow/IEEE802154E.c **** #else
1245:build/openmote-cc2538_armgcc/openstack/02a-MAClow/IEEE802154E.c ****     // arm tt6
1246:build/openmote-cc2538_armgcc/openstack/02a-MAClow/IEEE802154E.c ****     radiotimer_schedule(DURATION_tt6);
 2973              		.loc 1 1246 0
 2974 155e 40F20003 		movw	r3, #:lower16:ieee154e_vars
 2975 1562 C0F20003 		movt	r3, #:upper16:ieee154e_vars
 2976 1566 D3F83C31 		ldr	r3, [r3, #316]
 2977 156a 8733     		adds	r3, r3, #135
 2978 156c 1846     		mov	r0, r3
 2979 156e FFF7FEFF 		bl	radiotimer_schedule
1247:build/openmote-cc2538_armgcc/openstack/02a-MAClow/IEEE802154E.c **** #endif   
1248:build/openmote-cc2538_armgcc/openstack/02a-MAClow/IEEE802154E.c ****    
1249:build/openmote-cc2538_armgcc/openstack/02a-MAClow/IEEE802154E.c ****     // configure the radio for that frequency
1250:build/openmote-cc2538_armgcc/openstack/02a-MAClow/IEEE802154E.c ****     radio_setFrequency(ieee154e_vars.freq);
 2980              		.loc 1 1250 0
 2981 1572 40F20003 		movw	r3, #:lower16:ieee154e_vars
 2982 1576 C0F20003 		movt	r3, #:upper16:ieee154e_vars
 2983 157a 93F84431 		ldrb	r3, [r3, #324]	@ zero_extendqisi2
 2984 157e 1846     		mov	r0, r3
 2985 1580 FFF7FEFF 		bl	radio_setFrequency
1251:build/openmote-cc2538_armgcc/openstack/02a-MAClow/IEEE802154E.c ****    
1252:build/openmote-cc2538_armgcc/openstack/02a-MAClow/IEEE802154E.c **** #ifdef SLOT_FSM_IMPLEMENTATION_MULTIPLE_TIMER_INTERRUPT
1253:build/openmote-cc2538_armgcc/openstack/02a-MAClow/IEEE802154E.c ****     // enable the radio in Rx mode. The radio is not actively listening yet.
1254:build/openmote-cc2538_armgcc/openstack/02a-MAClow/IEEE802154E.c ****     radio_rxEnable_scum();
1255:build/openmote-cc2538_armgcc/openstack/02a-MAClow/IEEE802154E.c **** #else
1256:build/openmote-cc2538_armgcc/openstack/02a-MAClow/IEEE802154E.c ****     radio_rxEnable();
 2986              		.loc 1 1256 0
 2987 1584 FFF7FEFF 		bl	radio_rxEnable
1257:build/openmote-cc2538_armgcc/openstack/02a-MAClow/IEEE802154E.c **** #endif
1258:build/openmote-cc2538_armgcc/openstack/02a-MAClow/IEEE802154E.c ****    
1259:build/openmote-cc2538_armgcc/openstack/02a-MAClow/IEEE802154E.c ****     //caputre init of radio for duty cycle calculation
1260:build/openmote-cc2538_armgcc/openstack/02a-MAClow/IEEE802154E.c ****     ieee154e_vars.radioOnInit=radio_getTimerValue();
 2988              		.loc 1 1260 0
 2989 1588 FFF7FEFF 		bl	radio_getTimerValue
 2990 158c 0246     		mov	r2, r0
 2991 158e 40F20003 		movw	r3, #:lower16:ieee154e_vars
 2992 1592 C0F20003 		movt	r3, #:upper16:ieee154e_vars
 2993 1596 C3F85C21 		str	r2, [r3, #348]
1261:build/openmote-cc2538_armgcc/openstack/02a-MAClow/IEEE802154E.c ****     ieee154e_vars.radioOnThisSlot=TRUE;
 2994              		.loc 1 1261 0
 2995 159a 40F20003 		movw	r3, #:lower16:ieee154e_vars
 2996 159e C0F20003 		movt	r3, #:upper16:ieee154e_vars
 2997 15a2 0122     		movs	r2, #1
 2998 15a4 83F86421 		strb	r2, [r3, #356]
1262:build/openmote-cc2538_armgcc/openstack/02a-MAClow/IEEE802154E.c ****    
1263:build/openmote-cc2538_armgcc/openstack/02a-MAClow/IEEE802154E.c ****     // change state
1264:build/openmote-cc2538_armgcc/openstack/02a-MAClow/IEEE802154E.c ****     changeState(S_RXACKREADY);
 2999              		.loc 1 1264 0
 3000 15a8 0B20     		movs	r0, #11
 3001 15aa FFF7FEFF 		bl	changeState
1265:build/openmote-cc2538_armgcc/openstack/02a-MAClow/IEEE802154E.c **** }
 3002              		.loc 1 1265 0
 3003 15ae 80BD     		pop	{r7, pc}
 3004              		.cfi_endproc
 3005              	.LFE21:
 3007              		.align	2
 3008              		.global	activity_tie4
 3009              		.thumb
 3010              		.thumb_func
 3012              	activity_tie4:
 3013              	.LFB22:
1266:build/openmote-cc2538_armgcc/openstack/02a-MAClow/IEEE802154E.c **** 
1267:build/openmote-cc2538_armgcc/openstack/02a-MAClow/IEEE802154E.c **** port_INLINE void activity_tie4() {
 3014              		.loc 1 1267 0
 3015              		.cfi_startproc
 3016              		@ args = 0, pretend = 0, frame = 0
 3017              		@ frame_needed = 1, uses_anonymous_args = 0
 3018 15b0 80B5     		push	{r7, lr}
 3019              		.cfi_def_cfa_offset 8
 3020              		.cfi_offset 7, -8
 3021              		.cfi_offset 14, -4
 3022 15b2 00AF     		add	r7, sp, #0
 3023              		.cfi_def_cfa_register 7
1268:build/openmote-cc2538_armgcc/openstack/02a-MAClow/IEEE802154E.c ****    // log the error
1269:build/openmote-cc2538_armgcc/openstack/02a-MAClow/IEEE802154E.c ****    openserial_printError(COMPONENT_IEEE802154E,ERR_MAXRXACKPREPARE_OVERFLOWS,
1270:build/openmote-cc2538_armgcc/openstack/02a-MAClow/IEEE802154E.c ****                          (errorparameter_t)ieee154e_vars.state,
 3024              		.loc 1 1270 0
 3025 15b4 40F20003 		movw	r3, #:lower16:ieee154e_vars
 3026 15b8 C0F20003 		movt	r3, #:upper16:ieee154e_vars
 3027 15bc 93F82831 		ldrb	r3, [r3, #296]	@ zero_extendqisi2
1269:build/openmote-cc2538_armgcc/openstack/02a-MAClow/IEEE802154E.c ****                          (errorparameter_t)ieee154e_vars.state,
 3028              		.loc 1 1269 0
 3029 15c0 1A46     		mov	r2, r3
 3030 15c2 40F20003 		movw	r3, #:lower16:ieee154e_vars
 3031 15c6 C0F20003 		movt	r3, #:upper16:ieee154e_vars
 3032 15ca DB88     		ldrh	r3, [r3, #6]
 3033 15cc 0920     		movs	r0, #9
 3034 15ce 2321     		movs	r1, #35
 3035 15d0 FFF7FEFF 		bl	openserial_printError
1271:build/openmote-cc2538_armgcc/openstack/02a-MAClow/IEEE802154E.c ****                          (errorparameter_t)ieee154e_vars.slotOffset);
1272:build/openmote-cc2538_armgcc/openstack/02a-MAClow/IEEE802154E.c ****    
1273:build/openmote-cc2538_armgcc/openstack/02a-MAClow/IEEE802154E.c ****    // abort
1274:build/openmote-cc2538_armgcc/openstack/02a-MAClow/IEEE802154E.c ****    endSlot();
 3036              		.loc 1 1274 0
 3037 15d4 FFF7FEFF 		bl	endSlot
1275:build/openmote-cc2538_armgcc/openstack/02a-MAClow/IEEE802154E.c **** }
 3038              		.loc 1 1275 0
 3039 15d8 80BD     		pop	{r7, pc}
 3040              		.cfi_endproc
 3041              	.LFE22:
 3043 15da 00BF     		.align	2
 3044              		.global	activity_ti7
 3045              		.thumb
 3046              		.thumb_func
 3048              	activity_ti7:
 3049              	.LFB23:
1276:build/openmote-cc2538_armgcc/openstack/02a-MAClow/IEEE802154E.c **** 
1277:build/openmote-cc2538_armgcc/openstack/02a-MAClow/IEEE802154E.c **** port_INLINE void activity_ti7() {
 3050              		.loc 1 1277 0
 3051              		.cfi_startproc
 3052              		@ args = 0, pretend = 0, frame = 0
 3053              		@ frame_needed = 1, uses_anonymous_args = 0
 3054 15dc 80B5     		push	{r7, lr}
 3055              		.cfi_def_cfa_offset 8
 3056              		.cfi_offset 7, -8
 3057              		.cfi_offset 14, -4
 3058 15de 00AF     		add	r7, sp, #0
 3059              		.cfi_def_cfa_register 7
1278:build/openmote-cc2538_armgcc/openstack/02a-MAClow/IEEE802154E.c ****    // change state
1279:build/openmote-cc2538_armgcc/openstack/02a-MAClow/IEEE802154E.c ****    changeState(S_RXACKLISTEN);
 3060              		.loc 1 1279 0
 3061 15e0 0C20     		movs	r0, #12
 3062 15e2 FFF7FEFF 		bl	changeState
1280:build/openmote-cc2538_armgcc/openstack/02a-MAClow/IEEE802154E.c ****    
1281:build/openmote-cc2538_armgcc/openstack/02a-MAClow/IEEE802154E.c ****    // start listening
1282:build/openmote-cc2538_armgcc/openstack/02a-MAClow/IEEE802154E.c ****    radio_rxNow();
 3063              		.loc 1 1282 0
 3064 15e6 FFF7FEFF 		bl	radio_rxNow
1283:build/openmote-cc2538_armgcc/openstack/02a-MAClow/IEEE802154E.c **** #ifdef SLOT_FSM_IMPLEMENTATION_MULTIPLE_TIMER_INTERRUPT
1284:build/openmote-cc2538_armgcc/openstack/02a-MAClow/IEEE802154E.c ****    // arm tt7
1285:build/openmote-cc2538_armgcc/openstack/02a-MAClow/IEEE802154E.c ****    radiotimer_schedule(ACTION_NORMAL_TIMER,DURATION_tt7);
1286:build/openmote-cc2538_armgcc/openstack/02a-MAClow/IEEE802154E.c **** #else
1287:build/openmote-cc2538_armgcc/openstack/02a-MAClow/IEEE802154E.c ****    // arm tt7
1288:build/openmote-cc2538_armgcc/openstack/02a-MAClow/IEEE802154E.c ****    radiotimer_schedule(DURATION_tt7);
 3065              		.loc 1 1288 0
 3066 15ea 40F20003 		movw	r3, #:lower16:ieee154e_vars
 3067 15ee C0F20003 		movt	r3, #:upper16:ieee154e_vars
 3068 15f2 D3F83C31 		ldr	r3, [r3, #316]
 3069 15f6 A733     		adds	r3, r3, #167
 3070 15f8 1846     		mov	r0, r3
 3071 15fa FFF7FEFF 		bl	radiotimer_schedule
1289:build/openmote-cc2538_armgcc/openstack/02a-MAClow/IEEE802154E.c **** #endif
1290:build/openmote-cc2538_armgcc/openstack/02a-MAClow/IEEE802154E.c **** }
 3072              		.loc 1 1290 0
 3073 15fe 80BD     		pop	{r7, pc}
 3074              		.cfi_endproc
 3075              	.LFE23:
 3077              		.align	2
 3078              		.global	activity_tie5
 3079              		.thumb
 3080              		.thumb_func
 3082              	activity_tie5:
 3083              	.LFB24:
1291:build/openmote-cc2538_armgcc/openstack/02a-MAClow/IEEE802154E.c **** 
1292:build/openmote-cc2538_armgcc/openstack/02a-MAClow/IEEE802154E.c **** port_INLINE void activity_tie5() {
 3084              		.loc 1 1292 0
 3085              		.cfi_startproc
 3086              		@ args = 0, pretend = 0, frame = 0
 3087              		@ frame_needed = 1, uses_anonymous_args = 0
 3088 1600 80B5     		push	{r7, lr}
 3089              		.cfi_def_cfa_offset 8
 3090              		.cfi_offset 7, -8
 3091              		.cfi_offset 14, -4
 3092 1602 00AF     		add	r7, sp, #0
 3093              		.cfi_def_cfa_register 7
1293:build/openmote-cc2538_armgcc/openstack/02a-MAClow/IEEE802154E.c ****     // indicate transmit failed to schedule to keep stats
1294:build/openmote-cc2538_armgcc/openstack/02a-MAClow/IEEE802154E.c ****     schedule_indicateTx(&ieee154e_vars.asn,FALSE);
 3094              		.loc 1 1294 0
 3095 1604 40F20000 		movw	r0, #:lower16:ieee154e_vars
 3096 1608 C0F20000 		movt	r0, #:upper16:ieee154e_vars
 3097 160c 0021     		movs	r1, #0
 3098 160e FFF7FEFF 		bl	schedule_indicateTx
1295:build/openmote-cc2538_armgcc/openstack/02a-MAClow/IEEE802154E.c ****    
1296:build/openmote-cc2538_armgcc/openstack/02a-MAClow/IEEE802154E.c ****     // decrement transmits left counter
1297:build/openmote-cc2538_armgcc/openstack/02a-MAClow/IEEE802154E.c ****     ieee154e_vars.dataToSend->l2_retriesLeft--;
 3099              		.loc 1 1297 0
 3100 1612 40F20003 		movw	r3, #:lower16:ieee154e_vars
 3101 1616 C0F20003 		movt	r3, #:upper16:ieee154e_vars
 3102 161a D3F82C31 		ldr	r3, [r3, #300]
 3103 161e 93F84B20 		ldrb	r2, [r3, #75]	@ zero_extendqisi2
 3104 1622 013A     		subs	r2, r2, #1
 3105 1624 D2B2     		uxtb	r2, r2
 3106 1626 83F84B20 		strb	r2, [r3, #75]
1298:build/openmote-cc2538_armgcc/openstack/02a-MAClow/IEEE802154E.c ****    
1299:build/openmote-cc2538_armgcc/openstack/02a-MAClow/IEEE802154E.c ****     if (ieee154e_vars.dataToSend->l2_retriesLeft==0) {
 3107              		.loc 1 1299 0
 3108 162a 40F20003 		movw	r3, #:lower16:ieee154e_vars
 3109 162e C0F20003 		movt	r3, #:upper16:ieee154e_vars
 3110 1632 D3F82C31 		ldr	r3, [r3, #300]
 3111 1636 93F84B30 		ldrb	r3, [r3, #75]	@ zero_extendqisi2
 3112 163a 002B     		cmp	r3, #0
 3113 163c 0AD1     		bne	.L168
1300:build/openmote-cc2538_armgcc/openstack/02a-MAClow/IEEE802154E.c ****         // indicate tx fail if no more retries left
1301:build/openmote-cc2538_armgcc/openstack/02a-MAClow/IEEE802154E.c ****         notif_sendDone(ieee154e_vars.dataToSend,E_FAIL);
 3114              		.loc 1 1301 0
 3115 163e 40F20003 		movw	r3, #:lower16:ieee154e_vars
 3116 1642 C0F20003 		movt	r3, #:upper16:ieee154e_vars
 3117 1646 D3F82C31 		ldr	r3, [r3, #300]
 3118 164a 1846     		mov	r0, r3
 3119 164c 0121     		movs	r1, #1
 3120 164e FFF7FEFF 		bl	notif_sendDone
 3121 1652 07E0     		b	.L169
 3122              	.L168:
1302:build/openmote-cc2538_armgcc/openstack/02a-MAClow/IEEE802154E.c ****     } else {
1303:build/openmote-cc2538_armgcc/openstack/02a-MAClow/IEEE802154E.c ****         // return packet to the virtual COMPONENT_SIXTOP_TO_IEEE802154E component
1304:build/openmote-cc2538_armgcc/openstack/02a-MAClow/IEEE802154E.c ****         ieee154e_vars.dataToSend->owner = COMPONENT_SIXTOP_TO_IEEE802154E;
 3123              		.loc 1 1304 0
 3124 1654 40F20003 		movw	r3, #:lower16:ieee154e_vars
 3125 1658 C0F20003 		movt	r3, #:upper16:ieee154e_vars
 3126 165c D3F82C31 		ldr	r3, [r3, #300]
 3127 1660 0A22     		movs	r2, #10
 3128 1662 5A70     		strb	r2, [r3, #1]
 3129              	.L169:
1305:build/openmote-cc2538_armgcc/openstack/02a-MAClow/IEEE802154E.c ****     }
1306:build/openmote-cc2538_armgcc/openstack/02a-MAClow/IEEE802154E.c ****    
1307:build/openmote-cc2538_armgcc/openstack/02a-MAClow/IEEE802154E.c ****     // reset local variable
1308:build/openmote-cc2538_armgcc/openstack/02a-MAClow/IEEE802154E.c ****     ieee154e_vars.dataToSend = NULL;
 3130              		.loc 1 1308 0
 3131 1664 40F20003 		movw	r3, #:lower16:ieee154e_vars
 3132 1668 C0F20003 		movt	r3, #:upper16:ieee154e_vars
 3133 166c 0022     		movs	r2, #0
 3134 166e C3F82C21 		str	r2, [r3, #300]
1309:build/openmote-cc2538_armgcc/openstack/02a-MAClow/IEEE802154E.c ****    
1310:build/openmote-cc2538_armgcc/openstack/02a-MAClow/IEEE802154E.c ****     // abort
1311:build/openmote-cc2538_armgcc/openstack/02a-MAClow/IEEE802154E.c ****     endSlot();
 3135              		.loc 1 1311 0
 3136 1672 FFF7FEFF 		bl	endSlot
1312:build/openmote-cc2538_armgcc/openstack/02a-MAClow/IEEE802154E.c **** }
 3137              		.loc 1 1312 0
 3138 1676 80BD     		pop	{r7, pc}
 3139              		.cfi_endproc
 3140              	.LFE24:
 3142              		.align	2
 3143              		.global	activity_ti8
 3144              		.thumb
 3145              		.thumb_func
 3147              	activity_ti8:
 3148              	.LFB25:
1313:build/openmote-cc2538_armgcc/openstack/02a-MAClow/IEEE802154E.c **** 
1314:build/openmote-cc2538_armgcc/openstack/02a-MAClow/IEEE802154E.c **** port_INLINE void activity_ti8(PORT_RADIOTIMER_WIDTH capturedTime) {
 3149              		.loc 1 1314 0
 3150              		.cfi_startproc
 3151              		@ args = 0, pretend = 0, frame = 8
 3152              		@ frame_needed = 1, uses_anonymous_args = 0
 3153 1678 80B5     		push	{r7, lr}
 3154              		.cfi_def_cfa_offset 8
 3155              		.cfi_offset 7, -8
 3156              		.cfi_offset 14, -4
 3157 167a 82B0     		sub	sp, sp, #8
 3158              		.cfi_def_cfa_offset 16
 3159 167c 00AF     		add	r7, sp, #0
 3160              		.cfi_def_cfa_register 7
 3161 167e 7860     		str	r0, [r7, #4]
1315:build/openmote-cc2538_armgcc/openstack/02a-MAClow/IEEE802154E.c ****     // change state
1316:build/openmote-cc2538_armgcc/openstack/02a-MAClow/IEEE802154E.c ****     changeState(S_RXACK);
 3162              		.loc 1 1316 0
 3163 1680 0D20     		movs	r0, #13
 3164 1682 FFF7FEFF 		bl	changeState
1317:build/openmote-cc2538_armgcc/openstack/02a-MAClow/IEEE802154E.c **** #ifdef SLOT_FSM_IMPLEMENTATION_MULTIPLE_TIMER_INTERRUPT
1318:build/openmote-cc2538_armgcc/openstack/02a-MAClow/IEEE802154E.c ****     // cancel tt7
1319:build/openmote-cc2538_armgcc/openstack/02a-MAClow/IEEE802154E.c ****     radiotimer_cancel(ACTION_NORMAL_TIMER);
1320:build/openmote-cc2538_armgcc/openstack/02a-MAClow/IEEE802154E.c **** #else
1321:build/openmote-cc2538_armgcc/openstack/02a-MAClow/IEEE802154E.c ****     // cancel tt7
1322:build/openmote-cc2538_armgcc/openstack/02a-MAClow/IEEE802154E.c ****     radiotimer_cancel();
 3165              		.loc 1 1322 0
 3166 1686 FFF7FEFF 		bl	radiotimer_cancel
1323:build/openmote-cc2538_armgcc/openstack/02a-MAClow/IEEE802154E.c **** #endif
1324:build/openmote-cc2538_armgcc/openstack/02a-MAClow/IEEE802154E.c ****     // record the captured time
1325:build/openmote-cc2538_armgcc/openstack/02a-MAClow/IEEE802154E.c ****     ieee154e_vars.lastCapturedTime = capturedTime;
 3167              		.loc 1 1325 0
 3168 168a 40F20003 		movw	r3, #:lower16:ieee154e_vars
 3169 168e C0F20003 		movt	r3, #:upper16:ieee154e_vars
 3170 1692 7A68     		ldr	r2, [r7, #4]
 3171 1694 C3F83C21 		str	r2, [r3, #316]
1326:build/openmote-cc2538_armgcc/openstack/02a-MAClow/IEEE802154E.c **** #ifdef SLOT_FSM_IMPLEMENTATION_MULTIPLE_TIMER_INTERRUPT
1327:build/openmote-cc2538_armgcc/openstack/02a-MAClow/IEEE802154E.c ****     // arm tt8
1328:build/openmote-cc2538_armgcc/openstack/02a-MAClow/IEEE802154E.c ****     radiotimer_schedule(ACTION_NORMAL_TIMER,DURATION_tt8);
1329:build/openmote-cc2538_armgcc/openstack/02a-MAClow/IEEE802154E.c **** #else
1330:build/openmote-cc2538_armgcc/openstack/02a-MAClow/IEEE802154E.c ****     // arm tt8
1331:build/openmote-cc2538_armgcc/openstack/02a-MAClow/IEEE802154E.c ****     radiotimer_schedule(DURATION_tt8);
 3172              		.loc 1 1331 0
 3173 1698 40F20003 		movw	r3, #:lower16:ieee154e_vars
 3174 169c C0F20003 		movt	r3, #:upper16:ieee154e_vars
 3175 16a0 D3F83C31 		ldr	r3, [r3, #316]
 3176 16a4 6233     		adds	r3, r3, #98
 3177 16a6 1846     		mov	r0, r3
 3178 16a8 FFF7FEFF 		bl	radiotimer_schedule
1332:build/openmote-cc2538_armgcc/openstack/02a-MAClow/IEEE802154E.c **** #endif
1333:build/openmote-cc2538_armgcc/openstack/02a-MAClow/IEEE802154E.c **** }
 3179              		.loc 1 1333 0
 3180 16ac 0837     		adds	r7, r7, #8
 3181 16ae BD46     		mov	sp, r7
 3182              		@ sp needed
 3183 16b0 80BD     		pop	{r7, pc}
 3184              		.cfi_endproc
 3185              	.LFE25:
 3187 16b2 00BF     		.align	2
 3188              		.global	activity_tie6
 3189              		.thumb
 3190              		.thumb_func
 3192              	activity_tie6:
 3193              	.LFB26:
1334:build/openmote-cc2538_armgcc/openstack/02a-MAClow/IEEE802154E.c **** 
1335:build/openmote-cc2538_armgcc/openstack/02a-MAClow/IEEE802154E.c **** port_INLINE void activity_tie6() {
 3194              		.loc 1 1335 0
 3195              		.cfi_startproc
 3196              		@ args = 0, pretend = 0, frame = 0
 3197              		@ frame_needed = 1, uses_anonymous_args = 0
 3198 16b4 80B5     		push	{r7, lr}
 3199              		.cfi_def_cfa_offset 8
 3200              		.cfi_offset 7, -8
 3201              		.cfi_offset 14, -4
 3202 16b6 00AF     		add	r7, sp, #0
 3203              		.cfi_def_cfa_register 7
1336:build/openmote-cc2538_armgcc/openstack/02a-MAClow/IEEE802154E.c ****     // log the error
1337:build/openmote-cc2538_armgcc/openstack/02a-MAClow/IEEE802154E.c ****     openserial_printError(COMPONENT_IEEE802154E,ERR_WDACKDURATION_OVERFLOWS,
1338:build/openmote-cc2538_armgcc/openstack/02a-MAClow/IEEE802154E.c ****                          (errorparameter_t)ieee154e_vars.state,
 3204              		.loc 1 1338 0
 3205 16b8 40F20003 		movw	r3, #:lower16:ieee154e_vars
 3206 16bc C0F20003 		movt	r3, #:upper16:ieee154e_vars
 3207 16c0 93F82831 		ldrb	r3, [r3, #296]	@ zero_extendqisi2
1337:build/openmote-cc2538_armgcc/openstack/02a-MAClow/IEEE802154E.c ****                          (errorparameter_t)ieee154e_vars.state,
 3208              		.loc 1 1337 0
 3209 16c4 1A46     		mov	r2, r3
 3210 16c6 40F20003 		movw	r3, #:lower16:ieee154e_vars
 3211 16ca C0F20003 		movt	r3, #:upper16:ieee154e_vars
 3212 16ce DB88     		ldrh	r3, [r3, #6]
 3213 16d0 0920     		movs	r0, #9
 3214 16d2 2921     		movs	r1, #41
 3215 16d4 FFF7FEFF 		bl	openserial_printError
1339:build/openmote-cc2538_armgcc/openstack/02a-MAClow/IEEE802154E.c ****                          (errorparameter_t)ieee154e_vars.slotOffset);
1340:build/openmote-cc2538_armgcc/openstack/02a-MAClow/IEEE802154E.c ****     // abort
1341:build/openmote-cc2538_armgcc/openstack/02a-MAClow/IEEE802154E.c ****     endSlot();
 3216              		.loc 1 1341 0
 3217 16d8 FFF7FEFF 		bl	endSlot
1342:build/openmote-cc2538_armgcc/openstack/02a-MAClow/IEEE802154E.c **** }
 3218              		.loc 1 1342 0
 3219 16dc 80BD     		pop	{r7, pc}
 3220              		.cfi_endproc
 3221              	.LFE26:
 3223 16de 00BF     		.align	2
 3224              		.global	activity_ti9
 3225              		.thumb
 3226              		.thumb_func
 3228              	activity_ti9:
 3229              	.LFB27:
1343:build/openmote-cc2538_armgcc/openstack/02a-MAClow/IEEE802154E.c **** 
1344:build/openmote-cc2538_armgcc/openstack/02a-MAClow/IEEE802154E.c **** port_INLINE void activity_ti9(PORT_RADIOTIMER_WIDTH capturedTime) {
 3230              		.loc 1 1344 0
 3231              		.cfi_startproc
 3232              		@ args = 0, pretend = 0, frame = 72
 3233              		@ frame_needed = 1, uses_anonymous_args = 0
 3234 16e0 B0B5     		push	{r4, r5, r7, lr}
 3235              		.cfi_def_cfa_offset 16
 3236              		.cfi_offset 4, -16
 3237              		.cfi_offset 5, -12
 3238              		.cfi_offset 7, -8
 3239              		.cfi_offset 14, -4
 3240 16e2 94B0     		sub	sp, sp, #80
 3241              		.cfi_def_cfa_offset 96
 3242 16e4 02AF     		add	r7, sp, #8
 3243              		.cfi_def_cfa 7, 88
 3244 16e6 7860     		str	r0, [r7, #4]
1345:build/openmote-cc2538_armgcc/openstack/02a-MAClow/IEEE802154E.c ****     ieee802154_header_iht     ieee802514_header;
1346:build/openmote-cc2538_armgcc/openstack/02a-MAClow/IEEE802154E.c ****     
1347:build/openmote-cc2538_armgcc/openstack/02a-MAClow/IEEE802154E.c ****     // change state
1348:build/openmote-cc2538_armgcc/openstack/02a-MAClow/IEEE802154E.c ****     changeState(S_TXPROC);
 3245              		.loc 1 1348 0
 3246 16e8 0E20     		movs	r0, #14
 3247 16ea FFF7FEFF 		bl	changeState
1349:build/openmote-cc2538_armgcc/openstack/02a-MAClow/IEEE802154E.c **** #ifdef SLOT_FSM_IMPLEMENTATION_MULTIPLE_TIMER_INTERRUPT
1350:build/openmote-cc2538_armgcc/openstack/02a-MAClow/IEEE802154E.c ****     // cancel tt8
1351:build/openmote-cc2538_armgcc/openstack/02a-MAClow/IEEE802154E.c ****     radiotimer_cancel(ACTION_NORMAL_TIMER);
1352:build/openmote-cc2538_armgcc/openstack/02a-MAClow/IEEE802154E.c **** #else
1353:build/openmote-cc2538_armgcc/openstack/02a-MAClow/IEEE802154E.c ****     // cancel tt8
1354:build/openmote-cc2538_armgcc/openstack/02a-MAClow/IEEE802154E.c ****     radiotimer_cancel();
 3248              		.loc 1 1354 0
 3249 16ee FFF7FEFF 		bl	radiotimer_cancel
1355:build/openmote-cc2538_armgcc/openstack/02a-MAClow/IEEE802154E.c **** #endif
1356:build/openmote-cc2538_armgcc/openstack/02a-MAClow/IEEE802154E.c ****     // turn off the radio
1357:build/openmote-cc2538_armgcc/openstack/02a-MAClow/IEEE802154E.c ****     radio_rfOff();
 3250              		.loc 1 1357 0
 3251 16f2 FFF7FEFF 		bl	radio_rfOff
1358:build/openmote-cc2538_armgcc/openstack/02a-MAClow/IEEE802154E.c ****     //compute tics radio on.
1359:build/openmote-cc2538_armgcc/openstack/02a-MAClow/IEEE802154E.c ****     ieee154e_vars.radioOnTics+=(radio_getTimerValue()-ieee154e_vars.radioOnInit);
 3252              		.loc 1 1359 0
 3253 16f6 40F20003 		movw	r3, #:lower16:ieee154e_vars
 3254 16fa C0F20003 		movt	r3, #:upper16:ieee154e_vars
 3255 16fe D3F86041 		ldr	r4, [r3, #352]
 3256 1702 FFF7FEFF 		bl	radio_getTimerValue
 3257 1706 0246     		mov	r2, r0
 3258 1708 40F20003 		movw	r3, #:lower16:ieee154e_vars
 3259 170c C0F20003 		movt	r3, #:upper16:ieee154e_vars
 3260 1710 D3F85C31 		ldr	r3, [r3, #348]
 3261 1714 D31A     		subs	r3, r2, r3
 3262 1716 E218     		adds	r2, r4, r3
 3263 1718 40F20003 		movw	r3, #:lower16:ieee154e_vars
 3264 171c C0F20003 		movt	r3, #:upper16:ieee154e_vars
 3265 1720 C3F86021 		str	r2, [r3, #352]
1360:build/openmote-cc2538_armgcc/openstack/02a-MAClow/IEEE802154E.c ****    
1361:build/openmote-cc2538_armgcc/openstack/02a-MAClow/IEEE802154E.c ****     // record the captured time
1362:build/openmote-cc2538_armgcc/openstack/02a-MAClow/IEEE802154E.c ****     ieee154e_vars.lastCapturedTime = capturedTime;
 3266              		.loc 1 1362 0
 3267 1724 40F20003 		movw	r3, #:lower16:ieee154e_vars
 3268 1728 C0F20003 		movt	r3, #:upper16:ieee154e_vars
 3269 172c 7A68     		ldr	r2, [r7, #4]
 3270 172e C3F83C21 		str	r2, [r3, #316]
1363:build/openmote-cc2538_armgcc/openstack/02a-MAClow/IEEE802154E.c ****    
1364:build/openmote-cc2538_armgcc/openstack/02a-MAClow/IEEE802154E.c ****     // get a buffer to put the (received) ACK in
1365:build/openmote-cc2538_armgcc/openstack/02a-MAClow/IEEE802154E.c ****     ieee154e_vars.ackReceived = openqueue_getFreePacketBuffer(COMPONENT_IEEE802154E);
 3271              		.loc 1 1365 0
 3272 1732 0920     		movs	r0, #9
 3273 1734 FFF7FEFF 		bl	openqueue_getFreePacketBuffer
 3274 1738 0246     		mov	r2, r0
 3275 173a 40F20003 		movw	r3, #:lower16:ieee154e_vars
 3276 173e C0F20003 		movt	r3, #:upper16:ieee154e_vars
 3277 1742 C3F83821 		str	r2, [r3, #312]
1366:build/openmote-cc2538_armgcc/openstack/02a-MAClow/IEEE802154E.c ****     if (ieee154e_vars.ackReceived==NULL) {
 3278              		.loc 1 1366 0
 3279 1746 40F20003 		movw	r3, #:lower16:ieee154e_vars
 3280 174a C0F20003 		movt	r3, #:upper16:ieee154e_vars
 3281 174e D3F83831 		ldr	r3, [r3, #312]
 3282 1752 002B     		cmp	r3, #0
 3283 1754 08D1     		bne	.L173
1367:build/openmote-cc2538_armgcc/openstack/02a-MAClow/IEEE802154E.c ****         // log the error
1368:build/openmote-cc2538_armgcc/openstack/02a-MAClow/IEEE802154E.c ****         openserial_printError(COMPONENT_IEEE802154E,ERR_NO_FREE_PACKET_BUFFER,
 3284              		.loc 1 1368 0
 3285 1756 0920     		movs	r0, #9
 3286 1758 2C21     		movs	r1, #44
 3287 175a 0022     		movs	r2, #0
 3288 175c 0023     		movs	r3, #0
 3289 175e FFF7FEFF 		bl	openserial_printError
1369:build/openmote-cc2538_armgcc/openstack/02a-MAClow/IEEE802154E.c ****                             (errorparameter_t)0,
1370:build/openmote-cc2538_armgcc/openstack/02a-MAClow/IEEE802154E.c ****                             (errorparameter_t)0);
1371:build/openmote-cc2538_armgcc/openstack/02a-MAClow/IEEE802154E.c ****         // abort
1372:build/openmote-cc2538_armgcc/openstack/02a-MAClow/IEEE802154E.c ****         endSlot();
 3290              		.loc 1 1372 0
 3291 1762 FFF7FEFF 		bl	endSlot
 3292 1766 38E1     		b	.L172
 3293              	.L173:
1373:build/openmote-cc2538_armgcc/openstack/02a-MAClow/IEEE802154E.c ****         return;
1374:build/openmote-cc2538_armgcc/openstack/02a-MAClow/IEEE802154E.c ****     }
1375:build/openmote-cc2538_armgcc/openstack/02a-MAClow/IEEE802154E.c ****       
1376:build/openmote-cc2538_armgcc/openstack/02a-MAClow/IEEE802154E.c ****     // declare ownership over that packet
1377:build/openmote-cc2538_armgcc/openstack/02a-MAClow/IEEE802154E.c ****     ieee154e_vars.ackReceived->creator = COMPONENT_IEEE802154E;
 3294              		.loc 1 1377 0
 3295 1768 40F20003 		movw	r3, #:lower16:ieee154e_vars
 3296 176c C0F20003 		movt	r3, #:upper16:ieee154e_vars
 3297 1770 D3F83831 		ldr	r3, [r3, #312]
 3298 1774 0922     		movs	r2, #9
 3299 1776 1A70     		strb	r2, [r3]
1378:build/openmote-cc2538_armgcc/openstack/02a-MAClow/IEEE802154E.c ****     ieee154e_vars.ackReceived->owner   = COMPONENT_IEEE802154E;
 3300              		.loc 1 1378 0
 3301 1778 40F20003 		movw	r3, #:lower16:ieee154e_vars
 3302 177c C0F20003 		movt	r3, #:upper16:ieee154e_vars
 3303 1780 D3F83831 		ldr	r3, [r3, #312]
 3304 1784 0922     		movs	r2, #9
 3305 1786 5A70     		strb	r2, [r3, #1]
1379:build/openmote-cc2538_armgcc/openstack/02a-MAClow/IEEE802154E.c ****     
1380:build/openmote-cc2538_armgcc/openstack/02a-MAClow/IEEE802154E.c ****     /*
1381:build/openmote-cc2538_armgcc/openstack/02a-MAClow/IEEE802154E.c ****     The do-while loop that follows is a little parsing trick.
1382:build/openmote-cc2538_armgcc/openstack/02a-MAClow/IEEE802154E.c ****     Because it contains a while(0) condition, it gets executed only once.
1383:build/openmote-cc2538_armgcc/openstack/02a-MAClow/IEEE802154E.c ****     Below the do-while loop is some code to cleans up the ack variable.
1384:build/openmote-cc2538_armgcc/openstack/02a-MAClow/IEEE802154E.c ****     Anywhere in the do-while loop, a break statement can be called to jump to
1385:build/openmote-cc2538_armgcc/openstack/02a-MAClow/IEEE802154E.c ****     the clean up code early. If the loop ends without a break, the received
1386:build/openmote-cc2538_armgcc/openstack/02a-MAClow/IEEE802154E.c ****     packet was correct. If it got aborted early (through a break), the packet
1387:build/openmote-cc2538_armgcc/openstack/02a-MAClow/IEEE802154E.c ****     was faulty.
1388:build/openmote-cc2538_armgcc/openstack/02a-MAClow/IEEE802154E.c ****     */
1389:build/openmote-cc2538_armgcc/openstack/02a-MAClow/IEEE802154E.c ****     do { // this "loop" is only executed once
1390:build/openmote-cc2538_armgcc/openstack/02a-MAClow/IEEE802154E.c ****         
1391:build/openmote-cc2538_armgcc/openstack/02a-MAClow/IEEE802154E.c ****         // retrieve the received ack frame from the radio's Rx buffer
1392:build/openmote-cc2538_armgcc/openstack/02a-MAClow/IEEE802154E.c ****         ieee154e_vars.ackReceived->payload = &(ieee154e_vars.ackReceived->packet[FIRST_FRAME_BYTE])
 3306              		.loc 1 1392 0
 3307 1788 40F20003 		movw	r3, #:lower16:ieee154e_vars
 3308 178c C0F20003 		movt	r3, #:upper16:ieee154e_vars
 3309 1790 D3F83821 		ldr	r2, [r3, #312]
 3310 1794 40F20003 		movw	r3, #:lower16:ieee154e_vars
 3311 1798 C0F20003 		movt	r3, #:upper16:ieee154e_vars
 3312 179c D3F83831 		ldr	r3, [r3, #312]
 3313 17a0 8D33     		adds	r3, r3, #141
 3314 17a2 5360     		str	r3, [r2, #4]
1393:build/openmote-cc2538_armgcc/openstack/02a-MAClow/IEEE802154E.c ****         radio_getReceivedFrame(       ieee154e_vars.ackReceived->payload,
 3315              		.loc 1 1393 0
 3316 17a4 40F20003 		movw	r3, #:lower16:ieee154e_vars
 3317 17a8 C0F20003 		movt	r3, #:upper16:ieee154e_vars
 3318 17ac D3F83831 		ldr	r3, [r3, #312]
 3319 17b0 5968     		ldr	r1, [r3, #4]
1394:build/openmote-cc2538_armgcc/openstack/02a-MAClow/IEEE802154E.c ****                                    &ieee154e_vars.ackReceived->length,
 3320              		.loc 1 1394 0
 3321 17b2 40F20003 		movw	r3, #:lower16:ieee154e_vars
 3322 17b6 C0F20003 		movt	r3, #:upper16:ieee154e_vars
 3323 17ba D3F83831 		ldr	r3, [r3, #312]
1393:build/openmote-cc2538_armgcc/openstack/02a-MAClow/IEEE802154E.c ****         radio_getReceivedFrame(       ieee154e_vars.ackReceived->payload,
 3324              		.loc 1 1393 0
 3325 17be 03F10802 		add	r2, r3, #8
1395:build/openmote-cc2538_armgcc/openstack/02a-MAClow/IEEE802154E.c ****                              sizeof(ieee154e_vars.ackReceived->packet),
1396:build/openmote-cc2538_armgcc/openstack/02a-MAClow/IEEE802154E.c ****                                    &ieee154e_vars.ackReceived->l1_rssi,
 3326              		.loc 1 1396 0
 3327 17c2 40F20003 		movw	r3, #:lower16:ieee154e_vars
 3328 17c6 C0F20003 		movt	r3, #:upper16:ieee154e_vars
 3329 17ca D3F83831 		ldr	r3, [r3, #312]
1393:build/openmote-cc2538_armgcc/openstack/02a-MAClow/IEEE802154E.c ****                                    &ieee154e_vars.ackReceived->length,
 3330              		.loc 1 1393 0
 3331 17ce 03F18904 		add	r4, r3, #137
1397:build/openmote-cc2538_armgcc/openstack/02a-MAClow/IEEE802154E.c ****                                    &ieee154e_vars.ackReceived->l1_lqi,
 3332              		.loc 1 1397 0
 3333 17d2 40F20003 		movw	r3, #:lower16:ieee154e_vars
 3334 17d6 C0F20003 		movt	r3, #:upper16:ieee154e_vars
 3335 17da D3F83831 		ldr	r3, [r3, #312]
1393:build/openmote-cc2538_armgcc/openstack/02a-MAClow/IEEE802154E.c ****                                    &ieee154e_vars.ackReceived->length,
 3336              		.loc 1 1393 0
 3337 17de 03F18A00 		add	r0, r3, #138
1398:build/openmote-cc2538_armgcc/openstack/02a-MAClow/IEEE802154E.c ****                                    &ieee154e_vars.ackReceived->l1_crc);
 3338              		.loc 1 1398 0
 3339 17e2 40F20003 		movw	r3, #:lower16:ieee154e_vars
 3340 17e6 C0F20003 		movt	r3, #:upper16:ieee154e_vars
 3341 17ea D3F83831 		ldr	r3, [r3, #312]
1393:build/openmote-cc2538_armgcc/openstack/02a-MAClow/IEEE802154E.c ****                                    &ieee154e_vars.ackReceived->length,
 3342              		.loc 1 1393 0
 3343 17ee 8B33     		adds	r3, r3, #139
 3344 17f0 0090     		str	r0, [sp]
 3345 17f2 0193     		str	r3, [sp, #4]
 3346 17f4 0846     		mov	r0, r1
 3347 17f6 1146     		mov	r1, r2
 3348 17f8 8222     		movs	r2, #130
 3349 17fa 2346     		mov	r3, r4
 3350 17fc FFF7FEFF 		bl	radio_getReceivedFrame
1399:build/openmote-cc2538_armgcc/openstack/02a-MAClow/IEEE802154E.c ****       
1400:build/openmote-cc2538_armgcc/openstack/02a-MAClow/IEEE802154E.c ****         // break if wrong length
1401:build/openmote-cc2538_armgcc/openstack/02a-MAClow/IEEE802154E.c ****         if (ieee154e_vars.ackReceived->length<LENGTH_CRC || ieee154e_vars.ackReceived->length>LENGT
 3351              		.loc 1 1401 0
 3352 1800 40F20003 		movw	r3, #:lower16:ieee154e_vars
 3353 1804 C0F20003 		movt	r3, #:upper16:ieee154e_vars
 3354 1808 D3F83831 		ldr	r3, [r3, #312]
 3355 180c 1B7A     		ldrb	r3, [r3, #8]	@ zero_extendqisi2
 3356 180e 012B     		cmp	r3, #1
 3357 1810 08D9     		bls	.L175
 3358              		.loc 1 1401 0 is_stmt 0 discriminator 1
 3359 1812 40F20003 		movw	r3, #:lower16:ieee154e_vars
 3360 1816 C0F20003 		movt	r3, #:upper16:ieee154e_vars
 3361 181a D3F83831 		ldr	r3, [r3, #312]
 3362 181e 1B7A     		ldrb	r3, [r3, #8]	@ zero_extendqisi2
 3363 1820 802B     		cmp	r3, #128
 3364 1822 0CD9     		bls	.L176
 3365              	.L175:
1402:build/openmote-cc2538_armgcc/openstack/02a-MAClow/IEEE802154E.c ****             // break from the do-while loop and execute the clean-up code below
1403:build/openmote-cc2538_armgcc/openstack/02a-MAClow/IEEE802154E.c ****             openserial_printError(COMPONENT_IEEE802154E,ERR_INVALIDPACKETFROMRADIO,
1404:build/openmote-cc2538_armgcc/openstack/02a-MAClow/IEEE802154E.c ****                             (errorparameter_t)1,
1405:build/openmote-cc2538_armgcc/openstack/02a-MAClow/IEEE802154E.c ****                             ieee154e_vars.ackReceived->length);
 3366              		.loc 1 1405 0 is_stmt 1
 3367 1824 40F20003 		movw	r3, #:lower16:ieee154e_vars
 3368 1828 C0F20003 		movt	r3, #:upper16:ieee154e_vars
 3369 182c D3F83831 		ldr	r3, [r3, #312]
 3370 1830 1B7A     		ldrb	r3, [r3, #8]	@ zero_extendqisi2
1403:build/openmote-cc2538_armgcc/openstack/02a-MAClow/IEEE802154E.c ****                             (errorparameter_t)1,
 3371              		.loc 1 1403 0
 3372 1832 0920     		movs	r0, #9
 3373 1834 3721     		movs	r1, #55
 3374 1836 0122     		movs	r2, #1
 3375 1838 FFF7FEFF 		bl	openserial_printError
1406:build/openmote-cc2538_armgcc/openstack/02a-MAClow/IEEE802154E.c ****         
1407:build/openmote-cc2538_armgcc/openstack/02a-MAClow/IEEE802154E.c ****             break;
 3376              		.loc 1 1407 0
 3377 183c BBE0     		b	.L177
 3378              	.L176:
1408:build/openmote-cc2538_armgcc/openstack/02a-MAClow/IEEE802154E.c ****         }
1409:build/openmote-cc2538_armgcc/openstack/02a-MAClow/IEEE802154E.c ****       
1410:build/openmote-cc2538_armgcc/openstack/02a-MAClow/IEEE802154E.c ****         // toss CRC (2 last bytes)
1411:build/openmote-cc2538_armgcc/openstack/02a-MAClow/IEEE802154E.c ****         packetfunctions_tossFooter(   ieee154e_vars.ackReceived, LENGTH_CRC);
 3379              		.loc 1 1411 0
 3380 183e 40F20003 		movw	r3, #:lower16:ieee154e_vars
 3381 1842 C0F20003 		movt	r3, #:upper16:ieee154e_vars
 3382 1846 D3F83831 		ldr	r3, [r3, #312]
 3383 184a 1846     		mov	r0, r3
 3384 184c 0221     		movs	r1, #2
 3385 184e FFF7FEFF 		bl	packetfunctions_tossFooter
1412:build/openmote-cc2538_armgcc/openstack/02a-MAClow/IEEE802154E.c ****    
1413:build/openmote-cc2538_armgcc/openstack/02a-MAClow/IEEE802154E.c ****         // break if invalid CRC
1414:build/openmote-cc2538_armgcc/openstack/02a-MAClow/IEEE802154E.c ****         if (ieee154e_vars.ackReceived->l1_crc==FALSE) {
 3386              		.loc 1 1414 0
 3387 1852 40F20003 		movw	r3, #:lower16:ieee154e_vars
 3388 1856 C0F20003 		movt	r3, #:upper16:ieee154e_vars
 3389 185a D3F83831 		ldr	r3, [r3, #312]
 3390 185e 93F88B30 		ldrb	r3, [r3, #139]	@ zero_extendqisi2
 3391 1862 83F00103 		eor	r3, r3, #1
 3392 1866 DBB2     		uxtb	r3, r3
 3393 1868 002B     		cmp	r3, #0
 3394 186a 00D0     		beq	.L178
1415:build/openmote-cc2538_armgcc/openstack/02a-MAClow/IEEE802154E.c ****             // break from the do-while loop and execute the clean-up code below
1416:build/openmote-cc2538_armgcc/openstack/02a-MAClow/IEEE802154E.c ****             break;
 3395              		.loc 1 1416 0
 3396 186c A3E0     		b	.L177
 3397              	.L178:
1417:build/openmote-cc2538_armgcc/openstack/02a-MAClow/IEEE802154E.c ****         }
1418:build/openmote-cc2538_armgcc/openstack/02a-MAClow/IEEE802154E.c ****       
1419:build/openmote-cc2538_armgcc/openstack/02a-MAClow/IEEE802154E.c ****         // parse the IEEE802.15.4 header (RX ACK)
1420:build/openmote-cc2538_armgcc/openstack/02a-MAClow/IEEE802154E.c ****         ieee802154_retrieveHeader(ieee154e_vars.ackReceived,&ieee802514_header);
 3398              		.loc 1 1420 0
 3399 186e 40F20003 		movw	r3, #:lower16:ieee154e_vars
 3400 1872 C0F20003 		movt	r3, #:upper16:ieee154e_vars
 3401 1876 D3F83821 		ldr	r2, [r3, #312]
 3402 187a 07F10803 		add	r3, r7, #8
 3403 187e 1046     		mov	r0, r2
 3404 1880 1946     		mov	r1, r3
 3405 1882 FFF7FEFF 		bl	ieee802154_retrieveHeader
1421:build/openmote-cc2538_armgcc/openstack/02a-MAClow/IEEE802154E.c ****       
1422:build/openmote-cc2538_armgcc/openstack/02a-MAClow/IEEE802154E.c ****         // break if invalid IEEE802.15.4 header
1423:build/openmote-cc2538_armgcc/openstack/02a-MAClow/IEEE802154E.c ****         if (ieee802514_header.valid==FALSE) {
 3406              		.loc 1 1423 0
 3407 1886 3B7A     		ldrb	r3, [r7, #8]	@ zero_extendqisi2
 3408 1888 83F00103 		eor	r3, r3, #1
 3409 188c DBB2     		uxtb	r3, r3
 3410 188e 002B     		cmp	r3, #0
 3411 1890 00D0     		beq	.L179
1424:build/openmote-cc2538_armgcc/openstack/02a-MAClow/IEEE802154E.c ****             // break from the do-while loop and execute the clean-up code below
1425:build/openmote-cc2538_armgcc/openstack/02a-MAClow/IEEE802154E.c ****             break;
 3412              		.loc 1 1425 0
 3413 1892 90E0     		b	.L177
 3414              	.L179:
1426:build/openmote-cc2538_armgcc/openstack/02a-MAClow/IEEE802154E.c ****         }
1427:build/openmote-cc2538_armgcc/openstack/02a-MAClow/IEEE802154E.c **** 
1428:build/openmote-cc2538_armgcc/openstack/02a-MAClow/IEEE802154E.c ****         // store header details in packet buffer
1429:build/openmote-cc2538_armgcc/openstack/02a-MAClow/IEEE802154E.c ****         ieee154e_vars.ackReceived->l2_frameType  = ieee802514_header.frameType;
 3415              		.loc 1 1429 0
 3416 1894 40F20003 		movw	r3, #:lower16:ieee154e_vars
 3417 1898 C0F20003 		movt	r3, #:upper16:ieee154e_vars
 3418 189c D3F83831 		ldr	r3, [r3, #312]
 3419 18a0 BA7A     		ldrb	r2, [r7, #10]	@ zero_extendqisi2
 3420 18a2 83F84920 		strb	r2, [r3, #73]
1430:build/openmote-cc2538_armgcc/openstack/02a-MAClow/IEEE802154E.c ****         ieee154e_vars.ackReceived->l2_dsn        = ieee802514_header.dsn;
 3421              		.loc 1 1430 0
 3422 18a6 40F20003 		movw	r3, #:lower16:ieee154e_vars
 3423 18aa C0F20003 		movt	r3, #:upper16:ieee154e_vars
 3424 18ae D3F83831 		ldr	r3, [r3, #312]
 3425 18b2 7A7C     		ldrb	r2, [r7, #17]	@ zero_extendqisi2
 3426 18b4 83F84A20 		strb	r2, [r3, #74]
1431:build/openmote-cc2538_armgcc/openstack/02a-MAClow/IEEE802154E.c ****         memcpy(&(ieee154e_vars.ackReceived->l2_nextORpreviousHop),&(ieee802514_header.src),sizeof(o
 3427              		.loc 1 1431 0
 3428 18b8 40F20003 		movw	r3, #:lower16:ieee154e_vars
 3429 18bc C0F20003 		movt	r3, #:upper16:ieee154e_vars
 3430 18c0 D3F83831 		ldr	r3, [r3, #312]
 3431 18c4 3833     		adds	r3, r3, #56
 3432 18c6 07F13502 		add	r2, r7, #53
 3433 18ca 1568     		ldr	r5, [r2]	@ unaligned
 3434 18cc 5468     		ldr	r4, [r2, #4]	@ unaligned
 3435 18ce 9068     		ldr	r0, [r2, #8]	@ unaligned
 3436 18d0 D168     		ldr	r1, [r2, #12]	@ unaligned
 3437 18d2 1D60     		str	r5, [r3]	@ unaligned
 3438 18d4 5C60     		str	r4, [r3, #4]	@ unaligned
 3439 18d6 9860     		str	r0, [r3, #8]	@ unaligned
 3440 18d8 D960     		str	r1, [r3, #12]	@ unaligned
 3441 18da 127C     		ldrb	r2, [r2, #16]
 3442 18dc 1A74     		strb	r2, [r3, #16]
1432:build/openmote-cc2538_armgcc/openstack/02a-MAClow/IEEE802154E.c ****       
1433:build/openmote-cc2538_armgcc/openstack/02a-MAClow/IEEE802154E.c ****         // check the security level of the ACK frame and decrypt/authenticate
1434:build/openmote-cc2538_armgcc/openstack/02a-MAClow/IEEE802154E.c ****         if (ieee154e_vars.ackReceived->l2_securityLevel != IEEE154_ASH_SLF_TYPE_NOSEC) {
 3443              		.loc 1 1434 0
 3444 18de 40F20003 		movw	r3, #:lower16:ieee154e_vars
 3445 18e2 C0F20003 		movt	r3, #:upper16:ieee154e_vars
 3446 18e6 D3F83831 		ldr	r3, [r3, #312]
 3447 18ea 93F86C30 		ldrb	r3, [r3, #108]	@ zero_extendqisi2
 3448 18ee 002B     		cmp	r3, #0
 3449 18f0 10D0     		beq	.L180
1435:build/openmote-cc2538_armgcc/openstack/02a-MAClow/IEEE802154E.c ****             if (IEEE802154_SECURITY.incomingFrame(ieee154e_vars.ackReceived) != E_SUCCESS) {
 3450              		.loc 1 1435 0
 3451 18f2 40F20003 		movw	r3, #:lower16:IEEE802154_dummy_security
 3452 18f6 C0F20003 		movt	r3, #:upper16:IEEE802154_dummy_security
 3453 18fa 1A69     		ldr	r2, [r3, #16]
 3454 18fc 40F20003 		movw	r3, #:lower16:ieee154e_vars
 3455 1900 C0F20003 		movt	r3, #:upper16:ieee154e_vars
 3456 1904 D3F83831 		ldr	r3, [r3, #312]
 3457 1908 1846     		mov	r0, r3
 3458 190a 9047     		blx	r2
 3459 190c 0346     		mov	r3, r0
 3460 190e 002B     		cmp	r3, #0
 3461 1910 00D0     		beq	.L180
1436:build/openmote-cc2538_armgcc/openstack/02a-MAClow/IEEE802154E.c ****                 break;
 3462              		.loc 1 1436 0
 3463 1912 50E0     		b	.L177
 3464              	.L180:
1437:build/openmote-cc2538_armgcc/openstack/02a-MAClow/IEEE802154E.c ****             }
1438:build/openmote-cc2538_armgcc/openstack/02a-MAClow/IEEE802154E.c ****         } // checked if unsecured frame should pass during header retrieval
1439:build/openmote-cc2538_armgcc/openstack/02a-MAClow/IEEE802154E.c ****     
1440:build/openmote-cc2538_armgcc/openstack/02a-MAClow/IEEE802154E.c ****         // toss the IEEE802.15.4 header
1441:build/openmote-cc2538_armgcc/openstack/02a-MAClow/IEEE802154E.c ****         packetfunctions_tossHeader(ieee154e_vars.ackReceived,ieee802514_header.headerLength);
 3465              		.loc 1 1441 0
 3466 1914 40F20003 		movw	r3, #:lower16:ieee154e_vars
 3467 1918 C0F20003 		movt	r3, #:upper16:ieee154e_vars
 3468 191c D3F83821 		ldr	r2, [r3, #312]
 3469 1920 7B7A     		ldrb	r3, [r7, #9]	@ zero_extendqisi2
 3470 1922 1046     		mov	r0, r2
 3471 1924 1946     		mov	r1, r3
 3472 1926 FFF7FEFF 		bl	packetfunctions_tossHeader
1442:build/openmote-cc2538_armgcc/openstack/02a-MAClow/IEEE802154E.c ****          
1443:build/openmote-cc2538_armgcc/openstack/02a-MAClow/IEEE802154E.c ****         // break if invalid ACK
1444:build/openmote-cc2538_armgcc/openstack/02a-MAClow/IEEE802154E.c ****         if (isValidAck(&ieee802514_header,ieee154e_vars.dataToSend)==FALSE) {
 3473              		.loc 1 1444 0
 3474 192a 40F20003 		movw	r3, #:lower16:ieee154e_vars
 3475 192e C0F20003 		movt	r3, #:upper16:ieee154e_vars
 3476 1932 D3F82C31 		ldr	r3, [r3, #300]
 3477 1936 07F10802 		add	r2, r7, #8
 3478 193a 1046     		mov	r0, r2
 3479 193c 1946     		mov	r1, r3
 3480 193e FFF7FEFF 		bl	isValidAck
 3481 1942 0346     		mov	r3, r0
 3482 1944 83F00103 		eor	r3, r3, #1
 3483 1948 DBB2     		uxtb	r3, r3
 3484 194a 002B     		cmp	r3, #0
 3485 194c 00D0     		beq	.L181
1445:build/openmote-cc2538_armgcc/openstack/02a-MAClow/IEEE802154E.c ****             // break from the do-while loop and execute the clean-up code below
1446:build/openmote-cc2538_armgcc/openstack/02a-MAClow/IEEE802154E.c ****             break;
 3486              		.loc 1 1446 0
 3487 194e 32E0     		b	.L177
 3488              	.L181:
1447:build/openmote-cc2538_armgcc/openstack/02a-MAClow/IEEE802154E.c ****         }
1448:build/openmote-cc2538_armgcc/openstack/02a-MAClow/IEEE802154E.c ****         
1449:build/openmote-cc2538_armgcc/openstack/02a-MAClow/IEEE802154E.c ****         if (
1450:build/openmote-cc2538_armgcc/openstack/02a-MAClow/IEEE802154E.c ****             idmanager_getIsDAGroot()==FALSE &&
 3489              		.loc 1 1450 0
 3490 1950 FFF7FEFF 		bl	idmanager_getIsDAGroot
 3491 1954 0346     		mov	r3, r0
 3492 1956 83F00103 		eor	r3, r3, #1
 3493 195a DBB2     		uxtb	r3, r3
1449:build/openmote-cc2538_armgcc/openstack/02a-MAClow/IEEE802154E.c ****             idmanager_getIsDAGroot()==FALSE &&
 3494              		.loc 1 1449 0
 3495 195c 002B     		cmp	r3, #0
 3496 195e 12D0     		beq	.L182
1451:build/openmote-cc2538_armgcc/openstack/02a-MAClow/IEEE802154E.c ****             icmpv6rpl_isPreferredParent(&(ieee154e_vars.ackReceived->l2_nextORpreviousHop))
 3497              		.loc 1 1451 0
 3498 1960 40F20003 		movw	r3, #:lower16:ieee154e_vars
 3499 1964 C0F20003 		movt	r3, #:upper16:ieee154e_vars
 3500 1968 D3F83831 		ldr	r3, [r3, #312]
 3501 196c 3833     		adds	r3, r3, #56
 3502 196e 1846     		mov	r0, r3
 3503 1970 FFF7FEFF 		bl	icmpv6rpl_isPreferredParent
 3504 1974 0346     		mov	r3, r0
1450:build/openmote-cc2538_armgcc/openstack/02a-MAClow/IEEE802154E.c ****             icmpv6rpl_isPreferredParent(&(ieee154e_vars.ackReceived->l2_nextORpreviousHop))
 3505              		.loc 1 1450 0
 3506 1976 002B     		cmp	r3, #0
 3507 1978 05D0     		beq	.L182
1452:build/openmote-cc2538_armgcc/openstack/02a-MAClow/IEEE802154E.c ****         ) {
1453:build/openmote-cc2538_armgcc/openstack/02a-MAClow/IEEE802154E.c ****             synchronizeAck(ieee802514_header.timeCorrection);
 3508              		.loc 1 1453 0
 3509 197a B7F84630 		ldrh	r3, [r7, #70]
 3510 197e 1BB2     		sxth	r3, r3
 3511 1980 1846     		mov	r0, r3
 3512 1982 FFF7FEFF 		bl	synchronizeAck
 3513              	.L182:
1454:build/openmote-cc2538_armgcc/openstack/02a-MAClow/IEEE802154E.c ****         }
1455:build/openmote-cc2538_armgcc/openstack/02a-MAClow/IEEE802154E.c ****       
1456:build/openmote-cc2538_armgcc/openstack/02a-MAClow/IEEE802154E.c ****         // inform schedule of successful transmission
1457:build/openmote-cc2538_armgcc/openstack/02a-MAClow/IEEE802154E.c ****         schedule_indicateTx(&ieee154e_vars.asn,TRUE);
 3514              		.loc 1 1457 0
 3515 1986 40F20000 		movw	r0, #:lower16:ieee154e_vars
 3516 198a C0F20000 		movt	r0, #:upper16:ieee154e_vars
 3517 198e 0121     		movs	r1, #1
 3518 1990 FFF7FEFF 		bl	schedule_indicateTx
1458:build/openmote-cc2538_armgcc/openstack/02a-MAClow/IEEE802154E.c ****       
1459:build/openmote-cc2538_armgcc/openstack/02a-MAClow/IEEE802154E.c ****         // inform upper layer
1460:build/openmote-cc2538_armgcc/openstack/02a-MAClow/IEEE802154E.c ****         notif_sendDone(ieee154e_vars.dataToSend,E_SUCCESS);
 3519              		.loc 1 1460 0
 3520 1994 40F20003 		movw	r3, #:lower16:ieee154e_vars
 3521 1998 C0F20003 		movt	r3, #:upper16:ieee154e_vars
 3522 199c D3F82C31 		ldr	r3, [r3, #300]
 3523 19a0 1846     		mov	r0, r3
 3524 19a2 0021     		movs	r1, #0
 3525 19a4 FFF7FEFF 		bl	notif_sendDone
1461:build/openmote-cc2538_armgcc/openstack/02a-MAClow/IEEE802154E.c ****         ieee154e_vars.dataToSend = NULL;
 3526              		.loc 1 1461 0
 3527 19a8 40F20003 		movw	r3, #:lower16:ieee154e_vars
 3528 19ac C0F20003 		movt	r3, #:upper16:ieee154e_vars
 3529 19b0 0022     		movs	r2, #0
 3530 19b2 C3F82C21 		str	r2, [r3, #300]
 3531              	.L177:
1462:build/openmote-cc2538_armgcc/openstack/02a-MAClow/IEEE802154E.c ****       
1463:build/openmote-cc2538_armgcc/openstack/02a-MAClow/IEEE802154E.c ****         // in any case, execute the clean-up code below (processing of ACK done)
1464:build/openmote-cc2538_armgcc/openstack/02a-MAClow/IEEE802154E.c ****     } while (0);
1465:build/openmote-cc2538_armgcc/openstack/02a-MAClow/IEEE802154E.c ****    
1466:build/openmote-cc2538_armgcc/openstack/02a-MAClow/IEEE802154E.c ****     // free the received ack so corresponding RAM memory can be recycled
1467:build/openmote-cc2538_armgcc/openstack/02a-MAClow/IEEE802154E.c ****     openqueue_freePacketBuffer(ieee154e_vars.ackReceived);
 3532              		.loc 1 1467 0
 3533 19b6 40F20003 		movw	r3, #:lower16:ieee154e_vars
 3534 19ba C0F20003 		movt	r3, #:upper16:ieee154e_vars
 3535 19be D3F83831 		ldr	r3, [r3, #312]
 3536 19c2 1846     		mov	r0, r3
 3537 19c4 FFF7FEFF 		bl	openqueue_freePacketBuffer
1468:build/openmote-cc2538_armgcc/openstack/02a-MAClow/IEEE802154E.c ****    
1469:build/openmote-cc2538_armgcc/openstack/02a-MAClow/IEEE802154E.c ****     // clear local variable
1470:build/openmote-cc2538_armgcc/openstack/02a-MAClow/IEEE802154E.c ****     ieee154e_vars.ackReceived = NULL;
 3538              		.loc 1 1470 0
 3539 19c8 40F20003 		movw	r3, #:lower16:ieee154e_vars
 3540 19cc C0F20003 		movt	r3, #:upper16:ieee154e_vars
 3541 19d0 0022     		movs	r2, #0
 3542 19d2 C3F83821 		str	r2, [r3, #312]
1471:build/openmote-cc2538_armgcc/openstack/02a-MAClow/IEEE802154E.c ****    
1472:build/openmote-cc2538_armgcc/openstack/02a-MAClow/IEEE802154E.c ****     // official end of Tx slot
1473:build/openmote-cc2538_armgcc/openstack/02a-MAClow/IEEE802154E.c ****     endSlot();
 3543              		.loc 1 1473 0
 3544 19d6 FFF7FEFF 		bl	endSlot
 3545              	.L172:
1474:build/openmote-cc2538_armgcc/openstack/02a-MAClow/IEEE802154E.c **** }
 3546              		.loc 1 1474 0
 3547 19da 4837     		adds	r7, r7, #72
 3548 19dc BD46     		mov	sp, r7
 3549              		@ sp needed
 3550 19de B0BD     		pop	{r4, r5, r7, pc}
 3551              		.cfi_endproc
 3552              	.LFE27:
 3554              		.align	2
 3555              		.global	activity_ri2
 3556              		.thumb
 3557              		.thumb_func
 3559              	activity_ri2:
 3560              	.LFB28:
1475:build/openmote-cc2538_armgcc/openstack/02a-MAClow/IEEE802154E.c **** 
1476:build/openmote-cc2538_armgcc/openstack/02a-MAClow/IEEE802154E.c **** //======= RX
1477:build/openmote-cc2538_armgcc/openstack/02a-MAClow/IEEE802154E.c **** 
1478:build/openmote-cc2538_armgcc/openstack/02a-MAClow/IEEE802154E.c **** port_INLINE void activity_ri2() {
 3561              		.loc 1 1478 0
 3562              		.cfi_startproc
 3563              		@ args = 0, pretend = 0, frame = 0
 3564              		@ frame_needed = 1, uses_anonymous_args = 0
 3565 19e0 80B5     		push	{r7, lr}
 3566              		.cfi_def_cfa_offset 8
 3567              		.cfi_offset 7, -8
 3568              		.cfi_offset 14, -4
 3569 19e2 00AF     		add	r7, sp, #0
 3570              		.cfi_def_cfa_register 7
1479:build/openmote-cc2538_armgcc/openstack/02a-MAClow/IEEE802154E.c ****     // change state
1480:build/openmote-cc2538_armgcc/openstack/02a-MAClow/IEEE802154E.c ****     changeState(S_RXDATAPREPARE);
 3571              		.loc 1 1480 0
 3572 19e4 1020     		movs	r0, #16
 3573 19e6 FFF7FEFF 		bl	changeState
1481:build/openmote-cc2538_armgcc/openstack/02a-MAClow/IEEE802154E.c **** #ifdef SLOT_FSM_IMPLEMENTATION_MULTIPLE_TIMER_INTERRUPT
1482:build/openmote-cc2538_armgcc/openstack/02a-MAClow/IEEE802154E.c **** #else
1483:build/openmote-cc2538_armgcc/openstack/02a-MAClow/IEEE802154E.c ****     // arm rt2
1484:build/openmote-cc2538_armgcc/openstack/02a-MAClow/IEEE802154E.c ****     radiotimer_schedule(DURATION_rt2);
 3574              		.loc 1 1484 0
 3575 19ea 40F20003 		movw	r3, #:lower16:ieee154e_vars
 3576 19ee C0F20003 		movt	r3, #:upper16:ieee154e_vars
 3577 19f2 D3F83C31 		ldr	r3, [r3, #316]
 3578 19f6 5833     		adds	r3, r3, #88
 3579 19f8 1846     		mov	r0, r3
 3580 19fa FFF7FEFF 		bl	radiotimer_schedule
1485:build/openmote-cc2538_armgcc/openstack/02a-MAClow/IEEE802154E.c **** #endif
1486:build/openmote-cc2538_armgcc/openstack/02a-MAClow/IEEE802154E.c ****    
1487:build/openmote-cc2538_armgcc/openstack/02a-MAClow/IEEE802154E.c ****     // configure the radio for that frequency
1488:build/openmote-cc2538_armgcc/openstack/02a-MAClow/IEEE802154E.c ****     radio_setFrequency(ieee154e_vars.freq);
 3581              		.loc 1 1488 0
 3582 19fe 40F20003 		movw	r3, #:lower16:ieee154e_vars
 3583 1a02 C0F20003 		movt	r3, #:upper16:ieee154e_vars
 3584 1a06 93F84431 		ldrb	r3, [r3, #324]	@ zero_extendqisi2
 3585 1a0a 1846     		mov	r0, r3
 3586 1a0c FFF7FEFF 		bl	radio_setFrequency
1489:build/openmote-cc2538_armgcc/openstack/02a-MAClow/IEEE802154E.c **** #ifdef SLOT_FSM_IMPLEMENTATION_MULTIPLE_TIMER_INTERRUPT
1490:build/openmote-cc2538_armgcc/openstack/02a-MAClow/IEEE802154E.c ****     radio_rxEnable_scum();
1491:build/openmote-cc2538_armgcc/openstack/02a-MAClow/IEEE802154E.c **** #else
1492:build/openmote-cc2538_armgcc/openstack/02a-MAClow/IEEE802154E.c ****     // enable the radio in Rx mode. The radio does not actively listen yet.
1493:build/openmote-cc2538_armgcc/openstack/02a-MAClow/IEEE802154E.c ****     radio_rxEnable();
 3587              		.loc 1 1493 0
 3588 1a10 FFF7FEFF 		bl	radio_rxEnable
1494:build/openmote-cc2538_armgcc/openstack/02a-MAClow/IEEE802154E.c **** #endif
1495:build/openmote-cc2538_armgcc/openstack/02a-MAClow/IEEE802154E.c ****     ieee154e_vars.radioOnInit=radio_getTimerValue();
 3589              		.loc 1 1495 0
 3590 1a14 FFF7FEFF 		bl	radio_getTimerValue
 3591 1a18 0246     		mov	r2, r0
 3592 1a1a 40F20003 		movw	r3, #:lower16:ieee154e_vars
 3593 1a1e C0F20003 		movt	r3, #:upper16:ieee154e_vars
 3594 1a22 C3F85C21 		str	r2, [r3, #348]
1496:build/openmote-cc2538_armgcc/openstack/02a-MAClow/IEEE802154E.c ****     ieee154e_vars.radioOnThisSlot=TRUE;
 3595              		.loc 1 1496 0
 3596 1a26 40F20003 		movw	r3, #:lower16:ieee154e_vars
 3597 1a2a C0F20003 		movt	r3, #:upper16:ieee154e_vars
 3598 1a2e 0122     		movs	r2, #1
 3599 1a30 83F86421 		strb	r2, [r3, #356]
1497:build/openmote-cc2538_armgcc/openstack/02a-MAClow/IEEE802154E.c ****        
1498:build/openmote-cc2538_armgcc/openstack/02a-MAClow/IEEE802154E.c ****     // change state
1499:build/openmote-cc2538_armgcc/openstack/02a-MAClow/IEEE802154E.c ****     changeState(S_RXDATAREADY);
 3600              		.loc 1 1499 0
 3601 1a34 1120     		movs	r0, #17
 3602 1a36 FFF7FEFF 		bl	changeState
1500:build/openmote-cc2538_armgcc/openstack/02a-MAClow/IEEE802154E.c **** }
 3603              		.loc 1 1500 0
 3604 1a3a 80BD     		pop	{r7, pc}
 3605              		.cfi_endproc
 3606              	.LFE28:
 3608              		.align	2
 3609              		.global	activity_rie1
 3610              		.thumb
 3611              		.thumb_func
 3613              	activity_rie1:
 3614              	.LFB29:
1501:build/openmote-cc2538_armgcc/openstack/02a-MAClow/IEEE802154E.c **** 
1502:build/openmote-cc2538_armgcc/openstack/02a-MAClow/IEEE802154E.c **** port_INLINE void activity_rie1() {
 3615              		.loc 1 1502 0
 3616              		.cfi_startproc
 3617              		@ args = 0, pretend = 0, frame = 0
 3618              		@ frame_needed = 1, uses_anonymous_args = 0
 3619 1a3c 80B5     		push	{r7, lr}
 3620              		.cfi_def_cfa_offset 8
 3621              		.cfi_offset 7, -8
 3622              		.cfi_offset 14, -4
 3623 1a3e 00AF     		add	r7, sp, #0
 3624              		.cfi_def_cfa_register 7
1503:build/openmote-cc2538_armgcc/openstack/02a-MAClow/IEEE802154E.c ****    // log the error
1504:build/openmote-cc2538_armgcc/openstack/02a-MAClow/IEEE802154E.c ****    openserial_printError(COMPONENT_IEEE802154E,ERR_MAXRXDATAPREPARE_OVERFLOWS,
1505:build/openmote-cc2538_armgcc/openstack/02a-MAClow/IEEE802154E.c ****                          (errorparameter_t)ieee154e_vars.state,
 3625              		.loc 1 1505 0
 3626 1a40 40F20003 		movw	r3, #:lower16:ieee154e_vars
 3627 1a44 C0F20003 		movt	r3, #:upper16:ieee154e_vars
 3628 1a48 93F82831 		ldrb	r3, [r3, #296]	@ zero_extendqisi2
1504:build/openmote-cc2538_armgcc/openstack/02a-MAClow/IEEE802154E.c ****                          (errorparameter_t)ieee154e_vars.state,
 3629              		.loc 1 1504 0
 3630 1a4c 1A46     		mov	r2, r3
 3631 1a4e 40F20003 		movw	r3, #:lower16:ieee154e_vars
 3632 1a52 C0F20003 		movt	r3, #:upper16:ieee154e_vars
 3633 1a56 DB88     		ldrh	r3, [r3, #6]
 3634 1a58 0920     		movs	r0, #9
 3635 1a5a 2421     		movs	r1, #36
 3636 1a5c FFF7FEFF 		bl	openserial_printError
1506:build/openmote-cc2538_armgcc/openstack/02a-MAClow/IEEE802154E.c ****                          (errorparameter_t)ieee154e_vars.slotOffset);
1507:build/openmote-cc2538_armgcc/openstack/02a-MAClow/IEEE802154E.c ****    
1508:build/openmote-cc2538_armgcc/openstack/02a-MAClow/IEEE802154E.c ****    // abort
1509:build/openmote-cc2538_armgcc/openstack/02a-MAClow/IEEE802154E.c ****    endSlot();
 3637              		.loc 1 1509 0
 3638 1a60 FFF7FEFF 		bl	endSlot
1510:build/openmote-cc2538_armgcc/openstack/02a-MAClow/IEEE802154E.c **** }
 3639              		.loc 1 1510 0
 3640 1a64 80BD     		pop	{r7, pc}
 3641              		.cfi_endproc
 3642              	.LFE29:
 3644 1a66 00BF     		.align	2
 3645              		.global	activity_ri3
 3646              		.thumb
 3647              		.thumb_func
 3649              	activity_ri3:
 3650              	.LFB30:
1511:build/openmote-cc2538_armgcc/openstack/02a-MAClow/IEEE802154E.c **** 
1512:build/openmote-cc2538_armgcc/openstack/02a-MAClow/IEEE802154E.c **** port_INLINE void activity_ri3() {
 3651              		.loc 1 1512 0
 3652              		.cfi_startproc
 3653              		@ args = 0, pretend = 0, frame = 0
 3654              		@ frame_needed = 1, uses_anonymous_args = 0
 3655 1a68 80B5     		push	{r7, lr}
 3656              		.cfi_def_cfa_offset 8
 3657              		.cfi_offset 7, -8
 3658              		.cfi_offset 14, -4
 3659 1a6a 00AF     		add	r7, sp, #0
 3660              		.cfi_def_cfa_register 7
1513:build/openmote-cc2538_armgcc/openstack/02a-MAClow/IEEE802154E.c ****     // change state
1514:build/openmote-cc2538_armgcc/openstack/02a-MAClow/IEEE802154E.c ****     changeState(S_RXDATALISTEN);
 3661              		.loc 1 1514 0
 3662 1a6c 1220     		movs	r0, #18
 3663 1a6e FFF7FEFF 		bl	changeState
1515:build/openmote-cc2538_armgcc/openstack/02a-MAClow/IEEE802154E.c ****     
1516:build/openmote-cc2538_armgcc/openstack/02a-MAClow/IEEE802154E.c ****     // give the 'go' to receive
1517:build/openmote-cc2538_armgcc/openstack/02a-MAClow/IEEE802154E.c ****     radio_rxNow();
 3664              		.loc 1 1517 0
 3665 1a72 FFF7FEFF 		bl	radio_rxNow
1518:build/openmote-cc2538_armgcc/openstack/02a-MAClow/IEEE802154E.c **** #ifdef SLOT_FSM_IMPLEMENTATION_MULTIPLE_TIMER_INTERRUPT
1519:build/openmote-cc2538_armgcc/openstack/02a-MAClow/IEEE802154E.c ****     // arm rt3
1520:build/openmote-cc2538_armgcc/openstack/02a-MAClow/IEEE802154E.c ****     radiotimer_schedule(ACTION_NORMAL_TIMER,DURATION_rt3);
1521:build/openmote-cc2538_armgcc/openstack/02a-MAClow/IEEE802154E.c **** #else
1522:build/openmote-cc2538_armgcc/openstack/02a-MAClow/IEEE802154E.c ****     // arm rt3 
1523:build/openmote-cc2538_armgcc/openstack/02a-MAClow/IEEE802154E.c ****     radiotimer_schedule(DURATION_rt3);
 3666              		.loc 1 1523 0
 3667 1a76 40F20003 		movw	r3, #:lower16:ieee154e_vars
 3668 1a7a C0F20003 		movt	r3, #:upper16:ieee154e_vars
 3669 1a7e D3F83C31 		ldr	r3, [r3, #316]
 3670 1a82 AE33     		adds	r3, r3, #174
 3671 1a84 1846     		mov	r0, r3
 3672 1a86 FFF7FEFF 		bl	radiotimer_schedule
1524:build/openmote-cc2538_armgcc/openstack/02a-MAClow/IEEE802154E.c **** #endif
1525:build/openmote-cc2538_armgcc/openstack/02a-MAClow/IEEE802154E.c **** }
 3673              		.loc 1 1525 0
 3674 1a8a 80BD     		pop	{r7, pc}
 3675              		.cfi_endproc
 3676              	.LFE30:
 3678              		.align	2
 3679              		.global	activity_rie2
 3680              		.thumb
 3681              		.thumb_func
 3683              	activity_rie2:
 3684              	.LFB31:
1526:build/openmote-cc2538_armgcc/openstack/02a-MAClow/IEEE802154E.c **** 
1527:build/openmote-cc2538_armgcc/openstack/02a-MAClow/IEEE802154E.c **** port_INLINE void activity_rie2() {
 3685              		.loc 1 1527 0
 3686              		.cfi_startproc
 3687              		@ args = 0, pretend = 0, frame = 0
 3688              		@ frame_needed = 1, uses_anonymous_args = 0
 3689 1a8c 80B5     		push	{r7, lr}
 3690              		.cfi_def_cfa_offset 8
 3691              		.cfi_offset 7, -8
 3692              		.cfi_offset 14, -4
 3693 1a8e 00AF     		add	r7, sp, #0
 3694              		.cfi_def_cfa_register 7
1528:build/openmote-cc2538_armgcc/openstack/02a-MAClow/IEEE802154E.c ****    // abort
1529:build/openmote-cc2538_armgcc/openstack/02a-MAClow/IEEE802154E.c ****    endSlot();
 3695              		.loc 1 1529 0
 3696 1a90 FFF7FEFF 		bl	endSlot
1530:build/openmote-cc2538_armgcc/openstack/02a-MAClow/IEEE802154E.c **** }
 3697              		.loc 1 1530 0
 3698 1a94 80BD     		pop	{r7, pc}
 3699              		.cfi_endproc
 3700              	.LFE31:
 3702 1a96 00BF     		.align	2
 3703              		.global	activity_ri4
 3704              		.thumb
 3705              		.thumb_func
 3707              	activity_ri4:
 3708              	.LFB32:
1531:build/openmote-cc2538_armgcc/openstack/02a-MAClow/IEEE802154E.c **** 
1532:build/openmote-cc2538_armgcc/openstack/02a-MAClow/IEEE802154E.c **** port_INLINE void activity_ri4(PORT_RADIOTIMER_WIDTH capturedTime) {
 3709              		.loc 1 1532 0
 3710              		.cfi_startproc
 3711              		@ args = 0, pretend = 0, frame = 8
 3712              		@ frame_needed = 1, uses_anonymous_args = 0
 3713 1a98 80B5     		push	{r7, lr}
 3714              		.cfi_def_cfa_offset 8
 3715              		.cfi_offset 7, -8
 3716              		.cfi_offset 14, -4
 3717 1a9a 82B0     		sub	sp, sp, #8
 3718              		.cfi_def_cfa_offset 16
 3719 1a9c 00AF     		add	r7, sp, #0
 3720              		.cfi_def_cfa_register 7
 3721 1a9e 7860     		str	r0, [r7, #4]
1533:build/openmote-cc2538_armgcc/openstack/02a-MAClow/IEEE802154E.c **** 
1534:build/openmote-cc2538_armgcc/openstack/02a-MAClow/IEEE802154E.c ****    // change state
1535:build/openmote-cc2538_armgcc/openstack/02a-MAClow/IEEE802154E.c ****    changeState(S_RXDATA);
 3722              		.loc 1 1535 0
 3723 1aa0 1320     		movs	r0, #19
 3724 1aa2 FFF7FEFF 		bl	changeState
1536:build/openmote-cc2538_armgcc/openstack/02a-MAClow/IEEE802154E.c **** #ifdef SLOT_FSM_IMPLEMENTATION_MULTIPLE_TIMER_INTERRUPT
1537:build/openmote-cc2538_armgcc/openstack/02a-MAClow/IEEE802154E.c ****    // cancel rt3
1538:build/openmote-cc2538_armgcc/openstack/02a-MAClow/IEEE802154E.c ****    radiotimer_cancel(ACTION_NORMAL_TIMER);
1539:build/openmote-cc2538_armgcc/openstack/02a-MAClow/IEEE802154E.c **** #else
1540:build/openmote-cc2538_armgcc/openstack/02a-MAClow/IEEE802154E.c ****    // cancel rt3
1541:build/openmote-cc2538_armgcc/openstack/02a-MAClow/IEEE802154E.c ****    radiotimer_cancel();
 3725              		.loc 1 1541 0
 3726 1aa6 FFF7FEFF 		bl	radiotimer_cancel
1542:build/openmote-cc2538_armgcc/openstack/02a-MAClow/IEEE802154E.c **** #endif
1543:build/openmote-cc2538_armgcc/openstack/02a-MAClow/IEEE802154E.c ****    // record the captured time
1544:build/openmote-cc2538_armgcc/openstack/02a-MAClow/IEEE802154E.c ****    ieee154e_vars.lastCapturedTime = capturedTime;
 3727              		.loc 1 1544 0
 3728 1aaa 40F20003 		movw	r3, #:lower16:ieee154e_vars
 3729 1aae C0F20003 		movt	r3, #:upper16:ieee154e_vars
 3730 1ab2 7A68     		ldr	r2, [r7, #4]
 3731 1ab4 C3F83C21 		str	r2, [r3, #316]
1545:build/openmote-cc2538_armgcc/openstack/02a-MAClow/IEEE802154E.c ****    
1546:build/openmote-cc2538_armgcc/openstack/02a-MAClow/IEEE802154E.c ****    // record the captured time to sync
1547:build/openmote-cc2538_armgcc/openstack/02a-MAClow/IEEE802154E.c ****    ieee154e_vars.syncCapturedTime = capturedTime;
 3732              		.loc 1 1547 0
 3733 1ab8 40F20003 		movw	r3, #:lower16:ieee154e_vars
 3734 1abc C0F20003 		movt	r3, #:upper16:ieee154e_vars
 3735 1ac0 7A68     		ldr	r2, [r7, #4]
 3736 1ac2 C3F84021 		str	r2, [r3, #320]
1548:build/openmote-cc2538_armgcc/openstack/02a-MAClow/IEEE802154E.c **** #ifdef SLOT_FSM_IMPLEMENTATION_MULTIPLE_TIMER_INTERRUPT
1549:build/openmote-cc2538_armgcc/openstack/02a-MAClow/IEEE802154E.c ****    radiotimer_schedule(ACTION_NORMAL_TIMER,DURATION_rt4);
1550:build/openmote-cc2538_armgcc/openstack/02a-MAClow/IEEE802154E.c **** #else
1551:build/openmote-cc2538_armgcc/openstack/02a-MAClow/IEEE802154E.c ****    radiotimer_schedule(DURATION_rt4);
 3737              		.loc 1 1551 0
 3738 1ac6 40F20003 		movw	r3, #:lower16:ieee154e_vars
 3739 1aca C0F20003 		movt	r3, #:upper16:ieee154e_vars
 3740 1ace D3F83C31 		ldr	r3, [r3, #316]
 3741 1ad2 A433     		adds	r3, r3, #164
 3742 1ad4 1846     		mov	r0, r3
 3743 1ad6 FFF7FEFF 		bl	radiotimer_schedule
1552:build/openmote-cc2538_armgcc/openstack/02a-MAClow/IEEE802154E.c **** #endif
1553:build/openmote-cc2538_armgcc/openstack/02a-MAClow/IEEE802154E.c **** }
 3744              		.loc 1 1553 0
 3745 1ada 0837     		adds	r7, r7, #8
 3746 1adc BD46     		mov	sp, r7
 3747              		@ sp needed
 3748 1ade 80BD     		pop	{r7, pc}
 3749              		.cfi_endproc
 3750              	.LFE32:
 3752              		.align	2
 3753              		.global	activity_rie3
 3754              		.thumb
 3755              		.thumb_func
 3757              	activity_rie3:
 3758              	.LFB33:
1554:build/openmote-cc2538_armgcc/openstack/02a-MAClow/IEEE802154E.c **** 
1555:build/openmote-cc2538_armgcc/openstack/02a-MAClow/IEEE802154E.c **** port_INLINE void activity_rie3() {
 3759              		.loc 1 1555 0
 3760              		.cfi_startproc
 3761              		@ args = 0, pretend = 0, frame = 0
 3762              		@ frame_needed = 1, uses_anonymous_args = 0
 3763 1ae0 80B5     		push	{r7, lr}
 3764              		.cfi_def_cfa_offset 8
 3765              		.cfi_offset 7, -8
 3766              		.cfi_offset 14, -4
 3767 1ae2 00AF     		add	r7, sp, #0
 3768              		.cfi_def_cfa_register 7
1556:build/openmote-cc2538_armgcc/openstack/02a-MAClow/IEEE802154E.c ****      
1557:build/openmote-cc2538_armgcc/openstack/02a-MAClow/IEEE802154E.c ****    // log the error
1558:build/openmote-cc2538_armgcc/openstack/02a-MAClow/IEEE802154E.c ****    openserial_printError(COMPONENT_IEEE802154E,ERR_WDDATADURATION_OVERFLOWS,
1559:build/openmote-cc2538_armgcc/openstack/02a-MAClow/IEEE802154E.c ****                          (errorparameter_t)ieee154e_vars.state,
 3769              		.loc 1 1559 0
 3770 1ae4 40F20003 		movw	r3, #:lower16:ieee154e_vars
 3771 1ae8 C0F20003 		movt	r3, #:upper16:ieee154e_vars
 3772 1aec 93F82831 		ldrb	r3, [r3, #296]	@ zero_extendqisi2
1558:build/openmote-cc2538_armgcc/openstack/02a-MAClow/IEEE802154E.c ****                          (errorparameter_t)ieee154e_vars.state,
 3773              		.loc 1 1558 0
 3774 1af0 1A46     		mov	r2, r3
 3775 1af2 40F20003 		movw	r3, #:lower16:ieee154e_vars
 3776 1af6 C0F20003 		movt	r3, #:upper16:ieee154e_vars
 3777 1afa DB88     		ldrh	r3, [r3, #6]
 3778 1afc 0920     		movs	r0, #9
 3779 1afe 2621     		movs	r1, #38
 3780 1b00 FFF7FEFF 		bl	openserial_printError
1560:build/openmote-cc2538_armgcc/openstack/02a-MAClow/IEEE802154E.c ****                          (errorparameter_t)ieee154e_vars.slotOffset);
1561:build/openmote-cc2538_armgcc/openstack/02a-MAClow/IEEE802154E.c ****    
1562:build/openmote-cc2538_armgcc/openstack/02a-MAClow/IEEE802154E.c ****    // abort
1563:build/openmote-cc2538_armgcc/openstack/02a-MAClow/IEEE802154E.c ****    endSlot();
 3781              		.loc 1 1563 0
 3782 1b04 FFF7FEFF 		bl	endSlot
1564:build/openmote-cc2538_armgcc/openstack/02a-MAClow/IEEE802154E.c **** }
 3783              		.loc 1 1564 0
 3784 1b08 80BD     		pop	{r7, pc}
 3785              		.cfi_endproc
 3786              	.LFE33:
 3788 1b0a 00BF     		.align	2
 3789              		.global	activity_ri5
 3790              		.thumb
 3791              		.thumb_func
 3793              	activity_ri5:
 3794              	.LFB34:
1565:build/openmote-cc2538_armgcc/openstack/02a-MAClow/IEEE802154E.c **** 
1566:build/openmote-cc2538_armgcc/openstack/02a-MAClow/IEEE802154E.c **** port_INLINE void activity_ri5(PORT_RADIOTIMER_WIDTH capturedTime) {
 3795              		.loc 1 1566 0
 3796              		.cfi_startproc
 3797              		@ args = 0, pretend = 0, frame = 80
 3798              		@ frame_needed = 1, uses_anonymous_args = 0
 3799 1b0c B0B5     		push	{r4, r5, r7, lr}
 3800              		.cfi_def_cfa_offset 16
 3801              		.cfi_offset 4, -16
 3802              		.cfi_offset 5, -12
 3803              		.cfi_offset 7, -8
 3804              		.cfi_offset 14, -4
 3805 1b0e 96B0     		sub	sp, sp, #88
 3806              		.cfi_def_cfa_offset 104
 3807 1b10 02AF     		add	r7, sp, #8
 3808              		.cfi_def_cfa 7, 96
 3809 1b12 7860     		str	r0, [r7, #4]
1567:build/openmote-cc2538_armgcc/openstack/02a-MAClow/IEEE802154E.c ****    ieee802154_header_iht ieee802514_header;
1568:build/openmote-cc2538_armgcc/openstack/02a-MAClow/IEEE802154E.c ****    uint16_t lenIE=0;
 3810              		.loc 1 1568 0
 3811 1b14 0023     		movs	r3, #0
 3812 1b16 FB81     		strh	r3, [r7, #14]	@ movhi
1569:build/openmote-cc2538_armgcc/openstack/02a-MAClow/IEEE802154E.c ****    
1570:build/openmote-cc2538_armgcc/openstack/02a-MAClow/IEEE802154E.c ****    // change state
1571:build/openmote-cc2538_armgcc/openstack/02a-MAClow/IEEE802154E.c ****    changeState(S_TXACKOFFSET);
 3813              		.loc 1 1571 0
 3814 1b18 1420     		movs	r0, #20
 3815 1b1a FFF7FEFF 		bl	changeState
1572:build/openmote-cc2538_armgcc/openstack/02a-MAClow/IEEE802154E.c **** #ifdef SLOT_FSM_IMPLEMENTATION_MULTIPLE_TIMER_INTERRUPT
1573:build/openmote-cc2538_armgcc/openstack/02a-MAClow/IEEE802154E.c ****    // cancel rt4
1574:build/openmote-cc2538_armgcc/openstack/02a-MAClow/IEEE802154E.c ****    radiotimer_cancel(ACTION_NORMAL_TIMER);
1575:build/openmote-cc2538_armgcc/openstack/02a-MAClow/IEEE802154E.c **** #else
1576:build/openmote-cc2538_armgcc/openstack/02a-MAClow/IEEE802154E.c ****    // cancel rt4
1577:build/openmote-cc2538_armgcc/openstack/02a-MAClow/IEEE802154E.c ****    radiotimer_cancel();
 3816              		.loc 1 1577 0
 3817 1b1e FFF7FEFF 		bl	radiotimer_cancel
1578:build/openmote-cc2538_armgcc/openstack/02a-MAClow/IEEE802154E.c **** #endif
1579:build/openmote-cc2538_armgcc/openstack/02a-MAClow/IEEE802154E.c ****    // turn off the radio
1580:build/openmote-cc2538_armgcc/openstack/02a-MAClow/IEEE802154E.c ****    radio_rfOff();
 3818              		.loc 1 1580 0
 3819 1b22 FFF7FEFF 		bl	radio_rfOff
1581:build/openmote-cc2538_armgcc/openstack/02a-MAClow/IEEE802154E.c ****    ieee154e_vars.radioOnTics+=radio_getTimerValue()-ieee154e_vars.radioOnInit;
 3820              		.loc 1 1581 0
 3821 1b26 40F20003 		movw	r3, #:lower16:ieee154e_vars
 3822 1b2a C0F20003 		movt	r3, #:upper16:ieee154e_vars
 3823 1b2e D3F86041 		ldr	r4, [r3, #352]
 3824 1b32 FFF7FEFF 		bl	radio_getTimerValue
 3825 1b36 0246     		mov	r2, r0
 3826 1b38 40F20003 		movw	r3, #:lower16:ieee154e_vars
 3827 1b3c C0F20003 		movt	r3, #:upper16:ieee154e_vars
 3828 1b40 D3F85C31 		ldr	r3, [r3, #348]
 3829 1b44 D31A     		subs	r3, r2, r3
 3830 1b46 E218     		adds	r2, r4, r3
 3831 1b48 40F20003 		movw	r3, #:lower16:ieee154e_vars
 3832 1b4c C0F20003 		movt	r3, #:upper16:ieee154e_vars
 3833 1b50 C3F86021 		str	r2, [r3, #352]
1582:build/openmote-cc2538_armgcc/openstack/02a-MAClow/IEEE802154E.c ****    // get a buffer to put the (received) data in
1583:build/openmote-cc2538_armgcc/openstack/02a-MAClow/IEEE802154E.c ****    ieee154e_vars.dataReceived = openqueue_getFreePacketBuffer(COMPONENT_IEEE802154E);
 3834              		.loc 1 1583 0
 3835 1b54 0920     		movs	r0, #9
 3836 1b56 FFF7FEFF 		bl	openqueue_getFreePacketBuffer
 3837 1b5a 0246     		mov	r2, r0
 3838 1b5c 40F20003 		movw	r3, #:lower16:ieee154e_vars
 3839 1b60 C0F20003 		movt	r3, #:upper16:ieee154e_vars
 3840 1b64 C3F83021 		str	r2, [r3, #304]
1584:build/openmote-cc2538_armgcc/openstack/02a-MAClow/IEEE802154E.c ****    if (ieee154e_vars.dataReceived==NULL) {
 3841              		.loc 1 1584 0
 3842 1b68 40F20003 		movw	r3, #:lower16:ieee154e_vars
 3843 1b6c C0F20003 		movt	r3, #:upper16:ieee154e_vars
 3844 1b70 D3F83031 		ldr	r3, [r3, #304]
 3845 1b74 002B     		cmp	r3, #0
 3846 1b76 08D1     		bne	.L190
1585:build/openmote-cc2538_armgcc/openstack/02a-MAClow/IEEE802154E.c ****       // log the error
1586:build/openmote-cc2538_armgcc/openstack/02a-MAClow/IEEE802154E.c ****       openserial_printError(COMPONENT_IEEE802154E,ERR_NO_FREE_PACKET_BUFFER,
 3847              		.loc 1 1586 0
 3848 1b78 0920     		movs	r0, #9
 3849 1b7a 2C21     		movs	r1, #44
 3850 1b7c 0022     		movs	r2, #0
 3851 1b7e 0023     		movs	r3, #0
 3852 1b80 FFF7FEFF 		bl	openserial_printError
1587:build/openmote-cc2538_armgcc/openstack/02a-MAClow/IEEE802154E.c ****                             (errorparameter_t)0,
1588:build/openmote-cc2538_armgcc/openstack/02a-MAClow/IEEE802154E.c ****                             (errorparameter_t)0);
1589:build/openmote-cc2538_armgcc/openstack/02a-MAClow/IEEE802154E.c ****       // abort
1590:build/openmote-cc2538_armgcc/openstack/02a-MAClow/IEEE802154E.c ****       endSlot();
 3853              		.loc 1 1590 0
 3854 1b84 FFF7FEFF 		bl	endSlot
1591:build/openmote-cc2538_armgcc/openstack/02a-MAClow/IEEE802154E.c ****       return;
 3855              		.loc 1 1591 0
 3856 1b88 9BE1     		b	.L189
 3857              	.L190:
1592:build/openmote-cc2538_armgcc/openstack/02a-MAClow/IEEE802154E.c ****    }
1593:build/openmote-cc2538_armgcc/openstack/02a-MAClow/IEEE802154E.c ****    
1594:build/openmote-cc2538_armgcc/openstack/02a-MAClow/IEEE802154E.c ****    // declare ownership over that packet
1595:build/openmote-cc2538_armgcc/openstack/02a-MAClow/IEEE802154E.c ****    ieee154e_vars.dataReceived->creator = COMPONENT_IEEE802154E;
 3858              		.loc 1 1595 0
 3859 1b8a 40F20003 		movw	r3, #:lower16:ieee154e_vars
 3860 1b8e C0F20003 		movt	r3, #:upper16:ieee154e_vars
 3861 1b92 D3F83031 		ldr	r3, [r3, #304]
 3862 1b96 0922     		movs	r2, #9
 3863 1b98 1A70     		strb	r2, [r3]
1596:build/openmote-cc2538_armgcc/openstack/02a-MAClow/IEEE802154E.c ****    ieee154e_vars.dataReceived->owner   = COMPONENT_IEEE802154E;
 3864              		.loc 1 1596 0
 3865 1b9a 40F20003 		movw	r3, #:lower16:ieee154e_vars
 3866 1b9e C0F20003 		movt	r3, #:upper16:ieee154e_vars
 3867 1ba2 D3F83031 		ldr	r3, [r3, #304]
 3868 1ba6 0922     		movs	r2, #9
 3869 1ba8 5A70     		strb	r2, [r3, #1]
1597:build/openmote-cc2538_armgcc/openstack/02a-MAClow/IEEE802154E.c **** 
1598:build/openmote-cc2538_armgcc/openstack/02a-MAClow/IEEE802154E.c ****    /*
1599:build/openmote-cc2538_armgcc/openstack/02a-MAClow/IEEE802154E.c ****    The do-while loop that follows is a little parsing trick.
1600:build/openmote-cc2538_armgcc/openstack/02a-MAClow/IEEE802154E.c ****    Because it contains a while(0) condition, it gets executed only once.
1601:build/openmote-cc2538_armgcc/openstack/02a-MAClow/IEEE802154E.c ****    The behavior is:
1602:build/openmote-cc2538_armgcc/openstack/02a-MAClow/IEEE802154E.c ****    - if a break occurs inside the do{} body, the error code below the loop
1603:build/openmote-cc2538_armgcc/openstack/02a-MAClow/IEEE802154E.c ****      gets executed. This indicates something is wrong with the packet being 
1604:build/openmote-cc2538_armgcc/openstack/02a-MAClow/IEEE802154E.c ****      parsed.
1605:build/openmote-cc2538_armgcc/openstack/02a-MAClow/IEEE802154E.c ****    - if a return occurs inside the do{} body, the error code below the loop
1606:build/openmote-cc2538_armgcc/openstack/02a-MAClow/IEEE802154E.c ****      does not get executed. This indicates the received packet is correct.
1607:build/openmote-cc2538_armgcc/openstack/02a-MAClow/IEEE802154E.c ****    */
1608:build/openmote-cc2538_armgcc/openstack/02a-MAClow/IEEE802154E.c ****    do { // this "loop" is only executed once
1609:build/openmote-cc2538_armgcc/openstack/02a-MAClow/IEEE802154E.c ****       
1610:build/openmote-cc2538_armgcc/openstack/02a-MAClow/IEEE802154E.c ****       // retrieve the received data frame from the radio's Rx buffer
1611:build/openmote-cc2538_armgcc/openstack/02a-MAClow/IEEE802154E.c ****       ieee154e_vars.dataReceived->payload = &(ieee154e_vars.dataReceived->packet[FIRST_FRAME_BYTE])
 3870              		.loc 1 1611 0
 3871 1baa 40F20003 		movw	r3, #:lower16:ieee154e_vars
 3872 1bae C0F20003 		movt	r3, #:upper16:ieee154e_vars
 3873 1bb2 D3F83021 		ldr	r2, [r3, #304]
 3874 1bb6 40F20003 		movw	r3, #:lower16:ieee154e_vars
 3875 1bba C0F20003 		movt	r3, #:upper16:ieee154e_vars
 3876 1bbe D3F83031 		ldr	r3, [r3, #304]
 3877 1bc2 8D33     		adds	r3, r3, #141
 3878 1bc4 5360     		str	r3, [r2, #4]
1612:build/openmote-cc2538_armgcc/openstack/02a-MAClow/IEEE802154E.c ****       radio_getReceivedFrame(       ieee154e_vars.dataReceived->payload,
 3879              		.loc 1 1612 0
 3880 1bc6 40F20003 		movw	r3, #:lower16:ieee154e_vars
 3881 1bca C0F20003 		movt	r3, #:upper16:ieee154e_vars
 3882 1bce D3F83031 		ldr	r3, [r3, #304]
 3883 1bd2 5968     		ldr	r1, [r3, #4]
1613:build/openmote-cc2538_armgcc/openstack/02a-MAClow/IEEE802154E.c ****                                    &ieee154e_vars.dataReceived->length,
 3884              		.loc 1 1613 0
 3885 1bd4 40F20003 		movw	r3, #:lower16:ieee154e_vars
 3886 1bd8 C0F20003 		movt	r3, #:upper16:ieee154e_vars
 3887 1bdc D3F83031 		ldr	r3, [r3, #304]
1612:build/openmote-cc2538_armgcc/openstack/02a-MAClow/IEEE802154E.c ****       radio_getReceivedFrame(       ieee154e_vars.dataReceived->payload,
 3888              		.loc 1 1612 0
 3889 1be0 03F10802 		add	r2, r3, #8
1614:build/openmote-cc2538_armgcc/openstack/02a-MAClow/IEEE802154E.c ****                              sizeof(ieee154e_vars.dataReceived->packet),
1615:build/openmote-cc2538_armgcc/openstack/02a-MAClow/IEEE802154E.c ****                                    &ieee154e_vars.dataReceived->l1_rssi,
 3890              		.loc 1 1615 0
 3891 1be4 40F20003 		movw	r3, #:lower16:ieee154e_vars
 3892 1be8 C0F20003 		movt	r3, #:upper16:ieee154e_vars
 3893 1bec D3F83031 		ldr	r3, [r3, #304]
1612:build/openmote-cc2538_armgcc/openstack/02a-MAClow/IEEE802154E.c ****                                    &ieee154e_vars.dataReceived->length,
 3894              		.loc 1 1612 0
 3895 1bf0 03F18904 		add	r4, r3, #137
1616:build/openmote-cc2538_armgcc/openstack/02a-MAClow/IEEE802154E.c ****                                    &ieee154e_vars.dataReceived->l1_lqi,
 3896              		.loc 1 1616 0
 3897 1bf4 40F20003 		movw	r3, #:lower16:ieee154e_vars
 3898 1bf8 C0F20003 		movt	r3, #:upper16:ieee154e_vars
 3899 1bfc D3F83031 		ldr	r3, [r3, #304]
1612:build/openmote-cc2538_armgcc/openstack/02a-MAClow/IEEE802154E.c ****                                    &ieee154e_vars.dataReceived->length,
 3900              		.loc 1 1612 0
 3901 1c00 03F18A00 		add	r0, r3, #138
1617:build/openmote-cc2538_armgcc/openstack/02a-MAClow/IEEE802154E.c ****                                    &ieee154e_vars.dataReceived->l1_crc);
 3902              		.loc 1 1617 0
 3903 1c04 40F20003 		movw	r3, #:lower16:ieee154e_vars
 3904 1c08 C0F20003 		movt	r3, #:upper16:ieee154e_vars
 3905 1c0c D3F83031 		ldr	r3, [r3, #304]
1612:build/openmote-cc2538_armgcc/openstack/02a-MAClow/IEEE802154E.c ****                                    &ieee154e_vars.dataReceived->length,
 3906              		.loc 1 1612 0
 3907 1c10 8B33     		adds	r3, r3, #139
 3908 1c12 0090     		str	r0, [sp]
 3909 1c14 0193     		str	r3, [sp, #4]
 3910 1c16 0846     		mov	r0, r1
 3911 1c18 1146     		mov	r1, r2
 3912 1c1a 8222     		movs	r2, #130
 3913 1c1c 2346     		mov	r3, r4
 3914 1c1e FFF7FEFF 		bl	radio_getReceivedFrame
1618:build/openmote-cc2538_armgcc/openstack/02a-MAClow/IEEE802154E.c ****       
1619:build/openmote-cc2538_armgcc/openstack/02a-MAClow/IEEE802154E.c ****       // break if wrong length
1620:build/openmote-cc2538_armgcc/openstack/02a-MAClow/IEEE802154E.c ****       if (ieee154e_vars.dataReceived->length<LENGTH_CRC || ieee154e_vars.dataReceived->length>LENGT
 3915              		.loc 1 1620 0
 3916 1c22 40F20003 		movw	r3, #:lower16:ieee154e_vars
 3917 1c26 C0F20003 		movt	r3, #:upper16:ieee154e_vars
 3918 1c2a D3F83031 		ldr	r3, [r3, #304]
 3919 1c2e 1B7A     		ldrb	r3, [r3, #8]	@ zero_extendqisi2
 3920 1c30 012B     		cmp	r3, #1
 3921 1c32 08D9     		bls	.L192
 3922              		.loc 1 1620 0 is_stmt 0 discriminator 1
 3923 1c34 40F20003 		movw	r3, #:lower16:ieee154e_vars
 3924 1c38 C0F20003 		movt	r3, #:upper16:ieee154e_vars
 3925 1c3c D3F83031 		ldr	r3, [r3, #304]
 3926 1c40 1B7A     		ldrb	r3, [r3, #8]	@ zero_extendqisi2
 3927 1c42 802B     		cmp	r3, #128
 3928 1c44 0CD9     		bls	.L193
 3929              	.L192:
1621:build/openmote-cc2538_armgcc/openstack/02a-MAClow/IEEE802154E.c ****          // jump to the error code below this do-while loop
1622:build/openmote-cc2538_armgcc/openstack/02a-MAClow/IEEE802154E.c ****         openserial_printError(COMPONENT_IEEE802154E,ERR_INVALIDPACKETFROMRADIO,
1623:build/openmote-cc2538_armgcc/openstack/02a-MAClow/IEEE802154E.c ****                             (errorparameter_t)2,
1624:build/openmote-cc2538_armgcc/openstack/02a-MAClow/IEEE802154E.c ****                             ieee154e_vars.dataReceived->length);
 3930              		.loc 1 1624 0 is_stmt 1
 3931 1c46 40F20003 		movw	r3, #:lower16:ieee154e_vars
 3932 1c4a C0F20003 		movt	r3, #:upper16:ieee154e_vars
 3933 1c4e D3F83031 		ldr	r3, [r3, #304]
 3934 1c52 1B7A     		ldrb	r3, [r3, #8]	@ zero_extendqisi2
1622:build/openmote-cc2538_armgcc/openstack/02a-MAClow/IEEE802154E.c ****                             (errorparameter_t)2,
 3935              		.loc 1 1622 0
 3936 1c54 0920     		movs	r0, #9
 3937 1c56 3721     		movs	r1, #55
 3938 1c58 0222     		movs	r2, #2
 3939 1c5a FFF7FEFF 		bl	openserial_printError
1625:build/openmote-cc2538_armgcc/openstack/02a-MAClow/IEEE802154E.c ****          break;
 3940              		.loc 1 1625 0
 3941 1c5e 1EE1     		b	.L194
 3942              	.L193:
1626:build/openmote-cc2538_armgcc/openstack/02a-MAClow/IEEE802154E.c ****       }
1627:build/openmote-cc2538_armgcc/openstack/02a-MAClow/IEEE802154E.c ****       
1628:build/openmote-cc2538_armgcc/openstack/02a-MAClow/IEEE802154E.c ****       // toss CRC (2 last bytes)
1629:build/openmote-cc2538_armgcc/openstack/02a-MAClow/IEEE802154E.c ****       packetfunctions_tossFooter(   ieee154e_vars.dataReceived, LENGTH_CRC);
 3943              		.loc 1 1629 0
 3944 1c60 40F20003 		movw	r3, #:lower16:ieee154e_vars
 3945 1c64 C0F20003 		movt	r3, #:upper16:ieee154e_vars
 3946 1c68 D3F83031 		ldr	r3, [r3, #304]
 3947 1c6c 1846     		mov	r0, r3
 3948 1c6e 0221     		movs	r1, #2
 3949 1c70 FFF7FEFF 		bl	packetfunctions_tossFooter
1630:build/openmote-cc2538_armgcc/openstack/02a-MAClow/IEEE802154E.c ****       
1631:build/openmote-cc2538_armgcc/openstack/02a-MAClow/IEEE802154E.c ****       // if CRC doesn't check, stop
1632:build/openmote-cc2538_armgcc/openstack/02a-MAClow/IEEE802154E.c ****       if (ieee154e_vars.dataReceived->l1_crc==FALSE) {
 3950              		.loc 1 1632 0
 3951 1c74 40F20003 		movw	r3, #:lower16:ieee154e_vars
 3952 1c78 C0F20003 		movt	r3, #:upper16:ieee154e_vars
 3953 1c7c D3F83031 		ldr	r3, [r3, #304]
 3954 1c80 93F88B30 		ldrb	r3, [r3, #139]	@ zero_extendqisi2
 3955 1c84 83F00103 		eor	r3, r3, #1
 3956 1c88 DBB2     		uxtb	r3, r3
 3957 1c8a 002B     		cmp	r3, #0
 3958 1c8c 00D0     		beq	.L195
1633:build/openmote-cc2538_armgcc/openstack/02a-MAClow/IEEE802154E.c ****          // jump to the error code below this do-while loop
1634:build/openmote-cc2538_armgcc/openstack/02a-MAClow/IEEE802154E.c ****          break;
 3959              		.loc 1 1634 0
 3960 1c8e 06E1     		b	.L194
 3961              	.L195:
1635:build/openmote-cc2538_armgcc/openstack/02a-MAClow/IEEE802154E.c ****       }
1636:build/openmote-cc2538_armgcc/openstack/02a-MAClow/IEEE802154E.c ****       
1637:build/openmote-cc2538_armgcc/openstack/02a-MAClow/IEEE802154E.c ****       // parse the IEEE802.15.4 header (RX DATA)
1638:build/openmote-cc2538_armgcc/openstack/02a-MAClow/IEEE802154E.c ****       ieee802154_retrieveHeader(ieee154e_vars.dataReceived,&ieee802514_header);
 3962              		.loc 1 1638 0
 3963 1c90 40F20003 		movw	r3, #:lower16:ieee154e_vars
 3964 1c94 C0F20003 		movt	r3, #:upper16:ieee154e_vars
 3965 1c98 D3F83021 		ldr	r2, [r3, #304]
 3966 1c9c 07F11003 		add	r3, r7, #16
 3967 1ca0 1046     		mov	r0, r2
 3968 1ca2 1946     		mov	r1, r3
 3969 1ca4 FFF7FEFF 		bl	ieee802154_retrieveHeader
1639:build/openmote-cc2538_armgcc/openstack/02a-MAClow/IEEE802154E.c ****       
1640:build/openmote-cc2538_armgcc/openstack/02a-MAClow/IEEE802154E.c ****       // break if invalid IEEE802.15.4 header
1641:build/openmote-cc2538_armgcc/openstack/02a-MAClow/IEEE802154E.c ****       if (ieee802514_header.valid==FALSE) {
 3970              		.loc 1 1641 0
 3971 1ca8 3B7C     		ldrb	r3, [r7, #16]	@ zero_extendqisi2
 3972 1caa 83F00103 		eor	r3, r3, #1
 3973 1cae DBB2     		uxtb	r3, r3
 3974 1cb0 002B     		cmp	r3, #0
 3975 1cb2 00D0     		beq	.L196
1642:build/openmote-cc2538_armgcc/openstack/02a-MAClow/IEEE802154E.c ****          // break from the do-while loop and execute the clean-up code below
1643:build/openmote-cc2538_armgcc/openstack/02a-MAClow/IEEE802154E.c ****          break;
 3976              		.loc 1 1643 0
 3977 1cb4 F3E0     		b	.L194
 3978              	.L196:
1644:build/openmote-cc2538_armgcc/openstack/02a-MAClow/IEEE802154E.c ****       }
1645:build/openmote-cc2538_armgcc/openstack/02a-MAClow/IEEE802154E.c **** 
1646:build/openmote-cc2538_armgcc/openstack/02a-MAClow/IEEE802154E.c ****       // store header details in packet buffer
1647:build/openmote-cc2538_armgcc/openstack/02a-MAClow/IEEE802154E.c ****       ieee154e_vars.dataReceived->l2_frameType      = ieee802514_header.frameType;
 3979              		.loc 1 1647 0
 3980 1cb6 40F20003 		movw	r3, #:lower16:ieee154e_vars
 3981 1cba C0F20003 		movt	r3, #:upper16:ieee154e_vars
 3982 1cbe D3F83031 		ldr	r3, [r3, #304]
 3983 1cc2 BA7C     		ldrb	r2, [r7, #18]	@ zero_extendqisi2
 3984 1cc4 83F84920 		strb	r2, [r3, #73]
1648:build/openmote-cc2538_armgcc/openstack/02a-MAClow/IEEE802154E.c ****       ieee154e_vars.dataReceived->l2_dsn            = ieee802514_header.dsn;
 3985              		.loc 1 1648 0
 3986 1cc8 40F20003 		movw	r3, #:lower16:ieee154e_vars
 3987 1ccc C0F20003 		movt	r3, #:upper16:ieee154e_vars
 3988 1cd0 D3F83031 		ldr	r3, [r3, #304]
 3989 1cd4 7A7E     		ldrb	r2, [r7, #25]	@ zero_extendqisi2
 3990 1cd6 83F84A20 		strb	r2, [r3, #74]
1649:build/openmote-cc2538_armgcc/openstack/02a-MAClow/IEEE802154E.c ****       ieee154e_vars.dataReceived->l2_IEListPresent  = ieee802514_header.ieListPresent;
 3991              		.loc 1 1649 0
 3992 1cda 40F20003 		movw	r3, #:lower16:ieee154e_vars
 3993 1cde C0F20003 		movt	r3, #:upper16:ieee154e_vars
 3994 1ce2 D3F83031 		ldr	r3, [r3, #304]
 3995 1ce6 FA7D     		ldrb	r2, [r7, #23]	@ zero_extendqisi2
 3996 1ce8 83F86520 		strb	r2, [r3, #101]
1650:build/openmote-cc2538_armgcc/openstack/02a-MAClow/IEEE802154E.c ****       memcpy(&(ieee154e_vars.dataReceived->l2_nextORpreviousHop),&(ieee802514_header.src),sizeof(op
 3997              		.loc 1 1650 0
 3998 1cec 40F20003 		movw	r3, #:lower16:ieee154e_vars
 3999 1cf0 C0F20003 		movt	r3, #:upper16:ieee154e_vars
 4000 1cf4 D3F83031 		ldr	r3, [r3, #304]
 4001 1cf8 3833     		adds	r3, r3, #56
 4002 1cfa 07F13D02 		add	r2, r7, #61
 4003 1cfe 1568     		ldr	r5, [r2]	@ unaligned
 4004 1d00 5468     		ldr	r4, [r2, #4]	@ unaligned
 4005 1d02 9068     		ldr	r0, [r2, #8]	@ unaligned
 4006 1d04 D168     		ldr	r1, [r2, #12]	@ unaligned
 4007 1d06 1D60     		str	r5, [r3]	@ unaligned
 4008 1d08 5C60     		str	r4, [r3, #4]	@ unaligned
 4009 1d0a 9860     		str	r0, [r3, #8]	@ unaligned
 4010 1d0c D960     		str	r1, [r3, #12]	@ unaligned
 4011 1d0e 127C     		ldrb	r2, [r2, #16]
 4012 1d10 1A74     		strb	r2, [r3, #16]
1651:build/openmote-cc2538_armgcc/openstack/02a-MAClow/IEEE802154E.c **** 
1652:build/openmote-cc2538_armgcc/openstack/02a-MAClow/IEEE802154E.c ****       // if security is enabled, decrypt/authenticate the frame.
1653:build/openmote-cc2538_armgcc/openstack/02a-MAClow/IEEE802154E.c ****       if (ieee154e_vars.dataReceived->l2_securityLevel != IEEE154_ASH_SLF_TYPE_NOSEC) {
 4013              		.loc 1 1653 0
 4014 1d12 40F20003 		movw	r3, #:lower16:ieee154e_vars
 4015 1d16 C0F20003 		movt	r3, #:upper16:ieee154e_vars
 4016 1d1a D3F83031 		ldr	r3, [r3, #304]
 4017 1d1e 93F86C30 		ldrb	r3, [r3, #108]	@ zero_extendqisi2
 4018 1d22 002B     		cmp	r3, #0
 4019 1d24 10D0     		beq	.L197
1654:build/openmote-cc2538_armgcc/openstack/02a-MAClow/IEEE802154E.c ****          if (IEEE802154_SECURITY.incomingFrame(ieee154e_vars.dataReceived) != E_SUCCESS) {
 4020              		.loc 1 1654 0
 4021 1d26 40F20003 		movw	r3, #:lower16:IEEE802154_dummy_security
 4022 1d2a C0F20003 		movt	r3, #:upper16:IEEE802154_dummy_security
 4023 1d2e 1A69     		ldr	r2, [r3, #16]
 4024 1d30 40F20003 		movw	r3, #:lower16:ieee154e_vars
 4025 1d34 C0F20003 		movt	r3, #:upper16:ieee154e_vars
 4026 1d38 D3F83031 		ldr	r3, [r3, #304]
 4027 1d3c 1846     		mov	r0, r3
 4028 1d3e 9047     		blx	r2
 4029 1d40 0346     		mov	r3, r0
 4030 1d42 002B     		cmp	r3, #0
 4031 1d44 00D0     		beq	.L197
1655:build/openmote-cc2538_armgcc/openstack/02a-MAClow/IEEE802154E.c ****             break;
 4032              		.loc 1 1655 0
 4033 1d46 AAE0     		b	.L194
 4034              	.L197:
1656:build/openmote-cc2538_armgcc/openstack/02a-MAClow/IEEE802154E.c ****          }
1657:build/openmote-cc2538_armgcc/openstack/02a-MAClow/IEEE802154E.c ****       } // checked if unsecured frame should pass during header retrieval
1658:build/openmote-cc2538_armgcc/openstack/02a-MAClow/IEEE802154E.c **** 
1659:build/openmote-cc2538_armgcc/openstack/02a-MAClow/IEEE802154E.c ****       // toss the IEEE802.15.4 header
1660:build/openmote-cc2538_armgcc/openstack/02a-MAClow/IEEE802154E.c ****       packetfunctions_tossHeader(ieee154e_vars.dataReceived,ieee802514_header.headerLength);
 4035              		.loc 1 1660 0
 4036 1d48 40F20003 		movw	r3, #:lower16:ieee154e_vars
 4037 1d4c C0F20003 		movt	r3, #:upper16:ieee154e_vars
 4038 1d50 D3F83021 		ldr	r2, [r3, #304]
 4039 1d54 7B7C     		ldrb	r3, [r7, #17]	@ zero_extendqisi2
 4040 1d56 1046     		mov	r0, r2
 4041 1d58 1946     		mov	r1, r3
 4042 1d5a FFF7FEFF 		bl	packetfunctions_tossHeader
1661:build/openmote-cc2538_armgcc/openstack/02a-MAClow/IEEE802154E.c **** 
1662:build/openmote-cc2538_armgcc/openstack/02a-MAClow/IEEE802154E.c ****       // handle IEs xv poipoi
1663:build/openmote-cc2538_armgcc/openstack/02a-MAClow/IEEE802154E.c ****       // reset join priority 
1664:build/openmote-cc2538_armgcc/openstack/02a-MAClow/IEEE802154E.c ****       // retrieve IE in sixtop
1665:build/openmote-cc2538_armgcc/openstack/02a-MAClow/IEEE802154E.c ****       if ((ieee802514_header.valid==TRUE &&
 4043              		.loc 1 1665 0
 4044 1d5e 3B7C     		ldrb	r3, [r7, #16]	@ zero_extendqisi2
1666:build/openmote-cc2538_armgcc/openstack/02a-MAClow/IEEE802154E.c ****           ieee802514_header.ieListPresent==TRUE && 
1667:build/openmote-cc2538_armgcc/openstack/02a-MAClow/IEEE802154E.c ****           ieee802514_header.frameType==IEEE154_TYPE_BEACON && // if it is not a beacon and have ie,
1668:build/openmote-cc2538_armgcc/openstack/02a-MAClow/IEEE802154E.c ****           packetfunctions_sameAddress(&ieee802514_header.panid,idmanager_getMyID(ADDR_PANID)) && 
 4045              		.loc 1 1668 0
 4046 1d60 002B     		cmp	r3, #0
 4047 1d62 23D0     		beq	.L199
1666:build/openmote-cc2538_armgcc/openstack/02a-MAClow/IEEE802154E.c ****           ieee802514_header.ieListPresent==TRUE && 
 4048              		.loc 1 1666 0
 4049 1d64 FB7D     		ldrb	r3, [r7, #23]	@ zero_extendqisi2
1665:build/openmote-cc2538_armgcc/openstack/02a-MAClow/IEEE802154E.c ****           ieee802514_header.ieListPresent==TRUE && 
 4050              		.loc 1 1665 0
 4051 1d66 002B     		cmp	r3, #0
 4052 1d68 20D0     		beq	.L199
1667:build/openmote-cc2538_armgcc/openstack/02a-MAClow/IEEE802154E.c ****           packetfunctions_sameAddress(&ieee802514_header.panid,idmanager_getMyID(ADDR_PANID)) && 
 4053              		.loc 1 1667 0
 4054 1d6a BB7C     		ldrb	r3, [r7, #18]	@ zero_extendqisi2
1666:build/openmote-cc2538_armgcc/openstack/02a-MAClow/IEEE802154E.c ****           ieee802514_header.ieListPresent==TRUE && 
 4055              		.loc 1 1666 0
 4056 1d6c 002B     		cmp	r3, #0
 4057 1d6e 1DD1     		bne	.L199
 4058              		.loc 1 1668 0
 4059 1d70 0420     		movs	r0, #4
 4060 1d72 FFF7FEFF 		bl	idmanager_getMyID
 4061 1d76 0346     		mov	r3, r0
 4062 1d78 07F11002 		add	r2, r7, #16
 4063 1d7c 0B32     		adds	r2, r2, #11
 4064 1d7e 1046     		mov	r0, r2
 4065 1d80 1946     		mov	r1, r3
 4066 1d82 FFF7FEFF 		bl	packetfunctions_sameAddress
 4067 1d86 0346     		mov	r3, r0
1667:build/openmote-cc2538_armgcc/openstack/02a-MAClow/IEEE802154E.c ****           packetfunctions_sameAddress(&ieee802514_header.panid,idmanager_getMyID(ADDR_PANID)) && 
 4068              		.loc 1 1667 0
 4069 1d88 002B     		cmp	r3, #0
 4070 1d8a 0FD0     		beq	.L199
1669:build/openmote-cc2538_armgcc/openstack/02a-MAClow/IEEE802154E.c ****           ieee154e_processIEs(ieee154e_vars.dataReceived,&lenIE))==FALSE) {
 4071              		.loc 1 1669 0
 4072 1d8c 40F20003 		movw	r3, #:lower16:ieee154e_vars
 4073 1d90 C0F20003 		movt	r3, #:upper16:ieee154e_vars
 4074 1d94 D3F83021 		ldr	r2, [r3, #304]
 4075 1d98 07F10E03 		add	r3, r7, #14
 4076 1d9c 1046     		mov	r0, r2
 4077 1d9e 1946     		mov	r1, r3
 4078 1da0 FFF7FEFF 		bl	ieee154e_processIEs
 4079 1da4 0346     		mov	r3, r0
1668:build/openmote-cc2538_armgcc/openstack/02a-MAClow/IEEE802154E.c ****           ieee154e_processIEs(ieee154e_vars.dataReceived,&lenIE))==FALSE) {
 4080              		.loc 1 1668 0
 4081 1da6 002B     		cmp	r3, #0
 4082 1da8 00D0     		beq	.L199
 4083 1daa 00BF     		nop
 4084              	.L199:
1670:build/openmote-cc2538_armgcc/openstack/02a-MAClow/IEEE802154E.c ****           //log  that the packet is not carrying IEs
1671:build/openmote-cc2538_armgcc/openstack/02a-MAClow/IEEE802154E.c ****       }
1672:build/openmote-cc2538_armgcc/openstack/02a-MAClow/IEEE802154E.c ****       
1673:build/openmote-cc2538_armgcc/openstack/02a-MAClow/IEEE802154E.c ****      // toss the IEs including Synch
1674:build/openmote-cc2538_armgcc/openstack/02a-MAClow/IEEE802154E.c ****       packetfunctions_tossHeader(ieee154e_vars.dataReceived,lenIE);
 4085              		.loc 1 1674 0
 4086 1dac 40F20003 		movw	r3, #:lower16:ieee154e_vars
 4087 1db0 C0F20003 		movt	r3, #:upper16:ieee154e_vars
 4088 1db4 D3F83021 		ldr	r2, [r3, #304]
 4089 1db8 FB89     		ldrh	r3, [r7, #14]
 4090 1dba DBB2     		uxtb	r3, r3
 4091 1dbc 1046     		mov	r0, r2
 4092 1dbe 1946     		mov	r1, r3
 4093 1dc0 FFF7FEFF 		bl	packetfunctions_tossHeader
1675:build/openmote-cc2538_armgcc/openstack/02a-MAClow/IEEE802154E.c ****             
1676:build/openmote-cc2538_armgcc/openstack/02a-MAClow/IEEE802154E.c ****       // record the captured time
1677:build/openmote-cc2538_armgcc/openstack/02a-MAClow/IEEE802154E.c ****       ieee154e_vars.lastCapturedTime = capturedTime;
 4094              		.loc 1 1677 0
 4095 1dc4 40F20003 		movw	r3, #:lower16:ieee154e_vars
 4096 1dc8 C0F20003 		movt	r3, #:upper16:ieee154e_vars
 4097 1dcc 7A68     		ldr	r2, [r7, #4]
 4098 1dce C3F83C21 		str	r2, [r3, #316]
1678:build/openmote-cc2538_armgcc/openstack/02a-MAClow/IEEE802154E.c ****       
1679:build/openmote-cc2538_armgcc/openstack/02a-MAClow/IEEE802154E.c ****       // if I just received an invalid frame, stop
1680:build/openmote-cc2538_armgcc/openstack/02a-MAClow/IEEE802154E.c ****       if (isValidRxFrame(&ieee802514_header)==FALSE) {
 4099              		.loc 1 1680 0
 4100 1dd2 07F11003 		add	r3, r7, #16
 4101 1dd6 1846     		mov	r0, r3
 4102 1dd8 FFF7FEFF 		bl	isValidRxFrame
 4103 1ddc 0346     		mov	r3, r0
 4104 1dde 83F00103 		eor	r3, r3, #1
 4105 1de2 DBB2     		uxtb	r3, r3
 4106 1de4 002B     		cmp	r3, #0
 4107 1de6 00D0     		beq	.L200
1681:build/openmote-cc2538_armgcc/openstack/02a-MAClow/IEEE802154E.c ****          // jump to the error code below this do-while loop
1682:build/openmote-cc2538_armgcc/openstack/02a-MAClow/IEEE802154E.c ****          break;
 4108              		.loc 1 1682 0
 4109 1de8 59E0     		b	.L194
 4110              	.L200:
1683:build/openmote-cc2538_armgcc/openstack/02a-MAClow/IEEE802154E.c ****       }
1684:build/openmote-cc2538_armgcc/openstack/02a-MAClow/IEEE802154E.c ****       
1685:build/openmote-cc2538_armgcc/openstack/02a-MAClow/IEEE802154E.c ****       // record the timeCorrection and print out at end of slot
1686:build/openmote-cc2538_armgcc/openstack/02a-MAClow/IEEE802154E.c ****       ieee154e_vars.dataReceived->l2_timeCorrection = (PORT_SIGNED_INT_WIDTH)((PORT_SIGNED_INT_WIDT
 4111              		.loc 1 1686 0
 4112 1dea 40F20003 		movw	r3, #:lower16:ieee154e_vars
 4113 1dee C0F20003 		movt	r3, #:upper16:ieee154e_vars
 4114 1df2 D3F83021 		ldr	r2, [r3, #304]
 4115 1df6 40F20003 		movw	r3, #:lower16:ieee154e_vars
 4116 1dfa C0F20003 		movt	r3, #:upper16:ieee154e_vars
 4117 1dfe D3F84031 		ldr	r3, [r3, #320]
 4118 1e02 9BB2     		uxth	r3, r3
 4119 1e04 C3F18303 		rsb	r3, r3, #131
 4120 1e08 9BB2     		uxth	r3, r3
 4121 1e0a 9BB2     		uxth	r3, r3
 4122 1e0c A2F86A30 		strh	r3, [r2, #106]	@ movhi
1687:build/openmote-cc2538_armgcc/openstack/02a-MAClow/IEEE802154E.c ****       
1688:build/openmote-cc2538_armgcc/openstack/02a-MAClow/IEEE802154E.c ****       // check if ack requested
1689:build/openmote-cc2538_armgcc/openstack/02a-MAClow/IEEE802154E.c ****       if (ieee802514_header.ackRequested==1 && ieee154e_vars.isAckEnabled == TRUE) {
 4123              		.loc 1 1689 0
 4124 1e10 7B7D     		ldrb	r3, [r7, #21]	@ zero_extendqisi2
 4125 1e12 002B     		cmp	r3, #0
 4126 1e14 12D0     		beq	.L201
 4127              		.loc 1 1689 0 is_stmt 0 discriminator 1
 4128 1e16 40F20003 		movw	r3, #:lower16:ieee154e_vars
 4129 1e1a C0F20003 		movt	r3, #:upper16:ieee154e_vars
 4130 1e1e 93F86531 		ldrb	r3, [r3, #357]	@ zero_extendqisi2
 4131 1e22 002B     		cmp	r3, #0
 4132 1e24 0AD0     		beq	.L201
1690:build/openmote-cc2538_armgcc/openstack/02a-MAClow/IEEE802154E.c **** #ifdef SLOT_FSM_IMPLEMENTATION_MULTIPLE_TIMER_INTERRUPT
1691:build/openmote-cc2538_armgcc/openstack/02a-MAClow/IEEE802154E.c ****             // 1. schedule timer for loading packet
1692:build/openmote-cc2538_armgcc/openstack/02a-MAClow/IEEE802154E.c ****             radiotimer_schedule(ACTION_LOAD_PACKET,DURATION_rt5);
1693:build/openmote-cc2538_armgcc/openstack/02a-MAClow/IEEE802154E.c ****             // get a buffer to put the ack to send in
1694:build/openmote-cc2538_armgcc/openstack/02a-MAClow/IEEE802154E.c ****            ieee154e_vars.ackToSend = openqueue_getFreePacketBuffer(COMPONENT_IEEE802154E);
1695:build/openmote-cc2538_armgcc/openstack/02a-MAClow/IEEE802154E.c ****            if (ieee154e_vars.ackToSend==NULL) {
1696:build/openmote-cc2538_armgcc/openstack/02a-MAClow/IEEE802154E.c ****               // log the error
1697:build/openmote-cc2538_armgcc/openstack/02a-MAClow/IEEE802154E.c ****               openserial_printError(COMPONENT_IEEE802154E,ERR_NO_FREE_PACKET_BUFFER,
1698:build/openmote-cc2538_armgcc/openstack/02a-MAClow/IEEE802154E.c ****                                     (errorparameter_t)0,
1699:build/openmote-cc2538_armgcc/openstack/02a-MAClow/IEEE802154E.c ****                                     (errorparameter_t)0);
1700:build/openmote-cc2538_armgcc/openstack/02a-MAClow/IEEE802154E.c ****               // indicate we received a packet anyway (we don't want to loose any)
1701:build/openmote-cc2538_armgcc/openstack/02a-MAClow/IEEE802154E.c ****               notif_receive(ieee154e_vars.dataReceived);
1702:build/openmote-cc2538_armgcc/openstack/02a-MAClow/IEEE802154E.c ****               // free local variable
1703:build/openmote-cc2538_armgcc/openstack/02a-MAClow/IEEE802154E.c ****               ieee154e_vars.dataReceived = NULL;
1704:build/openmote-cc2538_armgcc/openstack/02a-MAClow/IEEE802154E.c ****               // abort
1705:build/openmote-cc2538_armgcc/openstack/02a-MAClow/IEEE802154E.c ****               endSlot();
1706:build/openmote-cc2538_armgcc/openstack/02a-MAClow/IEEE802154E.c ****               return;
1707:build/openmote-cc2538_armgcc/openstack/02a-MAClow/IEEE802154E.c ****            }
1708:build/openmote-cc2538_armgcc/openstack/02a-MAClow/IEEE802154E.c ****            
1709:build/openmote-cc2538_armgcc/openstack/02a-MAClow/IEEE802154E.c ****            // declare ownership over that packet
1710:build/openmote-cc2538_armgcc/openstack/02a-MAClow/IEEE802154E.c ****            ieee154e_vars.ackToSend->creator = COMPONENT_IEEE802154E;
1711:build/openmote-cc2538_armgcc/openstack/02a-MAClow/IEEE802154E.c ****            ieee154e_vars.ackToSend->owner   = COMPONENT_IEEE802154E;
1712:build/openmote-cc2538_armgcc/openstack/02a-MAClow/IEEE802154E.c ****            
1713:build/openmote-cc2538_armgcc/openstack/02a-MAClow/IEEE802154E.c ****            // calculate the time timeCorrection (this is the time the sender is off w.r.t to this n
1714:build/openmote-cc2538_armgcc/openstack/02a-MAClow/IEEE802154E.c ****            // the sender is too late.
1715:build/openmote-cc2538_armgcc/openstack/02a-MAClow/IEEE802154E.c ****            ieee154e_vars.timeCorrection = (PORT_SIGNED_INT_WIDTH)((PORT_SIGNED_INT_WIDTH)TsTxOffset
1716:build/openmote-cc2538_armgcc/openstack/02a-MAClow/IEEE802154E.c ****            
1717:build/openmote-cc2538_armgcc/openstack/02a-MAClow/IEEE802154E.c ****            // prepend the IEEE802.15.4 header to the ACK
1718:build/openmote-cc2538_armgcc/openstack/02a-MAClow/IEEE802154E.c ****            ieee154e_vars.ackToSend->l2_frameType = IEEE154_TYPE_ACK;
1719:build/openmote-cc2538_armgcc/openstack/02a-MAClow/IEEE802154E.c ****            ieee154e_vars.ackToSend->l2_dsn       = ieee154e_vars.dataReceived->l2_dsn;
1720:build/openmote-cc2538_armgcc/openstack/02a-MAClow/IEEE802154E.c **** 
1721:build/openmote-cc2538_armgcc/openstack/02a-MAClow/IEEE802154E.c ****            // To send ACK, we use the same security level (including NOSEC) and keys
1722:build/openmote-cc2538_armgcc/openstack/02a-MAClow/IEEE802154E.c ****            // that were present in the DATA packet.
1723:build/openmote-cc2538_armgcc/openstack/02a-MAClow/IEEE802154E.c ****            ieee154e_vars.ackToSend->l2_securityLevel = ieee154e_vars.dataReceived->l2_securityLevel
1724:build/openmote-cc2538_armgcc/openstack/02a-MAClow/IEEE802154E.c ****            ieee154e_vars.ackToSend->l2_keyIdMode     = ieee154e_vars.dataReceived->l2_keyIdMode;
1725:build/openmote-cc2538_armgcc/openstack/02a-MAClow/IEEE802154E.c ****            ieee154e_vars.ackToSend->l2_keyIndex      = ieee154e_vars.dataReceived->l2_keyIndex;
1726:build/openmote-cc2538_armgcc/openstack/02a-MAClow/IEEE802154E.c **** 
1727:build/openmote-cc2538_armgcc/openstack/02a-MAClow/IEEE802154E.c ****            ieee802154_prependHeader(ieee154e_vars.ackToSend,
1728:build/openmote-cc2538_armgcc/openstack/02a-MAClow/IEEE802154E.c ****                                     ieee154e_vars.ackToSend->l2_frameType,
1729:build/openmote-cc2538_armgcc/openstack/02a-MAClow/IEEE802154E.c ****                                     FALSE,//no payloadIE in ack
1730:build/openmote-cc2538_armgcc/openstack/02a-MAClow/IEEE802154E.c ****                                     ieee154e_vars.dataReceived->l2_dsn,
1731:build/openmote-cc2538_armgcc/openstack/02a-MAClow/IEEE802154E.c ****                                     &(ieee154e_vars.dataReceived->l2_nextORpreviousHop)
1732:build/openmote-cc2538_armgcc/openstack/02a-MAClow/IEEE802154E.c ****                                     );
1733:build/openmote-cc2538_armgcc/openstack/02a-MAClow/IEEE802154E.c ****            
1734:build/openmote-cc2538_armgcc/openstack/02a-MAClow/IEEE802154E.c ****            // if security is enabled, encrypt directly in OpenQueue as there are no retransmissions
1735:build/openmote-cc2538_armgcc/openstack/02a-MAClow/IEEE802154E.c ****            if (ieee154e_vars.ackToSend->l2_securityLevel != IEEE154_ASH_SLF_TYPE_NOSEC) {
1736:build/openmote-cc2538_armgcc/openstack/02a-MAClow/IEEE802154E.c ****                 if (IEEE802154_SECURITY.outgoingFrame(ieee154e_vars.ackToSend) != E_SUCCESS) {
1737:build/openmote-cc2538_armgcc/openstack/02a-MAClow/IEEE802154E.c ****                     openqueue_freePacketBuffer(ieee154e_vars.ackToSend);
1738:build/openmote-cc2538_armgcc/openstack/02a-MAClow/IEEE802154E.c ****                     endSlot();
1739:build/openmote-cc2538_armgcc/openstack/02a-MAClow/IEEE802154E.c ****                     return;
1740:build/openmote-cc2538_armgcc/openstack/02a-MAClow/IEEE802154E.c ****                 }
1741:build/openmote-cc2538_armgcc/openstack/02a-MAClow/IEEE802154E.c ****             }
1742:build/openmote-cc2538_armgcc/openstack/02a-MAClow/IEEE802154E.c ****             // space for 2-byte CRC
1743:build/openmote-cc2538_armgcc/openstack/02a-MAClow/IEEE802154E.c ****             packetfunctions_reserveFooterSize(ieee154e_vars.ackToSend,2);
1744:build/openmote-cc2538_armgcc/openstack/02a-MAClow/IEEE802154E.c ****             // set tx buffer address and length to prepare loading packet (packet is NOT loaded at 
1745:build/openmote-cc2538_armgcc/openstack/02a-MAClow/IEEE802154E.c ****             radio_loadPacket_prepare(ieee154e_vars.ackToSend->payload,
1746:build/openmote-cc2538_armgcc/openstack/02a-MAClow/IEEE802154E.c ****                                     ieee154e_vars.ackToSend->length);
1747:build/openmote-cc2538_armgcc/openstack/02a-MAClow/IEEE802154E.c ****             radiotimer_schedule(ACTION_SEND_PACKET,DURATION_rt6);
1748:build/openmote-cc2538_armgcc/openstack/02a-MAClow/IEEE802154E.c ****             // 2. schedule timer for radio tx watchdog
1749:build/openmote-cc2538_armgcc/openstack/02a-MAClow/IEEE802154E.c ****             radiotimer_schedule(ACTION_NORMAL_TIMER,DURATION_rt7);
1750:build/openmote-cc2538_armgcc/openstack/02a-MAClow/IEEE802154E.c ****             // 3. set capture for SFD senddone and Tx send done
1751:build/openmote-cc2538_armgcc/openstack/02a-MAClow/IEEE802154E.c ****             radiotimer_setCapture(ACTION_TX_SFD_DONE);
1752:build/openmote-cc2538_armgcc/openstack/02a-MAClow/IEEE802154E.c ****             radiotimer_setCapture(ACTION_TX_SEND_DONE);
1753:build/openmote-cc2538_armgcc/openstack/02a-MAClow/IEEE802154E.c **** #else
1754:build/openmote-cc2538_armgcc/openstack/02a-MAClow/IEEE802154E.c ****          // arm rt5
1755:build/openmote-cc2538_armgcc/openstack/02a-MAClow/IEEE802154E.c ****          radiotimer_schedule(DURATION_rt5);
 4133              		.loc 1 1755 0 is_stmt 1
 4134 1e26 40F20003 		movw	r3, #:lower16:ieee154e_vars
 4135 1e2a C0F20003 		movt	r3, #:upper16:ieee154e_vars
 4136 1e2e D3F83C31 		ldr	r3, [r3, #316]
 4137 1e32 7533     		adds	r3, r3, #117
 4138 1e34 1846     		mov	r0, r3
 4139 1e36 FFF7FEFF 		bl	radiotimer_schedule
1756:build/openmote-cc2538_armgcc/openstack/02a-MAClow/IEEE802154E.c **** #endif
1757:build/openmote-cc2538_armgcc/openstack/02a-MAClow/IEEE802154E.c ****       } else {
1758:build/openmote-cc2538_armgcc/openstack/02a-MAClow/IEEE802154E.c ****          // synchronize to the received packet iif I'm not a DAGroot and this is my preferred paren
1759:build/openmote-cc2538_armgcc/openstack/02a-MAClow/IEEE802154E.c ****          if (idmanager_getIsDAGroot()==FALSE && icmpv6rpl_isPreferredParent(&(ieee154e_vars.dataRec
1760:build/openmote-cc2538_armgcc/openstack/02a-MAClow/IEEE802154E.c ****             synchronizePacket(ieee154e_vars.syncCapturedTime);
1761:build/openmote-cc2538_armgcc/openstack/02a-MAClow/IEEE802154E.c ****          }
1762:build/openmote-cc2538_armgcc/openstack/02a-MAClow/IEEE802154E.c ****          // indicate reception to upper layer (no ACK asked)
1763:build/openmote-cc2538_armgcc/openstack/02a-MAClow/IEEE802154E.c ****          notif_receive(ieee154e_vars.dataReceived);
1764:build/openmote-cc2538_armgcc/openstack/02a-MAClow/IEEE802154E.c ****          // reset local variable
1765:build/openmote-cc2538_armgcc/openstack/02a-MAClow/IEEE802154E.c ****          ieee154e_vars.dataReceived = NULL;
1766:build/openmote-cc2538_armgcc/openstack/02a-MAClow/IEEE802154E.c ****          // abort
1767:build/openmote-cc2538_armgcc/openstack/02a-MAClow/IEEE802154E.c ****          endSlot();
1768:build/openmote-cc2538_armgcc/openstack/02a-MAClow/IEEE802154E.c ****       }
1769:build/openmote-cc2538_armgcc/openstack/02a-MAClow/IEEE802154E.c ****       
1770:build/openmote-cc2538_armgcc/openstack/02a-MAClow/IEEE802154E.c ****       // everything went well, return here not to execute the error code below
1771:build/openmote-cc2538_armgcc/openstack/02a-MAClow/IEEE802154E.c ****       return;
 4140              		.loc 1 1771 0
 4141 1e3a 42E0     		b	.L189
 4142              	.L201:
1759:build/openmote-cc2538_armgcc/openstack/02a-MAClow/IEEE802154E.c ****             synchronizePacket(ieee154e_vars.syncCapturedTime);
 4143              		.loc 1 1759 0
 4144 1e3c FFF7FEFF 		bl	idmanager_getIsDAGroot
 4145 1e40 0346     		mov	r3, r0
 4146 1e42 83F00103 		eor	r3, r3, #1
 4147 1e46 DBB2     		uxtb	r3, r3
 4148 1e48 002B     		cmp	r3, #0
 4149 1e4a 15D0     		beq	.L203
1759:build/openmote-cc2538_armgcc/openstack/02a-MAClow/IEEE802154E.c ****             synchronizePacket(ieee154e_vars.syncCapturedTime);
 4150              		.loc 1 1759 0 is_stmt 0 discriminator 1
 4151 1e4c 40F20003 		movw	r3, #:lower16:ieee154e_vars
 4152 1e50 C0F20003 		movt	r3, #:upper16:ieee154e_vars
 4153 1e54 D3F83031 		ldr	r3, [r3, #304]
 4154 1e58 3833     		adds	r3, r3, #56
 4155 1e5a 1846     		mov	r0, r3
 4156 1e5c FFF7FEFF 		bl	icmpv6rpl_isPreferredParent
 4157 1e60 0346     		mov	r3, r0
 4158 1e62 002B     		cmp	r3, #0
 4159 1e64 08D0     		beq	.L203
1760:build/openmote-cc2538_armgcc/openstack/02a-MAClow/IEEE802154E.c ****          }
 4160              		.loc 1 1760 0 is_stmt 1
 4161 1e66 40F20003 		movw	r3, #:lower16:ieee154e_vars
 4162 1e6a C0F20003 		movt	r3, #:upper16:ieee154e_vars
 4163 1e6e D3F84031 		ldr	r3, [r3, #320]
 4164 1e72 1846     		mov	r0, r3
 4165 1e74 FFF7FEFF 		bl	synchronizePacket
 4166              	.L203:
1763:build/openmote-cc2538_armgcc/openstack/02a-MAClow/IEEE802154E.c ****          // reset local variable
 4167              		.loc 1 1763 0
 4168 1e78 40F20003 		movw	r3, #:lower16:ieee154e_vars
 4169 1e7c C0F20003 		movt	r3, #:upper16:ieee154e_vars
 4170 1e80 D3F83031 		ldr	r3, [r3, #304]
 4171 1e84 1846     		mov	r0, r3
 4172 1e86 FFF7FEFF 		bl	notif_receive
1765:build/openmote-cc2538_armgcc/openstack/02a-MAClow/IEEE802154E.c ****          // abort
 4173              		.loc 1 1765 0
 4174 1e8a 40F20003 		movw	r3, #:lower16:ieee154e_vars
 4175 1e8e C0F20003 		movt	r3, #:upper16:ieee154e_vars
 4176 1e92 0022     		movs	r2, #0
 4177 1e94 C3F83021 		str	r2, [r3, #304]
1767:build/openmote-cc2538_armgcc/openstack/02a-MAClow/IEEE802154E.c ****       }
 4178              		.loc 1 1767 0
 4179 1e98 FFF7FEFF 		bl	endSlot
 4180              		.loc 1 1771 0
 4181 1e9c 11E0     		b	.L189
 4182              	.L194:
1772:build/openmote-cc2538_armgcc/openstack/02a-MAClow/IEEE802154E.c ****       
1773:build/openmote-cc2538_armgcc/openstack/02a-MAClow/IEEE802154E.c ****    } while(0);
1774:build/openmote-cc2538_armgcc/openstack/02a-MAClow/IEEE802154E.c ****    
1775:build/openmote-cc2538_armgcc/openstack/02a-MAClow/IEEE802154E.c ****    // free the (invalid) received data so RAM memory can be recycled
1776:build/openmote-cc2538_armgcc/openstack/02a-MAClow/IEEE802154E.c ****    openqueue_freePacketBuffer(ieee154e_vars.dataReceived);
 4183              		.loc 1 1776 0
 4184 1e9e 40F20003 		movw	r3, #:lower16:ieee154e_vars
 4185 1ea2 C0F20003 		movt	r3, #:upper16:ieee154e_vars
 4186 1ea6 D3F83031 		ldr	r3, [r3, #304]
 4187 1eaa 1846     		mov	r0, r3
 4188 1eac FFF7FEFF 		bl	openqueue_freePacketBuffer
1777:build/openmote-cc2538_armgcc/openstack/02a-MAClow/IEEE802154E.c ****    
1778:build/openmote-cc2538_armgcc/openstack/02a-MAClow/IEEE802154E.c ****    // clear local variable
1779:build/openmote-cc2538_armgcc/openstack/02a-MAClow/IEEE802154E.c ****    ieee154e_vars.dataReceived = NULL;
 4189              		.loc 1 1779 0
 4190 1eb0 40F20003 		movw	r3, #:lower16:ieee154e_vars
 4191 1eb4 C0F20003 		movt	r3, #:upper16:ieee154e_vars
 4192 1eb8 0022     		movs	r2, #0
 4193 1eba C3F83021 		str	r2, [r3, #304]
1780:build/openmote-cc2538_armgcc/openstack/02a-MAClow/IEEE802154E.c ****    
1781:build/openmote-cc2538_armgcc/openstack/02a-MAClow/IEEE802154E.c ****    // abort
1782:build/openmote-cc2538_armgcc/openstack/02a-MAClow/IEEE802154E.c ****    endSlot();
 4194              		.loc 1 1782 0
 4195 1ebe FFF7FEFF 		bl	endSlot
 4196              	.L189:
1783:build/openmote-cc2538_armgcc/openstack/02a-MAClow/IEEE802154E.c **** }
 4197              		.loc 1 1783 0
 4198 1ec2 5037     		adds	r7, r7, #80
 4199 1ec4 BD46     		mov	sp, r7
 4200              		@ sp needed
 4201 1ec6 B0BD     		pop	{r4, r5, r7, pc}
 4202              		.cfi_endproc
 4203              	.LFE34:
 4205              		.align	2
 4206              		.global	activity_ri6
 4207              		.thumb
 4208              		.thumb_func
 4210              	activity_ri6:
 4211              	.LFB35:
1784:build/openmote-cc2538_armgcc/openstack/02a-MAClow/IEEE802154E.c **** 
1785:build/openmote-cc2538_armgcc/openstack/02a-MAClow/IEEE802154E.c **** port_INLINE void activity_ri6() {
 4212              		.loc 1 1785 0
 4213              		.cfi_startproc
 4214              		@ args = 0, pretend = 0, frame = 0
 4215              		@ frame_needed = 1, uses_anonymous_args = 0
 4216 1ec8 90B5     		push	{r4, r7, lr}
 4217              		.cfi_def_cfa_offset 12
 4218              		.cfi_offset 4, -12
 4219              		.cfi_offset 7, -8
 4220              		.cfi_offset 14, -4
 4221 1eca 83B0     		sub	sp, sp, #12
 4222              		.cfi_def_cfa_offset 24
 4223 1ecc 02AF     		add	r7, sp, #8
 4224              		.cfi_def_cfa 7, 16
1786:build/openmote-cc2538_armgcc/openstack/02a-MAClow/IEEE802154E.c ****    
1787:build/openmote-cc2538_armgcc/openstack/02a-MAClow/IEEE802154E.c ****     // change state
1788:build/openmote-cc2538_armgcc/openstack/02a-MAClow/IEEE802154E.c ****     changeState(S_TXACKPREPARE);
 4225              		.loc 1 1788 0
 4226 1ece 1520     		movs	r0, #21
 4227 1ed0 FFF7FEFF 		bl	changeState
1789:build/openmote-cc2538_armgcc/openstack/02a-MAClow/IEEE802154E.c **** #ifdef SLOT_FSM_IMPLEMENTATION_MULTIPLE_TIMER_INTERRUPT
1790:build/openmote-cc2538_armgcc/openstack/02a-MAClow/IEEE802154E.c **** #else
1791:build/openmote-cc2538_armgcc/openstack/02a-MAClow/IEEE802154E.c ****     // arm rt6
1792:build/openmote-cc2538_armgcc/openstack/02a-MAClow/IEEE802154E.c ****     radiotimer_schedule(DURATION_rt6);
 4228              		.loc 1 1792 0
 4229 1ed4 40F20003 		movw	r3, #:lower16:ieee154e_vars
 4230 1ed8 C0F20003 		movt	r3, #:upper16:ieee154e_vars
 4231 1edc D3F83C31 		ldr	r3, [r3, #316]
 4232 1ee0 8B33     		adds	r3, r3, #139
 4233 1ee2 1846     		mov	r0, r3
 4234 1ee4 FFF7FEFF 		bl	radiotimer_schedule
1793:build/openmote-cc2538_armgcc/openstack/02a-MAClow/IEEE802154E.c **** #endif
1794:build/openmote-cc2538_armgcc/openstack/02a-MAClow/IEEE802154E.c **** #ifdef SLOT_FSM_IMPLEMENTATION_MULTIPLE_TIMER_INTERRUPT
1795:build/openmote-cc2538_armgcc/openstack/02a-MAClow/IEEE802154E.c **** #else
1796:build/openmote-cc2538_armgcc/openstack/02a-MAClow/IEEE802154E.c ****     // get a buffer to put the ack to send in
1797:build/openmote-cc2538_armgcc/openstack/02a-MAClow/IEEE802154E.c ****     ieee154e_vars.ackToSend = openqueue_getFreePacketBuffer(COMPONENT_IEEE802154E);
 4235              		.loc 1 1797 0
 4236 1ee8 0920     		movs	r0, #9
 4237 1eea FFF7FEFF 		bl	openqueue_getFreePacketBuffer
 4238 1eee 0246     		mov	r2, r0
 4239 1ef0 40F20003 		movw	r3, #:lower16:ieee154e_vars
 4240 1ef4 C0F20003 		movt	r3, #:upper16:ieee154e_vars
 4241 1ef8 C3F83421 		str	r2, [r3, #308]
1798:build/openmote-cc2538_armgcc/openstack/02a-MAClow/IEEE802154E.c ****     if (ieee154e_vars.ackToSend==NULL) {
 4242              		.loc 1 1798 0
 4243 1efc 40F20003 		movw	r3, #:lower16:ieee154e_vars
 4244 1f00 C0F20003 		movt	r3, #:upper16:ieee154e_vars
 4245 1f04 D3F83431 		ldr	r3, [r3, #308]
 4246 1f08 002B     		cmp	r3, #0
 4247 1f0a 18D1     		bne	.L206
1799:build/openmote-cc2538_armgcc/openstack/02a-MAClow/IEEE802154E.c ****         // log the error
1800:build/openmote-cc2538_armgcc/openstack/02a-MAClow/IEEE802154E.c ****         openserial_printError(COMPONENT_IEEE802154E,ERR_NO_FREE_PACKET_BUFFER,
 4248              		.loc 1 1800 0
 4249 1f0c 0920     		movs	r0, #9
 4250 1f0e 2C21     		movs	r1, #44
 4251 1f10 0022     		movs	r2, #0
 4252 1f12 0023     		movs	r3, #0
 4253 1f14 FFF7FEFF 		bl	openserial_printError
1801:build/openmote-cc2538_armgcc/openstack/02a-MAClow/IEEE802154E.c ****                             (errorparameter_t)0,
1802:build/openmote-cc2538_armgcc/openstack/02a-MAClow/IEEE802154E.c ****                             (errorparameter_t)0);
1803:build/openmote-cc2538_armgcc/openstack/02a-MAClow/IEEE802154E.c ****         // indicate we received a packet anyway (we don't want to loose any)
1804:build/openmote-cc2538_armgcc/openstack/02a-MAClow/IEEE802154E.c ****         notif_receive(ieee154e_vars.dataReceived);
 4254              		.loc 1 1804 0
 4255 1f18 40F20003 		movw	r3, #:lower16:ieee154e_vars
 4256 1f1c C0F20003 		movt	r3, #:upper16:ieee154e_vars
 4257 1f20 D3F83031 		ldr	r3, [r3, #304]
 4258 1f24 1846     		mov	r0, r3
 4259 1f26 FFF7FEFF 		bl	notif_receive
1805:build/openmote-cc2538_armgcc/openstack/02a-MAClow/IEEE802154E.c ****         // free local variable
1806:build/openmote-cc2538_armgcc/openstack/02a-MAClow/IEEE802154E.c ****         ieee154e_vars.dataReceived = NULL;
 4260              		.loc 1 1806 0
 4261 1f2a 40F20003 		movw	r3, #:lower16:ieee154e_vars
 4262 1f2e C0F20003 		movt	r3, #:upper16:ieee154e_vars
 4263 1f32 0022     		movs	r2, #0
 4264 1f34 C3F83021 		str	r2, [r3, #304]
1807:build/openmote-cc2538_armgcc/openstack/02a-MAClow/IEEE802154E.c ****         // abort
1808:build/openmote-cc2538_armgcc/openstack/02a-MAClow/IEEE802154E.c ****         endSlot();
 4265              		.loc 1 1808 0
 4266 1f38 FFF7FEFF 		bl	endSlot
1809:build/openmote-cc2538_armgcc/openstack/02a-MAClow/IEEE802154E.c ****         return;
 4267              		.loc 1 1809 0
 4268 1f3c EDE0     		b	.L205
 4269              	.L206:
1810:build/openmote-cc2538_armgcc/openstack/02a-MAClow/IEEE802154E.c ****     }
1811:build/openmote-cc2538_armgcc/openstack/02a-MAClow/IEEE802154E.c ****    
1812:build/openmote-cc2538_armgcc/openstack/02a-MAClow/IEEE802154E.c ****     // declare ownership over that packet
1813:build/openmote-cc2538_armgcc/openstack/02a-MAClow/IEEE802154E.c ****     ieee154e_vars.ackToSend->creator = COMPONENT_IEEE802154E;
 4270              		.loc 1 1813 0
 4271 1f3e 40F20003 		movw	r3, #:lower16:ieee154e_vars
 4272 1f42 C0F20003 		movt	r3, #:upper16:ieee154e_vars
 4273 1f46 D3F83431 		ldr	r3, [r3, #308]
 4274 1f4a 0922     		movs	r2, #9
 4275 1f4c 1A70     		strb	r2, [r3]
1814:build/openmote-cc2538_armgcc/openstack/02a-MAClow/IEEE802154E.c ****     ieee154e_vars.ackToSend->owner   = COMPONENT_IEEE802154E;
 4276              		.loc 1 1814 0
 4277 1f4e 40F20003 		movw	r3, #:lower16:ieee154e_vars
 4278 1f52 C0F20003 		movt	r3, #:upper16:ieee154e_vars
 4279 1f56 D3F83431 		ldr	r3, [r3, #308]
 4280 1f5a 0922     		movs	r2, #9
 4281 1f5c 5A70     		strb	r2, [r3, #1]
1815:build/openmote-cc2538_armgcc/openstack/02a-MAClow/IEEE802154E.c ****    
1816:build/openmote-cc2538_armgcc/openstack/02a-MAClow/IEEE802154E.c ****     // calculate the time timeCorrection (this is the time the sender is off w.r.t to this node. A 
1817:build/openmote-cc2538_armgcc/openstack/02a-MAClow/IEEE802154E.c ****     // the sender is too late.
1818:build/openmote-cc2538_armgcc/openstack/02a-MAClow/IEEE802154E.c ****     ieee154e_vars.timeCorrection = (PORT_SIGNED_INT_WIDTH)((PORT_SIGNED_INT_WIDTH)TsTxOffset-(PORT_
 4282              		.loc 1 1818 0
 4283 1f5e 40F20003 		movw	r3, #:lower16:ieee154e_vars
 4284 1f62 C0F20003 		movt	r3, #:upper16:ieee154e_vars
 4285 1f66 D3F84031 		ldr	r3, [r3, #320]
 4286 1f6a 9BB2     		uxth	r3, r3
 4287 1f6c C3F18303 		rsb	r3, r3, #131
 4288 1f70 9BB2     		uxth	r3, r3
 4289 1f72 9AB2     		uxth	r2, r3
 4290 1f74 40F20003 		movw	r3, #:lower16:ieee154e_vars
 4291 1f78 C0F20003 		movt	r3, #:upper16:ieee154e_vars
 4292 1f7c A3F86821 		strh	r2, [r3, #360]	@ movhi
1819:build/openmote-cc2538_armgcc/openstack/02a-MAClow/IEEE802154E.c ****    
1820:build/openmote-cc2538_armgcc/openstack/02a-MAClow/IEEE802154E.c ****     // prepend the IEEE802.15.4 header to the ACK
1821:build/openmote-cc2538_armgcc/openstack/02a-MAClow/IEEE802154E.c ****     ieee154e_vars.ackToSend->l2_frameType = IEEE154_TYPE_ACK;
 4293              		.loc 1 1821 0
 4294 1f80 40F20003 		movw	r3, #:lower16:ieee154e_vars
 4295 1f84 C0F20003 		movt	r3, #:upper16:ieee154e_vars
 4296 1f88 D3F83431 		ldr	r3, [r3, #308]
 4297 1f8c 0222     		movs	r2, #2
 4298 1f8e 83F84920 		strb	r2, [r3, #73]
1822:build/openmote-cc2538_armgcc/openstack/02a-MAClow/IEEE802154E.c ****     ieee154e_vars.ackToSend->l2_dsn       = ieee154e_vars.dataReceived->l2_dsn;
 4299              		.loc 1 1822 0
 4300 1f92 40F20003 		movw	r3, #:lower16:ieee154e_vars
 4301 1f96 C0F20003 		movt	r3, #:upper16:ieee154e_vars
 4302 1f9a D3F83421 		ldr	r2, [r3, #308]
 4303 1f9e 40F20003 		movw	r3, #:lower16:ieee154e_vars
 4304 1fa2 C0F20003 		movt	r3, #:upper16:ieee154e_vars
 4305 1fa6 D3F83031 		ldr	r3, [r3, #304]
 4306 1faa 93F84A30 		ldrb	r3, [r3, #74]	@ zero_extendqisi2
 4307 1fae 82F84A30 		strb	r3, [r2, #74]
1823:build/openmote-cc2538_armgcc/openstack/02a-MAClow/IEEE802154E.c **** 
1824:build/openmote-cc2538_armgcc/openstack/02a-MAClow/IEEE802154E.c ****     // To send ACK, we use the same security level (including NOSEC) and keys
1825:build/openmote-cc2538_armgcc/openstack/02a-MAClow/IEEE802154E.c ****     // that were present in the DATA packet.
1826:build/openmote-cc2538_armgcc/openstack/02a-MAClow/IEEE802154E.c ****     ieee154e_vars.ackToSend->l2_securityLevel = ieee154e_vars.dataReceived->l2_securityLevel;
 4308              		.loc 1 1826 0
 4309 1fb2 40F20003 		movw	r3, #:lower16:ieee154e_vars
 4310 1fb6 C0F20003 		movt	r3, #:upper16:ieee154e_vars
 4311 1fba D3F83421 		ldr	r2, [r3, #308]
 4312 1fbe 40F20003 		movw	r3, #:lower16:ieee154e_vars
 4313 1fc2 C0F20003 		movt	r3, #:upper16:ieee154e_vars
 4314 1fc6 D3F83031 		ldr	r3, [r3, #304]
 4315 1fca 93F86C30 		ldrb	r3, [r3, #108]	@ zero_extendqisi2
 4316 1fce 82F86C30 		strb	r3, [r2, #108]
1827:build/openmote-cc2538_armgcc/openstack/02a-MAClow/IEEE802154E.c ****     ieee154e_vars.ackToSend->l2_keyIdMode     = ieee154e_vars.dataReceived->l2_keyIdMode;
 4317              		.loc 1 1827 0
 4318 1fd2 40F20003 		movw	r3, #:lower16:ieee154e_vars
 4319 1fd6 C0F20003 		movt	r3, #:upper16:ieee154e_vars
 4320 1fda D3F83421 		ldr	r2, [r3, #308]
 4321 1fde 40F20003 		movw	r3, #:lower16:ieee154e_vars
 4322 1fe2 C0F20003 		movt	r3, #:upper16:ieee154e_vars
 4323 1fe6 D3F83031 		ldr	r3, [r3, #304]
 4324 1fea 93F86D30 		ldrb	r3, [r3, #109]	@ zero_extendqisi2
 4325 1fee 82F86D30 		strb	r3, [r2, #109]
1828:build/openmote-cc2538_armgcc/openstack/02a-MAClow/IEEE802154E.c ****     ieee154e_vars.ackToSend->l2_keyIndex      = ieee154e_vars.dataReceived->l2_keyIndex;
 4326              		.loc 1 1828 0
 4327 1ff2 40F20003 		movw	r3, #:lower16:ieee154e_vars
 4328 1ff6 C0F20003 		movt	r3, #:upper16:ieee154e_vars
 4329 1ffa D3F83421 		ldr	r2, [r3, #308]
 4330 1ffe 40F20003 		movw	r3, #:lower16:ieee154e_vars
 4331 2002 C0F20003 		movt	r3, #:upper16:ieee154e_vars
 4332 2006 D3F83031 		ldr	r3, [r3, #304]
 4333 200a 93F86E30 		ldrb	r3, [r3, #110]	@ zero_extendqisi2
 4334 200e 82F86E30 		strb	r3, [r2, #110]
1829:build/openmote-cc2538_armgcc/openstack/02a-MAClow/IEEE802154E.c **** 
1830:build/openmote-cc2538_armgcc/openstack/02a-MAClow/IEEE802154E.c ****     ieee802154_prependHeader(ieee154e_vars.ackToSend,
 4335              		.loc 1 1830 0
 4336 2012 40F20003 		movw	r3, #:lower16:ieee154e_vars
 4337 2016 C0F20003 		movt	r3, #:upper16:ieee154e_vars
 4338 201a D3F83411 		ldr	r1, [r3, #308]
1831:build/openmote-cc2538_armgcc/openstack/02a-MAClow/IEEE802154E.c ****                             ieee154e_vars.ackToSend->l2_frameType,
 4339              		.loc 1 1831 0
 4340 201e 40F20003 		movw	r3, #:lower16:ieee154e_vars
 4341 2022 C0F20003 		movt	r3, #:upper16:ieee154e_vars
 4342 2026 D3F83431 		ldr	r3, [r3, #308]
1830:build/openmote-cc2538_armgcc/openstack/02a-MAClow/IEEE802154E.c ****                             ieee154e_vars.ackToSend->l2_frameType,
 4343              		.loc 1 1830 0
 4344 202a 93F84920 		ldrb	r2, [r3, #73]	@ zero_extendqisi2
1832:build/openmote-cc2538_armgcc/openstack/02a-MAClow/IEEE802154E.c ****                             FALSE,//no payloadIE in ack
1833:build/openmote-cc2538_armgcc/openstack/02a-MAClow/IEEE802154E.c ****                             ieee154e_vars.dataReceived->l2_dsn,
 4345              		.loc 1 1833 0
 4346 202e 40F20003 		movw	r3, #:lower16:ieee154e_vars
 4347 2032 C0F20003 		movt	r3, #:upper16:ieee154e_vars
 4348 2036 D3F83031 		ldr	r3, [r3, #304]
1830:build/openmote-cc2538_armgcc/openstack/02a-MAClow/IEEE802154E.c ****                             ieee154e_vars.ackToSend->l2_frameType,
 4349              		.loc 1 1830 0
 4350 203a 93F84A40 		ldrb	r4, [r3, #74]	@ zero_extendqisi2
1834:build/openmote-cc2538_armgcc/openstack/02a-MAClow/IEEE802154E.c ****                             &(ieee154e_vars.dataReceived->l2_nextORpreviousHop)
 4351              		.loc 1 1834 0
 4352 203e 40F20003 		movw	r3, #:lower16:ieee154e_vars
 4353 2042 C0F20003 		movt	r3, #:upper16:ieee154e_vars
 4354 2046 D3F83031 		ldr	r3, [r3, #304]
1830:build/openmote-cc2538_armgcc/openstack/02a-MAClow/IEEE802154E.c ****                             ieee154e_vars.ackToSend->l2_frameType,
 4355              		.loc 1 1830 0
 4356 204a 3833     		adds	r3, r3, #56
 4357 204c 0093     		str	r3, [sp]
 4358 204e 0846     		mov	r0, r1
 4359 2050 1146     		mov	r1, r2
 4360 2052 0022     		movs	r2, #0
 4361 2054 2346     		mov	r3, r4
 4362 2056 FFF7FEFF 		bl	ieee802154_prependHeader
1835:build/openmote-cc2538_armgcc/openstack/02a-MAClow/IEEE802154E.c ****                             );
1836:build/openmote-cc2538_armgcc/openstack/02a-MAClow/IEEE802154E.c ****    
1837:build/openmote-cc2538_armgcc/openstack/02a-MAClow/IEEE802154E.c ****     // if security is enabled, encrypt directly in OpenQueue as there are no retransmissions for AC
1838:build/openmote-cc2538_armgcc/openstack/02a-MAClow/IEEE802154E.c ****     if (ieee154e_vars.ackToSend->l2_securityLevel != IEEE154_ASH_SLF_TYPE_NOSEC) {
 4363              		.loc 1 1838 0
 4364 205a 40F20003 		movw	r3, #:lower16:ieee154e_vars
 4365 205e C0F20003 		movt	r3, #:upper16:ieee154e_vars
 4366 2062 D3F83431 		ldr	r3, [r3, #308]
 4367 2066 93F86C30 		ldrb	r3, [r3, #108]	@ zero_extendqisi2
 4368 206a 002B     		cmp	r3, #0
 4369 206c 1BD0     		beq	.L208
1839:build/openmote-cc2538_armgcc/openstack/02a-MAClow/IEEE802154E.c ****         if (IEEE802154_SECURITY.outgoingFrame(ieee154e_vars.ackToSend) != E_SUCCESS) {
 4370              		.loc 1 1839 0
 4371 206e 40F20003 		movw	r3, #:lower16:IEEE802154_dummy_security
 4372 2072 C0F20003 		movt	r3, #:upper16:IEEE802154_dummy_security
 4373 2076 DA68     		ldr	r2, [r3, #12]
 4374 2078 40F20003 		movw	r3, #:lower16:ieee154e_vars
 4375 207c C0F20003 		movt	r3, #:upper16:ieee154e_vars
 4376 2080 D3F83431 		ldr	r3, [r3, #308]
 4377 2084 1846     		mov	r0, r3
 4378 2086 9047     		blx	r2
 4379 2088 0346     		mov	r3, r0
 4380 208a 002B     		cmp	r3, #0
 4381 208c 0BD0     		beq	.L208
1840:build/openmote-cc2538_armgcc/openstack/02a-MAClow/IEEE802154E.c ****             openqueue_freePacketBuffer(ieee154e_vars.ackToSend);
 4382              		.loc 1 1840 0
 4383 208e 40F20003 		movw	r3, #:lower16:ieee154e_vars
 4384 2092 C0F20003 		movt	r3, #:upper16:ieee154e_vars
 4385 2096 D3F83431 		ldr	r3, [r3, #308]
 4386 209a 1846     		mov	r0, r3
 4387 209c FFF7FEFF 		bl	openqueue_freePacketBuffer
1841:build/openmote-cc2538_armgcc/openstack/02a-MAClow/IEEE802154E.c ****             endSlot();
 4388              		.loc 1 1841 0
 4389 20a0 FFF7FEFF 		bl	endSlot
1842:build/openmote-cc2538_armgcc/openstack/02a-MAClow/IEEE802154E.c ****             return;
 4390              		.loc 1 1842 0
 4391 20a4 39E0     		b	.L205
 4392              	.L208:
1843:build/openmote-cc2538_armgcc/openstack/02a-MAClow/IEEE802154E.c ****         }
1844:build/openmote-cc2538_armgcc/openstack/02a-MAClow/IEEE802154E.c ****     }
1845:build/openmote-cc2538_armgcc/openstack/02a-MAClow/IEEE802154E.c ****     // space for 2-byte CRC
1846:build/openmote-cc2538_armgcc/openstack/02a-MAClow/IEEE802154E.c ****    packetfunctions_reserveFooterSize(ieee154e_vars.ackToSend,2);
 4393              		.loc 1 1846 0
 4394 20a6 40F20003 		movw	r3, #:lower16:ieee154e_vars
 4395 20aa C0F20003 		movt	r3, #:upper16:ieee154e_vars
 4396 20ae D3F83431 		ldr	r3, [r3, #308]
 4397 20b2 1846     		mov	r0, r3
 4398 20b4 0221     		movs	r1, #2
 4399 20b6 FFF7FEFF 		bl	packetfunctions_reserveFooterSize
1847:build/openmote-cc2538_armgcc/openstack/02a-MAClow/IEEE802154E.c **** #endif
1848:build/openmote-cc2538_armgcc/openstack/02a-MAClow/IEEE802154E.c ****    // configure the radio for that frequency
1849:build/openmote-cc2538_armgcc/openstack/02a-MAClow/IEEE802154E.c ****    radio_setFrequency(ieee154e_vars.freq);
 4400              		.loc 1 1849 0
 4401 20ba 40F20003 		movw	r3, #:lower16:ieee154e_vars
 4402 20be C0F20003 		movt	r3, #:upper16:ieee154e_vars
 4403 20c2 93F84431 		ldrb	r3, [r3, #324]	@ zero_extendqisi2
 4404 20c6 1846     		mov	r0, r3
 4405 20c8 FFF7FEFF 		bl	radio_setFrequency
1850:build/openmote-cc2538_armgcc/openstack/02a-MAClow/IEEE802154E.c ****    
1851:build/openmote-cc2538_armgcc/openstack/02a-MAClow/IEEE802154E.c ****    // load the packet in the radio's Tx buffer
1852:build/openmote-cc2538_armgcc/openstack/02a-MAClow/IEEE802154E.c ****    radio_loadPacket(ieee154e_vars.ackToSend->payload,
 4406              		.loc 1 1852 0
 4407 20cc 40F20003 		movw	r3, #:lower16:ieee154e_vars
 4408 20d0 C0F20003 		movt	r3, #:upper16:ieee154e_vars
 4409 20d4 D3F83431 		ldr	r3, [r3, #308]
 4410 20d8 5A68     		ldr	r2, [r3, #4]
1853:build/openmote-cc2538_armgcc/openstack/02a-MAClow/IEEE802154E.c ****                     ieee154e_vars.ackToSend->length);
 4411              		.loc 1 1853 0
 4412 20da 40F20003 		movw	r3, #:lower16:ieee154e_vars
 4413 20de C0F20003 		movt	r3, #:upper16:ieee154e_vars
 4414 20e2 D3F83431 		ldr	r3, [r3, #308]
 4415 20e6 1B7A     		ldrb	r3, [r3, #8]	@ zero_extendqisi2
1852:build/openmote-cc2538_armgcc/openstack/02a-MAClow/IEEE802154E.c ****                     ieee154e_vars.ackToSend->length);
 4416              		.loc 1 1852 0
 4417 20e8 1046     		mov	r0, r2
 4418 20ea 1946     		mov	r1, r3
 4419 20ec FFF7FEFF 		bl	radio_loadPacket
1854:build/openmote-cc2538_armgcc/openstack/02a-MAClow/IEEE802154E.c ****    
1855:build/openmote-cc2538_armgcc/openstack/02a-MAClow/IEEE802154E.c ****     // enable the radio in Tx mode. This does not send that packet.
1856:build/openmote-cc2538_armgcc/openstack/02a-MAClow/IEEE802154E.c ****     radio_txEnable();
 4420              		.loc 1 1856 0
 4421 20f0 FFF7FEFF 		bl	radio_txEnable
1857:build/openmote-cc2538_armgcc/openstack/02a-MAClow/IEEE802154E.c ****     ieee154e_vars.radioOnInit=radio_getTimerValue();
 4422              		.loc 1 1857 0
 4423 20f4 FFF7FEFF 		bl	radio_getTimerValue
 4424 20f8 0246     		mov	r2, r0
 4425 20fa 40F20003 		movw	r3, #:lower16:ieee154e_vars
 4426 20fe C0F20003 		movt	r3, #:upper16:ieee154e_vars
 4427 2102 C3F85C21 		str	r2, [r3, #348]
1858:build/openmote-cc2538_armgcc/openstack/02a-MAClow/IEEE802154E.c ****     ieee154e_vars.radioOnThisSlot=TRUE;
 4428              		.loc 1 1858 0
 4429 2106 40F20003 		movw	r3, #:lower16:ieee154e_vars
 4430 210a C0F20003 		movt	r3, #:upper16:ieee154e_vars
 4431 210e 0122     		movs	r2, #1
 4432 2110 83F86421 		strb	r2, [r3, #356]
1859:build/openmote-cc2538_armgcc/openstack/02a-MAClow/IEEE802154E.c ****     // change state
1860:build/openmote-cc2538_armgcc/openstack/02a-MAClow/IEEE802154E.c ****     changeState(S_TXACKREADY);
 4433              		.loc 1 1860 0
 4434 2114 1620     		movs	r0, #22
 4435 2116 FFF7FEFF 		bl	changeState
 4436              	.L205:
1861:build/openmote-cc2538_armgcc/openstack/02a-MAClow/IEEE802154E.c **** #ifdef SLOT_FSM_IMPLEMENTATION_MULTIPLE_TIMER_INTERRUPT
1862:build/openmote-cc2538_armgcc/openstack/02a-MAClow/IEEE802154E.c ****     changeState(S_TXACKDELAY);
1863:build/openmote-cc2538_armgcc/openstack/02a-MAClow/IEEE802154E.c **** #endif
1864:build/openmote-cc2538_armgcc/openstack/02a-MAClow/IEEE802154E.c **** }
 4437              		.loc 1 1864 0
 4438 211a 0437     		adds	r7, r7, #4
 4439 211c BD46     		mov	sp, r7
 4440              		@ sp needed
 4441 211e 90BD     		pop	{r4, r7, pc}
 4442              		.cfi_endproc
 4443              	.LFE35:
 4445              		.align	2
 4446              		.global	activity_rie4
 4447              		.thumb
 4448              		.thumb_func
 4450              	activity_rie4:
 4451              	.LFB36:
1865:build/openmote-cc2538_armgcc/openstack/02a-MAClow/IEEE802154E.c **** 
1866:build/openmote-cc2538_armgcc/openstack/02a-MAClow/IEEE802154E.c **** port_INLINE void activity_rie4() {
 4452              		.loc 1 1866 0
 4453              		.cfi_startproc
 4454              		@ args = 0, pretend = 0, frame = 0
 4455              		@ frame_needed = 1, uses_anonymous_args = 0
 4456 2120 80B5     		push	{r7, lr}
 4457              		.cfi_def_cfa_offset 8
 4458              		.cfi_offset 7, -8
 4459              		.cfi_offset 14, -4
 4460 2122 00AF     		add	r7, sp, #0
 4461              		.cfi_def_cfa_register 7
1867:build/openmote-cc2538_armgcc/openstack/02a-MAClow/IEEE802154E.c ****     // log the error
1868:build/openmote-cc2538_armgcc/openstack/02a-MAClow/IEEE802154E.c ****     openserial_printError(COMPONENT_IEEE802154E,ERR_MAXTXACKPREPARE_OVERFLOWS,
1869:build/openmote-cc2538_armgcc/openstack/02a-MAClow/IEEE802154E.c ****                          (errorparameter_t)ieee154e_vars.state,
 4462              		.loc 1 1869 0
 4463 2124 40F20003 		movw	r3, #:lower16:ieee154e_vars
 4464 2128 C0F20003 		movt	r3, #:upper16:ieee154e_vars
 4465 212c 93F82831 		ldrb	r3, [r3, #296]	@ zero_extendqisi2
1868:build/openmote-cc2538_armgcc/openstack/02a-MAClow/IEEE802154E.c ****                          (errorparameter_t)ieee154e_vars.state,
 4466              		.loc 1 1868 0
 4467 2130 1A46     		mov	r2, r3
 4468 2132 40F20003 		movw	r3, #:lower16:ieee154e_vars
 4469 2136 C0F20003 		movt	r3, #:upper16:ieee154e_vars
 4470 213a DB88     		ldrh	r3, [r3, #6]
 4471 213c 0920     		movs	r0, #9
 4472 213e 2521     		movs	r1, #37
 4473 2140 FFF7FEFF 		bl	openserial_printError
1870:build/openmote-cc2538_armgcc/openstack/02a-MAClow/IEEE802154E.c ****                          (errorparameter_t)ieee154e_vars.slotOffset);
1871:build/openmote-cc2538_armgcc/openstack/02a-MAClow/IEEE802154E.c ****    
1872:build/openmote-cc2538_armgcc/openstack/02a-MAClow/IEEE802154E.c ****     // abort
1873:build/openmote-cc2538_armgcc/openstack/02a-MAClow/IEEE802154E.c ****     endSlot();
 4474              		.loc 1 1873 0
 4475 2144 FFF7FEFF 		bl	endSlot
1874:build/openmote-cc2538_armgcc/openstack/02a-MAClow/IEEE802154E.c **** }
 4476              		.loc 1 1874 0
 4477 2148 80BD     		pop	{r7, pc}
 4478              		.cfi_endproc
 4479              	.LFE36:
 4481 214a 00BF     		.align	2
 4482              		.global	activity_ri7
 4483              		.thumb
 4484              		.thumb_func
 4486              	activity_ri7:
 4487              	.LFB37:
1875:build/openmote-cc2538_armgcc/openstack/02a-MAClow/IEEE802154E.c **** 
1876:build/openmote-cc2538_armgcc/openstack/02a-MAClow/IEEE802154E.c **** port_INLINE void activity_ri7() {
 4488              		.loc 1 1876 0
 4489              		.cfi_startproc
 4490              		@ args = 0, pretend = 0, frame = 0
 4491              		@ frame_needed = 1, uses_anonymous_args = 0
 4492 214c 80B5     		push	{r7, lr}
 4493              		.cfi_def_cfa_offset 8
 4494              		.cfi_offset 7, -8
 4495              		.cfi_offset 14, -4
 4496 214e 00AF     		add	r7, sp, #0
 4497              		.cfi_def_cfa_register 7
1877:build/openmote-cc2538_armgcc/openstack/02a-MAClow/IEEE802154E.c ****     // change state
1878:build/openmote-cc2538_armgcc/openstack/02a-MAClow/IEEE802154E.c ****     changeState(S_TXACKDELAY);
 4498              		.loc 1 1878 0
 4499 2150 1720     		movs	r0, #23
 4500 2152 FFF7FEFF 		bl	changeState
1879:build/openmote-cc2538_armgcc/openstack/02a-MAClow/IEEE802154E.c **** #ifdef SLOT_FSM_IMPLEMENTATION_MULTIPLE_TIMER_INTERRUPT
1880:build/openmote-cc2538_armgcc/openstack/02a-MAClow/IEEE802154E.c **** #else
1881:build/openmote-cc2538_armgcc/openstack/02a-MAClow/IEEE802154E.c ****     // arm rt7
1882:build/openmote-cc2538_armgcc/openstack/02a-MAClow/IEEE802154E.c ****     radiotimer_schedule(DURATION_rt7);
 4501              		.loc 1 1882 0
 4502 2156 40F20003 		movw	r3, #:lower16:ieee154e_vars
 4503 215a C0F20003 		movt	r3, #:upper16:ieee154e_vars
 4504 215e D3F83C31 		ldr	r3, [r3, #316]
 4505 2162 AC33     		adds	r3, r3, #172
 4506 2164 1846     		mov	r0, r3
 4507 2166 FFF7FEFF 		bl	radiotimer_schedule
1883:build/openmote-cc2538_armgcc/openstack/02a-MAClow/IEEE802154E.c ****     
1884:build/openmote-cc2538_armgcc/openstack/02a-MAClow/IEEE802154E.c ****     // give the 'go' to transmit
1885:build/openmote-cc2538_armgcc/openstack/02a-MAClow/IEEE802154E.c ****     radio_txNow(); 
 4508              		.loc 1 1885 0
 4509 216a FFF7FEFF 		bl	radio_txNow
1886:build/openmote-cc2538_armgcc/openstack/02a-MAClow/IEEE802154E.c **** #endif
1887:build/openmote-cc2538_armgcc/openstack/02a-MAClow/IEEE802154E.c **** }
 4510              		.loc 1 1887 0
 4511 216e 80BD     		pop	{r7, pc}
 4512              		.cfi_endproc
 4513              	.LFE37:
 4515              		.align	2
 4516              		.global	activity_rie5
 4517              		.thumb
 4518              		.thumb_func
 4520              	activity_rie5:
 4521              	.LFB38:
1888:build/openmote-cc2538_armgcc/openstack/02a-MAClow/IEEE802154E.c **** 
1889:build/openmote-cc2538_armgcc/openstack/02a-MAClow/IEEE802154E.c **** port_INLINE void activity_rie5() {
 4522              		.loc 1 1889 0
 4523              		.cfi_startproc
 4524              		@ args = 0, pretend = 0, frame = 0
 4525              		@ frame_needed = 1, uses_anonymous_args = 0
 4526 2170 80B5     		push	{r7, lr}
 4527              		.cfi_def_cfa_offset 8
 4528              		.cfi_offset 7, -8
 4529              		.cfi_offset 14, -4
 4530 2172 00AF     		add	r7, sp, #0
 4531              		.cfi_def_cfa_register 7
1890:build/openmote-cc2538_armgcc/openstack/02a-MAClow/IEEE802154E.c ****    // log the error
1891:build/openmote-cc2538_armgcc/openstack/02a-MAClow/IEEE802154E.c ****    openserial_printError(COMPONENT_IEEE802154E,ERR_WDRADIOTX_OVERFLOWS,
1892:build/openmote-cc2538_armgcc/openstack/02a-MAClow/IEEE802154E.c ****                          (errorparameter_t)ieee154e_vars.state,
 4532              		.loc 1 1892 0
 4533 2174 40F20003 		movw	r3, #:lower16:ieee154e_vars
 4534 2178 C0F20003 		movt	r3, #:upper16:ieee154e_vars
 4535 217c 93F82831 		ldrb	r3, [r3, #296]	@ zero_extendqisi2
1891:build/openmote-cc2538_armgcc/openstack/02a-MAClow/IEEE802154E.c ****                          (errorparameter_t)ieee154e_vars.state,
 4536              		.loc 1 1891 0
 4537 2180 1A46     		mov	r2, r3
 4538 2182 40F20003 		movw	r3, #:lower16:ieee154e_vars
 4539 2186 C0F20003 		movt	r3, #:upper16:ieee154e_vars
 4540 218a DB88     		ldrh	r3, [r3, #6]
 4541 218c 0920     		movs	r0, #9
 4542 218e 2821     		movs	r1, #40
 4543 2190 FFF7FEFF 		bl	openserial_printError
1893:build/openmote-cc2538_armgcc/openstack/02a-MAClow/IEEE802154E.c ****                          (errorparameter_t)ieee154e_vars.slotOffset);
1894:build/openmote-cc2538_armgcc/openstack/02a-MAClow/IEEE802154E.c ****    
1895:build/openmote-cc2538_armgcc/openstack/02a-MAClow/IEEE802154E.c ****    // abort
1896:build/openmote-cc2538_armgcc/openstack/02a-MAClow/IEEE802154E.c ****    endSlot();
 4544              		.loc 1 1896 0
 4545 2194 FFF7FEFF 		bl	endSlot
1897:build/openmote-cc2538_armgcc/openstack/02a-MAClow/IEEE802154E.c **** }
 4546              		.loc 1 1897 0
 4547 2198 80BD     		pop	{r7, pc}
 4548              		.cfi_endproc
 4549              	.LFE38:
 4551 219a 00BF     		.align	2
 4552              		.global	activity_ri8
 4553              		.thumb
 4554              		.thumb_func
 4556              	activity_ri8:
 4557              	.LFB39:
1898:build/openmote-cc2538_armgcc/openstack/02a-MAClow/IEEE802154E.c **** 
1899:build/openmote-cc2538_armgcc/openstack/02a-MAClow/IEEE802154E.c **** port_INLINE void activity_ri8(PORT_RADIOTIMER_WIDTH capturedTime) {
 4558              		.loc 1 1899 0
 4559              		.cfi_startproc
 4560              		@ args = 0, pretend = 0, frame = 8
 4561              		@ frame_needed = 1, uses_anonymous_args = 0
 4562 219c 80B5     		push	{r7, lr}
 4563              		.cfi_def_cfa_offset 8
 4564              		.cfi_offset 7, -8
 4565              		.cfi_offset 14, -4
 4566 219e 82B0     		sub	sp, sp, #8
 4567              		.cfi_def_cfa_offset 16
 4568 21a0 00AF     		add	r7, sp, #0
 4569              		.cfi_def_cfa_register 7
 4570 21a2 7860     		str	r0, [r7, #4]
1900:build/openmote-cc2538_armgcc/openstack/02a-MAClow/IEEE802154E.c ****     // change state
1901:build/openmote-cc2538_armgcc/openstack/02a-MAClow/IEEE802154E.c ****     changeState(S_TXACK);
 4571              		.loc 1 1901 0
 4572 21a4 1820     		movs	r0, #24
 4573 21a6 FFF7FEFF 		bl	changeState
1902:build/openmote-cc2538_armgcc/openstack/02a-MAClow/IEEE802154E.c **** #ifdef SLOT_FSM_IMPLEMENTATION_MULTIPLE_TIMER_INTERRUPT
1903:build/openmote-cc2538_armgcc/openstack/02a-MAClow/IEEE802154E.c ****     // cancel rt7
1904:build/openmote-cc2538_armgcc/openstack/02a-MAClow/IEEE802154E.c ****     radiotimer_cancel(ACTION_NORMAL_TIMER);
1905:build/openmote-cc2538_armgcc/openstack/02a-MAClow/IEEE802154E.c **** #else
1906:build/openmote-cc2538_armgcc/openstack/02a-MAClow/IEEE802154E.c ****     // cancel rt7
1907:build/openmote-cc2538_armgcc/openstack/02a-MAClow/IEEE802154E.c ****     radiotimer_cancel();
 4574              		.loc 1 1907 0
 4575 21aa FFF7FEFF 		bl	radiotimer_cancel
1908:build/openmote-cc2538_armgcc/openstack/02a-MAClow/IEEE802154E.c **** #endif
1909:build/openmote-cc2538_armgcc/openstack/02a-MAClow/IEEE802154E.c ****     // record the captured time
1910:build/openmote-cc2538_armgcc/openstack/02a-MAClow/IEEE802154E.c ****     ieee154e_vars.lastCapturedTime = capturedTime;
 4576              		.loc 1 1910 0
 4577 21ae 40F20003 		movw	r3, #:lower16:ieee154e_vars
 4578 21b2 C0F20003 		movt	r3, #:upper16:ieee154e_vars
 4579 21b6 7A68     		ldr	r2, [r7, #4]
 4580 21b8 C3F83C21 		str	r2, [r3, #316]
1911:build/openmote-cc2538_armgcc/openstack/02a-MAClow/IEEE802154E.c **** #ifdef SLOT_FSM_IMPLEMENTATION_MULTIPLE_TIMER_INTERRUPT
1912:build/openmote-cc2538_armgcc/openstack/02a-MAClow/IEEE802154E.c ****     // arm rt8
1913:build/openmote-cc2538_armgcc/openstack/02a-MAClow/IEEE802154E.c ****     radiotimer_schedule(ACTION_NORMAL_TIMER,DURATION_rt8);
1914:build/openmote-cc2538_armgcc/openstack/02a-MAClow/IEEE802154E.c **** #else
1915:build/openmote-cc2538_armgcc/openstack/02a-MAClow/IEEE802154E.c ****     // arm rt8
1916:build/openmote-cc2538_armgcc/openstack/02a-MAClow/IEEE802154E.c ****     radiotimer_schedule(DURATION_rt8);
 4581              		.loc 1 1916 0
 4582 21bc 40F20003 		movw	r3, #:lower16:ieee154e_vars
 4583 21c0 C0F20003 		movt	r3, #:upper16:ieee154e_vars
 4584 21c4 D3F83C31 		ldr	r3, [r3, #316]
 4585 21c8 6233     		adds	r3, r3, #98
 4586 21ca 1846     		mov	r0, r3
 4587 21cc FFF7FEFF 		bl	radiotimer_schedule
1917:build/openmote-cc2538_armgcc/openstack/02a-MAClow/IEEE802154E.c **** #endif
1918:build/openmote-cc2538_armgcc/openstack/02a-MAClow/IEEE802154E.c **** }
 4588              		.loc 1 1918 0
 4589 21d0 0837     		adds	r7, r7, #8
 4590 21d2 BD46     		mov	sp, r7
 4591              		@ sp needed
 4592 21d4 80BD     		pop	{r7, pc}
 4593              		.cfi_endproc
 4594              	.LFE39:
 4596 21d6 00BF     		.align	2
 4597              		.global	activity_rie6
 4598              		.thumb
 4599              		.thumb_func
 4601              	activity_rie6:
 4602              	.LFB40:
1919:build/openmote-cc2538_armgcc/openstack/02a-MAClow/IEEE802154E.c **** 
1920:build/openmote-cc2538_armgcc/openstack/02a-MAClow/IEEE802154E.c **** port_INLINE void activity_rie6() {
 4603              		.loc 1 1920 0
 4604              		.cfi_startproc
 4605              		@ args = 0, pretend = 0, frame = 0
 4606              		@ frame_needed = 1, uses_anonymous_args = 0
 4607 21d8 80B5     		push	{r7, lr}
 4608              		.cfi_def_cfa_offset 8
 4609              		.cfi_offset 7, -8
 4610              		.cfi_offset 14, -4
 4611 21da 00AF     		add	r7, sp, #0
 4612              		.cfi_def_cfa_register 7
1921:build/openmote-cc2538_armgcc/openstack/02a-MAClow/IEEE802154E.c ****    // log the error
1922:build/openmote-cc2538_armgcc/openstack/02a-MAClow/IEEE802154E.c ****    openserial_printError(COMPONENT_IEEE802154E,ERR_WDACKDURATION_OVERFLOWS,
1923:build/openmote-cc2538_armgcc/openstack/02a-MAClow/IEEE802154E.c ****                          (errorparameter_t)ieee154e_vars.state,
 4613              		.loc 1 1923 0
 4614 21dc 40F20003 		movw	r3, #:lower16:ieee154e_vars
 4615 21e0 C0F20003 		movt	r3, #:upper16:ieee154e_vars
 4616 21e4 93F82831 		ldrb	r3, [r3, #296]	@ zero_extendqisi2
1922:build/openmote-cc2538_armgcc/openstack/02a-MAClow/IEEE802154E.c ****                          (errorparameter_t)ieee154e_vars.state,
 4617              		.loc 1 1922 0
 4618 21e8 1A46     		mov	r2, r3
 4619 21ea 40F20003 		movw	r3, #:lower16:ieee154e_vars
 4620 21ee C0F20003 		movt	r3, #:upper16:ieee154e_vars
 4621 21f2 DB88     		ldrh	r3, [r3, #6]
 4622 21f4 0920     		movs	r0, #9
 4623 21f6 2921     		movs	r1, #41
 4624 21f8 FFF7FEFF 		bl	openserial_printError
1924:build/openmote-cc2538_armgcc/openstack/02a-MAClow/IEEE802154E.c ****                          (errorparameter_t)ieee154e_vars.slotOffset);
1925:build/openmote-cc2538_armgcc/openstack/02a-MAClow/IEEE802154E.c ****    
1926:build/openmote-cc2538_armgcc/openstack/02a-MAClow/IEEE802154E.c ****    // abort
1927:build/openmote-cc2538_armgcc/openstack/02a-MAClow/IEEE802154E.c ****    endSlot();
 4625              		.loc 1 1927 0
 4626 21fc FFF7FEFF 		bl	endSlot
1928:build/openmote-cc2538_armgcc/openstack/02a-MAClow/IEEE802154E.c **** }
 4627              		.loc 1 1928 0
 4628 2200 80BD     		pop	{r7, pc}
 4629              		.cfi_endproc
 4630              	.LFE40:
 4632 2202 00BF     		.align	2
 4633              		.global	activity_ri9
 4634              		.thumb
 4635              		.thumb_func
 4637              	activity_ri9:
 4638              	.LFB41:
1929:build/openmote-cc2538_armgcc/openstack/02a-MAClow/IEEE802154E.c **** 
1930:build/openmote-cc2538_armgcc/openstack/02a-MAClow/IEEE802154E.c **** port_INLINE void activity_ri9(PORT_RADIOTIMER_WIDTH capturedTime) {
 4639              		.loc 1 1930 0
 4640              		.cfi_startproc
 4641              		@ args = 0, pretend = 0, frame = 8
 4642              		@ frame_needed = 1, uses_anonymous_args = 0
 4643 2204 80B5     		push	{r7, lr}
 4644              		.cfi_def_cfa_offset 8
 4645              		.cfi_offset 7, -8
 4646              		.cfi_offset 14, -4
 4647 2206 82B0     		sub	sp, sp, #8
 4648              		.cfi_def_cfa_offset 16
 4649 2208 00AF     		add	r7, sp, #0
 4650              		.cfi_def_cfa_register 7
 4651 220a 7860     		str	r0, [r7, #4]
1931:build/openmote-cc2538_armgcc/openstack/02a-MAClow/IEEE802154E.c ****    // change state
1932:build/openmote-cc2538_armgcc/openstack/02a-MAClow/IEEE802154E.c ****    changeState(S_RXPROC);
 4652              		.loc 1 1932 0
 4653 220c 1920     		movs	r0, #25
 4654 220e FFF7FEFF 		bl	changeState
1933:build/openmote-cc2538_armgcc/openstack/02a-MAClow/IEEE802154E.c **** #ifdef SLOT_FSM_IMPLEMENTATION_MULTIPLE_TIMER_INTERRUPT
1934:build/openmote-cc2538_armgcc/openstack/02a-MAClow/IEEE802154E.c ****    // cancel rt8
1935:build/openmote-cc2538_armgcc/openstack/02a-MAClow/IEEE802154E.c ****    radiotimer_cancel(ACTION_NORMAL_TIMER);
1936:build/openmote-cc2538_armgcc/openstack/02a-MAClow/IEEE802154E.c **** #else
1937:build/openmote-cc2538_armgcc/openstack/02a-MAClow/IEEE802154E.c ****    // cancel rt8
1938:build/openmote-cc2538_armgcc/openstack/02a-MAClow/IEEE802154E.c ****    radiotimer_cancel();
 4655              		.loc 1 1938 0
 4656 2212 FFF7FEFF 		bl	radiotimer_cancel
1939:build/openmote-cc2538_armgcc/openstack/02a-MAClow/IEEE802154E.c **** #endif
1940:build/openmote-cc2538_armgcc/openstack/02a-MAClow/IEEE802154E.c ****    // record the captured time
1941:build/openmote-cc2538_armgcc/openstack/02a-MAClow/IEEE802154E.c ****    ieee154e_vars.lastCapturedTime = capturedTime;
 4657              		.loc 1 1941 0
 4658 2216 40F20003 		movw	r3, #:lower16:ieee154e_vars
 4659 221a C0F20003 		movt	r3, #:upper16:ieee154e_vars
 4660 221e 7A68     		ldr	r2, [r7, #4]
 4661 2220 C3F83C21 		str	r2, [r3, #316]
1942:build/openmote-cc2538_armgcc/openstack/02a-MAClow/IEEE802154E.c ****    
1943:build/openmote-cc2538_armgcc/openstack/02a-MAClow/IEEE802154E.c ****    // free the ack we just sent so corresponding RAM memory can be recycled
1944:build/openmote-cc2538_armgcc/openstack/02a-MAClow/IEEE802154E.c ****    openqueue_freePacketBuffer(ieee154e_vars.ackToSend);
 4662              		.loc 1 1944 0
 4663 2224 40F20003 		movw	r3, #:lower16:ieee154e_vars
 4664 2228 C0F20003 		movt	r3, #:upper16:ieee154e_vars
 4665 222c D3F83431 		ldr	r3, [r3, #308]
 4666 2230 1846     		mov	r0, r3
 4667 2232 FFF7FEFF 		bl	openqueue_freePacketBuffer
1945:build/openmote-cc2538_armgcc/openstack/02a-MAClow/IEEE802154E.c ****    
1946:build/openmote-cc2538_armgcc/openstack/02a-MAClow/IEEE802154E.c ****    // clear local variable
1947:build/openmote-cc2538_armgcc/openstack/02a-MAClow/IEEE802154E.c ****    ieee154e_vars.ackToSend = NULL;
 4668              		.loc 1 1947 0
 4669 2236 40F20003 		movw	r3, #:lower16:ieee154e_vars
 4670 223a C0F20003 		movt	r3, #:upper16:ieee154e_vars
 4671 223e 0022     		movs	r2, #0
 4672 2240 C3F83421 		str	r2, [r3, #308]
1948:build/openmote-cc2538_armgcc/openstack/02a-MAClow/IEEE802154E.c ****    
1949:build/openmote-cc2538_armgcc/openstack/02a-MAClow/IEEE802154E.c ****    // synchronize to the received packet
1950:build/openmote-cc2538_armgcc/openstack/02a-MAClow/IEEE802154E.c ****    if (idmanager_getIsDAGroot()==FALSE && icmpv6rpl_isPreferredParent(&(ieee154e_vars.dataReceived-
 4673              		.loc 1 1950 0
 4674 2244 FFF7FEFF 		bl	idmanager_getIsDAGroot
 4675 2248 0346     		mov	r3, r0
 4676 224a 83F00103 		eor	r3, r3, #1
 4677 224e DBB2     		uxtb	r3, r3
 4678 2250 002B     		cmp	r3, #0
 4679 2252 15D0     		beq	.L215
 4680              		.loc 1 1950 0 is_stmt 0 discriminator 1
 4681 2254 40F20003 		movw	r3, #:lower16:ieee154e_vars
 4682 2258 C0F20003 		movt	r3, #:upper16:ieee154e_vars
 4683 225c D3F83031 		ldr	r3, [r3, #304]
 4684 2260 3833     		adds	r3, r3, #56
 4685 2262 1846     		mov	r0, r3
 4686 2264 FFF7FEFF 		bl	icmpv6rpl_isPreferredParent
 4687 2268 0346     		mov	r3, r0
 4688 226a 002B     		cmp	r3, #0
 4689 226c 08D0     		beq	.L215
1951:build/openmote-cc2538_armgcc/openstack/02a-MAClow/IEEE802154E.c ****       synchronizePacket(ieee154e_vars.syncCapturedTime);
 4690              		.loc 1 1951 0 is_stmt 1
 4691 226e 40F20003 		movw	r3, #:lower16:ieee154e_vars
 4692 2272 C0F20003 		movt	r3, #:upper16:ieee154e_vars
 4693 2276 D3F84031 		ldr	r3, [r3, #320]
 4694 227a 1846     		mov	r0, r3
 4695 227c FFF7FEFF 		bl	synchronizePacket
 4696              	.L215:
1952:build/openmote-cc2538_armgcc/openstack/02a-MAClow/IEEE802154E.c ****    }
1953:build/openmote-cc2538_armgcc/openstack/02a-MAClow/IEEE802154E.c ****    
1954:build/openmote-cc2538_armgcc/openstack/02a-MAClow/IEEE802154E.c ****    // inform upper layer of reception (after ACK sent)
1955:build/openmote-cc2538_armgcc/openstack/02a-MAClow/IEEE802154E.c ****    notif_receive(ieee154e_vars.dataReceived);
 4697              		.loc 1 1955 0
 4698 2280 40F20003 		movw	r3, #:lower16:ieee154e_vars
 4699 2284 C0F20003 		movt	r3, #:upper16:ieee154e_vars
 4700 2288 D3F83031 		ldr	r3, [r3, #304]
 4701 228c 1846     		mov	r0, r3
 4702 228e FFF7FEFF 		bl	notif_receive
1956:build/openmote-cc2538_armgcc/openstack/02a-MAClow/IEEE802154E.c ****    
1957:build/openmote-cc2538_armgcc/openstack/02a-MAClow/IEEE802154E.c ****    // clear local variable
1958:build/openmote-cc2538_armgcc/openstack/02a-MAClow/IEEE802154E.c ****    ieee154e_vars.dataReceived = NULL;
 4703              		.loc 1 1958 0
 4704 2292 40F20003 		movw	r3, #:lower16:ieee154e_vars
 4705 2296 C0F20003 		movt	r3, #:upper16:ieee154e_vars
 4706 229a 0022     		movs	r2, #0
 4707 229c C3F83021 		str	r2, [r3, #304]
1959:build/openmote-cc2538_armgcc/openstack/02a-MAClow/IEEE802154E.c ****    
1960:build/openmote-cc2538_armgcc/openstack/02a-MAClow/IEEE802154E.c ****    // official end of Rx slot
1961:build/openmote-cc2538_armgcc/openstack/02a-MAClow/IEEE802154E.c ****    endSlot();
 4708              		.loc 1 1961 0
 4709 22a0 FFF7FEFF 		bl	endSlot
1962:build/openmote-cc2538_armgcc/openstack/02a-MAClow/IEEE802154E.c **** }
 4710              		.loc 1 1962 0
 4711 22a4 0837     		adds	r7, r7, #8
 4712 22a6 BD46     		mov	sp, r7
 4713              		@ sp needed
 4714 22a8 80BD     		pop	{r7, pc}
 4715              		.cfi_endproc
 4716              	.LFE41:
 4718 22aa 00BF     		.align	2
 4719              		.global	isValidRxFrame
 4720              		.thumb
 4721              		.thumb_func
 4723              	isValidRxFrame:
 4724              	.LFB42:
1963:build/openmote-cc2538_armgcc/openstack/02a-MAClow/IEEE802154E.c **** 
1964:build/openmote-cc2538_armgcc/openstack/02a-MAClow/IEEE802154E.c **** //======= frame validity check
1965:build/openmote-cc2538_armgcc/openstack/02a-MAClow/IEEE802154E.c **** 
1966:build/openmote-cc2538_armgcc/openstack/02a-MAClow/IEEE802154E.c **** /**
1967:build/openmote-cc2538_armgcc/openstack/02a-MAClow/IEEE802154E.c **** \brief Decides whether the packet I just received is valid received frame.
1968:build/openmote-cc2538_armgcc/openstack/02a-MAClow/IEEE802154E.c **** 
1969:build/openmote-cc2538_armgcc/openstack/02a-MAClow/IEEE802154E.c **** A valid Rx frame satisfies the following constraints:
1970:build/openmote-cc2538_armgcc/openstack/02a-MAClow/IEEE802154E.c **** - its IEEE802.15.4 header is well formatted
1971:build/openmote-cc2538_armgcc/openstack/02a-MAClow/IEEE802154E.c **** - it's a DATA of BEACON frame (i.e. not ACK and not COMMAND)
1972:build/openmote-cc2538_armgcc/openstack/02a-MAClow/IEEE802154E.c **** - it's sent on the same PANid as mine
1973:build/openmote-cc2538_armgcc/openstack/02a-MAClow/IEEE802154E.c **** - it's for me (unicast or broadcast)
1974:build/openmote-cc2538_armgcc/openstack/02a-MAClow/IEEE802154E.c **** 
1975:build/openmote-cc2538_armgcc/openstack/02a-MAClow/IEEE802154E.c **** \param[in] ieee802514_header IEEE802.15.4 header of the packet I just received
1976:build/openmote-cc2538_armgcc/openstack/02a-MAClow/IEEE802154E.c **** 
1977:build/openmote-cc2538_armgcc/openstack/02a-MAClow/IEEE802154E.c **** \returns TRUE if packet is valid received frame, FALSE otherwise
1978:build/openmote-cc2538_armgcc/openstack/02a-MAClow/IEEE802154E.c **** */
1979:build/openmote-cc2538_armgcc/openstack/02a-MAClow/IEEE802154E.c **** port_INLINE bool isValidRxFrame(ieee802154_header_iht* ieee802514_header) {
 4725              		.loc 1 1979 0
 4726              		.cfi_startproc
 4727              		@ args = 0, pretend = 0, frame = 8
 4728              		@ frame_needed = 1, uses_anonymous_args = 0
 4729 22ac 90B5     		push	{r4, r7, lr}
 4730              		.cfi_def_cfa_offset 12
 4731              		.cfi_offset 4, -12
 4732              		.cfi_offset 7, -8
 4733              		.cfi_offset 14, -4
 4734 22ae 83B0     		sub	sp, sp, #12
 4735              		.cfi_def_cfa_offset 24
 4736 22b0 00AF     		add	r7, sp, #0
 4737              		.cfi_def_cfa_register 7
 4738 22b2 7860     		str	r0, [r7, #4]
1980:build/openmote-cc2538_armgcc/openstack/02a-MAClow/IEEE802154E.c ****    return ieee802514_header->valid==TRUE                                                           
 4739              		.loc 1 1980 0
 4740 22b4 7B68     		ldr	r3, [r7, #4]
 4741 22b6 1B78     		ldrb	r3, [r3]	@ zero_extendqisi2
1981:build/openmote-cc2538_armgcc/openstack/02a-MAClow/IEEE802154E.c ****           (
1982:build/openmote-cc2538_armgcc/openstack/02a-MAClow/IEEE802154E.c ****              ieee802514_header->frameType==IEEE154_TYPE_DATA                   ||
1983:build/openmote-cc2538_armgcc/openstack/02a-MAClow/IEEE802154E.c ****              ieee802514_header->frameType==IEEE154_TYPE_BEACON
1984:build/openmote-cc2538_armgcc/openstack/02a-MAClow/IEEE802154E.c ****           )                                                                                        
1985:build/openmote-cc2538_armgcc/openstack/02a-MAClow/IEEE802154E.c ****           packetfunctions_sameAddress(&ieee802514_header->panid,idmanager_getMyID(ADDR_PANID))     
 4742              		.loc 1 1985 0
 4743 22b8 002B     		cmp	r3, #0
 4744 22ba 27D0     		beq	.L217
1982:build/openmote-cc2538_armgcc/openstack/02a-MAClow/IEEE802154E.c ****              ieee802514_header->frameType==IEEE154_TYPE_BEACON
 4745              		.loc 1 1982 0
 4746 22bc 7B68     		ldr	r3, [r7, #4]
 4747 22be 9B78     		ldrb	r3, [r3, #2]	@ zero_extendqisi2
1980:build/openmote-cc2538_armgcc/openstack/02a-MAClow/IEEE802154E.c ****    return ieee802514_header->valid==TRUE                                                           
 4748              		.loc 1 1980 0
 4749 22c0 012B     		cmp	r3, #1
 4750 22c2 03D0     		beq	.L218
1983:build/openmote-cc2538_armgcc/openstack/02a-MAClow/IEEE802154E.c ****           )                                                                                        
 4751              		.loc 1 1983 0
 4752 22c4 7B68     		ldr	r3, [r7, #4]
 4753 22c6 9B78     		ldrb	r3, [r3, #2]	@ zero_extendqisi2
1982:build/openmote-cc2538_armgcc/openstack/02a-MAClow/IEEE802154E.c ****              ieee802514_header->frameType==IEEE154_TYPE_BEACON
 4754              		.loc 1 1982 0
 4755 22c8 002B     		cmp	r3, #0
 4756 22ca 1FD1     		bne	.L217
 4757              	.L218:
 4758              		.loc 1 1985 0
 4759 22cc 7B68     		ldr	r3, [r7, #4]
 4760 22ce 03F10B04 		add	r4, r3, #11
 4761 22d2 0420     		movs	r0, #4
 4762 22d4 FFF7FEFF 		bl	idmanager_getMyID
 4763 22d8 0346     		mov	r3, r0
 4764 22da 2046     		mov	r0, r4
 4765 22dc 1946     		mov	r1, r3
 4766 22de FFF7FEFF 		bl	packetfunctions_sameAddress
 4767 22e2 0346     		mov	r3, r0
1984:build/openmote-cc2538_armgcc/openstack/02a-MAClow/IEEE802154E.c ****           packetfunctions_sameAddress(&ieee802514_header->panid,idmanager_getMyID(ADDR_PANID))     
 4768              		.loc 1 1984 0
 4769 22e4 002B     		cmp	r3, #0
 4770 22e6 11D0     		beq	.L217
1986:build/openmote-cc2538_armgcc/openstack/02a-MAClow/IEEE802154E.c ****           (
1987:build/openmote-cc2538_armgcc/openstack/02a-MAClow/IEEE802154E.c ****              idmanager_isMyAddress(&ieee802514_header->dest)                   ||
 4771              		.loc 1 1987 0
 4772 22e8 7B68     		ldr	r3, [r7, #4]
 4773 22ea 1C33     		adds	r3, r3, #28
 4774 22ec 1846     		mov	r0, r3
 4775 22ee FFF7FEFF 		bl	idmanager_isMyAddress
 4776 22f2 0346     		mov	r3, r0
1985:build/openmote-cc2538_armgcc/openstack/02a-MAClow/IEEE802154E.c ****           (
 4777              		.loc 1 1985 0
 4778 22f4 002B     		cmp	r3, #0
 4779 22f6 07D1     		bne	.L219
1988:build/openmote-cc2538_armgcc/openstack/02a-MAClow/IEEE802154E.c ****              packetfunctions_isBroadcastMulticast(&ieee802514_header->dest)
 4780              		.loc 1 1988 0
 4781 22f8 7B68     		ldr	r3, [r7, #4]
 4782 22fa 1C33     		adds	r3, r3, #28
 4783 22fc 1846     		mov	r0, r3
 4784 22fe FFF7FEFF 		bl	packetfunctions_isBroadcastMulticast
 4785 2302 0346     		mov	r3, r0
1987:build/openmote-cc2538_armgcc/openstack/02a-MAClow/IEEE802154E.c ****              packetfunctions_isBroadcastMulticast(&ieee802514_header->dest)
 4786              		.loc 1 1987 0
 4787 2304 002B     		cmp	r3, #0
 4788 2306 01D0     		beq	.L217
 4789              	.L219:
1985:build/openmote-cc2538_armgcc/openstack/02a-MAClow/IEEE802154E.c ****           (
 4790              		.loc 1 1985 0 discriminator 2
 4791 2308 0123     		movs	r3, #1
 4792 230a 00E0     		b	.L220
 4793              	.L217:
1985:build/openmote-cc2538_armgcc/openstack/02a-MAClow/IEEE802154E.c ****           (
 4794              		.loc 1 1985 0 is_stmt 0 discriminator 1
 4795 230c 0023     		movs	r3, #0
 4796              	.L220:
1980:build/openmote-cc2538_armgcc/openstack/02a-MAClow/IEEE802154E.c ****           (
 4797              		.loc 1 1980 0 is_stmt 1
 4798 230e 03F00103 		and	r3, r3, #1
 4799 2312 DBB2     		uxtb	r3, r3
1989:build/openmote-cc2538_armgcc/openstack/02a-MAClow/IEEE802154E.c ****           );
1990:build/openmote-cc2538_armgcc/openstack/02a-MAClow/IEEE802154E.c **** }
 4800              		.loc 1 1990 0
 4801 2314 1846     		mov	r0, r3
 4802 2316 0C37     		adds	r7, r7, #12
 4803 2318 BD46     		mov	sp, r7
 4804              		@ sp needed
 4805 231a 90BD     		pop	{r4, r7, pc}
 4806              		.cfi_endproc
 4807              	.LFE42:
 4809              		.align	2
 4810              		.global	isValidAck
 4811              		.thumb
 4812              		.thumb_func
 4814              	isValidAck:
 4815              	.LFB43:
1991:build/openmote-cc2538_armgcc/openstack/02a-MAClow/IEEE802154E.c **** 
1992:build/openmote-cc2538_armgcc/openstack/02a-MAClow/IEEE802154E.c **** /**
1993:build/openmote-cc2538_armgcc/openstack/02a-MAClow/IEEE802154E.c **** \brief Decides whether the packet I just received is a valid ACK.
1994:build/openmote-cc2538_armgcc/openstack/02a-MAClow/IEEE802154E.c **** 
1995:build/openmote-cc2538_armgcc/openstack/02a-MAClow/IEEE802154E.c **** A packet is a valid ACK if it satisfies the following conditions:
1996:build/openmote-cc2538_armgcc/openstack/02a-MAClow/IEEE802154E.c **** - the IEEE802.15.4 header is valid
1997:build/openmote-cc2538_armgcc/openstack/02a-MAClow/IEEE802154E.c **** - the frame type is 'ACK'
1998:build/openmote-cc2538_armgcc/openstack/02a-MAClow/IEEE802154E.c **** - the sequence number in the ACK matches the sequence number of the packet sent
1999:build/openmote-cc2538_armgcc/openstack/02a-MAClow/IEEE802154E.c **** - the ACK contains my PANid
2000:build/openmote-cc2538_armgcc/openstack/02a-MAClow/IEEE802154E.c **** - the packet is unicast to me
2001:build/openmote-cc2538_armgcc/openstack/02a-MAClow/IEEE802154E.c **** - the packet comes from the neighbor I sent the data to
2002:build/openmote-cc2538_armgcc/openstack/02a-MAClow/IEEE802154E.c **** 
2003:build/openmote-cc2538_armgcc/openstack/02a-MAClow/IEEE802154E.c **** \param[in] ieee802514_header IEEE802.15.4 header of the packet I just received
2004:build/openmote-cc2538_armgcc/openstack/02a-MAClow/IEEE802154E.c **** \param[in] packetSent points to the packet I just sent
2005:build/openmote-cc2538_armgcc/openstack/02a-MAClow/IEEE802154E.c **** 
2006:build/openmote-cc2538_armgcc/openstack/02a-MAClow/IEEE802154E.c **** \returns TRUE if packet is a valid ACK, FALSE otherwise.
2007:build/openmote-cc2538_armgcc/openstack/02a-MAClow/IEEE802154E.c **** */
2008:build/openmote-cc2538_armgcc/openstack/02a-MAClow/IEEE802154E.c **** port_INLINE bool isValidAck(ieee802154_header_iht* ieee802514_header, OpenQueueEntry_t* packetSent)
 4816              		.loc 1 2008 0
 4817              		.cfi_startproc
 4818              		@ args = 0, pretend = 0, frame = 8
 4819              		@ frame_needed = 1, uses_anonymous_args = 0
 4820 231c 90B5     		push	{r4, r7, lr}
 4821              		.cfi_def_cfa_offset 12
 4822              		.cfi_offset 4, -12
 4823              		.cfi_offset 7, -8
 4824              		.cfi_offset 14, -4
 4825 231e 83B0     		sub	sp, sp, #12
 4826              		.cfi_def_cfa_offset 24
 4827 2320 00AF     		add	r7, sp, #0
 4828              		.cfi_def_cfa_register 7
 4829 2322 7860     		str	r0, [r7, #4]
 4830 2324 3960     		str	r1, [r7]
2009:build/openmote-cc2538_armgcc/openstack/02a-MAClow/IEEE802154E.c ****    /*
2010:build/openmote-cc2538_armgcc/openstack/02a-MAClow/IEEE802154E.c ****    return ieee802514_header->valid==TRUE                                                           
2011:build/openmote-cc2538_armgcc/openstack/02a-MAClow/IEEE802154E.c ****           ieee802514_header->frameType==IEEE154_TYPE_ACK                                           
2012:build/openmote-cc2538_armgcc/openstack/02a-MAClow/IEEE802154E.c ****           ieee802514_header->dsn==packetSent->l2_dsn                                               
2013:build/openmote-cc2538_armgcc/openstack/02a-MAClow/IEEE802154E.c ****           packetfunctions_sameAddress(&ieee802514_header->panid,idmanager_getMyID(ADDR_PANID))     
2014:build/openmote-cc2538_armgcc/openstack/02a-MAClow/IEEE802154E.c ****           idmanager_isMyAddress(&ieee802514_header->dest)                                          
2015:build/openmote-cc2538_armgcc/openstack/02a-MAClow/IEEE802154E.c ****           packetfunctions_sameAddress(&ieee802514_header->src,&packetSent->l2_nextORpreviousHop);
2016:build/openmote-cc2538_armgcc/openstack/02a-MAClow/IEEE802154E.c ****    */
2017:build/openmote-cc2538_armgcc/openstack/02a-MAClow/IEEE802154E.c ****    // poipoi don't check for seq num
2018:build/openmote-cc2538_armgcc/openstack/02a-MAClow/IEEE802154E.c ****    return ieee802514_header->valid==TRUE                                                           
 4831              		.loc 1 2018 0
 4832 2326 7B68     		ldr	r3, [r7, #4]
 4833 2328 1B78     		ldrb	r3, [r3]	@ zero_extendqisi2
2019:build/openmote-cc2538_armgcc/openstack/02a-MAClow/IEEE802154E.c ****           ieee802514_header->frameType==IEEE154_TYPE_ACK                                           
2020:build/openmote-cc2538_armgcc/openstack/02a-MAClow/IEEE802154E.c ****           packetfunctions_sameAddress(&ieee802514_header->panid,idmanager_getMyID(ADDR_PANID))     
2021:build/openmote-cc2538_armgcc/openstack/02a-MAClow/IEEE802154E.c ****           idmanager_isMyAddress(&ieee802514_header->dest)                                          
 4834              		.loc 1 2021 0
 4835 232a 002B     		cmp	r3, #0
 4836 232c 27D0     		beq	.L223
2019:build/openmote-cc2538_armgcc/openstack/02a-MAClow/IEEE802154E.c ****           ieee802514_header->frameType==IEEE154_TYPE_ACK                                           
 4837              		.loc 1 2019 0
 4838 232e 7B68     		ldr	r3, [r7, #4]
 4839 2330 9B78     		ldrb	r3, [r3, #2]	@ zero_extendqisi2
2018:build/openmote-cc2538_armgcc/openstack/02a-MAClow/IEEE802154E.c ****           ieee802514_header->frameType==IEEE154_TYPE_ACK                                           
 4840              		.loc 1 2018 0
 4841 2332 022B     		cmp	r3, #2
 4842 2334 23D1     		bne	.L223
2020:build/openmote-cc2538_armgcc/openstack/02a-MAClow/IEEE802154E.c ****           idmanager_isMyAddress(&ieee802514_header->dest)                                          
 4843              		.loc 1 2020 0
 4844 2336 7B68     		ldr	r3, [r7, #4]
 4845 2338 03F10B04 		add	r4, r3, #11
 4846 233c 0420     		movs	r0, #4
 4847 233e FFF7FEFF 		bl	idmanager_getMyID
 4848 2342 0346     		mov	r3, r0
 4849 2344 2046     		mov	r0, r4
 4850 2346 1946     		mov	r1, r3
 4851 2348 FFF7FEFF 		bl	packetfunctions_sameAddress
 4852 234c 0346     		mov	r3, r0
2019:build/openmote-cc2538_armgcc/openstack/02a-MAClow/IEEE802154E.c ****           ieee802514_header->frameType==IEEE154_TYPE_ACK                                           
 4853              		.loc 1 2019 0
 4854 234e 002B     		cmp	r3, #0
 4855 2350 15D0     		beq	.L223
 4856              		.loc 1 2021 0
 4857 2352 7B68     		ldr	r3, [r7, #4]
 4858 2354 1C33     		adds	r3, r3, #28
 4859 2356 1846     		mov	r0, r3
 4860 2358 FFF7FEFF 		bl	idmanager_isMyAddress
 4861 235c 0346     		mov	r3, r0
2020:build/openmote-cc2538_armgcc/openstack/02a-MAClow/IEEE802154E.c ****           idmanager_isMyAddress(&ieee802514_header->dest)                                          
 4862              		.loc 1 2020 0
 4863 235e 002B     		cmp	r3, #0
 4864 2360 0DD0     		beq	.L223
2022:build/openmote-cc2538_armgcc/openstack/02a-MAClow/IEEE802154E.c ****           packetfunctions_sameAddress(&ieee802514_header->src,&packetSent->l2_nextORpreviousHop);
 4865              		.loc 1 2022 0
 4866 2362 7B68     		ldr	r3, [r7, #4]
 4867 2364 03F12D02 		add	r2, r3, #45
 4868 2368 3B68     		ldr	r3, [r7]
 4869 236a 3833     		adds	r3, r3, #56
 4870 236c 1046     		mov	r0, r2
 4871 236e 1946     		mov	r1, r3
 4872 2370 FFF7FEFF 		bl	packetfunctions_sameAddress
 4873 2374 0346     		mov	r3, r0
2021:build/openmote-cc2538_armgcc/openstack/02a-MAClow/IEEE802154E.c ****           packetfunctions_sameAddress(&ieee802514_header->src,&packetSent->l2_nextORpreviousHop);
 4874              		.loc 1 2021 0
 4875 2376 002B     		cmp	r3, #0
 4876 2378 01D0     		beq	.L223
2021:build/openmote-cc2538_armgcc/openstack/02a-MAClow/IEEE802154E.c ****           packetfunctions_sameAddress(&ieee802514_header->src,&packetSent->l2_nextORpreviousHop);
 4877              		.loc 1 2021 0 is_stmt 0 discriminator 2
 4878 237a 0123     		movs	r3, #1
 4879 237c 00E0     		b	.L224
 4880              	.L223:
2021:build/openmote-cc2538_armgcc/openstack/02a-MAClow/IEEE802154E.c ****           packetfunctions_sameAddress(&ieee802514_header->src,&packetSent->l2_nextORpreviousHop);
 4881              		.loc 1 2021 0 discriminator 1
 4882 237e 0023     		movs	r3, #0
 4883              	.L224:
2018:build/openmote-cc2538_armgcc/openstack/02a-MAClow/IEEE802154E.c ****           ieee802514_header->frameType==IEEE154_TYPE_ACK                                           
 4884              		.loc 1 2018 0 is_stmt 1
 4885 2380 03F00103 		and	r3, r3, #1
 4886 2384 DBB2     		uxtb	r3, r3
2023:build/openmote-cc2538_armgcc/openstack/02a-MAClow/IEEE802154E.c **** }
 4887              		.loc 1 2023 0
 4888 2386 1846     		mov	r0, r3
 4889 2388 0C37     		adds	r7, r7, #12
 4890 238a BD46     		mov	sp, r7
 4891              		@ sp needed
 4892 238c 90BD     		pop	{r4, r7, pc}
 4893              		.cfi_endproc
 4894              	.LFE43:
 4896 238e 00BF     		.align	2
 4897              		.global	incrementAsnOffset
 4898              		.thumb
 4899              		.thumb_func
 4901              	incrementAsnOffset:
 4902              	.LFB44:
2024:build/openmote-cc2538_armgcc/openstack/02a-MAClow/IEEE802154E.c **** 
2025:build/openmote-cc2538_armgcc/openstack/02a-MAClow/IEEE802154E.c **** //======= ASN handling
2026:build/openmote-cc2538_armgcc/openstack/02a-MAClow/IEEE802154E.c **** 
2027:build/openmote-cc2538_armgcc/openstack/02a-MAClow/IEEE802154E.c **** port_INLINE void incrementAsnOffset() {
 4903              		.loc 1 2027 0
 4904              		.cfi_startproc
 4905              		@ args = 0, pretend = 0, frame = 8
 4906              		@ frame_needed = 1, uses_anonymous_args = 0
 4907 2390 80B5     		push	{r7, lr}
 4908              		.cfi_def_cfa_offset 8
 4909              		.cfi_offset 7, -8
 4910              		.cfi_offset 14, -4
 4911 2392 82B0     		sub	sp, sp, #8
 4912              		.cfi_def_cfa_offset 16
 4913 2394 00AF     		add	r7, sp, #0
 4914              		.cfi_def_cfa_register 7
2028:build/openmote-cc2538_armgcc/openstack/02a-MAClow/IEEE802154E.c ****    frameLength_t frameLength;
2029:build/openmote-cc2538_armgcc/openstack/02a-MAClow/IEEE802154E.c ****    
2030:build/openmote-cc2538_armgcc/openstack/02a-MAClow/IEEE802154E.c ****    // increment the asn
2031:build/openmote-cc2538_armgcc/openstack/02a-MAClow/IEEE802154E.c ****    ieee154e_vars.asn.bytes0and1++;
 4915              		.loc 1 2031 0
 4916 2396 40F20003 		movw	r3, #:lower16:ieee154e_vars
 4917 239a C0F20003 		movt	r3, #:upper16:ieee154e_vars
 4918 239e B3F80330 		ldrh	r3, [r3, #3]	@ unaligned
 4919 23a2 9BB2     		uxth	r3, r3
 4920 23a4 0133     		adds	r3, r3, #1
 4921 23a6 9AB2     		uxth	r2, r3
 4922 23a8 40F20003 		movw	r3, #:lower16:ieee154e_vars
 4923 23ac C0F20003 		movt	r3, #:upper16:ieee154e_vars
 4924 23b0 A3F80320 		strh	r2, [r3, #3]	@ unaligned
2032:build/openmote-cc2538_armgcc/openstack/02a-MAClow/IEEE802154E.c ****    if (ieee154e_vars.asn.bytes0and1==0) {
 4925              		.loc 1 2032 0
 4926 23b4 40F20003 		movw	r3, #:lower16:ieee154e_vars
 4927 23b8 C0F20003 		movt	r3, #:upper16:ieee154e_vars
 4928 23bc B3F80330 		ldrh	r3, [r3, #3]	@ unaligned
 4929 23c0 9BB2     		uxth	r3, r3
 4930 23c2 002B     		cmp	r3, #0
 4931 23c4 23D1     		bne	.L227
2033:build/openmote-cc2538_armgcc/openstack/02a-MAClow/IEEE802154E.c ****       ieee154e_vars.asn.bytes2and3++;
 4932              		.loc 1 2033 0
 4933 23c6 40F20003 		movw	r3, #:lower16:ieee154e_vars
 4934 23ca C0F20003 		movt	r3, #:upper16:ieee154e_vars
 4935 23ce B3F80130 		ldrh	r3, [r3, #1]	@ unaligned
 4936 23d2 9BB2     		uxth	r3, r3
 4937 23d4 0133     		adds	r3, r3, #1
 4938 23d6 9AB2     		uxth	r2, r3
 4939 23d8 40F20003 		movw	r3, #:lower16:ieee154e_vars
 4940 23dc C0F20003 		movt	r3, #:upper16:ieee154e_vars
 4941 23e0 A3F80120 		strh	r2, [r3, #1]	@ unaligned
2034:build/openmote-cc2538_armgcc/openstack/02a-MAClow/IEEE802154E.c ****       if (ieee154e_vars.asn.bytes2and3==0) {
 4942              		.loc 1 2034 0
 4943 23e4 40F20003 		movw	r3, #:lower16:ieee154e_vars
 4944 23e8 C0F20003 		movt	r3, #:upper16:ieee154e_vars
 4945 23ec B3F80130 		ldrh	r3, [r3, #1]	@ unaligned
 4946 23f0 9BB2     		uxth	r3, r3
 4947 23f2 002B     		cmp	r3, #0
 4948 23f4 0BD1     		bne	.L227
2035:build/openmote-cc2538_armgcc/openstack/02a-MAClow/IEEE802154E.c ****          ieee154e_vars.asn.byte4++;
 4949              		.loc 1 2035 0
 4950 23f6 40F20003 		movw	r3, #:lower16:ieee154e_vars
 4951 23fa C0F20003 		movt	r3, #:upper16:ieee154e_vars
 4952 23fe 1B78     		ldrb	r3, [r3]	@ zero_extendqisi2
 4953 2400 0133     		adds	r3, r3, #1
 4954 2402 DAB2     		uxtb	r2, r3
 4955 2404 40F20003 		movw	r3, #:lower16:ieee154e_vars
 4956 2408 C0F20003 		movt	r3, #:upper16:ieee154e_vars
 4957 240c 1A70     		strb	r2, [r3]
 4958              	.L227:
2036:build/openmote-cc2538_armgcc/openstack/02a-MAClow/IEEE802154E.c ****       }
2037:build/openmote-cc2538_armgcc/openstack/02a-MAClow/IEEE802154E.c ****    }
2038:build/openmote-cc2538_armgcc/openstack/02a-MAClow/IEEE802154E.c ****    
2039:build/openmote-cc2538_armgcc/openstack/02a-MAClow/IEEE802154E.c ****    // increment the offsets
2040:build/openmote-cc2538_armgcc/openstack/02a-MAClow/IEEE802154E.c ****    frameLength = schedule_getFrameLength();
 4959              		.loc 1 2040 0
 4960 240e FFF7FEFF 		bl	schedule_getFrameLength
 4961 2412 0346     		mov	r3, r0
 4962 2414 FB80     		strh	r3, [r7, #6]	@ movhi
2041:build/openmote-cc2538_armgcc/openstack/02a-MAClow/IEEE802154E.c ****    if (frameLength == 0) {
 4963              		.loc 1 2041 0
 4964 2416 FB88     		ldrh	r3, [r7, #6]
 4965 2418 002B     		cmp	r3, #0
 4966 241a 0CD1     		bne	.L228
2042:build/openmote-cc2538_armgcc/openstack/02a-MAClow/IEEE802154E.c ****       ieee154e_vars.slotOffset++;
 4967              		.loc 1 2042 0
 4968 241c 40F20003 		movw	r3, #:lower16:ieee154e_vars
 4969 2420 C0F20003 		movt	r3, #:upper16:ieee154e_vars
 4970 2424 DB88     		ldrh	r3, [r3, #6]
 4971 2426 0133     		adds	r3, r3, #1
 4972 2428 9AB2     		uxth	r2, r3
 4973 242a 40F20003 		movw	r3, #:lower16:ieee154e_vars
 4974 242e C0F20003 		movt	r3, #:upper16:ieee154e_vars
 4975 2432 DA80     		strh	r2, [r3, #6]	@ movhi
 4976 2434 11E0     		b	.L229
 4977              	.L228:
2043:build/openmote-cc2538_armgcc/openstack/02a-MAClow/IEEE802154E.c ****    } else {
2044:build/openmote-cc2538_armgcc/openstack/02a-MAClow/IEEE802154E.c ****       ieee154e_vars.slotOffset  = (ieee154e_vars.slotOffset+1)%frameLength;
 4978              		.loc 1 2044 0
 4979 2436 40F20003 		movw	r3, #:lower16:ieee154e_vars
 4980 243a C0F20003 		movt	r3, #:upper16:ieee154e_vars
 4981 243e DB88     		ldrh	r3, [r3, #6]
 4982 2440 0133     		adds	r3, r3, #1
 4983 2442 FA88     		ldrh	r2, [r7, #6]
 4984 2444 93FBF2F1 		sdiv	r1, r3, r2
 4985 2448 02FB01F2 		mul	r2, r2, r1
 4986 244c 9B1A     		subs	r3, r3, r2
 4987 244e 9AB2     		uxth	r2, r3
 4988 2450 40F20003 		movw	r3, #:lower16:ieee154e_vars
 4989 2454 C0F20003 		movt	r3, #:upper16:ieee154e_vars
 4990 2458 DA80     		strh	r2, [r3, #6]	@ movhi
 4991              	.L229:
2045:build/openmote-cc2538_armgcc/openstack/02a-MAClow/IEEE802154E.c ****    }
2046:build/openmote-cc2538_armgcc/openstack/02a-MAClow/IEEE802154E.c ****    ieee154e_vars.asnOffset   = (ieee154e_vars.asnOffset+1)%16;
 4992              		.loc 1 2046 0
 4993 245a 40F20003 		movw	r3, #:lower16:ieee154e_vars
 4994 245e C0F20003 		movt	r3, #:upper16:ieee154e_vars
 4995 2462 93F84531 		ldrb	r3, [r3, #325]	@ zero_extendqisi2
 4996 2466 5A1C     		adds	r2, r3, #1
 4997 2468 D317     		asrs	r3, r2, #31
 4998 246a 1B0F     		lsrs	r3, r3, #28
 4999 246c 1A44     		add	r2, r2, r3
 5000 246e 02F00F02 		and	r2, r2, #15
 5001 2472 D31A     		subs	r3, r2, r3
 5002 2474 DAB2     		uxtb	r2, r3
 5003 2476 40F20003 		movw	r3, #:lower16:ieee154e_vars
 5004 247a C0F20003 		movt	r3, #:upper16:ieee154e_vars
 5005 247e 83F84521 		strb	r2, [r3, #325]
2047:build/openmote-cc2538_armgcc/openstack/02a-MAClow/IEEE802154E.c **** }
 5006              		.loc 1 2047 0
 5007 2482 0837     		adds	r7, r7, #8
 5008 2484 BD46     		mov	sp, r7
 5009              		@ sp needed
 5010 2486 80BD     		pop	{r7, pc}
 5011              		.cfi_endproc
 5012              	.LFE44:
 5014              		.align	2
 5015              		.global	ieee154e_resetAsn
 5016              		.thumb
 5017              		.thumb_func
 5019              	ieee154e_resetAsn:
 5020              	.LFB45:
2048:build/openmote-cc2538_armgcc/openstack/02a-MAClow/IEEE802154E.c **** 
2049:build/openmote-cc2538_armgcc/openstack/02a-MAClow/IEEE802154E.c **** port_INLINE void ieee154e_resetAsn(){
 5021              		.loc 1 2049 0
 5022              		.cfi_startproc
 5023              		@ args = 0, pretend = 0, frame = 0
 5024              		@ frame_needed = 1, uses_anonymous_args = 0
 5025              		@ link register save eliminated.
 5026 2488 80B4     		push	{r7}
 5027              		.cfi_def_cfa_offset 4
 5028              		.cfi_offset 7, -4
 5029 248a 00AF     		add	r7, sp, #0
 5030              		.cfi_def_cfa_register 7
2050:build/openmote-cc2538_armgcc/openstack/02a-MAClow/IEEE802154E.c ****     // reset slotoffset
2051:build/openmote-cc2538_armgcc/openstack/02a-MAClow/IEEE802154E.c ****     ieee154e_vars.slotOffset     = 0;
 5031              		.loc 1 2051 0
 5032 248c 40F20003 		movw	r3, #:lower16:ieee154e_vars
 5033 2490 C0F20003 		movt	r3, #:upper16:ieee154e_vars
 5034 2494 0022     		movs	r2, #0
 5035 2496 DA80     		strh	r2, [r3, #6]	@ movhi
2052:build/openmote-cc2538_armgcc/openstack/02a-MAClow/IEEE802154E.c ****     ieee154e_vars.asnOffset      = 0;
 5036              		.loc 1 2052 0
 5037 2498 40F20003 		movw	r3, #:lower16:ieee154e_vars
 5038 249c C0F20003 		movt	r3, #:upper16:ieee154e_vars
 5039 24a0 0022     		movs	r2, #0
 5040 24a2 83F84521 		strb	r2, [r3, #325]
2053:build/openmote-cc2538_armgcc/openstack/02a-MAClow/IEEE802154E.c ****     // reset asn
2054:build/openmote-cc2538_armgcc/openstack/02a-MAClow/IEEE802154E.c ****     ieee154e_vars.asn.byte4      = 0;
 5041              		.loc 1 2054 0
 5042 24a6 40F20003 		movw	r3, #:lower16:ieee154e_vars
 5043 24aa C0F20003 		movt	r3, #:upper16:ieee154e_vars
 5044 24ae 0022     		movs	r2, #0
 5045 24b0 1A70     		strb	r2, [r3]
2055:build/openmote-cc2538_armgcc/openstack/02a-MAClow/IEEE802154E.c ****     ieee154e_vars.asn.bytes2and3 = 0;
 5046              		.loc 1 2055 0
 5047 24b2 40F20003 		movw	r3, #:lower16:ieee154e_vars
 5048 24b6 C0F20003 		movt	r3, #:upper16:ieee154e_vars
 5049 24ba 1A68     		ldr	r2, [r3]
 5050 24bc 6FF31722 		bfc	r2, #8, #16
 5051 24c0 1A60     		str	r2, [r3]
2056:build/openmote-cc2538_armgcc/openstack/02a-MAClow/IEEE802154E.c ****     ieee154e_vars.asn.bytes0and1 = 0;
 5052              		.loc 1 2056 0
 5053 24c2 40F20003 		movw	r3, #:lower16:ieee154e_vars
 5054 24c6 C0F20003 		movt	r3, #:upper16:ieee154e_vars
 5055 24ca 0022     		movs	r2, #0
 5056 24cc DA70     		strb	r2, [r3, #3]
 5057 24ce 0022     		movs	r2, #0
 5058 24d0 1A71     		strb	r2, [r3, #4]
2057:build/openmote-cc2538_armgcc/openstack/02a-MAClow/IEEE802154E.c **** }
 5059              		.loc 1 2057 0
 5060 24d2 BD46     		mov	sp, r7
 5061              		@ sp needed
 5062 24d4 5DF8047B 		ldr	r7, [sp], #4
 5063 24d8 7047     		bx	lr
 5064              		.cfi_endproc
 5065              	.LFE45:
 5067 24da 00BF     		.align	2
 5068              		.global	ieee154e_getAsn
 5069              		.thumb
 5070              		.thumb_func
 5072              	ieee154e_getAsn:
 5073              	.LFB46:
2058:build/openmote-cc2538_armgcc/openstack/02a-MAClow/IEEE802154E.c **** 
2059:build/openmote-cc2538_armgcc/openstack/02a-MAClow/IEEE802154E.c **** //from upper layer that want to send the ASN to compute timing or latency
2060:build/openmote-cc2538_armgcc/openstack/02a-MAClow/IEEE802154E.c **** port_INLINE void ieee154e_getAsn(uint8_t* array) {
 5074              		.loc 1 2060 0
 5075              		.cfi_startproc
 5076              		@ args = 0, pretend = 0, frame = 8
 5077              		@ frame_needed = 1, uses_anonymous_args = 0
 5078              		@ link register save eliminated.
 5079 24dc 80B4     		push	{r7}
 5080              		.cfi_def_cfa_offset 4
 5081              		.cfi_offset 7, -4
 5082 24de 83B0     		sub	sp, sp, #12
 5083              		.cfi_def_cfa_offset 16
 5084 24e0 00AF     		add	r7, sp, #0
 5085              		.cfi_def_cfa_register 7
 5086 24e2 7860     		str	r0, [r7, #4]
2061:build/openmote-cc2538_armgcc/openstack/02a-MAClow/IEEE802154E.c ****    array[0]         = (ieee154e_vars.asn.bytes0and1     & 0xff);
 5087              		.loc 1 2061 0
 5088 24e4 40F20003 		movw	r3, #:lower16:ieee154e_vars
 5089 24e8 C0F20003 		movt	r3, #:upper16:ieee154e_vars
 5090 24ec B3F80330 		ldrh	r3, [r3, #3]	@ unaligned
 5091 24f0 9BB2     		uxth	r3, r3
 5092 24f2 DAB2     		uxtb	r2, r3
 5093 24f4 7B68     		ldr	r3, [r7, #4]
 5094 24f6 1A70     		strb	r2, [r3]
2062:build/openmote-cc2538_armgcc/openstack/02a-MAClow/IEEE802154E.c ****    array[1]         = (ieee154e_vars.asn.bytes0and1/256 & 0xff);
 5095              		.loc 1 2062 0
 5096 24f8 7B68     		ldr	r3, [r7, #4]
 5097 24fa 5A1C     		adds	r2, r3, #1
 5098 24fc 40F20003 		movw	r3, #:lower16:ieee154e_vars
 5099 2500 C0F20003 		movt	r3, #:upper16:ieee154e_vars
 5100 2504 B3F80330 		ldrh	r3, [r3, #3]	@ unaligned
 5101 2508 9BB2     		uxth	r3, r3
 5102 250a 1B0A     		lsrs	r3, r3, #8
 5103 250c 9BB2     		uxth	r3, r3
 5104 250e DBB2     		uxtb	r3, r3
 5105 2510 1370     		strb	r3, [r2]
2063:build/openmote-cc2538_armgcc/openstack/02a-MAClow/IEEE802154E.c ****    array[2]         = (ieee154e_vars.asn.bytes2and3     & 0xff);
 5106              		.loc 1 2063 0
 5107 2512 7B68     		ldr	r3, [r7, #4]
 5108 2514 9A1C     		adds	r2, r3, #2
 5109 2516 40F20003 		movw	r3, #:lower16:ieee154e_vars
 5110 251a C0F20003 		movt	r3, #:upper16:ieee154e_vars
 5111 251e B3F80130 		ldrh	r3, [r3, #1]	@ unaligned
 5112 2522 9BB2     		uxth	r3, r3
 5113 2524 DBB2     		uxtb	r3, r3
 5114 2526 1370     		strb	r3, [r2]
2064:build/openmote-cc2538_armgcc/openstack/02a-MAClow/IEEE802154E.c ****    array[3]         = (ieee154e_vars.asn.bytes2and3/256 & 0xff);
 5115              		.loc 1 2064 0
 5116 2528 7B68     		ldr	r3, [r7, #4]
 5117 252a DA1C     		adds	r2, r3, #3
 5118 252c 40F20003 		movw	r3, #:lower16:ieee154e_vars
 5119 2530 C0F20003 		movt	r3, #:upper16:ieee154e_vars
 5120 2534 B3F80130 		ldrh	r3, [r3, #1]	@ unaligned
 5121 2538 9BB2     		uxth	r3, r3
 5122 253a 1B0A     		lsrs	r3, r3, #8
 5123 253c 9BB2     		uxth	r3, r3
 5124 253e DBB2     		uxtb	r3, r3
 5125 2540 1370     		strb	r3, [r2]
2065:build/openmote-cc2538_armgcc/openstack/02a-MAClow/IEEE802154E.c ****    array[4]         =  ieee154e_vars.asn.byte4;
 5126              		.loc 1 2065 0
 5127 2542 7B68     		ldr	r3, [r7, #4]
 5128 2544 1A1D     		adds	r2, r3, #4
 5129 2546 40F20003 		movw	r3, #:lower16:ieee154e_vars
 5130 254a C0F20003 		movt	r3, #:upper16:ieee154e_vars
 5131 254e 1B78     		ldrb	r3, [r3]	@ zero_extendqisi2
 5132 2550 1370     		strb	r3, [r2]
2066:build/openmote-cc2538_armgcc/openstack/02a-MAClow/IEEE802154E.c **** }
 5133              		.loc 1 2066 0
 5134 2552 0C37     		adds	r7, r7, #12
 5135 2554 BD46     		mov	sp, r7
 5136              		@ sp needed
 5137 2556 5DF8047B 		ldr	r7, [sp], #4
 5138 255a 7047     		bx	lr
 5139              		.cfi_endproc
 5140              	.LFE46:
 5142              		.align	2
 5143              		.global	ieee154e_getTimeCorrection
 5144              		.thumb
 5145              		.thumb_func
 5147              	ieee154e_getTimeCorrection:
 5148              	.LFB47:
2067:build/openmote-cc2538_armgcc/openstack/02a-MAClow/IEEE802154E.c **** 
2068:build/openmote-cc2538_armgcc/openstack/02a-MAClow/IEEE802154E.c **** port_INLINE uint16_t ieee154e_getTimeCorrection() {
 5149              		.loc 1 2068 0
 5150              		.cfi_startproc
 5151              		@ args = 0, pretend = 0, frame = 8
 5152              		@ frame_needed = 1, uses_anonymous_args = 0
 5153              		@ link register save eliminated.
 5154 255c 80B4     		push	{r7}
 5155              		.cfi_def_cfa_offset 4
 5156              		.cfi_offset 7, -4
 5157 255e 83B0     		sub	sp, sp, #12
 5158              		.cfi_def_cfa_offset 16
 5159 2560 00AF     		add	r7, sp, #0
 5160              		.cfi_def_cfa_register 7
2069:build/openmote-cc2538_armgcc/openstack/02a-MAClow/IEEE802154E.c ****     int16_t returnVal;
2070:build/openmote-cc2538_armgcc/openstack/02a-MAClow/IEEE802154E.c ****     
2071:build/openmote-cc2538_armgcc/openstack/02a-MAClow/IEEE802154E.c ****     returnVal = (uint16_t)(ieee154e_vars.timeCorrection);
 5161              		.loc 1 2071 0
 5162 2562 40F20003 		movw	r3, #:lower16:ieee154e_vars
 5163 2566 C0F20003 		movt	r3, #:upper16:ieee154e_vars
 5164 256a B3F86831 		ldrh	r3, [r3, #360]	@ movhi
 5165 256e FB80     		strh	r3, [r7, #6]	@ movhi
2072:build/openmote-cc2538_armgcc/openstack/02a-MAClow/IEEE802154E.c ****     
2073:build/openmote-cc2538_armgcc/openstack/02a-MAClow/IEEE802154E.c ****     return returnVal;
 5166              		.loc 1 2073 0
 5167 2570 FB88     		ldrh	r3, [r7, #6]
2074:build/openmote-cc2538_armgcc/openstack/02a-MAClow/IEEE802154E.c **** }
 5168              		.loc 1 2074 0
 5169 2572 1846     		mov	r0, r3
 5170 2574 0C37     		adds	r7, r7, #12
 5171 2576 BD46     		mov	sp, r7
 5172              		@ sp needed
 5173 2578 5DF8047B 		ldr	r7, [sp], #4
 5174 257c 7047     		bx	lr
 5175              		.cfi_endproc
 5176              	.LFE47:
 5178 257e 00BF     		.align	2
 5179              		.global	joinPriorityStoreFromEB
 5180              		.thumb
 5181              		.thumb_func
 5183              	joinPriorityStoreFromEB:
 5184              	.LFB48:
2075:build/openmote-cc2538_armgcc/openstack/02a-MAClow/IEEE802154E.c **** 
2076:build/openmote-cc2538_armgcc/openstack/02a-MAClow/IEEE802154E.c **** port_INLINE void joinPriorityStoreFromEB(uint8_t jp){
 5185              		.loc 1 2076 0
 5186              		.cfi_startproc
 5187              		@ args = 0, pretend = 0, frame = 8
 5188              		@ frame_needed = 1, uses_anonymous_args = 0
 5189              		@ link register save eliminated.
 5190 2580 80B4     		push	{r7}
 5191              		.cfi_def_cfa_offset 4
 5192              		.cfi_offset 7, -4
 5193 2582 83B0     		sub	sp, sp, #12
 5194              		.cfi_def_cfa_offset 16
 5195 2584 00AF     		add	r7, sp, #0
 5196              		.cfi_def_cfa_register 7
 5197 2586 0346     		mov	r3, r0
 5198 2588 FB71     		strb	r3, [r7, #7]
2077:build/openmote-cc2538_armgcc/openstack/02a-MAClow/IEEE802154E.c ****   ieee154e_vars.dataReceived->l2_joinPriority = jp;
 5199              		.loc 1 2077 0
 5200 258a 40F20003 		movw	r3, #:lower16:ieee154e_vars
 5201 258e C0F20003 		movt	r3, #:upper16:ieee154e_vars
 5202 2592 D3F83031 		ldr	r3, [r3, #304]
 5203 2596 FA79     		ldrb	r2, [r7, #7]
 5204 2598 83F86420 		strb	r2, [r3, #100]
2078:build/openmote-cc2538_armgcc/openstack/02a-MAClow/IEEE802154E.c ****   ieee154e_vars.dataReceived->l2_joinPriorityPresent = TRUE;     
 5205              		.loc 1 2078 0
 5206 259c 40F20003 		movw	r3, #:lower16:ieee154e_vars
 5207 25a0 C0F20003 		movt	r3, #:upper16:ieee154e_vars
 5208 25a4 D3F83031 		ldr	r3, [r3, #304]
 5209 25a8 0122     		movs	r2, #1
 5210 25aa 83F86720 		strb	r2, [r3, #103]
2079:build/openmote-cc2538_armgcc/openstack/02a-MAClow/IEEE802154E.c **** }
 5211              		.loc 1 2079 0
 5212 25ae 0C37     		adds	r7, r7, #12
 5213 25b0 BD46     		mov	sp, r7
 5214              		@ sp needed
 5215 25b2 5DF8047B 		ldr	r7, [sp], #4
 5216 25b6 7047     		bx	lr
 5217              		.cfi_endproc
 5218              	.LFE48:
 5220              		.align	2
 5221              		.global	isValidJoin
 5222              		.thumb
 5223              		.thumb_func
 5225              	isValidJoin:
 5226              	.LFB49:
2080:build/openmote-cc2538_armgcc/openstack/02a-MAClow/IEEE802154E.c **** 
2081:build/openmote-cc2538_armgcc/openstack/02a-MAClow/IEEE802154E.c **** // This function parses IEs from an EB to get to the ASN before security
2082:build/openmote-cc2538_armgcc/openstack/02a-MAClow/IEEE802154E.c **** // processing is invoked. It should be called *only* when a node has no/lost sync.
2083:build/openmote-cc2538_armgcc/openstack/02a-MAClow/IEEE802154E.c **** // This way, we can authenticate EBs and reject unwanted ones.
2084:build/openmote-cc2538_armgcc/openstack/02a-MAClow/IEEE802154E.c **** bool isValidJoin(OpenQueueEntry_t* eb, ieee802154_header_iht *parsedHeader) {
 5227              		.loc 1 2084 0
 5228              		.cfi_startproc
 5229              		@ args = 0, pretend = 0, frame = 16
 5230              		@ frame_needed = 1, uses_anonymous_args = 0
 5231 25b8 90B5     		push	{r4, r7, lr}
 5232              		.cfi_def_cfa_offset 12
 5233              		.cfi_offset 4, -12
 5234              		.cfi_offset 7, -8
 5235              		.cfi_offset 14, -4
 5236 25ba 85B0     		sub	sp, sp, #20
 5237              		.cfi_def_cfa_offset 32
 5238 25bc 00AF     		add	r7, sp, #0
 5239              		.cfi_def_cfa_register 7
 5240 25be 7860     		str	r0, [r7, #4]
 5241 25c0 3960     		str	r1, [r7]
2085:build/openmote-cc2538_armgcc/openstack/02a-MAClow/IEEE802154E.c ****    uint16_t              lenIE;
2086:build/openmote-cc2538_armgcc/openstack/02a-MAClow/IEEE802154E.c **** 
2087:build/openmote-cc2538_armgcc/openstack/02a-MAClow/IEEE802154E.c ****    // toss the header in order to get to IEs
2088:build/openmote-cc2538_armgcc/openstack/02a-MAClow/IEEE802154E.c ****    packetfunctions_tossHeader(eb, parsedHeader->headerLength);
 5242              		.loc 1 2088 0
 5243 25c2 3B68     		ldr	r3, [r7]
 5244 25c4 5B78     		ldrb	r3, [r3, #1]	@ zero_extendqisi2
 5245 25c6 7868     		ldr	r0, [r7, #4]
 5246 25c8 1946     		mov	r1, r3
 5247 25ca FFF7FEFF 		bl	packetfunctions_tossHeader
2089:build/openmote-cc2538_armgcc/openstack/02a-MAClow/IEEE802154E.c ****      
2090:build/openmote-cc2538_armgcc/openstack/02a-MAClow/IEEE802154E.c ****    // process IEs
2091:build/openmote-cc2538_armgcc/openstack/02a-MAClow/IEEE802154E.c ****    // at this stage, this can work only if EB is authenticated but not encrypted
2092:build/openmote-cc2538_armgcc/openstack/02a-MAClow/IEEE802154E.c ****    lenIE = 0;
 5248              		.loc 1 2092 0
 5249 25ce 0023     		movs	r3, #0
 5250 25d0 FB81     		strh	r3, [r7, #14]	@ movhi
2093:build/openmote-cc2538_armgcc/openstack/02a-MAClow/IEEE802154E.c ****    if (
2094:build/openmote-cc2538_armgcc/openstack/02a-MAClow/IEEE802154E.c ****          (
2095:build/openmote-cc2538_armgcc/openstack/02a-MAClow/IEEE802154E.c ****             parsedHeader->valid==TRUE                                                       &&
 5251              		.loc 1 2095 0
 5252 25d2 3B68     		ldr	r3, [r7]
 5253 25d4 1B78     		ldrb	r3, [r3]	@ zero_extendqisi2
2096:build/openmote-cc2538_armgcc/openstack/02a-MAClow/IEEE802154E.c ****             parsedHeader->ieListPresent==TRUE                                               &&
2097:build/openmote-cc2538_armgcc/openstack/02a-MAClow/IEEE802154E.c ****             parsedHeader->frameType==IEEE154_TYPE_BEACON                                    &&
2098:build/openmote-cc2538_armgcc/openstack/02a-MAClow/IEEE802154E.c ****             packetfunctions_sameAddress(&parsedHeader->panid,idmanager_getMyID(ADDR_PANID)) &&
 5254              		.loc 1 2098 0
 5255 25d6 002B     		cmp	r3, #0
 5256 25d8 20D0     		beq	.L236
2096:build/openmote-cc2538_armgcc/openstack/02a-MAClow/IEEE802154E.c ****             parsedHeader->ieListPresent==TRUE                                               &&
 5257              		.loc 1 2096 0
 5258 25da 3B68     		ldr	r3, [r7]
 5259 25dc DB79     		ldrb	r3, [r3, #7]	@ zero_extendqisi2
2095:build/openmote-cc2538_armgcc/openstack/02a-MAClow/IEEE802154E.c ****             parsedHeader->ieListPresent==TRUE                                               &&
 5260              		.loc 1 2095 0
 5261 25de 002B     		cmp	r3, #0
 5262 25e0 1CD0     		beq	.L236
2097:build/openmote-cc2538_armgcc/openstack/02a-MAClow/IEEE802154E.c ****             packetfunctions_sameAddress(&parsedHeader->panid,idmanager_getMyID(ADDR_PANID)) &&
 5263              		.loc 1 2097 0
 5264 25e2 3B68     		ldr	r3, [r7]
 5265 25e4 9B78     		ldrb	r3, [r3, #2]	@ zero_extendqisi2
2096:build/openmote-cc2538_armgcc/openstack/02a-MAClow/IEEE802154E.c ****             parsedHeader->ieListPresent==TRUE                                               &&
 5266              		.loc 1 2096 0
 5267 25e6 002B     		cmp	r3, #0
 5268 25e8 18D1     		bne	.L236
 5269              		.loc 1 2098 0
 5270 25ea 3B68     		ldr	r3, [r7]
 5271 25ec 03F10B04 		add	r4, r3, #11
 5272 25f0 0420     		movs	r0, #4
 5273 25f2 FFF7FEFF 		bl	idmanager_getMyID
 5274 25f6 0346     		mov	r3, r0
 5275 25f8 2046     		mov	r0, r4
 5276 25fa 1946     		mov	r1, r3
 5277 25fc FFF7FEFF 		bl	packetfunctions_sameAddress
 5278 2600 0346     		mov	r3, r0
2097:build/openmote-cc2538_armgcc/openstack/02a-MAClow/IEEE802154E.c ****             packetfunctions_sameAddress(&parsedHeader->panid,idmanager_getMyID(ADDR_PANID)) &&
 5279              		.loc 1 2097 0
 5280 2602 002B     		cmp	r3, #0
 5281 2604 0AD0     		beq	.L236
2099:build/openmote-cc2538_armgcc/openstack/02a-MAClow/IEEE802154E.c ****             ieee154e_processIEs(eb,&lenIE)
 5282              		.loc 1 2099 0
 5283 2606 07F10E03 		add	r3, r7, #14
 5284 260a 7868     		ldr	r0, [r7, #4]
 5285 260c 1946     		mov	r1, r3
 5286 260e FFF7FEFF 		bl	ieee154e_processIEs
 5287 2612 0346     		mov	r3, r0
2098:build/openmote-cc2538_armgcc/openstack/02a-MAClow/IEEE802154E.c ****             ieee154e_processIEs(eb,&lenIE)
 5288              		.loc 1 2098 0
 5289 2614 002B     		cmp	r3, #0
 5290 2616 01D0     		beq	.L236
2098:build/openmote-cc2538_armgcc/openstack/02a-MAClow/IEEE802154E.c ****             ieee154e_processIEs(eb,&lenIE)
 5291              		.loc 1 2098 0 is_stmt 0 discriminator 2
 5292 2618 0123     		movs	r3, #1
 5293 261a 00E0     		b	.L237
 5294              	.L236:
2098:build/openmote-cc2538_armgcc/openstack/02a-MAClow/IEEE802154E.c ****             ieee154e_processIEs(eb,&lenIE)
 5295              		.loc 1 2098 0 discriminator 1
 5296 261c 0023     		movs	r3, #0
 5297              	.L237:
2093:build/openmote-cc2538_armgcc/openstack/02a-MAClow/IEEE802154E.c ****          (
 5298              		.loc 1 2093 0 is_stmt 1
 5299 261e 002B     		cmp	r3, #0
 5300 2620 01D1     		bne	.L238
2100:build/openmote-cc2538_armgcc/openstack/02a-MAClow/IEEE802154E.c ****          )==FALSE) {
2101:build/openmote-cc2538_armgcc/openstack/02a-MAClow/IEEE802154E.c ****       return FALSE;
 5301              		.loc 1 2101 0
 5302 2622 0023     		movs	r3, #0
 5303 2624 12E0     		b	.L241
 5304              	.L238:
2102:build/openmote-cc2538_armgcc/openstack/02a-MAClow/IEEE802154E.c ****    }
2103:build/openmote-cc2538_armgcc/openstack/02a-MAClow/IEEE802154E.c ****    
2104:build/openmote-cc2538_armgcc/openstack/02a-MAClow/IEEE802154E.c ****    // put everything back in place in order to invoke security-incoming on the
2105:build/openmote-cc2538_armgcc/openstack/02a-MAClow/IEEE802154E.c ****    // correct frame length and correct pointers (first byte of the frame)
2106:build/openmote-cc2538_armgcc/openstack/02a-MAClow/IEEE802154E.c ****    packetfunctions_reserveHeaderSize(eb, parsedHeader->headerLength);
 5305              		.loc 1 2106 0
 5306 2626 3B68     		ldr	r3, [r7]
 5307 2628 5B78     		ldrb	r3, [r3, #1]	@ zero_extendqisi2
 5308 262a 7868     		ldr	r0, [r7, #4]
 5309 262c 1946     		mov	r1, r3
 5310 262e FFF7FEFF 		bl	packetfunctions_reserveHeaderSize
2107:build/openmote-cc2538_armgcc/openstack/02a-MAClow/IEEE802154E.c **** 
2108:build/openmote-cc2538_armgcc/openstack/02a-MAClow/IEEE802154E.c ****    // verify EB's authentication tag
2109:build/openmote-cc2538_armgcc/openstack/02a-MAClow/IEEE802154E.c ****    if (IEEE802154_SECURITY.incomingFrame(eb) == E_SUCCESS) {
 5311              		.loc 1 2109 0
 5312 2632 40F20003 		movw	r3, #:lower16:IEEE802154_dummy_security
 5313 2636 C0F20003 		movt	r3, #:upper16:IEEE802154_dummy_security
 5314 263a 1B69     		ldr	r3, [r3, #16]
 5315 263c 7868     		ldr	r0, [r7, #4]
 5316 263e 9847     		blx	r3
 5317 2640 0346     		mov	r3, r0
 5318 2642 002B     		cmp	r3, #0
 5319 2644 01D1     		bne	.L240
2110:build/openmote-cc2538_armgcc/openstack/02a-MAClow/IEEE802154E.c ****       return TRUE;
 5320              		.loc 1 2110 0
 5321 2646 0123     		movs	r3, #1
 5322 2648 00E0     		b	.L241
 5323              	.L240:
2111:build/openmote-cc2538_armgcc/openstack/02a-MAClow/IEEE802154E.c ****    }
2112:build/openmote-cc2538_armgcc/openstack/02a-MAClow/IEEE802154E.c **** 
2113:build/openmote-cc2538_armgcc/openstack/02a-MAClow/IEEE802154E.c ****    return FALSE;
 5324              		.loc 1 2113 0
 5325 264a 0023     		movs	r3, #0
 5326              	.L241:
2114:build/openmote-cc2538_armgcc/openstack/02a-MAClow/IEEE802154E.c **** }
 5327              		.loc 1 2114 0
 5328 264c 1846     		mov	r0, r3
 5329 264e 1437     		adds	r7, r7, #20
 5330 2650 BD46     		mov	sp, r7
 5331              		@ sp needed
 5332 2652 90BD     		pop	{r4, r7, pc}
 5333              		.cfi_endproc
 5334              	.LFE49:
 5336              		.align	2
 5337              		.global	asnStoreFromEB
 5338              		.thumb
 5339              		.thumb_func
 5341              	asnStoreFromEB:
 5342              	.LFB50:
2115:build/openmote-cc2538_armgcc/openstack/02a-MAClow/IEEE802154E.c **** 
2116:build/openmote-cc2538_armgcc/openstack/02a-MAClow/IEEE802154E.c **** port_INLINE void asnStoreFromEB(uint8_t* asn) {
 5343              		.loc 1 2116 0
 5344              		.cfi_startproc
 5345              		@ args = 0, pretend = 0, frame = 8
 5346              		@ frame_needed = 1, uses_anonymous_args = 0
 5347              		@ link register save eliminated.
 5348 2654 80B4     		push	{r7}
 5349              		.cfi_def_cfa_offset 4
 5350              		.cfi_offset 7, -4
 5351 2656 83B0     		sub	sp, sp, #12
 5352              		.cfi_def_cfa_offset 16
 5353 2658 00AF     		add	r7, sp, #0
 5354              		.cfi_def_cfa_register 7
 5355 265a 7860     		str	r0, [r7, #4]
2117:build/openmote-cc2538_armgcc/openstack/02a-MAClow/IEEE802154E.c ****    
2118:build/openmote-cc2538_armgcc/openstack/02a-MAClow/IEEE802154E.c ****    // store the ASN
2119:build/openmote-cc2538_armgcc/openstack/02a-MAClow/IEEE802154E.c ****    ieee154e_vars.asn.bytes0and1   =     asn[0]+
 5356              		.loc 1 2119 0
 5357 265c 7B68     		ldr	r3, [r7, #4]
 5358 265e 1B78     		ldrb	r3, [r3]	@ zero_extendqisi2
 5359 2660 1A46     		mov	r2, r3
2120:build/openmote-cc2538_armgcc/openstack/02a-MAClow/IEEE802154E.c ****                                     256*asn[1];
 5360              		.loc 1 2120 0
 5361 2662 7B68     		ldr	r3, [r7, #4]
 5362 2664 0133     		adds	r3, r3, #1
 5363 2666 1B78     		ldrb	r3, [r3]	@ zero_extendqisi2
2119:build/openmote-cc2538_armgcc/openstack/02a-MAClow/IEEE802154E.c ****                                     256*asn[1];
 5364              		.loc 1 2119 0
 5365 2668 1B02     		lsls	r3, r3, #8
 5366 266a 9BB2     		uxth	r3, r3
 5367 266c 1344     		add	r3, r3, r2
 5368 266e 9AB2     		uxth	r2, r3
 5369 2670 40F20003 		movw	r3, #:lower16:ieee154e_vars
 5370 2674 C0F20003 		movt	r3, #:upper16:ieee154e_vars
 5371 2678 A3F80320 		strh	r2, [r3, #3]	@ unaligned
2121:build/openmote-cc2538_armgcc/openstack/02a-MAClow/IEEE802154E.c ****    ieee154e_vars.asn.bytes2and3   =     asn[2]+
 5372              		.loc 1 2121 0
 5373 267c 7B68     		ldr	r3, [r7, #4]
 5374 267e 0233     		adds	r3, r3, #2
 5375 2680 1B78     		ldrb	r3, [r3]	@ zero_extendqisi2
 5376 2682 1A46     		mov	r2, r3
2122:build/openmote-cc2538_armgcc/openstack/02a-MAClow/IEEE802154E.c ****                                     256*asn[3];
 5377              		.loc 1 2122 0
 5378 2684 7B68     		ldr	r3, [r7, #4]
 5379 2686 0333     		adds	r3, r3, #3
 5380 2688 1B78     		ldrb	r3, [r3]	@ zero_extendqisi2
2121:build/openmote-cc2538_armgcc/openstack/02a-MAClow/IEEE802154E.c ****    ieee154e_vars.asn.bytes2and3   =     asn[2]+
 5381              		.loc 1 2121 0
 5382 268a 1B02     		lsls	r3, r3, #8
 5383 268c 9BB2     		uxth	r3, r3
 5384 268e 1344     		add	r3, r3, r2
 5385 2690 9AB2     		uxth	r2, r3
 5386 2692 40F20003 		movw	r3, #:lower16:ieee154e_vars
 5387 2696 C0F20003 		movt	r3, #:upper16:ieee154e_vars
 5388 269a A3F80120 		strh	r2, [r3, #1]	@ unaligned
2123:build/openmote-cc2538_armgcc/openstack/02a-MAClow/IEEE802154E.c ****    ieee154e_vars.asn.byte4        =     asn[4];
 5389              		.loc 1 2123 0
 5390 269e 7B68     		ldr	r3, [r7, #4]
 5391 26a0 1A79     		ldrb	r2, [r3, #4]	@ zero_extendqisi2
 5392 26a2 40F20003 		movw	r3, #:lower16:ieee154e_vars
 5393 26a6 C0F20003 		movt	r3, #:upper16:ieee154e_vars
 5394 26aa 1A70     		strb	r2, [r3]
2124:build/openmote-cc2538_armgcc/openstack/02a-MAClow/IEEE802154E.c **** }
 5395              		.loc 1 2124 0
 5396 26ac 0C37     		adds	r7, r7, #12
 5397 26ae BD46     		mov	sp, r7
 5398              		@ sp needed
 5399 26b0 5DF8047B 		ldr	r7, [sp], #4
 5400 26b4 7047     		bx	lr
 5401              		.cfi_endproc
 5402              	.LFE50:
 5404 26b6 00BF     		.align	2
 5405              		.global	ieee154e_syncSlotOffset
 5406              		.thumb
 5407              		.thumb_func
 5409              	ieee154e_syncSlotOffset:
 5410              	.LFB51:
2125:build/openmote-cc2538_armgcc/openstack/02a-MAClow/IEEE802154E.c **** 
2126:build/openmote-cc2538_armgcc/openstack/02a-MAClow/IEEE802154E.c **** port_INLINE void ieee154e_syncSlotOffset() {
 5411              		.loc 1 2126 0
 5412              		.cfi_startproc
 5413              		@ args = 0, pretend = 0, frame = 8
 5414              		@ frame_needed = 1, uses_anonymous_args = 0
 5415 26b8 80B5     		push	{r7, lr}
 5416              		.cfi_def_cfa_offset 8
 5417              		.cfi_offset 7, -8
 5418              		.cfi_offset 14, -4
 5419 26ba 82B0     		sub	sp, sp, #8
 5420              		.cfi_def_cfa_offset 16
 5421 26bc 00AF     		add	r7, sp, #0
 5422              		.cfi_def_cfa_register 7
2127:build/openmote-cc2538_armgcc/openstack/02a-MAClow/IEEE802154E.c ****    frameLength_t frameLength;
2128:build/openmote-cc2538_armgcc/openstack/02a-MAClow/IEEE802154E.c ****    uint32_t slotOffset;
2129:build/openmote-cc2538_armgcc/openstack/02a-MAClow/IEEE802154E.c ****    
2130:build/openmote-cc2538_armgcc/openstack/02a-MAClow/IEEE802154E.c ****    frameLength = schedule_getFrameLength();
 5423              		.loc 1 2130 0
 5424 26be FFF7FEFF 		bl	schedule_getFrameLength
 5425 26c2 0346     		mov	r3, r0
 5426 26c4 FB80     		strh	r3, [r7, #6]	@ movhi
2131:build/openmote-cc2538_armgcc/openstack/02a-MAClow/IEEE802154E.c ****    
2132:build/openmote-cc2538_armgcc/openstack/02a-MAClow/IEEE802154E.c ****    // determine the current slotOffset
2133:build/openmote-cc2538_armgcc/openstack/02a-MAClow/IEEE802154E.c ****    slotOffset = ieee154e_vars.asn.byte4;
 5427              		.loc 1 2133 0
 5428 26c6 40F20003 		movw	r3, #:lower16:ieee154e_vars
 5429 26ca C0F20003 		movt	r3, #:upper16:ieee154e_vars
 5430 26ce 1B78     		ldrb	r3, [r3]	@ zero_extendqisi2
 5431 26d0 3B60     		str	r3, [r7]
2134:build/openmote-cc2538_armgcc/openstack/02a-MAClow/IEEE802154E.c ****    slotOffset = slotOffset % frameLength;
 5432              		.loc 1 2134 0
 5433 26d2 FA88     		ldrh	r2, [r7, #6]
 5434 26d4 3B68     		ldr	r3, [r7]
 5435 26d6 B3FBF2F1 		udiv	r1, r3, r2
 5436 26da 02FB01F2 		mul	r2, r2, r1
 5437 26de 9B1A     		subs	r3, r3, r2
 5438 26e0 3B60     		str	r3, [r7]
2135:build/openmote-cc2538_armgcc/openstack/02a-MAClow/IEEE802154E.c ****    slotOffset = slotOffset << 16;
 5439              		.loc 1 2135 0
 5440 26e2 3B68     		ldr	r3, [r7]
 5441 26e4 1B04     		lsls	r3, r3, #16
 5442 26e6 3B60     		str	r3, [r7]
2136:build/openmote-cc2538_armgcc/openstack/02a-MAClow/IEEE802154E.c ****    slotOffset = slotOffset + ieee154e_vars.asn.bytes2and3;
 5443              		.loc 1 2136 0
 5444 26e8 40F20003 		movw	r3, #:lower16:ieee154e_vars
 5445 26ec C0F20003 		movt	r3, #:upper16:ieee154e_vars
 5446 26f0 B3F80130 		ldrh	r3, [r3, #1]	@ unaligned
 5447 26f4 9BB2     		uxth	r3, r3
 5448 26f6 3A68     		ldr	r2, [r7]
 5449 26f8 1344     		add	r3, r3, r2
 5450 26fa 3B60     		str	r3, [r7]
2137:build/openmote-cc2538_armgcc/openstack/02a-MAClow/IEEE802154E.c ****    slotOffset = slotOffset % frameLength;
 5451              		.loc 1 2137 0
 5452 26fc FA88     		ldrh	r2, [r7, #6]
 5453 26fe 3B68     		ldr	r3, [r7]
 5454 2700 B3FBF2F1 		udiv	r1, r3, r2
 5455 2704 02FB01F2 		mul	r2, r2, r1
 5456 2708 9B1A     		subs	r3, r3, r2
 5457 270a 3B60     		str	r3, [r7]
2138:build/openmote-cc2538_armgcc/openstack/02a-MAClow/IEEE802154E.c ****    slotOffset = slotOffset << 16;
 5458              		.loc 1 2138 0
 5459 270c 3B68     		ldr	r3, [r7]
 5460 270e 1B04     		lsls	r3, r3, #16
 5461 2710 3B60     		str	r3, [r7]
2139:build/openmote-cc2538_armgcc/openstack/02a-MAClow/IEEE802154E.c ****    slotOffset = slotOffset + ieee154e_vars.asn.bytes0and1;
 5462              		.loc 1 2139 0
 5463 2712 40F20003 		movw	r3, #:lower16:ieee154e_vars
 5464 2716 C0F20003 		movt	r3, #:upper16:ieee154e_vars
 5465 271a B3F80330 		ldrh	r3, [r3, #3]	@ unaligned
 5466 271e 9BB2     		uxth	r3, r3
 5467 2720 3A68     		ldr	r2, [r7]
 5468 2722 1344     		add	r3, r3, r2
 5469 2724 3B60     		str	r3, [r7]
2140:build/openmote-cc2538_armgcc/openstack/02a-MAClow/IEEE802154E.c ****    slotOffset = slotOffset % frameLength;
 5470              		.loc 1 2140 0
 5471 2726 FA88     		ldrh	r2, [r7, #6]
 5472 2728 3B68     		ldr	r3, [r7]
 5473 272a B3FBF2F1 		udiv	r1, r3, r2
 5474 272e 02FB01F2 		mul	r2, r2, r1
 5475 2732 9B1A     		subs	r3, r3, r2
 5476 2734 3B60     		str	r3, [r7]
2141:build/openmote-cc2538_armgcc/openstack/02a-MAClow/IEEE802154E.c ****    
2142:build/openmote-cc2538_armgcc/openstack/02a-MAClow/IEEE802154E.c ****    ieee154e_vars.slotOffset       = (slotOffset_t) slotOffset;
 5477              		.loc 1 2142 0
 5478 2736 3B68     		ldr	r3, [r7]
 5479 2738 9AB2     		uxth	r2, r3
 5480 273a 40F20003 		movw	r3, #:lower16:ieee154e_vars
 5481 273e C0F20003 		movt	r3, #:upper16:ieee154e_vars
 5482 2742 DA80     		strh	r2, [r3, #6]	@ movhi
2143:build/openmote-cc2538_armgcc/openstack/02a-MAClow/IEEE802154E.c **** }
 5483              		.loc 1 2143 0
 5484 2744 0837     		adds	r7, r7, #8
 5485 2746 BD46     		mov	sp, r7
 5486              		@ sp needed
 5487 2748 80BD     		pop	{r7, pc}
 5488              		.cfi_endproc
 5489              	.LFE51:
 5491 274a 00BF     		.align	2
 5492              		.global	ieee154e_setIsAckEnabled
 5493              		.thumb
 5494              		.thumb_func
 5496              	ieee154e_setIsAckEnabled:
 5497              	.LFB52:
2144:build/openmote-cc2538_armgcc/openstack/02a-MAClow/IEEE802154E.c **** 
2145:build/openmote-cc2538_armgcc/openstack/02a-MAClow/IEEE802154E.c **** void ieee154e_setIsAckEnabled(bool isEnabled){
 5498              		.loc 1 2145 0
 5499              		.cfi_startproc
 5500              		@ args = 0, pretend = 0, frame = 8
 5501              		@ frame_needed = 1, uses_anonymous_args = 0
 5502              		@ link register save eliminated.
 5503 274c 80B4     		push	{r7}
 5504              		.cfi_def_cfa_offset 4
 5505              		.cfi_offset 7, -4
 5506 274e 83B0     		sub	sp, sp, #12
 5507              		.cfi_def_cfa_offset 16
 5508 2750 00AF     		add	r7, sp, #0
 5509              		.cfi_def_cfa_register 7
 5510 2752 0346     		mov	r3, r0
 5511 2754 FB71     		strb	r3, [r7, #7]
2146:build/openmote-cc2538_armgcc/openstack/02a-MAClow/IEEE802154E.c ****     ieee154e_vars.isAckEnabled = isEnabled;
 5512              		.loc 1 2146 0
 5513 2756 40F20003 		movw	r3, #:lower16:ieee154e_vars
 5514 275a C0F20003 		movt	r3, #:upper16:ieee154e_vars
 5515 275e FA79     		ldrb	r2, [r7, #7]
 5516 2760 83F86521 		strb	r2, [r3, #357]
2147:build/openmote-cc2538_armgcc/openstack/02a-MAClow/IEEE802154E.c **** }
 5517              		.loc 1 2147 0
 5518 2764 0C37     		adds	r7, r7, #12
 5519 2766 BD46     		mov	sp, r7
 5520              		@ sp needed
 5521 2768 5DF8047B 		ldr	r7, [sp], #4
 5522 276c 7047     		bx	lr
 5523              		.cfi_endproc
 5524              	.LFE52:
 5526 276e 00BF     		.align	2
 5527              		.global	ieee154e_setSingleChannel
 5528              		.thumb
 5529              		.thumb_func
 5531              	ieee154e_setSingleChannel:
 5532              	.LFB53:
2148:build/openmote-cc2538_armgcc/openstack/02a-MAClow/IEEE802154E.c **** 
2149:build/openmote-cc2538_armgcc/openstack/02a-MAClow/IEEE802154E.c **** void ieee154e_setSingleChannel(uint8_t channel){
 5533              		.loc 1 2149 0
 5534              		.cfi_startproc
 5535              		@ args = 0, pretend = 0, frame = 8
 5536              		@ frame_needed = 1, uses_anonymous_args = 0
 5537              		@ link register save eliminated.
 5538 2770 80B4     		push	{r7}
 5539              		.cfi_def_cfa_offset 4
 5540              		.cfi_offset 7, -4
 5541 2772 83B0     		sub	sp, sp, #12
 5542              		.cfi_def_cfa_offset 16
 5543 2774 00AF     		add	r7, sp, #0
 5544              		.cfi_def_cfa_register 7
 5545 2776 0346     		mov	r3, r0
 5546 2778 FB71     		strb	r3, [r7, #7]
2150:build/openmote-cc2538_armgcc/openstack/02a-MAClow/IEEE802154E.c ****     if (
 5547              		.loc 1 2150 0
 5548 277a FB79     		ldrb	r3, [r7, #7]	@ zero_extendqisi2
 5549 277c 0A2B     		cmp	r3, #10
 5550 277e 02D9     		bls	.L246
2151:build/openmote-cc2538_armgcc/openstack/02a-MAClow/IEEE802154E.c ****         (channel < 11 || channel > 26) &&
 5551              		.loc 1 2151 0
 5552 2780 FB79     		ldrb	r3, [r7, #7]	@ zero_extendqisi2
 5553 2782 1A2B     		cmp	r3, #26
 5554 2784 03D9     		bls	.L247
 5555              	.L246:
 5556              		.loc 1 2151 0 is_stmt 0 discriminator 1
 5557 2786 FB79     		ldrb	r3, [r7, #7]	@ zero_extendqisi2
 5558 2788 002B     		cmp	r3, #0
 5559 278a 00D0     		beq	.L247
2152:build/openmote-cc2538_armgcc/openstack/02a-MAClow/IEEE802154E.c ****          channel != 0   // channel == 0 means channel hopping is enabled
2153:build/openmote-cc2538_armgcc/openstack/02a-MAClow/IEEE802154E.c ****     ) {
2154:build/openmote-cc2538_armgcc/openstack/02a-MAClow/IEEE802154E.c ****         // log wrong channel, should be  : (0, or 11~26)
2155:build/openmote-cc2538_armgcc/openstack/02a-MAClow/IEEE802154E.c ****         return;
 5560              		.loc 1 2155 0 is_stmt 1
 5561 278c 0DE0     		b	.L245
 5562              	.L247:
2156:build/openmote-cc2538_armgcc/openstack/02a-MAClow/IEEE802154E.c ****     }
2157:build/openmote-cc2538_armgcc/openstack/02a-MAClow/IEEE802154E.c ****     ieee154e_vars.singleChannel = channel;
 5563              		.loc 1 2157 0
 5564 278e 40F20003 		movw	r3, #:lower16:ieee154e_vars
 5565 2792 C0F20003 		movt	r3, #:upper16:ieee154e_vars
 5566 2796 FA79     		ldrb	r2, [r7, #7]
 5567 2798 83F84621 		strb	r2, [r3, #326]
2158:build/openmote-cc2538_armgcc/openstack/02a-MAClow/IEEE802154E.c ****     ieee154e_vars.singleChannelChanged = TRUE;
 5568              		.loc 1 2158 0
 5569 279c 40F20003 		movw	r3, #:lower16:ieee154e_vars
 5570 27a0 C0F20003 		movt	r3, #:upper16:ieee154e_vars
 5571 27a4 0122     		movs	r2, #1
 5572 27a6 83F84721 		strb	r2, [r3, #327]
 5573              	.L245:
2159:build/openmote-cc2538_armgcc/openstack/02a-MAClow/IEEE802154E.c **** }
 5574              		.loc 1 2159 0
 5575 27aa 0C37     		adds	r7, r7, #12
 5576 27ac BD46     		mov	sp, r7
 5577              		@ sp needed
 5578 27ae 5DF8047B 		ldr	r7, [sp], #4
 5579 27b2 7047     		bx	lr
 5580              		.cfi_endproc
 5581              	.LFE53:
 5583              		.align	2
 5584              		.global	ieee154e_setIsSecurityEnabled
 5585              		.thumb
 5586              		.thumb_func
 5588              	ieee154e_setIsSecurityEnabled:
 5589              	.LFB54:
2160:build/openmote-cc2538_armgcc/openstack/02a-MAClow/IEEE802154E.c **** 
2161:build/openmote-cc2538_armgcc/openstack/02a-MAClow/IEEE802154E.c **** void ieee154e_setIsSecurityEnabled(bool isEnabled){
 5590              		.loc 1 2161 0
 5591              		.cfi_startproc
 5592              		@ args = 0, pretend = 0, frame = 8
 5593              		@ frame_needed = 1, uses_anonymous_args = 0
 5594              		@ link register save eliminated.
 5595 27b4 80B4     		push	{r7}
 5596              		.cfi_def_cfa_offset 4
 5597              		.cfi_offset 7, -4
 5598 27b6 83B0     		sub	sp, sp, #12
 5599              		.cfi_def_cfa_offset 16
 5600 27b8 00AF     		add	r7, sp, #0
 5601              		.cfi_def_cfa_register 7
 5602 27ba 0346     		mov	r3, r0
 5603 27bc FB71     		strb	r3, [r7, #7]
2162:build/openmote-cc2538_armgcc/openstack/02a-MAClow/IEEE802154E.c ****     ieee154e_vars.isSecurityEnabled = isEnabled;
 5604              		.loc 1 2162 0
 5605 27be 40F20003 		movw	r3, #:lower16:ieee154e_vars
 5606 27c2 C0F20003 		movt	r3, #:upper16:ieee154e_vars
 5607 27c6 FA79     		ldrb	r2, [r7, #7]
 5608 27c8 83F86621 		strb	r2, [r3, #358]
2163:build/openmote-cc2538_armgcc/openstack/02a-MAClow/IEEE802154E.c **** }
 5609              		.loc 1 2163 0
 5610 27cc 0C37     		adds	r7, r7, #12
 5611 27ce BD46     		mov	sp, r7
 5612              		@ sp needed
 5613 27d0 5DF8047B 		ldr	r7, [sp], #4
 5614 27d4 7047     		bx	lr
 5615              		.cfi_endproc
 5616              	.LFE54:
 5618 27d6 00BF     		.align	2
 5619              		.global	ieee154e_setSlotDuration
 5620              		.thumb
 5621              		.thumb_func
 5623              	ieee154e_setSlotDuration:
 5624              	.LFB55:
2164:build/openmote-cc2538_armgcc/openstack/02a-MAClow/IEEE802154E.c **** 
2165:build/openmote-cc2538_armgcc/openstack/02a-MAClow/IEEE802154E.c **** void ieee154e_setSlotDuration(uint16_t duration){
 5625              		.loc 1 2165 0
 5626              		.cfi_startproc
 5627              		@ args = 0, pretend = 0, frame = 8
 5628              		@ frame_needed = 1, uses_anonymous_args = 0
 5629              		@ link register save eliminated.
 5630 27d8 80B4     		push	{r7}
 5631              		.cfi_def_cfa_offset 4
 5632              		.cfi_offset 7, -4
 5633 27da 83B0     		sub	sp, sp, #12
 5634              		.cfi_def_cfa_offset 16
 5635 27dc 00AF     		add	r7, sp, #0
 5636              		.cfi_def_cfa_register 7
 5637 27de 0346     		mov	r3, r0
 5638 27e0 FB80     		strh	r3, [r7, #6]	@ movhi
2166:build/openmote-cc2538_armgcc/openstack/02a-MAClow/IEEE802154E.c ****     ieee154e_vars.slotDuration = duration;
 5639              		.loc 1 2166 0
 5640 27e2 40F20003 		movw	r3, #:lower16:ieee154e_vars
 5641 27e6 C0F20003 		movt	r3, #:upper16:ieee154e_vars
 5642 27ea FA88     		ldrh	r2, [r7, #6]	@ movhi
 5643 27ec A3F86A21 		strh	r2, [r3, #362]	@ movhi
2167:build/openmote-cc2538_armgcc/openstack/02a-MAClow/IEEE802154E.c **** }
 5644              		.loc 1 2167 0
 5645 27f0 0C37     		adds	r7, r7, #12
 5646 27f2 BD46     		mov	sp, r7
 5647              		@ sp needed
 5648 27f4 5DF8047B 		ldr	r7, [sp], #4
 5649 27f8 7047     		bx	lr
 5650              		.cfi_endproc
 5651              	.LFE55:
 5653 27fa 00BF     		.align	2
 5654              		.global	ieee154e_getSlotDuration
 5655              		.thumb
 5656              		.thumb_func
 5658              	ieee154e_getSlotDuration:
 5659              	.LFB56:
2168:build/openmote-cc2538_armgcc/openstack/02a-MAClow/IEEE802154E.c **** 
2169:build/openmote-cc2538_armgcc/openstack/02a-MAClow/IEEE802154E.c **** uint16_t ieee154e_getSlotDuration(){
 5660              		.loc 1 2169 0
 5661              		.cfi_startproc
 5662              		@ args = 0, pretend = 0, frame = 0
 5663              		@ frame_needed = 1, uses_anonymous_args = 0
 5664              		@ link register save eliminated.
 5665 27fc 80B4     		push	{r7}
 5666              		.cfi_def_cfa_offset 4
 5667              		.cfi_offset 7, -4
 5668 27fe 00AF     		add	r7, sp, #0
 5669              		.cfi_def_cfa_register 7
2170:build/openmote-cc2538_armgcc/openstack/02a-MAClow/IEEE802154E.c ****     return ieee154e_vars.slotDuration;
 5670              		.loc 1 2170 0
 5671 2800 40F20003 		movw	r3, #:lower16:ieee154e_vars
 5672 2804 C0F20003 		movt	r3, #:upper16:ieee154e_vars
 5673 2808 B3F86A31 		ldrh	r3, [r3, #362]
2171:build/openmote-cc2538_armgcc/openstack/02a-MAClow/IEEE802154E.c **** }
 5674              		.loc 1 2171 0
 5675 280c 1846     		mov	r0, r3
 5676 280e BD46     		mov	sp, r7
 5677              		@ sp needed
 5678 2810 5DF8047B 		ldr	r7, [sp], #4
 5679 2814 7047     		bx	lr
 5680              		.cfi_endproc
 5681              	.LFE56:
 5683 2816 00BF     		.align	2
 5684              		.global	timeslotTemplateIDStoreFromEB
 5685              		.thumb
 5686              		.thumb_func
 5688              	timeslotTemplateIDStoreFromEB:
 5689              	.LFB57:
2172:build/openmote-cc2538_armgcc/openstack/02a-MAClow/IEEE802154E.c **** 
2173:build/openmote-cc2538_armgcc/openstack/02a-MAClow/IEEE802154E.c **** // timeslot template handling
2174:build/openmote-cc2538_armgcc/openstack/02a-MAClow/IEEE802154E.c **** port_INLINE void timeslotTemplateIDStoreFromEB(uint8_t id){
 5690              		.loc 1 2174 0
 5691              		.cfi_startproc
 5692              		@ args = 0, pretend = 0, frame = 8
 5693              		@ frame_needed = 1, uses_anonymous_args = 0
 5694              		@ link register save eliminated.
 5695 2818 80B4     		push	{r7}
 5696              		.cfi_def_cfa_offset 4
 5697              		.cfi_offset 7, -4
 5698 281a 83B0     		sub	sp, sp, #12
 5699              		.cfi_def_cfa_offset 16
 5700 281c 00AF     		add	r7, sp, #0
 5701              		.cfi_def_cfa_register 7
 5702 281e 0346     		mov	r3, r0
 5703 2820 FB71     		strb	r3, [r7, #7]
2175:build/openmote-cc2538_armgcc/openstack/02a-MAClow/IEEE802154E.c ****     ieee154e_vars.tsTemplateId = id;
 5704              		.loc 1 2175 0
 5705 2822 40F20003 		movw	r3, #:lower16:ieee154e_vars
 5706 2826 C0F20003 		movt	r3, #:upper16:ieee154e_vars
 5707 282a FA79     		ldrb	r2, [r7, #7]
 5708 282c 83F85821 		strb	r2, [r3, #344]
2176:build/openmote-cc2538_armgcc/openstack/02a-MAClow/IEEE802154E.c **** }
 5709              		.loc 1 2176 0
 5710 2830 0C37     		adds	r7, r7, #12
 5711 2832 BD46     		mov	sp, r7
 5712              		@ sp needed
 5713 2834 5DF8047B 		ldr	r7, [sp], #4
 5714 2838 7047     		bx	lr
 5715              		.cfi_endproc
 5716              	.LFE57:
 5718 283a 00BF     		.align	2
 5719              		.global	channelhoppingTemplateIDStoreFromEB
 5720              		.thumb
 5721              		.thumb_func
 5723              	channelhoppingTemplateIDStoreFromEB:
 5724              	.LFB58:
2177:build/openmote-cc2538_armgcc/openstack/02a-MAClow/IEEE802154E.c **** 
2178:build/openmote-cc2538_armgcc/openstack/02a-MAClow/IEEE802154E.c **** // channelhopping template handling
2179:build/openmote-cc2538_armgcc/openstack/02a-MAClow/IEEE802154E.c **** port_INLINE void channelhoppingTemplateIDStoreFromEB(uint8_t id){
 5725              		.loc 1 2179 0
 5726              		.cfi_startproc
 5727              		@ args = 0, pretend = 0, frame = 8
 5728              		@ frame_needed = 1, uses_anonymous_args = 0
 5729              		@ link register save eliminated.
 5730 283c 80B4     		push	{r7}
 5731              		.cfi_def_cfa_offset 4
 5732              		.cfi_offset 7, -4
 5733 283e 83B0     		sub	sp, sp, #12
 5734              		.cfi_def_cfa_offset 16
 5735 2840 00AF     		add	r7, sp, #0
 5736              		.cfi_def_cfa_register 7
 5737 2842 0346     		mov	r3, r0
 5738 2844 FB71     		strb	r3, [r7, #7]
2180:build/openmote-cc2538_armgcc/openstack/02a-MAClow/IEEE802154E.c ****     ieee154e_vars.chTemplateId = id;
 5739              		.loc 1 2180 0
 5740 2846 40F20003 		movw	r3, #:lower16:ieee154e_vars
 5741 284a C0F20003 		movt	r3, #:upper16:ieee154e_vars
 5742 284e FA79     		ldrb	r2, [r7, #7]
 5743 2850 83F85921 		strb	r2, [r3, #345]
2181:build/openmote-cc2538_armgcc/openstack/02a-MAClow/IEEE802154E.c **** }
 5744              		.loc 1 2181 0
 5745 2854 0C37     		adds	r7, r7, #12
 5746 2856 BD46     		mov	sp, r7
 5747              		@ sp needed
 5748 2858 5DF8047B 		ldr	r7, [sp], #4
 5749 285c 7047     		bx	lr
 5750              		.cfi_endproc
 5751              	.LFE58:
 5753 285e 00BF     		.align	2
 5754              		.global	synchronizePacket
 5755              		.thumb
 5756              		.thumb_func
 5758              	synchronizePacket:
 5759              	.LFB59:
2182:build/openmote-cc2538_armgcc/openstack/02a-MAClow/IEEE802154E.c **** //======= synchronization
2183:build/openmote-cc2538_armgcc/openstack/02a-MAClow/IEEE802154E.c **** 
2184:build/openmote-cc2538_armgcc/openstack/02a-MAClow/IEEE802154E.c **** void synchronizePacket(PORT_RADIOTIMER_WIDTH timeReceived) {
 5760              		.loc 1 2184 0
 5761              		.cfi_startproc
 5762              		@ args = 0, pretend = 0, frame = 24
 5763              		@ frame_needed = 1, uses_anonymous_args = 0
 5764 2860 80B5     		push	{r7, lr}
 5765              		.cfi_def_cfa_offset 8
 5766              		.cfi_offset 7, -8
 5767              		.cfi_offset 14, -4
 5768 2862 86B0     		sub	sp, sp, #24
 5769              		.cfi_def_cfa_offset 32
 5770 2864 00AF     		add	r7, sp, #0
 5771              		.cfi_def_cfa_register 7
 5772 2866 7860     		str	r0, [r7, #4]
2185:build/openmote-cc2538_armgcc/openstack/02a-MAClow/IEEE802154E.c ****    PORT_SIGNED_INT_WIDTH timeCorrection;
2186:build/openmote-cc2538_armgcc/openstack/02a-MAClow/IEEE802154E.c ****    PORT_RADIOTIMER_WIDTH newPeriod;
2187:build/openmote-cc2538_armgcc/openstack/02a-MAClow/IEEE802154E.c ****    PORT_RADIOTIMER_WIDTH currentPeriod;
2188:build/openmote-cc2538_armgcc/openstack/02a-MAClow/IEEE802154E.c ****    PORT_RADIOTIMER_WIDTH currentValue;
2189:build/openmote-cc2538_armgcc/openstack/02a-MAClow/IEEE802154E.c ****    
2190:build/openmote-cc2538_armgcc/openstack/02a-MAClow/IEEE802154E.c ****    // record the current timer value and period
2191:build/openmote-cc2538_armgcc/openstack/02a-MAClow/IEEE802154E.c ****    currentValue                   =  radio_getTimerValue();
 5773              		.loc 1 2191 0
 5774 2868 FFF7FEFF 		bl	radio_getTimerValue
 5775 286c 3861     		str	r0, [r7, #16]
2192:build/openmote-cc2538_armgcc/openstack/02a-MAClow/IEEE802154E.c ****    currentPeriod                  =  radio_getTimerPeriod();
 5776              		.loc 1 2192 0
 5777 286e FFF7FEFF 		bl	radio_getTimerPeriod
 5778 2872 F860     		str	r0, [r7, #12]
2193:build/openmote-cc2538_armgcc/openstack/02a-MAClow/IEEE802154E.c ****    
2194:build/openmote-cc2538_armgcc/openstack/02a-MAClow/IEEE802154E.c ****    // calculate new period
2195:build/openmote-cc2538_armgcc/openstack/02a-MAClow/IEEE802154E.c ****    timeCorrection                 =  (PORT_SIGNED_INT_WIDTH)((PORT_SIGNED_INT_WIDTH)timeReceived - 
 5779              		.loc 1 2195 0
 5780 2874 7B68     		ldr	r3, [r7, #4]
 5781 2876 833B     		subs	r3, r3, #131
 5782 2878 BB60     		str	r3, [r7, #8]
2196:build/openmote-cc2538_armgcc/openstack/02a-MAClow/IEEE802154E.c **** 
2197:build/openmote-cc2538_armgcc/openstack/02a-MAClow/IEEE802154E.c **** 
2198:build/openmote-cc2538_armgcc/openstack/02a-MAClow/IEEE802154E.c ****    // The interrupt beginning a new slot can either occur after the packet has been
2199:build/openmote-cc2538_armgcc/openstack/02a-MAClow/IEEE802154E.c ****    // or while it is being received, possibly because the mote is not yet synchronized.
2200:build/openmote-cc2538_armgcc/openstack/02a-MAClow/IEEE802154E.c ****    // In the former case we simply take the usual slotLength and correct it.
2201:build/openmote-cc2538_armgcc/openstack/02a-MAClow/IEEE802154E.c ****    // In the latter case the timer did already roll over and
2202:build/openmote-cc2538_armgcc/openstack/02a-MAClow/IEEE802154E.c ****    // currentValue < timeReceived. slotLength did then already pass which is why
2203:build/openmote-cc2538_armgcc/openstack/02a-MAClow/IEEE802154E.c ****    // we need the new slot to end after the remaining time which is timeCorrection
2204:build/openmote-cc2538_armgcc/openstack/02a-MAClow/IEEE802154E.c ****    // and in this constellation is guaranteed to be positive.
2205:build/openmote-cc2538_armgcc/openstack/02a-MAClow/IEEE802154E.c ****    if (currentValue < timeReceived) {
 5783              		.loc 1 2205 0
 5784 287a 3A69     		ldr	r2, [r7, #16]
 5785 287c 7B68     		ldr	r3, [r7, #4]
 5786 287e 9A42     		cmp	r2, r3
 5787 2880 02D2     		bcs	.L256
2206:build/openmote-cc2538_armgcc/openstack/02a-MAClow/IEEE802154E.c ****        newPeriod = (PORT_RADIOTIMER_WIDTH)timeCorrection;
 5788              		.loc 1 2206 0
 5789 2882 BB68     		ldr	r3, [r7, #8]
 5790 2884 7B61     		str	r3, [r7, #20]
 5791 2886 03E0     		b	.L257
 5792              	.L256:
2207:build/openmote-cc2538_armgcc/openstack/02a-MAClow/IEEE802154E.c ****    } else {
2208:build/openmote-cc2538_armgcc/openstack/02a-MAClow/IEEE802154E.c ****        newPeriod =  (PORT_RADIOTIMER_WIDTH)((PORT_SIGNED_INT_WIDTH)currentPeriod + timeCorrection);
 5793              		.loc 1 2208 0
 5794 2888 FA68     		ldr	r2, [r7, #12]
 5795 288a BB68     		ldr	r3, [r7, #8]
 5796 288c 1344     		add	r3, r3, r2
 5797 288e 7B61     		str	r3, [r7, #20]
 5798              	.L257:
2209:build/openmote-cc2538_armgcc/openstack/02a-MAClow/IEEE802154E.c ****    }
2210:build/openmote-cc2538_armgcc/openstack/02a-MAClow/IEEE802154E.c ****    
2211:build/openmote-cc2538_armgcc/openstack/02a-MAClow/IEEE802154E.c ****    // detect whether I'm too close to the edge of the slot, in that case,
2212:build/openmote-cc2538_armgcc/openstack/02a-MAClow/IEEE802154E.c ****    // skip a slot and increase the temporary slot length to be 2 slots long
2213:build/openmote-cc2538_armgcc/openstack/02a-MAClow/IEEE802154E.c ****    if ((PORT_SIGNED_INT_WIDTH)newPeriod - (PORT_SIGNED_INT_WIDTH)currentValue < (PORT_SIGNED_INT_WI
 5799              		.loc 1 2213 0
 5800 2890 7A69     		ldr	r2, [r7, #20]
 5801 2892 3B69     		ldr	r3, [r7, #16]
 5802 2894 D31A     		subs	r3, r2, r3
 5803 2896 042B     		cmp	r3, #4
 5804 2898 0ADC     		bgt	.L258
2214:build/openmote-cc2538_armgcc/openstack/02a-MAClow/IEEE802154E.c ****       newPeriod                  +=  ieee154e_vars.slotDuration;
 5805              		.loc 1 2214 0
 5806 289a 40F20003 		movw	r3, #:lower16:ieee154e_vars
 5807 289e C0F20003 		movt	r3, #:upper16:ieee154e_vars
 5808 28a2 B3F86A31 		ldrh	r3, [r3, #362]
 5809 28a6 7A69     		ldr	r2, [r7, #20]
 5810 28a8 1344     		add	r3, r3, r2
 5811 28aa 7B61     		str	r3, [r7, #20]
2215:build/openmote-cc2538_armgcc/openstack/02a-MAClow/IEEE802154E.c ****       incrementAsnOffset();
 5812              		.loc 1 2215 0
 5813 28ac FFF7FEFF 		bl	incrementAsnOffset
 5814              	.L258:
2216:build/openmote-cc2538_armgcc/openstack/02a-MAClow/IEEE802154E.c ****    }
2217:build/openmote-cc2538_armgcc/openstack/02a-MAClow/IEEE802154E.c ****    
2218:build/openmote-cc2538_armgcc/openstack/02a-MAClow/IEEE802154E.c ****    // resynchronize by applying the new period
2219:build/openmote-cc2538_armgcc/openstack/02a-MAClow/IEEE802154E.c ****    radio_setTimerPeriod(newPeriod);
 5815              		.loc 1 2219 0
 5816 28b0 7869     		ldr	r0, [r7, #20]
 5817 28b2 FFF7FEFF 		bl	radio_setTimerPeriod
2220:build/openmote-cc2538_armgcc/openstack/02a-MAClow/IEEE802154E.c **** #ifdef ADAPTIVE_SYNC
2221:build/openmote-cc2538_armgcc/openstack/02a-MAClow/IEEE802154E.c ****    // indicate time correction to adaptive sync module
2222:build/openmote-cc2538_armgcc/openstack/02a-MAClow/IEEE802154E.c ****    adaptive_sync_indicateTimeCorrection(timeCorrection,ieee154e_vars.dataReceived->l2_nextORpreviou
2223:build/openmote-cc2538_armgcc/openstack/02a-MAClow/IEEE802154E.c **** #endif
2224:build/openmote-cc2538_armgcc/openstack/02a-MAClow/IEEE802154E.c ****    // reset the de-synchronization timeout
2225:build/openmote-cc2538_armgcc/openstack/02a-MAClow/IEEE802154E.c ****    ieee154e_vars.deSyncTimeout    = DESYNCTIMEOUT;
 5818              		.loc 1 2225 0
 5819 28b6 40F20003 		movw	r3, #:lower16:ieee154e_vars
 5820 28ba C0F20003 		movt	r3, #:upper16:ieee154e_vars
 5821 28be 40F61D12 		movw	r2, #2333
 5822 28c2 DA60     		str	r2, [r3, #12]
2226:build/openmote-cc2538_armgcc/openstack/02a-MAClow/IEEE802154E.c ****    
2227:build/openmote-cc2538_armgcc/openstack/02a-MAClow/IEEE802154E.c ****    // log a large timeCorrection
2228:build/openmote-cc2538_armgcc/openstack/02a-MAClow/IEEE802154E.c ****    if (
2229:build/openmote-cc2538_armgcc/openstack/02a-MAClow/IEEE802154E.c ****          ieee154e_vars.isSync==TRUE
 5823              		.loc 1 2229 0
 5824 28c4 40F20003 		movw	r3, #:lower16:ieee154e_vars
 5825 28c8 C0F20003 		movt	r3, #:upper16:ieee154e_vars
 5826 28cc 1B7C     		ldrb	r3, [r3, #16]	@ zero_extendqisi2
2228:build/openmote-cc2538_armgcc/openstack/02a-MAClow/IEEE802154E.c ****          ieee154e_vars.isSync==TRUE
 5827              		.loc 1 2228 0
 5828 28ce 002B     		cmp	r3, #0
 5829 28d0 07D0     		beq	.L259
2230:build/openmote-cc2538_armgcc/openstack/02a-MAClow/IEEE802154E.c ****       ) {
2231:build/openmote-cc2538_armgcc/openstack/02a-MAClow/IEEE802154E.c ****       openserial_printError(COMPONENT_IEEE802154E,ERR_LARGE_TIMECORRECTION,
 5830              		.loc 1 2231 0
 5831 28d2 BB68     		ldr	r3, [r7, #8]
 5832 28d4 9BB2     		uxth	r3, r3
 5833 28d6 0920     		movs	r0, #9
 5834 28d8 1C21     		movs	r1, #28
 5835 28da 1A46     		mov	r2, r3
 5836 28dc 0023     		movs	r3, #0
 5837 28de FFF7FEFF 		bl	openserial_printError
 5838              	.L259:
2232:build/openmote-cc2538_armgcc/openstack/02a-MAClow/IEEE802154E.c ****                             (errorparameter_t)timeCorrection,
2233:build/openmote-cc2538_armgcc/openstack/02a-MAClow/IEEE802154E.c ****                             (errorparameter_t)0);
2234:build/openmote-cc2538_armgcc/openstack/02a-MAClow/IEEE802154E.c ****    }
2235:build/openmote-cc2538_armgcc/openstack/02a-MAClow/IEEE802154E.c ****    
2236:build/openmote-cc2538_armgcc/openstack/02a-MAClow/IEEE802154E.c ****    // update the stats
2237:build/openmote-cc2538_armgcc/openstack/02a-MAClow/IEEE802154E.c ****    ieee154e_stats.numSyncPkt++;
 5839              		.loc 1 2237 0
 5840 28e2 40F20003 		movw	r3, #:lower16:ieee154e_stats
 5841 28e6 C0F20003 		movt	r3, #:upper16:ieee154e_stats
 5842 28ea 1B78     		ldrb	r3, [r3]	@ zero_extendqisi2
 5843 28ec 0133     		adds	r3, r3, #1
 5844 28ee DAB2     		uxtb	r2, r3
 5845 28f0 40F20003 		movw	r3, #:lower16:ieee154e_stats
 5846 28f4 C0F20003 		movt	r3, #:upper16:ieee154e_stats
 5847 28f8 1A70     		strb	r2, [r3]
2238:build/openmote-cc2538_armgcc/openstack/02a-MAClow/IEEE802154E.c ****    updateStats(timeCorrection);
 5848              		.loc 1 2238 0
 5849 28fa B868     		ldr	r0, [r7, #8]
 5850 28fc FFF7FEFF 		bl	updateStats
2239:build/openmote-cc2538_armgcc/openstack/02a-MAClow/IEEE802154E.c ****    
2240:build/openmote-cc2538_armgcc/openstack/02a-MAClow/IEEE802154E.c **** #ifdef OPENSIM
2241:build/openmote-cc2538_armgcc/openstack/02a-MAClow/IEEE802154E.c ****    debugpins_syncPacket_set();
2242:build/openmote-cc2538_armgcc/openstack/02a-MAClow/IEEE802154E.c ****    debugpins_syncPacket_clr();
2243:build/openmote-cc2538_armgcc/openstack/02a-MAClow/IEEE802154E.c **** #endif
2244:build/openmote-cc2538_armgcc/openstack/02a-MAClow/IEEE802154E.c **** }
 5851              		.loc 1 2244 0
 5852 2900 1837     		adds	r7, r7, #24
 5853 2902 BD46     		mov	sp, r7
 5854              		@ sp needed
 5855 2904 80BD     		pop	{r7, pc}
 5856              		.cfi_endproc
 5857              	.LFE59:
 5859 2906 00BF     		.align	2
 5860              		.global	synchronizeAck
 5861              		.thumb
 5862              		.thumb_func
 5864              	synchronizeAck:
 5865              	.LFB60:
2245:build/openmote-cc2538_armgcc/openstack/02a-MAClow/IEEE802154E.c **** 
2246:build/openmote-cc2538_armgcc/openstack/02a-MAClow/IEEE802154E.c **** void synchronizeAck(PORT_SIGNED_INT_WIDTH timeCorrection) {
 5866              		.loc 1 2246 0
 5867              		.cfi_startproc
 5868              		@ args = 0, pretend = 0, frame = 16
 5869              		@ frame_needed = 1, uses_anonymous_args = 0
 5870 2908 80B5     		push	{r7, lr}
 5871              		.cfi_def_cfa_offset 8
 5872              		.cfi_offset 7, -8
 5873              		.cfi_offset 14, -4
 5874 290a 84B0     		sub	sp, sp, #16
 5875              		.cfi_def_cfa_offset 24
 5876 290c 00AF     		add	r7, sp, #0
 5877              		.cfi_def_cfa_register 7
 5878 290e 7860     		str	r0, [r7, #4]
2247:build/openmote-cc2538_armgcc/openstack/02a-MAClow/IEEE802154E.c ****    PORT_RADIOTIMER_WIDTH newPeriod;
2248:build/openmote-cc2538_armgcc/openstack/02a-MAClow/IEEE802154E.c ****    PORT_RADIOTIMER_WIDTH currentPeriod;
2249:build/openmote-cc2538_armgcc/openstack/02a-MAClow/IEEE802154E.c ****    
2250:build/openmote-cc2538_armgcc/openstack/02a-MAClow/IEEE802154E.c ****    // calculate new period
2251:build/openmote-cc2538_armgcc/openstack/02a-MAClow/IEEE802154E.c ****    currentPeriod                  =  radio_getTimerPeriod();
 5879              		.loc 1 2251 0
 5880 2910 FFF7FEFF 		bl	radio_getTimerPeriod
 5881 2914 F860     		str	r0, [r7, #12]
2252:build/openmote-cc2538_armgcc/openstack/02a-MAClow/IEEE802154E.c ****    newPeriod                      =  (PORT_RADIOTIMER_WIDTH)((PORT_SIGNED_INT_WIDTH)currentPeriod+t
 5882              		.loc 1 2252 0
 5883 2916 FA68     		ldr	r2, [r7, #12]
 5884 2918 7B68     		ldr	r3, [r7, #4]
 5885 291a 1344     		add	r3, r3, r2
 5886 291c BB60     		str	r3, [r7, #8]
2253:build/openmote-cc2538_armgcc/openstack/02a-MAClow/IEEE802154E.c **** 
2254:build/openmote-cc2538_armgcc/openstack/02a-MAClow/IEEE802154E.c ****    // resynchronize by applying the new period
2255:build/openmote-cc2538_armgcc/openstack/02a-MAClow/IEEE802154E.c ****    radio_setTimerPeriod(newPeriod);
 5887              		.loc 1 2255 0
 5888 291e B868     		ldr	r0, [r7, #8]
 5889 2920 FFF7FEFF 		bl	radio_setTimerPeriod
2256:build/openmote-cc2538_armgcc/openstack/02a-MAClow/IEEE802154E.c ****    
2257:build/openmote-cc2538_armgcc/openstack/02a-MAClow/IEEE802154E.c ****    // reset the de-synchronization timeout
2258:build/openmote-cc2538_armgcc/openstack/02a-MAClow/IEEE802154E.c ****    ieee154e_vars.deSyncTimeout    = DESYNCTIMEOUT;
 5890              		.loc 1 2258 0
 5891 2924 40F20003 		movw	r3, #:lower16:ieee154e_vars
 5892 2928 C0F20003 		movt	r3, #:upper16:ieee154e_vars
 5893 292c 40F61D12 		movw	r2, #2333
 5894 2930 DA60     		str	r2, [r3, #12]
2259:build/openmote-cc2538_armgcc/openstack/02a-MAClow/IEEE802154E.c **** #ifdef ADAPTIVE_SYNC
2260:build/openmote-cc2538_armgcc/openstack/02a-MAClow/IEEE802154E.c ****    // indicate time correction to adaptive sync module
2261:build/openmote-cc2538_armgcc/openstack/02a-MAClow/IEEE802154E.c ****    adaptive_sync_indicateTimeCorrection((-timeCorrection),ieee154e_vars.ackReceived->l2_nextORprevi
2262:build/openmote-cc2538_armgcc/openstack/02a-MAClow/IEEE802154E.c **** #endif
2263:build/openmote-cc2538_armgcc/openstack/02a-MAClow/IEEE802154E.c ****    // log a large timeCorrection
2264:build/openmote-cc2538_armgcc/openstack/02a-MAClow/IEEE802154E.c ****    if (
2265:build/openmote-cc2538_armgcc/openstack/02a-MAClow/IEEE802154E.c ****          ieee154e_vars.isSync==TRUE
 5895              		.loc 1 2265 0
 5896 2932 40F20003 		movw	r3, #:lower16:ieee154e_vars
 5897 2936 C0F20003 		movt	r3, #:upper16:ieee154e_vars
 5898 293a 1B7C     		ldrb	r3, [r3, #16]	@ zero_extendqisi2
2264:build/openmote-cc2538_armgcc/openstack/02a-MAClow/IEEE802154E.c ****          ieee154e_vars.isSync==TRUE
 5899              		.loc 1 2264 0
 5900 293c 002B     		cmp	r3, #0
 5901 293e 07D0     		beq	.L261
2266:build/openmote-cc2538_armgcc/openstack/02a-MAClow/IEEE802154E.c ****       ) {
2267:build/openmote-cc2538_armgcc/openstack/02a-MAClow/IEEE802154E.c ****       openserial_printError(COMPONENT_IEEE802154E,ERR_LARGE_TIMECORRECTION,
 5902              		.loc 1 2267 0
 5903 2940 7B68     		ldr	r3, [r7, #4]
 5904 2942 9BB2     		uxth	r3, r3
 5905 2944 0920     		movs	r0, #9
 5906 2946 1C21     		movs	r1, #28
 5907 2948 1A46     		mov	r2, r3
 5908 294a 0123     		movs	r3, #1
 5909 294c FFF7FEFF 		bl	openserial_printError
 5910              	.L261:
2268:build/openmote-cc2538_armgcc/openstack/02a-MAClow/IEEE802154E.c ****                             (errorparameter_t)timeCorrection,
2269:build/openmote-cc2538_armgcc/openstack/02a-MAClow/IEEE802154E.c ****                             (errorparameter_t)1);
2270:build/openmote-cc2538_armgcc/openstack/02a-MAClow/IEEE802154E.c ****    }
2271:build/openmote-cc2538_armgcc/openstack/02a-MAClow/IEEE802154E.c **** 
2272:build/openmote-cc2538_armgcc/openstack/02a-MAClow/IEEE802154E.c ****    // update the stats
2273:build/openmote-cc2538_armgcc/openstack/02a-MAClow/IEEE802154E.c ****    ieee154e_stats.numSyncAck++;
 5911              		.loc 1 2273 0
 5912 2950 40F20003 		movw	r3, #:lower16:ieee154e_stats
 5913 2954 C0F20003 		movt	r3, #:upper16:ieee154e_stats
 5914 2958 5B78     		ldrb	r3, [r3, #1]	@ zero_extendqisi2
 5915 295a 0133     		adds	r3, r3, #1
 5916 295c DAB2     		uxtb	r2, r3
 5917 295e 40F20003 		movw	r3, #:lower16:ieee154e_stats
 5918 2962 C0F20003 		movt	r3, #:upper16:ieee154e_stats
 5919 2966 5A70     		strb	r2, [r3, #1]
2274:build/openmote-cc2538_armgcc/openstack/02a-MAClow/IEEE802154E.c ****    updateStats(timeCorrection);
 5920              		.loc 1 2274 0
 5921 2968 7868     		ldr	r0, [r7, #4]
 5922 296a FFF7FEFF 		bl	updateStats
2275:build/openmote-cc2538_armgcc/openstack/02a-MAClow/IEEE802154E.c ****    
2276:build/openmote-cc2538_armgcc/openstack/02a-MAClow/IEEE802154E.c **** #ifdef OPENSIM
2277:build/openmote-cc2538_armgcc/openstack/02a-MAClow/IEEE802154E.c ****    debugpins_syncAck_set();
2278:build/openmote-cc2538_armgcc/openstack/02a-MAClow/IEEE802154E.c ****    debugpins_syncAck_clr();
2279:build/openmote-cc2538_armgcc/openstack/02a-MAClow/IEEE802154E.c **** #endif
2280:build/openmote-cc2538_armgcc/openstack/02a-MAClow/IEEE802154E.c **** }
 5923              		.loc 1 2280 0
 5924 296e 1037     		adds	r7, r7, #16
 5925 2970 BD46     		mov	sp, r7
 5926              		@ sp needed
 5927 2972 80BD     		pop	{r7, pc}
 5928              		.cfi_endproc
 5929              	.LFE60:
 5931              		.align	2
 5932              		.global	changeIsSync
 5933              		.thumb
 5934              		.thumb_func
 5936              	changeIsSync:
 5937              	.LFB61:
2281:build/openmote-cc2538_armgcc/openstack/02a-MAClow/IEEE802154E.c **** 
2282:build/openmote-cc2538_armgcc/openstack/02a-MAClow/IEEE802154E.c **** void changeIsSync(bool newIsSync) {
 5938              		.loc 1 2282 0
 5939              		.cfi_startproc
 5940              		@ args = 0, pretend = 0, frame = 8
 5941              		@ frame_needed = 1, uses_anonymous_args = 0
 5942 2974 80B5     		push	{r7, lr}
 5943              		.cfi_def_cfa_offset 8
 5944              		.cfi_offset 7, -8
 5945              		.cfi_offset 14, -4
 5946 2976 82B0     		sub	sp, sp, #8
 5947              		.cfi_def_cfa_offset 16
 5948 2978 00AF     		add	r7, sp, #0
 5949              		.cfi_def_cfa_register 7
 5950 297a 0346     		mov	r3, r0
 5951 297c FB71     		strb	r3, [r7, #7]
2283:build/openmote-cc2538_armgcc/openstack/02a-MAClow/IEEE802154E.c ****    ieee154e_vars.isSync = newIsSync;
 5952              		.loc 1 2283 0
 5953 297e 40F20003 		movw	r3, #:lower16:ieee154e_vars
 5954 2982 C0F20003 		movt	r3, #:upper16:ieee154e_vars
 5955 2986 FA79     		ldrb	r2, [r7, #7]
 5956 2988 1A74     		strb	r2, [r3, #16]
2284:build/openmote-cc2538_armgcc/openstack/02a-MAClow/IEEE802154E.c ****    
2285:build/openmote-cc2538_armgcc/openstack/02a-MAClow/IEEE802154E.c ****    if (ieee154e_vars.isSync==TRUE) {
 5957              		.loc 1 2285 0
 5958 298a 40F20003 		movw	r3, #:lower16:ieee154e_vars
 5959 298e C0F20003 		movt	r3, #:upper16:ieee154e_vars
 5960 2992 1B7C     		ldrb	r3, [r3, #16]	@ zero_extendqisi2
 5961 2994 002B     		cmp	r3, #0
 5962 2996 04D0     		beq	.L263
2286:build/openmote-cc2538_armgcc/openstack/02a-MAClow/IEEE802154E.c ****       leds_sync_on();
 5963              		.loc 1 2286 0
 5964 2998 FFF7FEFF 		bl	leds_sync_on
2287:build/openmote-cc2538_armgcc/openstack/02a-MAClow/IEEE802154E.c ****       resetStats();
 5965              		.loc 1 2287 0
 5966 299c FFF7FEFF 		bl	resetStats
 5967 29a0 03E0     		b	.L262
 5968              	.L263:
2288:build/openmote-cc2538_armgcc/openstack/02a-MAClow/IEEE802154E.c ****    } else {
2289:build/openmote-cc2538_armgcc/openstack/02a-MAClow/IEEE802154E.c ****       leds_sync_off();
 5969              		.loc 1 2289 0
 5970 29a2 FFF7FEFF 		bl	leds_sync_off
2290:build/openmote-cc2538_armgcc/openstack/02a-MAClow/IEEE802154E.c ****       schedule_resetBackoff();
 5971              		.loc 1 2290 0
 5972 29a6 FFF7FEFF 		bl	schedule_resetBackoff
 5973              	.L262:
2291:build/openmote-cc2538_armgcc/openstack/02a-MAClow/IEEE802154E.c ****    }
2292:build/openmote-cc2538_armgcc/openstack/02a-MAClow/IEEE802154E.c **** }
 5974              		.loc 1 2292 0
 5975 29aa 0837     		adds	r7, r7, #8
 5976 29ac BD46     		mov	sp, r7
 5977              		@ sp needed
 5978 29ae 80BD     		pop	{r7, pc}
 5979              		.cfi_endproc
 5980              	.LFE61:
 5982              		.align	2
 5983              		.global	notif_sendDone
 5984              		.thumb
 5985              		.thumb_func
 5987              	notif_sendDone:
 5988              	.LFB62:
2293:build/openmote-cc2538_armgcc/openstack/02a-MAClow/IEEE802154E.c **** 
2294:build/openmote-cc2538_armgcc/openstack/02a-MAClow/IEEE802154E.c **** //======= notifying upper layer
2295:build/openmote-cc2538_armgcc/openstack/02a-MAClow/IEEE802154E.c **** 
2296:build/openmote-cc2538_armgcc/openstack/02a-MAClow/IEEE802154E.c **** void notif_sendDone(OpenQueueEntry_t* packetSent, owerror_t error) {
 5989              		.loc 1 2296 0
 5990              		.cfi_startproc
 5991              		@ args = 0, pretend = 0, frame = 8
 5992              		@ frame_needed = 1, uses_anonymous_args = 0
 5993 29b0 80B5     		push	{r7, lr}
 5994              		.cfi_def_cfa_offset 8
 5995              		.cfi_offset 7, -8
 5996              		.cfi_offset 14, -4
 5997 29b2 82B0     		sub	sp, sp, #8
 5998              		.cfi_def_cfa_offset 16
 5999 29b4 00AF     		add	r7, sp, #0
 6000              		.cfi_def_cfa_register 7
 6001 29b6 7860     		str	r0, [r7, #4]
 6002 29b8 0B46     		mov	r3, r1
 6003 29ba FB70     		strb	r3, [r7, #3]
2297:build/openmote-cc2538_armgcc/openstack/02a-MAClow/IEEE802154E.c ****    // record the outcome of the trasmission attempt
2298:build/openmote-cc2538_armgcc/openstack/02a-MAClow/IEEE802154E.c ****    packetSent->l2_sendDoneError   = error;
 6004              		.loc 1 2298 0
 6005 29bc 7B68     		ldr	r3, [r7, #4]
 6006 29be FA78     		ldrb	r2, [r7, #3]
 6007 29c0 83F83720 		strb	r2, [r3, #55]
2299:build/openmote-cc2538_armgcc/openstack/02a-MAClow/IEEE802154E.c ****    // record the current ASN
2300:build/openmote-cc2538_armgcc/openstack/02a-MAClow/IEEE802154E.c ****    memcpy(&packetSent->l2_asn,&ieee154e_vars.asn,sizeof(asn_t));
 6008              		.loc 1 2300 0
 6009 29c4 7B68     		ldr	r3, [r7, #4]
 6010 29c6 03F14D02 		add	r2, r3, #77
 6011 29ca 40F20003 		movw	r3, #:lower16:ieee154e_vars
 6012 29ce C0F20003 		movt	r3, #:upper16:ieee154e_vars
 6013 29d2 1868     		ldr	r0, [r3]	@ unaligned
 6014 29d4 1060     		str	r0, [r2]	@ unaligned
 6015 29d6 1B79     		ldrb	r3, [r3, #4]
 6016 29d8 1371     		strb	r3, [r2, #4]
2301:build/openmote-cc2538_armgcc/openstack/02a-MAClow/IEEE802154E.c ****    // associate this packet with the virtual component
2302:build/openmote-cc2538_armgcc/openstack/02a-MAClow/IEEE802154E.c ****    // COMPONENT_IEEE802154E_TO_RES so RES can knows it's for it
2303:build/openmote-cc2538_armgcc/openstack/02a-MAClow/IEEE802154E.c ****    packetSent->owner              = COMPONENT_IEEE802154E_TO_SIXTOP;
 6017              		.loc 1 2303 0
 6018 29da 7B68     		ldr	r3, [r7, #4]
 6019 29dc 0B22     		movs	r2, #11
 6020 29de 5A70     		strb	r2, [r3, #1]
2304:build/openmote-cc2538_armgcc/openstack/02a-MAClow/IEEE802154E.c ****    // post RES's sendDone task
2305:build/openmote-cc2538_armgcc/openstack/02a-MAClow/IEEE802154E.c ****    scheduler_push_task(task_sixtopNotifSendDone,TASKPRIO_SIXTOP_NOTIF_TXDONE);
 6021              		.loc 1 2305 0
 6022 29e0 40F20000 		movw	r0, #:lower16:task_sixtopNotifSendDone
 6023 29e4 C0F20000 		movt	r0, #:upper16:task_sixtopNotifSendDone
 6024 29e8 0221     		movs	r1, #2
 6025 29ea FFF7FEFF 		bl	scheduler_push_task
2306:build/openmote-cc2538_armgcc/openstack/02a-MAClow/IEEE802154E.c ****    // wake up the scheduler
2307:build/openmote-cc2538_armgcc/openstack/02a-MAClow/IEEE802154E.c ****    SCHEDULER_WAKEUP();
2308:build/openmote-cc2538_armgcc/openstack/02a-MAClow/IEEE802154E.c **** }
 6026              		.loc 1 2308 0
 6027 29ee 0837     		adds	r7, r7, #8
 6028 29f0 BD46     		mov	sp, r7
 6029              		@ sp needed
 6030 29f2 80BD     		pop	{r7, pc}
 6031              		.cfi_endproc
 6032              	.LFE62:
 6034              		.align	2
 6035              		.global	notif_receive
 6036              		.thumb
 6037              		.thumb_func
 6039              	notif_receive:
 6040              	.LFB63:
2309:build/openmote-cc2538_armgcc/openstack/02a-MAClow/IEEE802154E.c **** 
2310:build/openmote-cc2538_armgcc/openstack/02a-MAClow/IEEE802154E.c **** void notif_receive(OpenQueueEntry_t* packetReceived) {
 6041              		.loc 1 2310 0
 6042              		.cfi_startproc
 6043              		@ args = 0, pretend = 0, frame = 8
 6044              		@ frame_needed = 1, uses_anonymous_args = 0
 6045 29f4 80B5     		push	{r7, lr}
 6046              		.cfi_def_cfa_offset 8
 6047              		.cfi_offset 7, -8
 6048              		.cfi_offset 14, -4
 6049 29f6 82B0     		sub	sp, sp, #8
 6050              		.cfi_def_cfa_offset 16
 6051 29f8 00AF     		add	r7, sp, #0
 6052              		.cfi_def_cfa_register 7
 6053 29fa 7860     		str	r0, [r7, #4]
2311:build/openmote-cc2538_armgcc/openstack/02a-MAClow/IEEE802154E.c ****    // record the current ASN
2312:build/openmote-cc2538_armgcc/openstack/02a-MAClow/IEEE802154E.c ****    memcpy(&packetReceived->l2_asn, &ieee154e_vars.asn, sizeof(asn_t));
 6054              		.loc 1 2312 0
 6055 29fc 7B68     		ldr	r3, [r7, #4]
 6056 29fe 03F14D02 		add	r2, r3, #77
 6057 2a02 40F20003 		movw	r3, #:lower16:ieee154e_vars
 6058 2a06 C0F20003 		movt	r3, #:upper16:ieee154e_vars
 6059 2a0a 1868     		ldr	r0, [r3]	@ unaligned
 6060 2a0c 1060     		str	r0, [r2]	@ unaligned
 6061 2a0e 1B79     		ldrb	r3, [r3, #4]
 6062 2a10 1371     		strb	r3, [r2, #4]
2313:build/openmote-cc2538_armgcc/openstack/02a-MAClow/IEEE802154E.c ****    // indicate reception to the schedule, to keep statistics
2314:build/openmote-cc2538_armgcc/openstack/02a-MAClow/IEEE802154E.c ****    schedule_indicateRx(&packetReceived->l2_asn);
 6063              		.loc 1 2314 0
 6064 2a12 7B68     		ldr	r3, [r7, #4]
 6065 2a14 4D33     		adds	r3, r3, #77
 6066 2a16 1846     		mov	r0, r3
 6067 2a18 FFF7FEFF 		bl	schedule_indicateRx
2315:build/openmote-cc2538_armgcc/openstack/02a-MAClow/IEEE802154E.c ****    // associate this packet with the virtual component
2316:build/openmote-cc2538_armgcc/openstack/02a-MAClow/IEEE802154E.c ****    // COMPONENT_IEEE802154E_TO_SIXTOP so sixtop can knows it's for it
2317:build/openmote-cc2538_armgcc/openstack/02a-MAClow/IEEE802154E.c ****    packetReceived->owner          = COMPONENT_IEEE802154E_TO_SIXTOP;
 6068              		.loc 1 2317 0
 6069 2a1c 7B68     		ldr	r3, [r7, #4]
 6070 2a1e 0B22     		movs	r2, #11
 6071 2a20 5A70     		strb	r2, [r3, #1]
2318:build/openmote-cc2538_armgcc/openstack/02a-MAClow/IEEE802154E.c ****    // post RES's Receive task
2319:build/openmote-cc2538_armgcc/openstack/02a-MAClow/IEEE802154E.c ****    scheduler_push_task(task_sixtopNotifReceive,TASKPRIO_SIXTOP_NOTIF_RX);
 6072              		.loc 1 2319 0
 6073 2a22 40F20000 		movw	r0, #:lower16:task_sixtopNotifReceive
 6074 2a26 C0F20000 		movt	r0, #:upper16:task_sixtopNotifReceive
 6075 2a2a 0121     		movs	r1, #1
 6076 2a2c FFF7FEFF 		bl	scheduler_push_task
2320:build/openmote-cc2538_armgcc/openstack/02a-MAClow/IEEE802154E.c ****    // wake up the scheduler
2321:build/openmote-cc2538_armgcc/openstack/02a-MAClow/IEEE802154E.c ****    SCHEDULER_WAKEUP();
2322:build/openmote-cc2538_armgcc/openstack/02a-MAClow/IEEE802154E.c **** }
 6077              		.loc 1 2322 0
 6078 2a30 0837     		adds	r7, r7, #8
 6079 2a32 BD46     		mov	sp, r7
 6080              		@ sp needed
 6081 2a34 80BD     		pop	{r7, pc}
 6082              		.cfi_endproc
 6083              	.LFE63:
 6085 2a36 00BF     		.align	2
 6086              		.global	resetStats
 6087              		.thumb
 6088              		.thumb_func
 6090              	resetStats:
 6091              	.LFB64:
2323:build/openmote-cc2538_armgcc/openstack/02a-MAClow/IEEE802154E.c **** 
2324:build/openmote-cc2538_armgcc/openstack/02a-MAClow/IEEE802154E.c **** //======= stats
2325:build/openmote-cc2538_armgcc/openstack/02a-MAClow/IEEE802154E.c **** 
2326:build/openmote-cc2538_armgcc/openstack/02a-MAClow/IEEE802154E.c **** port_INLINE void resetStats() {
 6092              		.loc 1 2326 0
 6093              		.cfi_startproc
 6094              		@ args = 0, pretend = 0, frame = 0
 6095              		@ frame_needed = 1, uses_anonymous_args = 0
 6096              		@ link register save eliminated.
 6097 2a38 80B4     		push	{r7}
 6098              		.cfi_def_cfa_offset 4
 6099              		.cfi_offset 7, -4
 6100 2a3a 00AF     		add	r7, sp, #0
 6101              		.cfi_def_cfa_register 7
2327:build/openmote-cc2538_armgcc/openstack/02a-MAClow/IEEE802154E.c ****    ieee154e_stats.numSyncPkt      =    0;
 6102              		.loc 1 2327 0
 6103 2a3c 40F20003 		movw	r3, #:lower16:ieee154e_stats
 6104 2a40 C0F20003 		movt	r3, #:upper16:ieee154e_stats
 6105 2a44 0022     		movs	r2, #0
 6106 2a46 1A70     		strb	r2, [r3]
2328:build/openmote-cc2538_armgcc/openstack/02a-MAClow/IEEE802154E.c ****    ieee154e_stats.numSyncAck      =    0;
 6107              		.loc 1 2328 0
 6108 2a48 40F20003 		movw	r3, #:lower16:ieee154e_stats
 6109 2a4c C0F20003 		movt	r3, #:upper16:ieee154e_stats
 6110 2a50 0022     		movs	r2, #0
 6111 2a52 5A70     		strb	r2, [r3, #1]
2329:build/openmote-cc2538_armgcc/openstack/02a-MAClow/IEEE802154E.c ****    ieee154e_stats.minCorrection   =  127;
 6112              		.loc 1 2329 0
 6113 2a54 40F20003 		movw	r3, #:lower16:ieee154e_stats
 6114 2a58 C0F20003 		movt	r3, #:upper16:ieee154e_stats
 6115 2a5c 7F22     		movs	r2, #127
 6116 2a5e 5A80     		strh	r2, [r3, #2]	@ movhi
2330:build/openmote-cc2538_armgcc/openstack/02a-MAClow/IEEE802154E.c ****    ieee154e_stats.maxCorrection   = -127;
 6117              		.loc 1 2330 0
 6118 2a60 40F20003 		movw	r3, #:lower16:ieee154e_stats
 6119 2a64 C0F20003 		movt	r3, #:upper16:ieee154e_stats
 6120 2a68 4FF68172 		movw	r2, #65409
 6121 2a6c 9A80     		strh	r2, [r3, #4]	@ movhi
2331:build/openmote-cc2538_armgcc/openstack/02a-MAClow/IEEE802154E.c ****    ieee154e_stats.numTicsOn       =    0;
 6122              		.loc 1 2331 0
 6123 2a6e 40F20003 		movw	r3, #:lower16:ieee154e_stats
 6124 2a72 C0F20003 		movt	r3, #:upper16:ieee154e_stats
 6125 2a76 0022     		movs	r2, #0
 6126 2a78 DA71     		strb	r2, [r3, #7]
 6127 2a7a 9A68     		ldr	r2, [r3, #8]
 6128 2a7c 02F07F42 		and	r2, r2, #-16777216
 6129 2a80 9A60     		str	r2, [r3, #8]
2332:build/openmote-cc2538_armgcc/openstack/02a-MAClow/IEEE802154E.c ****    ieee154e_stats.numTicsTotal    =    0;
 6130              		.loc 1 2332 0
 6131 2a82 40F20003 		movw	r3, #:lower16:ieee154e_stats
 6132 2a86 C0F20003 		movt	r3, #:upper16:ieee154e_stats
 6133 2a8a 0022     		movs	r2, #0
 6134 2a8c DA72     		strb	r2, [r3, #11]
 6135 2a8e DA68     		ldr	r2, [r3, #12]
 6136 2a90 02F07F42 		and	r2, r2, #-16777216
 6137 2a94 DA60     		str	r2, [r3, #12]
2333:build/openmote-cc2538_armgcc/openstack/02a-MAClow/IEEE802154E.c ****    // do not reset the number of de-synchronizations
2334:build/openmote-cc2538_armgcc/openstack/02a-MAClow/IEEE802154E.c **** }
 6138              		.loc 1 2334 0
 6139 2a96 BD46     		mov	sp, r7
 6140              		@ sp needed
 6141 2a98 5DF8047B 		ldr	r7, [sp], #4
 6142 2a9c 7047     		bx	lr
 6143              		.cfi_endproc
 6144              	.LFE64:
 6146 2a9e 00BF     		.align	2
 6147              		.global	updateStats
 6148              		.thumb
 6149              		.thumb_func
 6151              	updateStats:
 6152              	.LFB65:
2335:build/openmote-cc2538_armgcc/openstack/02a-MAClow/IEEE802154E.c **** 
2336:build/openmote-cc2538_armgcc/openstack/02a-MAClow/IEEE802154E.c **** void updateStats(PORT_SIGNED_INT_WIDTH timeCorrection) {
 6153              		.loc 1 2336 0
 6154              		.cfi_startproc
 6155              		@ args = 0, pretend = 0, frame = 8
 6156              		@ frame_needed = 1, uses_anonymous_args = 0
 6157              		@ link register save eliminated.
 6158 2aa0 80B4     		push	{r7}
 6159              		.cfi_def_cfa_offset 4
 6160              		.cfi_offset 7, -4
 6161 2aa2 83B0     		sub	sp, sp, #12
 6162              		.cfi_def_cfa_offset 16
 6163 2aa4 00AF     		add	r7, sp, #0
 6164              		.cfi_def_cfa_register 7
 6165 2aa6 7860     		str	r0, [r7, #4]
2337:build/openmote-cc2538_armgcc/openstack/02a-MAClow/IEEE802154E.c ****    // update minCorrection
2338:build/openmote-cc2538_armgcc/openstack/02a-MAClow/IEEE802154E.c ****    if (timeCorrection<ieee154e_stats.minCorrection) {
 6166              		.loc 1 2338 0
 6167 2aa8 40F20003 		movw	r3, #:lower16:ieee154e_stats
 6168 2aac C0F20003 		movt	r3, #:upper16:ieee154e_stats
 6169 2ab0 5B88     		ldrh	r3, [r3, #2]
 6170 2ab2 1AB2     		sxth	r2, r3
 6171 2ab4 7B68     		ldr	r3, [r7, #4]
 6172 2ab6 9A42     		cmp	r2, r3
 6173 2ab8 06DD     		ble	.L269
2339:build/openmote-cc2538_armgcc/openstack/02a-MAClow/IEEE802154E.c ****      ieee154e_stats.minCorrection = timeCorrection;
 6174              		.loc 1 2339 0
 6175 2aba 7B68     		ldr	r3, [r7, #4]
 6176 2abc 9AB2     		uxth	r2, r3
 6177 2abe 40F20003 		movw	r3, #:lower16:ieee154e_stats
 6178 2ac2 C0F20003 		movt	r3, #:upper16:ieee154e_stats
 6179 2ac6 5A80     		strh	r2, [r3, #2]	@ movhi
 6180              	.L269:
2340:build/openmote-cc2538_armgcc/openstack/02a-MAClow/IEEE802154E.c ****    }
2341:build/openmote-cc2538_armgcc/openstack/02a-MAClow/IEEE802154E.c ****    // update maxConnection
2342:build/openmote-cc2538_armgcc/openstack/02a-MAClow/IEEE802154E.c ****    if(timeCorrection>ieee154e_stats.maxCorrection) {
 6181              		.loc 1 2342 0
 6182 2ac8 40F20003 		movw	r3, #:lower16:ieee154e_stats
 6183 2acc C0F20003 		movt	r3, #:upper16:ieee154e_stats
 6184 2ad0 9B88     		ldrh	r3, [r3, #4]
 6185 2ad2 1AB2     		sxth	r2, r3
 6186 2ad4 7B68     		ldr	r3, [r7, #4]
 6187 2ad6 9A42     		cmp	r2, r3
 6188 2ad8 06DA     		bge	.L268
2343:build/openmote-cc2538_armgcc/openstack/02a-MAClow/IEEE802154E.c ****      ieee154e_stats.maxCorrection = timeCorrection;
 6189              		.loc 1 2343 0
 6190 2ada 7B68     		ldr	r3, [r7, #4]
 6191 2adc 9AB2     		uxth	r2, r3
 6192 2ade 40F20003 		movw	r3, #:lower16:ieee154e_stats
 6193 2ae2 C0F20003 		movt	r3, #:upper16:ieee154e_stats
 6194 2ae6 9A80     		strh	r2, [r3, #4]	@ movhi
 6195              	.L268:
2344:build/openmote-cc2538_armgcc/openstack/02a-MAClow/IEEE802154E.c ****    }
2345:build/openmote-cc2538_armgcc/openstack/02a-MAClow/IEEE802154E.c **** }
 6196              		.loc 1 2345 0
 6197 2ae8 0C37     		adds	r7, r7, #12
 6198 2aea BD46     		mov	sp, r7
 6199              		@ sp needed
 6200 2aec 5DF8047B 		ldr	r7, [sp], #4
 6201 2af0 7047     		bx	lr
 6202              		.cfi_endproc
 6203              	.LFE65:
 6205 2af2 00BF     		.align	2
 6206              		.global	calculateFrequency
 6207              		.thumb
 6208              		.thumb_func
 6210              	calculateFrequency:
 6211              	.LFB66:
2346:build/openmote-cc2538_armgcc/openstack/02a-MAClow/IEEE802154E.c **** 
2347:build/openmote-cc2538_armgcc/openstack/02a-MAClow/IEEE802154E.c **** //======= misc
2348:build/openmote-cc2538_armgcc/openstack/02a-MAClow/IEEE802154E.c **** 
2349:build/openmote-cc2538_armgcc/openstack/02a-MAClow/IEEE802154E.c **** /**
2350:build/openmote-cc2538_armgcc/openstack/02a-MAClow/IEEE802154E.c **** \brief Calculates the frequency channel to transmit on, based on the 
2351:build/openmote-cc2538_armgcc/openstack/02a-MAClow/IEEE802154E.c **** absolute slot number and the channel offset of the requested slot.
2352:build/openmote-cc2538_armgcc/openstack/02a-MAClow/IEEE802154E.c **** 
2353:build/openmote-cc2538_armgcc/openstack/02a-MAClow/IEEE802154E.c **** During normal operation, the frequency used is a function of the 
2354:build/openmote-cc2538_armgcc/openstack/02a-MAClow/IEEE802154E.c **** channelOffset indicating in the schedule, and of the ASN of the
2355:build/openmote-cc2538_armgcc/openstack/02a-MAClow/IEEE802154E.c **** slot. This ensures channel hopping, consecutive packets sent in the same slot
2356:build/openmote-cc2538_armgcc/openstack/02a-MAClow/IEEE802154E.c **** in the schedule are done on a difference frequency channel.
2357:build/openmote-cc2538_armgcc/openstack/02a-MAClow/IEEE802154E.c **** 
2358:build/openmote-cc2538_armgcc/openstack/02a-MAClow/IEEE802154E.c **** During development, you can force single channel operation by having this
2359:build/openmote-cc2538_armgcc/openstack/02a-MAClow/IEEE802154E.c **** function return a constant channel number (between 11 and 26). This allows you
2360:build/openmote-cc2538_armgcc/openstack/02a-MAClow/IEEE802154E.c **** to use a single-channel sniffer; but you can not schedule two links on two
2361:build/openmote-cc2538_armgcc/openstack/02a-MAClow/IEEE802154E.c **** different channel offsets in the same slot.
2362:build/openmote-cc2538_armgcc/openstack/02a-MAClow/IEEE802154E.c **** 
2363:build/openmote-cc2538_armgcc/openstack/02a-MAClow/IEEE802154E.c **** \param[in] channelOffset channel offset for the current slot
2364:build/openmote-cc2538_armgcc/openstack/02a-MAClow/IEEE802154E.c **** 
2365:build/openmote-cc2538_armgcc/openstack/02a-MAClow/IEEE802154E.c **** \returns The calculated frequency channel, an integer between 11 and 26.
2366:build/openmote-cc2538_armgcc/openstack/02a-MAClow/IEEE802154E.c **** */
2367:build/openmote-cc2538_armgcc/openstack/02a-MAClow/IEEE802154E.c **** port_INLINE uint8_t calculateFrequency(uint8_t channelOffset) {
 6212              		.loc 1 2367 0
 6213              		.cfi_startproc
 6214              		@ args = 0, pretend = 0, frame = 8
 6215              		@ frame_needed = 1, uses_anonymous_args = 0
 6216              		@ link register save eliminated.
 6217 2af4 80B4     		push	{r7}
 6218              		.cfi_def_cfa_offset 4
 6219              		.cfi_offset 7, -4
 6220 2af6 83B0     		sub	sp, sp, #12
 6221              		.cfi_def_cfa_offset 16
 6222 2af8 00AF     		add	r7, sp, #0
 6223              		.cfi_def_cfa_register 7
 6224 2afa 0346     		mov	r3, r0
 6225 2afc FB71     		strb	r3, [r7, #7]
2368:build/openmote-cc2538_armgcc/openstack/02a-MAClow/IEEE802154E.c ****     if (ieee154e_vars.singleChannel >= 11 && ieee154e_vars.singleChannel <= 26 ) {
 6226              		.loc 1 2368 0
 6227 2afe 40F20003 		movw	r3, #:lower16:ieee154e_vars
 6228 2b02 C0F20003 		movt	r3, #:upper16:ieee154e_vars
 6229 2b06 93F84631 		ldrb	r3, [r3, #326]	@ zero_extendqisi2
 6230 2b0a 0A2B     		cmp	r3, #10
 6231 2b0c 0ED9     		bls	.L272
 6232              		.loc 1 2368 0 is_stmt 0 discriminator 1
 6233 2b0e 40F20003 		movw	r3, #:lower16:ieee154e_vars
 6234 2b12 C0F20003 		movt	r3, #:upper16:ieee154e_vars
 6235 2b16 93F84631 		ldrb	r3, [r3, #326]	@ zero_extendqisi2
 6236 2b1a 1A2B     		cmp	r3, #26
 6237 2b1c 06D8     		bhi	.L272
2369:build/openmote-cc2538_armgcc/openstack/02a-MAClow/IEEE802154E.c ****         return ieee154e_vars.singleChannel; // single channel
 6238              		.loc 1 2369 0 is_stmt 1
 6239 2b1e 40F20003 		movw	r3, #:lower16:ieee154e_vars
 6240 2b22 C0F20003 		movt	r3, #:upper16:ieee154e_vars
 6241 2b26 93F84631 		ldrb	r3, [r3, #326]	@ zero_extendqisi2
 6242 2b2a 13E0     		b	.L273
 6243              	.L272:
2370:build/openmote-cc2538_armgcc/openstack/02a-MAClow/IEEE802154E.c ****     } else {
2371:build/openmote-cc2538_armgcc/openstack/02a-MAClow/IEEE802154E.c ****         // channel hopping enabled, use the channel depending on hopping template
2372:build/openmote-cc2538_armgcc/openstack/02a-MAClow/IEEE802154E.c ****         return 11 + ieee154e_vars.chTemplate[(ieee154e_vars.asnOffset+channelOffset)%16];
 6244              		.loc 1 2372 0
 6245 2b2c 40F20003 		movw	r3, #:lower16:ieee154e_vars
 6246 2b30 C0F20003 		movt	r3, #:upper16:ieee154e_vars
 6247 2b34 93F84531 		ldrb	r3, [r3, #325]	@ zero_extendqisi2
 6248 2b38 1A46     		mov	r2, r3
 6249 2b3a FB79     		ldrb	r3, [r7, #7]	@ zero_extendqisi2
 6250 2b3c 1344     		add	r3, r3, r2
 6251 2b3e 03F00F02 		and	r2, r3, #15
 6252 2b42 40F20003 		movw	r3, #:lower16:ieee154e_vars
 6253 2b46 C0F20003 		movt	r3, #:upper16:ieee154e_vars
 6254 2b4a 1344     		add	r3, r3, r2
 6255 2b4c 93F84831 		ldrb	r3, [r3, #328]	@ zero_extendqisi2
 6256 2b50 0B33     		adds	r3, r3, #11
 6257 2b52 DBB2     		uxtb	r3, r3
 6258              	.L273:
2373:build/openmote-cc2538_armgcc/openstack/02a-MAClow/IEEE802154E.c ****     }
2374:build/openmote-cc2538_armgcc/openstack/02a-MAClow/IEEE802154E.c ****     //return 11+(ieee154e_vars.asnOffset+channelOffset)%16; //channel hopping
2375:build/openmote-cc2538_armgcc/openstack/02a-MAClow/IEEE802154E.c **** }
 6259              		.loc 1 2375 0
 6260 2b54 1846     		mov	r0, r3
 6261 2b56 0C37     		adds	r7, r7, #12
 6262 2b58 BD46     		mov	sp, r7
 6263              		@ sp needed
 6264 2b5a 5DF8047B 		ldr	r7, [sp], #4
 6265 2b5e 7047     		bx	lr
 6266              		.cfi_endproc
 6267              	.LFE66:
 6269              		.align	2
 6270              		.global	changeState
 6271              		.thumb
 6272              		.thumb_func
 6274              	changeState:
 6275              	.LFB67:
2376:build/openmote-cc2538_armgcc/openstack/02a-MAClow/IEEE802154E.c **** 
2377:build/openmote-cc2538_armgcc/openstack/02a-MAClow/IEEE802154E.c **** /**
2378:build/openmote-cc2538_armgcc/openstack/02a-MAClow/IEEE802154E.c **** \brief Changes the state of the IEEE802.15.4e FSM.
2379:build/openmote-cc2538_armgcc/openstack/02a-MAClow/IEEE802154E.c **** 
2380:build/openmote-cc2538_armgcc/openstack/02a-MAClow/IEEE802154E.c **** Besides simply updating the state global variable,
2381:build/openmote-cc2538_armgcc/openstack/02a-MAClow/IEEE802154E.c **** this function toggles the FSM debug pin.
2382:build/openmote-cc2538_armgcc/openstack/02a-MAClow/IEEE802154E.c **** 
2383:build/openmote-cc2538_armgcc/openstack/02a-MAClow/IEEE802154E.c **** \param[in] newstate The state the IEEE802.15.4e FSM is now in.
2384:build/openmote-cc2538_armgcc/openstack/02a-MAClow/IEEE802154E.c **** */
2385:build/openmote-cc2538_armgcc/openstack/02a-MAClow/IEEE802154E.c **** void changeState(ieee154e_state_t newstate) {
 6276              		.loc 1 2385 0
 6277              		.cfi_startproc
 6278              		@ args = 0, pretend = 0, frame = 8
 6279              		@ frame_needed = 1, uses_anonymous_args = 0
 6280 2b60 80B5     		push	{r7, lr}
 6281              		.cfi_def_cfa_offset 8
 6282              		.cfi_offset 7, -8
 6283              		.cfi_offset 14, -4
 6284 2b62 82B0     		sub	sp, sp, #8
 6285              		.cfi_def_cfa_offset 16
 6286 2b64 00AF     		add	r7, sp, #0
 6287              		.cfi_def_cfa_register 7
 6288 2b66 0346     		mov	r3, r0
 6289 2b68 FB71     		strb	r3, [r7, #7]
2386:build/openmote-cc2538_armgcc/openstack/02a-MAClow/IEEE802154E.c ****    // update the state
2387:build/openmote-cc2538_armgcc/openstack/02a-MAClow/IEEE802154E.c ****    ieee154e_vars.state = newstate;
 6290              		.loc 1 2387 0
 6291 2b6a 40F20003 		movw	r3, #:lower16:ieee154e_vars
 6292 2b6e C0F20003 		movt	r3, #:upper16:ieee154e_vars
 6293 2b72 FA79     		ldrb	r2, [r7, #7]
 6294 2b74 83F82821 		strb	r2, [r3, #296]
2388:build/openmote-cc2538_armgcc/openstack/02a-MAClow/IEEE802154E.c ****    // wiggle the FSM debug pin
2389:build/openmote-cc2538_armgcc/openstack/02a-MAClow/IEEE802154E.c ****    switch (ieee154e_vars.state) {
 6295              		.loc 1 2389 0
 6296 2b78 40F20003 		movw	r3, #:lower16:ieee154e_vars
 6297 2b7c C0F20003 		movt	r3, #:upper16:ieee154e_vars
 6298 2b80 93F82831 		ldrb	r3, [r3, #296]	@ zero_extendqisi2
 6299 2b84 192B     		cmp	r3, #25
 6300 2b86 40D8     		bhi	.L274
 6301 2b88 01A2     		adr	r2, .L277
 6302 2b8a 52F823F0 		ldr	pc, [r2, r3, lsl #2]
 6303 2b8e 00BF     		.p2align 2
 6304              	.L277:
 6305 2b90 FF2B0000 		.word	.L276+1
 6306 2b94 F92B0000 		.word	.L278+1
 6307 2b98 052C0000 		.word	.L279+1
 6308 2b9c 052C0000 		.word	.L279+1
 6309 2ba0 F92B0000 		.word	.L278+1
 6310 2ba4 052C0000 		.word	.L279+1
 6311 2ba8 052C0000 		.word	.L279+1
 6312 2bac 052C0000 		.word	.L279+1
 6313 2bb0 052C0000 		.word	.L279+1
 6314 2bb4 052C0000 		.word	.L279+1
 6315 2bb8 052C0000 		.word	.L279+1
 6316 2bbc 052C0000 		.word	.L279+1
 6317 2bc0 052C0000 		.word	.L279+1
 6318 2bc4 052C0000 		.word	.L279+1
 6319 2bc8 052C0000 		.word	.L279+1
 6320 2bcc FF2B0000 		.word	.L276+1
 6321 2bd0 052C0000 		.word	.L279+1
 6322 2bd4 052C0000 		.word	.L279+1
 6323 2bd8 052C0000 		.word	.L279+1
 6324 2bdc 052C0000 		.word	.L279+1
 6325 2be0 052C0000 		.word	.L279+1
 6326 2be4 052C0000 		.word	.L279+1
 6327 2be8 052C0000 		.word	.L279+1
 6328 2bec 052C0000 		.word	.L279+1
 6329 2bf0 052C0000 		.word	.L279+1
 6330 2bf4 052C0000 		.word	.L279+1
 6331              	.L278:
2390:build/openmote-cc2538_armgcc/openstack/02a-MAClow/IEEE802154E.c ****       case S_SYNCLISTEN:
2391:build/openmote-cc2538_armgcc/openstack/02a-MAClow/IEEE802154E.c ****       case S_TXDATAOFFSET:
2392:build/openmote-cc2538_armgcc/openstack/02a-MAClow/IEEE802154E.c ****          debugpins_fsm_set();
 6332              		.loc 1 2392 0
 6333 2bf8 FFF7FEFF 		bl	debugpins_fsm_set
2393:build/openmote-cc2538_armgcc/openstack/02a-MAClow/IEEE802154E.c ****          break;
 6334              		.loc 1 2393 0
 6335 2bfc 05E0     		b	.L274
 6336              	.L276:
2394:build/openmote-cc2538_armgcc/openstack/02a-MAClow/IEEE802154E.c ****       case S_SLEEP:
2395:build/openmote-cc2538_armgcc/openstack/02a-MAClow/IEEE802154E.c ****       case S_RXDATAOFFSET:
2396:build/openmote-cc2538_armgcc/openstack/02a-MAClow/IEEE802154E.c ****          debugpins_fsm_clr();
 6337              		.loc 1 2396 0
 6338 2bfe FFF7FEFF 		bl	debugpins_fsm_clr
2397:build/openmote-cc2538_armgcc/openstack/02a-MAClow/IEEE802154E.c ****          break;
 6339              		.loc 1 2397 0
 6340 2c02 02E0     		b	.L274
 6341              	.L279:
2398:build/openmote-cc2538_armgcc/openstack/02a-MAClow/IEEE802154E.c ****       case S_SYNCRX:
2399:build/openmote-cc2538_armgcc/openstack/02a-MAClow/IEEE802154E.c ****       case S_SYNCPROC:
2400:build/openmote-cc2538_armgcc/openstack/02a-MAClow/IEEE802154E.c ****       case S_TXDATAPREPARE:
2401:build/openmote-cc2538_armgcc/openstack/02a-MAClow/IEEE802154E.c ****       case S_TXDATAREADY:
2402:build/openmote-cc2538_armgcc/openstack/02a-MAClow/IEEE802154E.c ****       case S_TXDATADELAY:
2403:build/openmote-cc2538_armgcc/openstack/02a-MAClow/IEEE802154E.c ****       case S_TXDATA:
2404:build/openmote-cc2538_armgcc/openstack/02a-MAClow/IEEE802154E.c ****       case S_RXACKOFFSET:
2405:build/openmote-cc2538_armgcc/openstack/02a-MAClow/IEEE802154E.c ****       case S_RXACKPREPARE:
2406:build/openmote-cc2538_armgcc/openstack/02a-MAClow/IEEE802154E.c ****       case S_RXACKREADY:
2407:build/openmote-cc2538_armgcc/openstack/02a-MAClow/IEEE802154E.c ****       case S_RXACKLISTEN:
2408:build/openmote-cc2538_armgcc/openstack/02a-MAClow/IEEE802154E.c ****       case S_RXACK:
2409:build/openmote-cc2538_armgcc/openstack/02a-MAClow/IEEE802154E.c ****       case S_TXPROC:
2410:build/openmote-cc2538_armgcc/openstack/02a-MAClow/IEEE802154E.c ****       case S_RXDATAPREPARE:
2411:build/openmote-cc2538_armgcc/openstack/02a-MAClow/IEEE802154E.c ****       case S_RXDATAREADY:
2412:build/openmote-cc2538_armgcc/openstack/02a-MAClow/IEEE802154E.c ****       case S_RXDATALISTEN:
2413:build/openmote-cc2538_armgcc/openstack/02a-MAClow/IEEE802154E.c ****       case S_RXDATA:
2414:build/openmote-cc2538_armgcc/openstack/02a-MAClow/IEEE802154E.c ****       case S_TXACKOFFSET:
2415:build/openmote-cc2538_armgcc/openstack/02a-MAClow/IEEE802154E.c ****       case S_TXACKPREPARE:
2416:build/openmote-cc2538_armgcc/openstack/02a-MAClow/IEEE802154E.c ****       case S_TXACKREADY:
2417:build/openmote-cc2538_armgcc/openstack/02a-MAClow/IEEE802154E.c ****       case S_TXACKDELAY:
2418:build/openmote-cc2538_armgcc/openstack/02a-MAClow/IEEE802154E.c ****       case S_TXACK:
2419:build/openmote-cc2538_armgcc/openstack/02a-MAClow/IEEE802154E.c ****       case S_RXPROC:
2420:build/openmote-cc2538_armgcc/openstack/02a-MAClow/IEEE802154E.c ****          debugpins_fsm_toggle();
 6342              		.loc 1 2420 0
 6343 2c04 FFF7FEFF 		bl	debugpins_fsm_toggle
2421:build/openmote-cc2538_armgcc/openstack/02a-MAClow/IEEE802154E.c ****          break;
 6344              		.loc 1 2421 0
 6345 2c08 00BF     		nop
 6346              	.L274:
2422:build/openmote-cc2538_armgcc/openstack/02a-MAClow/IEEE802154E.c ****    }
2423:build/openmote-cc2538_armgcc/openstack/02a-MAClow/IEEE802154E.c **** }
 6347              		.loc 1 2423 0
 6348 2c0a 0837     		adds	r7, r7, #8
 6349 2c0c BD46     		mov	sp, r7
 6350              		@ sp needed
 6351 2c0e 80BD     		pop	{r7, pc}
 6352              		.cfi_endproc
 6353              	.LFE67:
 6355              		.align	2
 6356              		.global	endSlot
 6357              		.thumb
 6358              		.thumb_func
 6360              	endSlot:
 6361              	.LFB68:
2424:build/openmote-cc2538_armgcc/openstack/02a-MAClow/IEEE802154E.c **** 
2425:build/openmote-cc2538_armgcc/openstack/02a-MAClow/IEEE802154E.c **** /**
2426:build/openmote-cc2538_armgcc/openstack/02a-MAClow/IEEE802154E.c **** \brief Housekeeping tasks to do at the end of each slot.
2427:build/openmote-cc2538_armgcc/openstack/02a-MAClow/IEEE802154E.c **** 
2428:build/openmote-cc2538_armgcc/openstack/02a-MAClow/IEEE802154E.c **** This functions is called once in each slot, when there is nothing more
2429:build/openmote-cc2538_armgcc/openstack/02a-MAClow/IEEE802154E.c **** to do. This might be when an error occured, or when everything went well.
2430:build/openmote-cc2538_armgcc/openstack/02a-MAClow/IEEE802154E.c **** This function resets the state of the FSM so it is ready for the next slot.
2431:build/openmote-cc2538_armgcc/openstack/02a-MAClow/IEEE802154E.c **** 
2432:build/openmote-cc2538_armgcc/openstack/02a-MAClow/IEEE802154E.c **** Note that by the time this function is called, any received packet should already
2433:build/openmote-cc2538_armgcc/openstack/02a-MAClow/IEEE802154E.c **** have been sent to the upper layer. Similarly, in a Tx slot, the sendDone
2434:build/openmote-cc2538_armgcc/openstack/02a-MAClow/IEEE802154E.c **** function should already have been done. If this is not the case, this function
2435:build/openmote-cc2538_armgcc/openstack/02a-MAClow/IEEE802154E.c **** will do that for you, but assume that something went wrong.
2436:build/openmote-cc2538_armgcc/openstack/02a-MAClow/IEEE802154E.c **** */
2437:build/openmote-cc2538_armgcc/openstack/02a-MAClow/IEEE802154E.c **** void endSlot() {
 6362              		.loc 1 2437 0
 6363              		.cfi_startproc
 6364              		@ args = 0, pretend = 0, frame = 0
 6365              		@ frame_needed = 1, uses_anonymous_args = 0
 6366 2c10 98B5     		push	{r3, r4, r7, lr}
 6367              		.cfi_def_cfa_offset 16
 6368              		.cfi_offset 3, -16
 6369              		.cfi_offset 4, -12
 6370              		.cfi_offset 7, -8
 6371              		.cfi_offset 14, -4
 6372 2c12 00AF     		add	r7, sp, #0
 6373              		.cfi_def_cfa_register 7
2438:build/openmote-cc2538_armgcc/openstack/02a-MAClow/IEEE802154E.c ****    // turn off the radio
2439:build/openmote-cc2538_armgcc/openstack/02a-MAClow/IEEE802154E.c ****    radio_rfOff();
 6374              		.loc 1 2439 0
 6375 2c14 FFF7FEFF 		bl	radio_rfOff
2440:build/openmote-cc2538_armgcc/openstack/02a-MAClow/IEEE802154E.c ****    
2441:build/openmote-cc2538_armgcc/openstack/02a-MAClow/IEEE802154E.c ****    // compute the duty cycle if radio has been turned on
2442:build/openmote-cc2538_armgcc/openstack/02a-MAClow/IEEE802154E.c ****    if (ieee154e_vars.radioOnThisSlot==TRUE){  
 6376              		.loc 1 2442 0
 6377 2c18 40F20003 		movw	r3, #:lower16:ieee154e_vars
 6378 2c1c C0F20003 		movt	r3, #:upper16:ieee154e_vars
 6379 2c20 93F86431 		ldrb	r3, [r3, #356]	@ zero_extendqisi2
 6380 2c24 002B     		cmp	r3, #0
 6381 2c26 16D0     		beq	.L281
2443:build/openmote-cc2538_armgcc/openstack/02a-MAClow/IEEE802154E.c ****       ieee154e_vars.radioOnTics+=(radio_getTimerValue()-ieee154e_vars.radioOnInit);
 6382              		.loc 1 2443 0
 6383 2c28 40F20003 		movw	r3, #:lower16:ieee154e_vars
 6384 2c2c C0F20003 		movt	r3, #:upper16:ieee154e_vars
 6385 2c30 D3F86041 		ldr	r4, [r3, #352]
 6386 2c34 FFF7FEFF 		bl	radio_getTimerValue
 6387 2c38 0246     		mov	r2, r0
 6388 2c3a 40F20003 		movw	r3, #:lower16:ieee154e_vars
 6389 2c3e C0F20003 		movt	r3, #:upper16:ieee154e_vars
 6390 2c42 D3F85C31 		ldr	r3, [r3, #348]
 6391 2c46 D31A     		subs	r3, r2, r3
 6392 2c48 E218     		adds	r2, r4, r3
 6393 2c4a 40F20003 		movw	r3, #:lower16:ieee154e_vars
 6394 2c4e C0F20003 		movt	r3, #:upper16:ieee154e_vars
 6395 2c52 C3F86021 		str	r2, [r3, #352]
 6396              	.L281:
2444:build/openmote-cc2538_armgcc/openstack/02a-MAClow/IEEE802154E.c ****    }
2445:build/openmote-cc2538_armgcc/openstack/02a-MAClow/IEEE802154E.c **** #ifdef SLOT_FSM_IMPLEMENTATION_MULTIPLE_TIMER_INTERRUPT
2446:build/openmote-cc2538_armgcc/openstack/02a-MAClow/IEEE802154E.c ****    radiotimer_cancel(ACTION_ALL_RADIOTIMER_INTERRUPT);
2447:build/openmote-cc2538_armgcc/openstack/02a-MAClow/IEEE802154E.c **** #else
2448:build/openmote-cc2538_armgcc/openstack/02a-MAClow/IEEE802154E.c ****    // clear any pending timer
2449:build/openmote-cc2538_armgcc/openstack/02a-MAClow/IEEE802154E.c ****    radiotimer_cancel();
 6397              		.loc 1 2449 0
 6398 2c56 FFF7FEFF 		bl	radiotimer_cancel
2450:build/openmote-cc2538_armgcc/openstack/02a-MAClow/IEEE802154E.c **** #endif
2451:build/openmote-cc2538_armgcc/openstack/02a-MAClow/IEEE802154E.c ****    // reset capturedTimes
2452:build/openmote-cc2538_armgcc/openstack/02a-MAClow/IEEE802154E.c ****    ieee154e_vars.lastCapturedTime = 0;
 6399              		.loc 1 2452 0
 6400 2c5a 40F20003 		movw	r3, #:lower16:ieee154e_vars
 6401 2c5e C0F20003 		movt	r3, #:upper16:ieee154e_vars
 6402 2c62 0022     		movs	r2, #0
 6403 2c64 C3F83C21 		str	r2, [r3, #316]
2453:build/openmote-cc2538_armgcc/openstack/02a-MAClow/IEEE802154E.c ****    ieee154e_vars.syncCapturedTime = 0;
 6404              		.loc 1 2453 0
 6405 2c68 40F20003 		movw	r3, #:lower16:ieee154e_vars
 6406 2c6c C0F20003 		movt	r3, #:upper16:ieee154e_vars
 6407 2c70 0022     		movs	r2, #0
 6408 2c72 C3F84021 		str	r2, [r3, #320]
2454:build/openmote-cc2538_armgcc/openstack/02a-MAClow/IEEE802154E.c ****    
2455:build/openmote-cc2538_armgcc/openstack/02a-MAClow/IEEE802154E.c ****    //computing duty cycle.
2456:build/openmote-cc2538_armgcc/openstack/02a-MAClow/IEEE802154E.c ****    ieee154e_stats.numTicsOn+=ieee154e_vars.radioOnTics;//accumulate and tics the radio is on for th
 6409              		.loc 1 2456 0
 6410 2c76 40F20003 		movw	r3, #:lower16:ieee154e_stats
 6411 2c7a C0F20003 		movt	r3, #:upper16:ieee154e_stats
 6412 2c7e D3F80720 		ldr	r2, [r3, #7]	@ unaligned
 6413 2c82 40F20003 		movw	r3, #:lower16:ieee154e_vars
 6414 2c86 C0F20003 		movt	r3, #:upper16:ieee154e_vars
 6415 2c8a D3F86031 		ldr	r3, [r3, #352]
 6416 2c8e 1A44     		add	r2, r2, r3
 6417 2c90 40F20003 		movw	r3, #:lower16:ieee154e_stats
 6418 2c94 C0F20003 		movt	r3, #:upper16:ieee154e_stats
 6419 2c98 C3F80720 		str	r2, [r3, #7]	@ unaligned
2457:build/openmote-cc2538_armgcc/openstack/02a-MAClow/IEEE802154E.c ****    ieee154e_stats.numTicsTotal+=radio_getTimerPeriod();//increment total tics by timer period.
 6420              		.loc 1 2457 0
 6421 2c9c 40F20003 		movw	r3, #:lower16:ieee154e_stats
 6422 2ca0 C0F20003 		movt	r3, #:upper16:ieee154e_stats
 6423 2ca4 D3F80B40 		ldr	r4, [r3, #11]	@ unaligned
 6424 2ca8 FFF7FEFF 		bl	radio_getTimerPeriod
 6425 2cac 0346     		mov	r3, r0
 6426 2cae E218     		adds	r2, r4, r3
 6427 2cb0 40F20003 		movw	r3, #:lower16:ieee154e_stats
 6428 2cb4 C0F20003 		movt	r3, #:upper16:ieee154e_stats
 6429 2cb8 C3F80B20 		str	r2, [r3, #11]	@ unaligned
2458:build/openmote-cc2538_armgcc/openstack/02a-MAClow/IEEE802154E.c **** 
2459:build/openmote-cc2538_armgcc/openstack/02a-MAClow/IEEE802154E.c ****    if (ieee154e_stats.numTicsTotal>DUTY_CYCLE_WINDOW_LIMIT){
 6430              		.loc 1 2459 0
 6431 2cbc 40F20003 		movw	r3, #:lower16:ieee154e_stats
 6432 2cc0 C0F20003 		movt	r3, #:upper16:ieee154e_stats
 6433 2cc4 D3F80B30 		ldr	r3, [r3, #11]	@ unaligned
 6434 2cc8 002B     		cmp	r3, #0
 6435 2cca 19DA     		bge	.L282
2460:build/openmote-cc2538_armgcc/openstack/02a-MAClow/IEEE802154E.c ****       ieee154e_stats.numTicsTotal = ieee154e_stats.numTicsTotal>>1;
 6436              		.loc 1 2460 0
 6437 2ccc 40F20003 		movw	r3, #:lower16:ieee154e_stats
 6438 2cd0 C0F20003 		movt	r3, #:upper16:ieee154e_stats
 6439 2cd4 D3F80B30 		ldr	r3, [r3, #11]	@ unaligned
 6440 2cd8 5A08     		lsrs	r2, r3, #1
 6441 2cda 40F20003 		movw	r3, #:lower16:ieee154e_stats
 6442 2cde C0F20003 		movt	r3, #:upper16:ieee154e_stats
 6443 2ce2 C3F80B20 		str	r2, [r3, #11]	@ unaligned
2461:build/openmote-cc2538_armgcc/openstack/02a-MAClow/IEEE802154E.c ****       ieee154e_stats.numTicsOn    = ieee154e_stats.numTicsOn>>1;
 6444              		.loc 1 2461 0
 6445 2ce6 40F20003 		movw	r3, #:lower16:ieee154e_stats
 6446 2cea C0F20003 		movt	r3, #:upper16:ieee154e_stats
 6447 2cee D3F80730 		ldr	r3, [r3, #7]	@ unaligned
 6448 2cf2 5A08     		lsrs	r2, r3, #1
 6449 2cf4 40F20003 		movw	r3, #:lower16:ieee154e_stats
 6450 2cf8 C0F20003 		movt	r3, #:upper16:ieee154e_stats
 6451 2cfc C3F80720 		str	r2, [r3, #7]	@ unaligned
 6452              	.L282:
2462:build/openmote-cc2538_armgcc/openstack/02a-MAClow/IEEE802154E.c ****    }
2463:build/openmote-cc2538_armgcc/openstack/02a-MAClow/IEEE802154E.c **** 
2464:build/openmote-cc2538_armgcc/openstack/02a-MAClow/IEEE802154E.c ****    //clear vars for duty cycle on this slot   
2465:build/openmote-cc2538_armgcc/openstack/02a-MAClow/IEEE802154E.c ****    ieee154e_vars.radioOnTics=0;
 6453              		.loc 1 2465 0
 6454 2d00 40F20003 		movw	r3, #:lower16:ieee154e_vars
 6455 2d04 C0F20003 		movt	r3, #:upper16:ieee154e_vars
 6456 2d08 0022     		movs	r2, #0
 6457 2d0a C3F86021 		str	r2, [r3, #352]
2466:build/openmote-cc2538_armgcc/openstack/02a-MAClow/IEEE802154E.c ****    ieee154e_vars.radioOnThisSlot=FALSE;
 6458              		.loc 1 2466 0
 6459 2d0e 40F20003 		movw	r3, #:lower16:ieee154e_vars
 6460 2d12 C0F20003 		movt	r3, #:upper16:ieee154e_vars
 6461 2d16 0022     		movs	r2, #0
 6462 2d18 83F86421 		strb	r2, [r3, #356]
2467:build/openmote-cc2538_armgcc/openstack/02a-MAClow/IEEE802154E.c ****    
2468:build/openmote-cc2538_armgcc/openstack/02a-MAClow/IEEE802154E.c ****    // clean up dataToSend
2469:build/openmote-cc2538_armgcc/openstack/02a-MAClow/IEEE802154E.c ****    if (ieee154e_vars.dataToSend!=NULL) {
 6463              		.loc 1 2469 0
 6464 2d1c 40F20003 		movw	r3, #:lower16:ieee154e_vars
 6465 2d20 C0F20003 		movt	r3, #:upper16:ieee154e_vars
 6466 2d24 D3F82C31 		ldr	r3, [r3, #300]
 6467 2d28 002B     		cmp	r3, #0
 6468 2d2a 36D0     		beq	.L283
2470:build/openmote-cc2538_armgcc/openstack/02a-MAClow/IEEE802154E.c ****       // if everything went well, dataToSend was set to NULL in ti9
2471:build/openmote-cc2538_armgcc/openstack/02a-MAClow/IEEE802154E.c ****       // getting here means transmit failed
2472:build/openmote-cc2538_armgcc/openstack/02a-MAClow/IEEE802154E.c ****       
2473:build/openmote-cc2538_armgcc/openstack/02a-MAClow/IEEE802154E.c ****       // indicate Tx fail to schedule to update stats
2474:build/openmote-cc2538_armgcc/openstack/02a-MAClow/IEEE802154E.c ****       schedule_indicateTx(&ieee154e_vars.asn,FALSE);
 6469              		.loc 1 2474 0
 6470 2d2c 40F20000 		movw	r0, #:lower16:ieee154e_vars
 6471 2d30 C0F20000 		movt	r0, #:upper16:ieee154e_vars
 6472 2d34 0021     		movs	r1, #0
 6473 2d36 FFF7FEFF 		bl	schedule_indicateTx
2475:build/openmote-cc2538_armgcc/openstack/02a-MAClow/IEEE802154E.c ****       
2476:build/openmote-cc2538_armgcc/openstack/02a-MAClow/IEEE802154E.c ****       //decrement transmits left counter
2477:build/openmote-cc2538_armgcc/openstack/02a-MAClow/IEEE802154E.c ****       ieee154e_vars.dataToSend->l2_retriesLeft--;
 6474              		.loc 1 2477 0
 6475 2d3a 40F20003 		movw	r3, #:lower16:ieee154e_vars
 6476 2d3e C0F20003 		movt	r3, #:upper16:ieee154e_vars
 6477 2d42 D3F82C31 		ldr	r3, [r3, #300]
 6478 2d46 93F84B20 		ldrb	r2, [r3, #75]	@ zero_extendqisi2
 6479 2d4a 013A     		subs	r2, r2, #1
 6480 2d4c D2B2     		uxtb	r2, r2
 6481 2d4e 83F84B20 		strb	r2, [r3, #75]
2478:build/openmote-cc2538_armgcc/openstack/02a-MAClow/IEEE802154E.c ****       
2479:build/openmote-cc2538_armgcc/openstack/02a-MAClow/IEEE802154E.c ****       if (ieee154e_vars.dataToSend->l2_retriesLeft==0) {
 6482              		.loc 1 2479 0
 6483 2d52 40F20003 		movw	r3, #:lower16:ieee154e_vars
 6484 2d56 C0F20003 		movt	r3, #:upper16:ieee154e_vars
 6485 2d5a D3F82C31 		ldr	r3, [r3, #300]
 6486 2d5e 93F84B30 		ldrb	r3, [r3, #75]	@ zero_extendqisi2
 6487 2d62 002B     		cmp	r3, #0
 6488 2d64 0AD1     		bne	.L284
2480:build/openmote-cc2538_armgcc/openstack/02a-MAClow/IEEE802154E.c ****          // indicate tx fail if no more retries left
2481:build/openmote-cc2538_armgcc/openstack/02a-MAClow/IEEE802154E.c ****          notif_sendDone(ieee154e_vars.dataToSend,E_FAIL);
 6489              		.loc 1 2481 0
 6490 2d66 40F20003 		movw	r3, #:lower16:ieee154e_vars
 6491 2d6a C0F20003 		movt	r3, #:upper16:ieee154e_vars
 6492 2d6e D3F82C31 		ldr	r3, [r3, #300]
 6493 2d72 1846     		mov	r0, r3
 6494 2d74 0121     		movs	r1, #1
 6495 2d76 FFF7FEFF 		bl	notif_sendDone
 6496 2d7a 07E0     		b	.L285
 6497              	.L284:
2482:build/openmote-cc2538_armgcc/openstack/02a-MAClow/IEEE802154E.c ****       } else {
2483:build/openmote-cc2538_armgcc/openstack/02a-MAClow/IEEE802154E.c ****          // return packet to the virtual COMPONENT_SIXTOP_TO_IEEE802154E component
2484:build/openmote-cc2538_armgcc/openstack/02a-MAClow/IEEE802154E.c ****          ieee154e_vars.dataToSend->owner = COMPONENT_SIXTOP_TO_IEEE802154E;
 6498              		.loc 1 2484 0
 6499 2d7c 40F20003 		movw	r3, #:lower16:ieee154e_vars
 6500 2d80 C0F20003 		movt	r3, #:upper16:ieee154e_vars
 6501 2d84 D3F82C31 		ldr	r3, [r3, #300]
 6502 2d88 0A22     		movs	r2, #10
 6503 2d8a 5A70     		strb	r2, [r3, #1]
 6504              	.L285:
2485:build/openmote-cc2538_armgcc/openstack/02a-MAClow/IEEE802154E.c ****       }
2486:build/openmote-cc2538_armgcc/openstack/02a-MAClow/IEEE802154E.c ****       
2487:build/openmote-cc2538_armgcc/openstack/02a-MAClow/IEEE802154E.c ****       // reset local variable
2488:build/openmote-cc2538_armgcc/openstack/02a-MAClow/IEEE802154E.c ****       ieee154e_vars.dataToSend = NULL;
 6505              		.loc 1 2488 0
 6506 2d8c 40F20003 		movw	r3, #:lower16:ieee154e_vars
 6507 2d90 C0F20003 		movt	r3, #:upper16:ieee154e_vars
 6508 2d94 0022     		movs	r2, #0
 6509 2d96 C3F82C21 		str	r2, [r3, #300]
 6510              	.L283:
2489:build/openmote-cc2538_armgcc/openstack/02a-MAClow/IEEE802154E.c ****    }
2490:build/openmote-cc2538_armgcc/openstack/02a-MAClow/IEEE802154E.c ****    
2491:build/openmote-cc2538_armgcc/openstack/02a-MAClow/IEEE802154E.c ****    // clean up dataReceived
2492:build/openmote-cc2538_armgcc/openstack/02a-MAClow/IEEE802154E.c ****    if (ieee154e_vars.dataReceived!=NULL) {
 6511              		.loc 1 2492 0
 6512 2d9a 40F20003 		movw	r3, #:lower16:ieee154e_vars
 6513 2d9e C0F20003 		movt	r3, #:upper16:ieee154e_vars
 6514 2da2 D3F83031 		ldr	r3, [r3, #304]
 6515 2da6 002B     		cmp	r3, #0
 6516 2da8 0FD0     		beq	.L286
2493:build/openmote-cc2538_armgcc/openstack/02a-MAClow/IEEE802154E.c ****       // assume something went wrong. If everything went well, dataReceived
2494:build/openmote-cc2538_armgcc/openstack/02a-MAClow/IEEE802154E.c ****       // would have been set to NULL in ri9.
2495:build/openmote-cc2538_armgcc/openstack/02a-MAClow/IEEE802154E.c ****       // indicate  "received packet" to upper layer since we don't want to loose packets
2496:build/openmote-cc2538_armgcc/openstack/02a-MAClow/IEEE802154E.c ****       notif_receive(ieee154e_vars.dataReceived);
 6517              		.loc 1 2496 0
 6518 2daa 40F20003 		movw	r3, #:lower16:ieee154e_vars
 6519 2dae C0F20003 		movt	r3, #:upper16:ieee154e_vars
 6520 2db2 D3F83031 		ldr	r3, [r3, #304]
 6521 2db6 1846     		mov	r0, r3
 6522 2db8 FFF7FEFF 		bl	notif_receive
2497:build/openmote-cc2538_armgcc/openstack/02a-MAClow/IEEE802154E.c ****       // reset local variable
2498:build/openmote-cc2538_armgcc/openstack/02a-MAClow/IEEE802154E.c ****       ieee154e_vars.dataReceived = NULL;
 6523              		.loc 1 2498 0
 6524 2dbc 40F20003 		movw	r3, #:lower16:ieee154e_vars
 6525 2dc0 C0F20003 		movt	r3, #:upper16:ieee154e_vars
 6526 2dc4 0022     		movs	r2, #0
 6527 2dc6 C3F83021 		str	r2, [r3, #304]
 6528              	.L286:
2499:build/openmote-cc2538_armgcc/openstack/02a-MAClow/IEEE802154E.c ****    }
2500:build/openmote-cc2538_armgcc/openstack/02a-MAClow/IEEE802154E.c ****    
2501:build/openmote-cc2538_armgcc/openstack/02a-MAClow/IEEE802154E.c ****    // clean up ackToSend
2502:build/openmote-cc2538_armgcc/openstack/02a-MAClow/IEEE802154E.c ****    if (ieee154e_vars.ackToSend!=NULL) {
 6529              		.loc 1 2502 0
 6530 2dca 40F20003 		movw	r3, #:lower16:ieee154e_vars
 6531 2dce C0F20003 		movt	r3, #:upper16:ieee154e_vars
 6532 2dd2 D3F83431 		ldr	r3, [r3, #308]
 6533 2dd6 002B     		cmp	r3, #0
 6534 2dd8 0FD0     		beq	.L287
2503:build/openmote-cc2538_armgcc/openstack/02a-MAClow/IEEE802154E.c ****       // free ackToSend so corresponding RAM memory can be recycled
2504:build/openmote-cc2538_armgcc/openstack/02a-MAClow/IEEE802154E.c ****       openqueue_freePacketBuffer(ieee154e_vars.ackToSend);
 6535              		.loc 1 2504 0
 6536 2dda 40F20003 		movw	r3, #:lower16:ieee154e_vars
 6537 2dde C0F20003 		movt	r3, #:upper16:ieee154e_vars
 6538 2de2 D3F83431 		ldr	r3, [r3, #308]
 6539 2de6 1846     		mov	r0, r3
 6540 2de8 FFF7FEFF 		bl	openqueue_freePacketBuffer
2505:build/openmote-cc2538_armgcc/openstack/02a-MAClow/IEEE802154E.c ****       // reset local variable
2506:build/openmote-cc2538_armgcc/openstack/02a-MAClow/IEEE802154E.c ****       ieee154e_vars.ackToSend = NULL;
 6541              		.loc 1 2506 0
 6542 2dec 40F20003 		movw	r3, #:lower16:ieee154e_vars
 6543 2df0 C0F20003 		movt	r3, #:upper16:ieee154e_vars
 6544 2df4 0022     		movs	r2, #0
 6545 2df6 C3F83421 		str	r2, [r3, #308]
 6546              	.L287:
2507:build/openmote-cc2538_armgcc/openstack/02a-MAClow/IEEE802154E.c ****    }
2508:build/openmote-cc2538_armgcc/openstack/02a-MAClow/IEEE802154E.c ****    
2509:build/openmote-cc2538_armgcc/openstack/02a-MAClow/IEEE802154E.c ****    // clean up ackReceived
2510:build/openmote-cc2538_armgcc/openstack/02a-MAClow/IEEE802154E.c ****    if (ieee154e_vars.ackReceived!=NULL) {
 6547              		.loc 1 2510 0
 6548 2dfa 40F20003 		movw	r3, #:lower16:ieee154e_vars
 6549 2dfe C0F20003 		movt	r3, #:upper16:ieee154e_vars
 6550 2e02 D3F83831 		ldr	r3, [r3, #312]
 6551 2e06 002B     		cmp	r3, #0
 6552 2e08 0FD0     		beq	.L288
2511:build/openmote-cc2538_armgcc/openstack/02a-MAClow/IEEE802154E.c ****       // free ackReceived so corresponding RAM memory can be recycled
2512:build/openmote-cc2538_armgcc/openstack/02a-MAClow/IEEE802154E.c ****       openqueue_freePacketBuffer(ieee154e_vars.ackReceived);
 6553              		.loc 1 2512 0
 6554 2e0a 40F20003 		movw	r3, #:lower16:ieee154e_vars
 6555 2e0e C0F20003 		movt	r3, #:upper16:ieee154e_vars
 6556 2e12 D3F83831 		ldr	r3, [r3, #312]
 6557 2e16 1846     		mov	r0, r3
 6558 2e18 FFF7FEFF 		bl	openqueue_freePacketBuffer
2513:build/openmote-cc2538_armgcc/openstack/02a-MAClow/IEEE802154E.c ****       // reset local variable
2514:build/openmote-cc2538_armgcc/openstack/02a-MAClow/IEEE802154E.c ****       ieee154e_vars.ackReceived = NULL;
 6559              		.loc 1 2514 0
 6560 2e1c 40F20003 		movw	r3, #:lower16:ieee154e_vars
 6561 2e20 C0F20003 		movt	r3, #:upper16:ieee154e_vars
 6562 2e24 0022     		movs	r2, #0
 6563 2e26 C3F83821 		str	r2, [r3, #312]
 6564              	.L288:
2515:build/openmote-cc2538_armgcc/openstack/02a-MAClow/IEEE802154E.c ****    }
2516:build/openmote-cc2538_armgcc/openstack/02a-MAClow/IEEE802154E.c ****    
2517:build/openmote-cc2538_armgcc/openstack/02a-MAClow/IEEE802154E.c ****    
2518:build/openmote-cc2538_armgcc/openstack/02a-MAClow/IEEE802154E.c ****    // change state
2519:build/openmote-cc2538_armgcc/openstack/02a-MAClow/IEEE802154E.c ****    changeState(S_SLEEP);
 6565              		.loc 1 2519 0
 6566 2e2a 0020     		movs	r0, #0
 6567 2e2c FFF7FEFF 		bl	changeState
2520:build/openmote-cc2538_armgcc/openstack/02a-MAClow/IEEE802154E.c **** }
 6568              		.loc 1 2520 0
 6569 2e30 98BD     		pop	{r3, r4, r7, pc}
 6570              		.cfi_endproc
 6571              	.LFE68:
 6573 2e32 00BF     		.align	2
 6574              		.global	ieee154e_isSynch
 6575              		.thumb
 6576              		.thumb_func
 6578              	ieee154e_isSynch:
 6579              	.LFB69:
2521:build/openmote-cc2538_armgcc/openstack/02a-MAClow/IEEE802154E.c **** 
2522:build/openmote-cc2538_armgcc/openstack/02a-MAClow/IEEE802154E.c **** bool ieee154e_isSynch(){
 6580              		.loc 1 2522 0
 6581              		.cfi_startproc
 6582              		@ args = 0, pretend = 0, frame = 0
 6583              		@ frame_needed = 1, uses_anonymous_args = 0
 6584              		@ link register save eliminated.
 6585 2e34 80B4     		push	{r7}
 6586              		.cfi_def_cfa_offset 4
 6587              		.cfi_offset 7, -4
 6588 2e36 00AF     		add	r7, sp, #0
 6589              		.cfi_def_cfa_register 7
2523:build/openmote-cc2538_armgcc/openstack/02a-MAClow/IEEE802154E.c ****    return ieee154e_vars.isSync;
 6590              		.loc 1 2523 0
 6591 2e38 40F20003 		movw	r3, #:lower16:ieee154e_vars
 6592 2e3c C0F20003 		movt	r3, #:upper16:ieee154e_vars
 6593 2e40 1B7C     		ldrb	r3, [r3, #16]	@ zero_extendqisi2
2524:build/openmote-cc2538_armgcc/openstack/02a-MAClow/IEEE802154E.c **** }
 6594              		.loc 1 2524 0
 6595 2e42 1846     		mov	r0, r3
 6596 2e44 BD46     		mov	sp, r7
 6597              		@ sp needed
 6598 2e46 5DF8047B 		ldr	r7, [sp], #4
 6599 2e4a 7047     		bx	lr
 6600              		.cfi_endproc
 6601              	.LFE69:
 6603              	.Letext0:
 6604              		.file 2 "/usr/include/newlib/machine/_default_types.h"
 6605              		.file 3 "/usr/include/newlib/stdint.h"
 6606              		.file 4 "inc/opendefs.h"
 6607              		.file 5 "openstack/02b-MAChigh/schedule.h"
 6608              		.file 6 "openstack/02b-MAChigh/processIE.h"
 6609              		.file 7 "build/openmote-cc2538_armgcc/openstack/02a-MAClow/IEEE802154E.h"
 6610              		.file 8 "build/openmote-cc2538_armgcc/openstack/02a-MAClow/IEEE802154.h"
 6611              		.file 9 "build/openmote-cc2538_armgcc/openstack/02a-MAClow/ieee802154_security_driver.h"
 6612              		.file 10 "kernel/scheduler.h"
 6613              		.file 11 "bsp/boards/openmote-cc2538/board_info.h"
 6614              		.file 12 "openstack/03b-IPv6/icmpv6rpl.h"
DEFINED SYMBOLS
                            *ABS*:0000000000000000 IEEE802154E.c
     /tmp/ccSsiys7.s:19     .rodata:0000000000000000 $d
     /tmp/ccSsiys7.s:22     .rodata:0000000000000000 rreg_uriquery
     /tmp/ccSsiys7.s:27     .rodata:0000000000000008 infoBoardname
     /tmp/ccSsiys7.s:32     .rodata:0000000000000010 infouCName
     /tmp/ccSsiys7.s:37     .rodata:0000000000000018 infoRadioName
     /tmp/ccSsiys7.s:42     .rodata:0000000000000024 infoStackName
     /tmp/ccSsiys7.s:47     .rodata:0000000000000030 chTemplate_default
     /tmp/ccSsiys7.s:67     .rodata:0000000000000040 all_routers_multicast
                            *COM*:000000000000016c ieee154e_vars
                            *COM*:000000000000000f ieee154e_stats
                            *COM*:0000000000000010 ieee154e_dbg
     /tmp/ccSsiys7.s:88     .text:0000000000000000 $t
     /tmp/ccSsiys7.s:93     .text:0000000000000000 ieee154e_init
     /tmp/ccSsiys7.s:5936   .text:0000000000002974 changeIsSync
     /tmp/ccSsiys7.s:6090   .text:0000000000002a38 resetStats
     /tmp/ccSsiys7.s:322    .text:00000000000001bc isr_ieee154e_newSlot
     /tmp/ccSsiys7.s:392    .text:0000000000000230 isr_ieee154e_timer
     /tmp/ccSsiys7.s:572    .text:0000000000000358 ieee154e_startOfFrame
     /tmp/ccSsiys7.s:691    .text:000000000000043c ieee154e_endOfFrame
     /tmp/ccSsiys7.s:208    .text:00000000000000f8 ieee154e_asnDiff
     /tmp/ccSsiys7.s:5019   .text:0000000000002488 ieee154e_resetAsn
     /tmp/ccSsiys7.s:938    .text:00000000000005b4 activity_synchronize_newSlot
     /tmp/ccSsiys7.s:1999   .text:0000000000000e10 activity_ti1ORri1
     /tmp/ccSsiys7.s:415    .text:000000000000024c $d
     /tmp/ccSsiys7.s:2562   .text:00000000000012e0 activity_ti2
     /tmp/ccSsiys7.s:438    .text:00000000000002a0 $t
     /tmp/ccSsiys7.s:2664   .text:00000000000013a4 activity_tie1
     /tmp/ccSsiys7.s:2700   .text:00000000000013d0 activity_ti3
     /tmp/ccSsiys7.s:2734   .text:00000000000013f4 activity_tie2
     /tmp/ccSsiys7.s:2815   .text:000000000000145c activity_tie3
     /tmp/ccSsiys7.s:2958   .text:0000000000001554 activity_ti6
     /tmp/ccSsiys7.s:3012   .text:00000000000015b0 activity_tie4
     /tmp/ccSsiys7.s:3048   .text:00000000000015dc activity_ti7
     /tmp/ccSsiys7.s:3082   .text:0000000000001600 activity_tie5
     /tmp/ccSsiys7.s:3192   .text:00000000000016b4 activity_tie6
     /tmp/ccSsiys7.s:3559   .text:00000000000019e0 activity_ri2
     /tmp/ccSsiys7.s:3613   .text:0000000000001a3c activity_rie1
     /tmp/ccSsiys7.s:3649   .text:0000000000001a68 activity_ri3
     /tmp/ccSsiys7.s:3683   .text:0000000000001a8c activity_rie2
     /tmp/ccSsiys7.s:3757   .text:0000000000001ae0 activity_rie3
     /tmp/ccSsiys7.s:4210   .text:0000000000001ec8 activity_ri6
     /tmp/ccSsiys7.s:4450   .text:0000000000002120 activity_rie4
     /tmp/ccSsiys7.s:4486   .text:000000000000214c activity_ri7
     /tmp/ccSsiys7.s:4520   .text:0000000000002170 activity_rie5
     /tmp/ccSsiys7.s:4601   .text:00000000000021d8 activity_rie6
     /tmp/ccSsiys7.s:6360   .text:0000000000002c10 endSlot
     /tmp/ccSsiys7.s:1085   .text:00000000000006f4 activity_synchronize_startOfFrame
     /tmp/ccSsiys7.s:611    .text:0000000000000394 $d
     /tmp/ccSsiys7.s:630    .text:00000000000003d8 $t
     /tmp/ccSsiys7.s:2770   .text:0000000000001420 activity_ti4
     /tmp/ccSsiys7.s:3147   .text:0000000000001678 activity_ti8
     /tmp/ccSsiys7.s:3707   .text:0000000000001a98 activity_ri4
     /tmp/ccSsiys7.s:4556   .text:000000000000219c activity_ri8
     /tmp/ccSsiys7.s:1138   .text:000000000000073c activity_synchronize_endOfFrame
     /tmp/ccSsiys7.s:730    .text:0000000000000478 $d
     /tmp/ccSsiys7.s:749    .text:00000000000004bc $t
     /tmp/ccSsiys7.s:2851   .text:0000000000001488 activity_ti5
     /tmp/ccSsiys7.s:3228   .text:00000000000016e0 activity_ti9
     /tmp/ccSsiys7.s:3793   .text:0000000000001b0c activity_ri5
     /tmp/ccSsiys7.s:4637   .text:0000000000002204 activity_ri9
     /tmp/ccSsiys7.s:810    .text:0000000000000520 debugPrint_asn
     /tmp/ccSsiys7.s:863    .text:000000000000056c debugPrint_isSync
     /tmp/ccSsiys7.s:907    .text:0000000000000598 debugPrint_macStats
     /tmp/ccSsiys7.s:6274   .text:0000000000002b60 changeState
     /tmp/ccSsiys7.s:6210   .text:0000000000002af4 calculateFrequency
     /tmp/ccSsiys7.s:4901   .text:0000000000002390 incrementAsnOffset
     /tmp/ccSsiys7.s:5225   .text:00000000000025b8 isValidJoin
     /tmp/ccSsiys7.s:1542   .text:0000000000000ac8 ieee154e_processIEs
     /tmp/ccSsiys7.s:5758   .text:0000000000002860 synchronizePacket
     /tmp/ccSsiys7.s:6039   .text:00000000000029f4 notif_receive
     /tmp/ccSsiys7.s:1705   .text:0000000000000bcc $d
     /tmp/ccSsiys7.s:1727   .text:0000000000000c1c $t
     /tmp/ccSsiys7.s:5341   .text:0000000000002654 asnStoreFromEB
     /tmp/ccSsiys7.s:5183   .text:0000000000002580 joinPriorityStoreFromEB
     /tmp/ccSsiys7.s:6578   .text:0000000000002e34 ieee154e_isSynch
     /tmp/ccSsiys7.s:5688   .text:0000000000002818 timeslotTemplateIDStoreFromEB
     /tmp/ccSsiys7.s:5723   .text:000000000000283c channelhoppingTemplateIDStoreFromEB
     /tmp/ccSsiys7.s:5409   .text:00000000000026b8 ieee154e_syncSlotOffset
     /tmp/ccSsiys7.s:2250   .text:0000000000001050 $d
     /tmp/ccSsiys7.s:2257   .text:0000000000001064 $t
     /tmp/ccSsiys7.s:5072   .text:00000000000024dc ieee154e_getAsn
     /tmp/ccSsiys7.s:2655   .text:00000000000013a0 $d
     /tmp/ccSsiys7.s:2659   .text:00000000000013a4 $t
     /tmp/ccSsiys7.s:5987   .text:00000000000029b0 notif_sendDone
     /tmp/ccSsiys7.s:4814   .text:000000000000231c isValidAck
     /tmp/ccSsiys7.s:5864   .text:0000000000002908 synchronizeAck
     /tmp/ccSsiys7.s:4723   .text:00000000000022ac isValidRxFrame
     /tmp/ccSsiys7.s:5147   .text:000000000000255c ieee154e_getTimeCorrection
     /tmp/ccSsiys7.s:5496   .text:000000000000274c ieee154e_setIsAckEnabled
     /tmp/ccSsiys7.s:5531   .text:0000000000002770 ieee154e_setSingleChannel
     /tmp/ccSsiys7.s:5588   .text:00000000000027b4 ieee154e_setIsSecurityEnabled
     /tmp/ccSsiys7.s:5623   .text:00000000000027d8 ieee154e_setSlotDuration
     /tmp/ccSsiys7.s:5658   .text:00000000000027fc ieee154e_getSlotDuration
     /tmp/ccSsiys7.s:6151   .text:0000000000002aa0 updateStats
     /tmp/ccSsiys7.s:6305   .text:0000000000002b90 $d
     /tmp/ccSsiys7.s:6333   .text:0000000000002bf8 $t
                     .debug_frame:0000000000000010 $d
                           .group:0000000000000000 wm4.1.08074afb2ccc9da754fae8e3ee0f577b
                           .group:0000000000000000 wm4.features.h.22.6a4ca7cd053637cc1d0db6c16f39b2d7
                           .group:0000000000000000 wm4._default_types.h.15.8b2cb27e528498f8ff711db085d6e489
                           .group:0000000000000000 wm4.stdint.h.20.796e373797e732130a803d4c0338fa1b
                           .group:0000000000000000 wm4.toolchain_defs.h.2.e5fd326231d01413e5361944b26cde07
                           .group:0000000000000000 wm4.newlib.h.8.fec018e441fee7bfa1923812ad010f97
                           .group:0000000000000000 wm4.config.h.212.4163ef2871a828c674038d036b081cfd
                           .group:0000000000000000 wm4._ansi.h.23.5644b60c990a4800b02a6e654e88f93a
                           .group:0000000000000000 wm4.stddef.h.39.daafd3d79fe2f3a84d2d73d7d4e706f8
                           .group:0000000000000000 wm4.lock.h.2.9bc98482741e5e2a9450b12934a684ea
                           .group:0000000000000000 wm4._types.h.54.d3d34a3b7f3cc230cd159baf022b4b08
                           .group:0000000000000000 wm4.stddef.h.158.61317cdbfb4026324507d123a50b0fd6
                           .group:0000000000000000 wm4.reent.h.17.8bd9e4098e0428508c282cad794fae43
                           .group:0000000000000000 wm4.cdefs.h.47.339223046f475c9f2d5db3a9118d7c65
                           .group:0000000000000000 wm4.string.h.15.dab3980bf35408a4c507182805e2de3a
                           .group:0000000000000000 wm4.stddef.h.158.a7efb00f6cbc6f43213b50e183c9830c
                           .group:0000000000000000 wm4.string.h.126.6ff3aa59129e7f66b2c273baf353e066
                           .group:0000000000000000 wm4.stdbool.h.29.1c9ee6859ce8145f7838a4f2549ccec2
                           .group:0000000000000000 wm4.hw_types.h.67.b10589a0806dcc2d274d6fab6b736519
                           .group:0000000000000000 wm4.interrupt.h.41.272fc4ec0e276feb439e7974d0f77eaf
                           .group:0000000000000000 wm4.board_info.h.22.aeb00002354a4949fff54190040e37af
                           .group:0000000000000000 wm4.opendefs.h.23.16dafe2a30b31097968a5d4db894173a
                           .group:0000000000000000 wm4.schedule.h.2.5f1ce0fba8afc2f4b06da872a2bf3e7d
                           .group:0000000000000000 wm4.processIE.h.2.f7e3ebe58176b1696c1c10947f24f68e
                           .group:0000000000000000 wm4.IEEE802154E.h.25.67f34a05c141666eec3d609543338803
                           .group:0000000000000000 wm4.IEEE802154.h.2.38fb510ed33a23a9a0660164e6dfab69
                           .group:0000000000000000 wm4.ieee802154_security_driver.h.7.335eded000ce2f24b046d948f4298bed
                           .group:0000000000000000 wm4.idmanager.h.2.8c0e2159b32ef3125cbb1e984805cbfe
                           .group:0000000000000000 wm4.openserial.h.9.0a357d13b4113cc69ceb77572df48861
                           .group:0000000000000000 wm4.scheduler.h.2.d8d85f436d0d4b3991926a15b8490cf4
                           .group:0000000000000000 wm4.opentimers.h.8.044f2d040a134cdb0ddb58adfc2508be
                           .group:0000000000000000 wm4.icmpv6rpl.h.15.0573bca2230f8b0d62a096dd795549d0
                           .group:0000000000000000 wm4.neighbors.h.15.6d6181cbf1a5e29302c33fc055c1b200
                           .group:0000000000000000 wm4.debugpins.h.2.168f994fccba2f52a412ce9d5a7d1e98
                           .group:0000000000000000 wm4.sixtop.h.16.9a560ceacc5efd96bdee707dc9b8cf3b

UNDEFINED SYMBOLS
memset
idmanager_getIsDAGroot
radio_rfOn
radio_setOverflowCb
radio_setCompareCb
radio_setStartFrameCb
radio_setEndFrameCb
radio_startTimer
IntMasterDisable
IntMasterEnable
radio_setTimerPeriod
schedule_getNextActiveSlotOffset
openserial_printError
openserial_printStatus
radio_rfOff
radio_setFrequency
radio_rxEnable
radio_getTimerValue
radio_rxNow
openserial_stop
openserial_startOutput
openserial_startInput
openqueue_getFreePacketBuffer
radio_getReceivedFrame
packetfunctions_tossFooter
ieee802154_retrieveHeader
packetfunctions_tossHeader
idmanager_getMyID
packetfunctions_sameAddress
openserial_printInfo
openqueue_freePacketBuffer
processIE_retrieveSlotframeLinkIE
schedule_syncSlotOffset
schedule_getChannelOffset
debugpins_slot_toggle
debugpins_frame_toggle
schedule_advanceSlot
idmanager_getIsSlotSkip
schedule_getFrameLength
schedule_getType
schedule_getOkToSend
schedule_getNeighbor
openqueue_macGetDataPacket
openqueue_macGetEBPacket
icmpv6rpl_getMyDAGrank
radiotimer_schedule
openserial_printCritical
packetfunctions_duplicatePacket
IEEE802154_dummy_security
packetfunctions_reserveFooterSize
radio_loadPacket
radio_txEnable
radio_txNow
radiotimer_cancel
packetfunctions_isBroadcastMulticast
schedule_indicateTx
icmpv6rpl_isPreferredParent
ieee802154_prependHeader
idmanager_isMyAddress
packetfunctions_reserveHeaderSize
radio_getTimerPeriod
leds_sync_on
leds_sync_off
schedule_resetBackoff
task_sixtopNotifSendDone
scheduler_push_task
schedule_indicateRx
task_sixtopNotifReceive
debugpins_fsm_set
debugpins_fsm_clr
debugpins_fsm_toggle
