   1              		.syntax unified
   2              		.cpu cortex-m3
   3              		.fpu softvfp
   4              		.eabi_attribute 20, 1
   5              		.eabi_attribute 21, 1
   6              		.eabi_attribute 23, 3
   7              		.eabi_attribute 24, 1
   8              		.eabi_attribute 25, 1
   9              		.eabi_attribute 26, 1
  10              		.eabi_attribute 30, 6
  11              		.eabi_attribute 34, 1
  12              		.eabi_attribute 18, 4
  13              		.thumb
  14              		.file	"IEEE802154E.c"
  15              		.text
  16              	.Ltext0:
  17              		.cfi_sections	.debug_frame
  18              		.section	.rodata
  19              		.align	2
  22              	rreg_uriquery:
  23 0000 683D7563 		.ascii	"h=ucb\000"
  23      6200
  24 0006 0000     		.align	2
  27              	infoBoardname:
  28 0008 43433235 		.ascii	"CC2538\000"
  28      333800
  29 000f 00       		.align	2
  32              	infouCName:
  33 0010 43433235 		.ascii	"CC2538\000"
  33      333800
  34 0017 00       		.align	2
  37              	infoRadioName:
  38 0018 43433235 		.ascii	"CC2538 SoC\000"
  38      33382053 
  38      6F4300
  39 0023 00       		.align	2
  42              	infoStackName:
  43 0024 4F70656E 		.ascii	"OpenWSN \000"
  43      57534E20 
  43      00
  44 002d 000000   		.align	2
  47              	chTemplate_default:
  48 0030 05       		.byte	5
  49 0031 06       		.byte	6
  50 0032 0C       		.byte	12
  51 0033 07       		.byte	7
  52 0034 0F       		.byte	15
  53 0035 04       		.byte	4
  54 0036 0E       		.byte	14
  55 0037 0B       		.byte	11
  56 0038 08       		.byte	8
  57 0039 00       		.byte	0
  58 003a 01       		.byte	1
  59 003b 02       		.byte	2
  60 003c 0D       		.byte	13
  61 003d 03       		.byte	3
  62 003e 09       		.byte	9
  63 003f 0A       		.byte	10
  64              		.align	2
  67              	all_routers_multicast:
  68 0040 FF       		.byte	-1
  69 0041 02       		.byte	2
  70 0042 00       		.byte	0
  71 0043 00       		.byte	0
  72 0044 00       		.byte	0
  73 0045 00       		.byte	0
  74 0046 00       		.byte	0
  75 0047 00       		.byte	0
  76 0048 00       		.byte	0
  77 0049 00       		.byte	0
  78 004a 00       		.byte	0
  79 004b 00       		.byte	0
  80 004c 00       		.byte	0
  81 004d 00       		.byte	0
  82 004e 00       		.byte	0
  83 004f 1A       		.byte	26
  84              		.comm	ieee154e_vars,364,4
  85              		.comm	ieee154e_stats,15,4
  86              		.comm	ieee154e_dbg,16,4
  87              		.text
  88              		.align	2
  89              		.global	ieee154e_init
  90              		.thumb
  91              		.thumb_func
  93              	ieee154e_init:
  94              	.LFB0:
  95              		.file 1 "build/openmote-cc2538_armgcc/openstack/02a-MAClow/IEEE802154E.c"
   1:build/openmote-cc2538_armgcc/openstack/02a-MAClow/IEEE802154E.c **** #include "opendefs.h"
   2:build/openmote-cc2538_armgcc/openstack/02a-MAClow/IEEE802154E.c **** #include "IEEE802154E.h"
   3:build/openmote-cc2538_armgcc/openstack/02a-MAClow/IEEE802154E.c **** #include "radio.h"
   4:build/openmote-cc2538_armgcc/openstack/02a-MAClow/IEEE802154E.c **** #include "radiotimer.h"
   5:build/openmote-cc2538_armgcc/openstack/02a-MAClow/IEEE802154E.c **** #include "IEEE802154.h"
   6:build/openmote-cc2538_armgcc/openstack/02a-MAClow/IEEE802154E.c **** #include "ieee802154_security_driver.h"
   7:build/openmote-cc2538_armgcc/openstack/02a-MAClow/IEEE802154E.c **** #include "openqueue.h"
   8:build/openmote-cc2538_armgcc/openstack/02a-MAClow/IEEE802154E.c **** #include "idmanager.h"
   9:build/openmote-cc2538_armgcc/openstack/02a-MAClow/IEEE802154E.c **** #include "openserial.h"
  10:build/openmote-cc2538_armgcc/openstack/02a-MAClow/IEEE802154E.c **** #include "schedule.h"
  11:build/openmote-cc2538_armgcc/openstack/02a-MAClow/IEEE802154E.c **** #include "packetfunctions.h"
  12:build/openmote-cc2538_armgcc/openstack/02a-MAClow/IEEE802154E.c **** #include "scheduler.h"
  13:build/openmote-cc2538_armgcc/openstack/02a-MAClow/IEEE802154E.c **** #include "leds.h"
  14:build/openmote-cc2538_armgcc/openstack/02a-MAClow/IEEE802154E.c **** #include "neighbors.h"
  15:build/openmote-cc2538_armgcc/openstack/02a-MAClow/IEEE802154E.c **** #include "debugpins.h"
  16:build/openmote-cc2538_armgcc/openstack/02a-MAClow/IEEE802154E.c **** #include "sixtop.h"
  17:build/openmote-cc2538_armgcc/openstack/02a-MAClow/IEEE802154E.c **** #include "adaptive_sync.h"
  18:build/openmote-cc2538_armgcc/openstack/02a-MAClow/IEEE802154E.c **** #include "processIE.h"
  19:build/openmote-cc2538_armgcc/openstack/02a-MAClow/IEEE802154E.c **** 
  20:build/openmote-cc2538_armgcc/openstack/02a-MAClow/IEEE802154E.c **** //=========================== variables =======================================
  21:build/openmote-cc2538_armgcc/openstack/02a-MAClow/IEEE802154E.c **** 
  22:build/openmote-cc2538_armgcc/openstack/02a-MAClow/IEEE802154E.c **** ieee154e_vars_t    ieee154e_vars;
  23:build/openmote-cc2538_armgcc/openstack/02a-MAClow/IEEE802154E.c **** ieee154e_stats_t   ieee154e_stats;
  24:build/openmote-cc2538_armgcc/openstack/02a-MAClow/IEEE802154E.c **** ieee154e_dbg_t     ieee154e_dbg;
  25:build/openmote-cc2538_armgcc/openstack/02a-MAClow/IEEE802154E.c **** 
  26:build/openmote-cc2538_armgcc/openstack/02a-MAClow/IEEE802154E.c **** //=========================== prototypes ======================================
  27:build/openmote-cc2538_armgcc/openstack/02a-MAClow/IEEE802154E.c **** 
  28:build/openmote-cc2538_armgcc/openstack/02a-MAClow/IEEE802154E.c **** // SYNCHRONIZING
  29:build/openmote-cc2538_armgcc/openstack/02a-MAClow/IEEE802154E.c **** void     activity_synchronize_newSlot(void);
  30:build/openmote-cc2538_armgcc/openstack/02a-MAClow/IEEE802154E.c **** void     activity_synchronize_startOfFrame(PORT_RADIOTIMER_WIDTH capturedTime);
  31:build/openmote-cc2538_armgcc/openstack/02a-MAClow/IEEE802154E.c **** void     activity_synchronize_endOfFrame(PORT_RADIOTIMER_WIDTH capturedTime);
  32:build/openmote-cc2538_armgcc/openstack/02a-MAClow/IEEE802154E.c **** // TX
  33:build/openmote-cc2538_armgcc/openstack/02a-MAClow/IEEE802154E.c **** void     activity_ti1ORri1(void);
  34:build/openmote-cc2538_armgcc/openstack/02a-MAClow/IEEE802154E.c **** void     activity_ti2(void);
  35:build/openmote-cc2538_armgcc/openstack/02a-MAClow/IEEE802154E.c **** void     activity_tie1(void);
  36:build/openmote-cc2538_armgcc/openstack/02a-MAClow/IEEE802154E.c **** void     activity_ti3(void);
  37:build/openmote-cc2538_armgcc/openstack/02a-MAClow/IEEE802154E.c **** void     activity_tie2(void);
  38:build/openmote-cc2538_armgcc/openstack/02a-MAClow/IEEE802154E.c **** void     activity_ti4(PORT_RADIOTIMER_WIDTH capturedTime);
  39:build/openmote-cc2538_armgcc/openstack/02a-MAClow/IEEE802154E.c **** void     activity_tie3(void);
  40:build/openmote-cc2538_armgcc/openstack/02a-MAClow/IEEE802154E.c **** void     activity_ti5(PORT_RADIOTIMER_WIDTH capturedTime);
  41:build/openmote-cc2538_armgcc/openstack/02a-MAClow/IEEE802154E.c **** void     activity_ti6(void);
  42:build/openmote-cc2538_armgcc/openstack/02a-MAClow/IEEE802154E.c **** void     activity_tie4(void);
  43:build/openmote-cc2538_armgcc/openstack/02a-MAClow/IEEE802154E.c **** void     activity_ti7(void);
  44:build/openmote-cc2538_armgcc/openstack/02a-MAClow/IEEE802154E.c **** void     activity_tie5(void);
  45:build/openmote-cc2538_armgcc/openstack/02a-MAClow/IEEE802154E.c **** void     activity_ti8(PORT_RADIOTIMER_WIDTH capturedTime);
  46:build/openmote-cc2538_armgcc/openstack/02a-MAClow/IEEE802154E.c **** void     activity_tie6(void);
  47:build/openmote-cc2538_armgcc/openstack/02a-MAClow/IEEE802154E.c **** void     activity_ti9(PORT_RADIOTIMER_WIDTH capturedTime);
  48:build/openmote-cc2538_armgcc/openstack/02a-MAClow/IEEE802154E.c **** // RX
  49:build/openmote-cc2538_armgcc/openstack/02a-MAClow/IEEE802154E.c **** void     activity_ri2(void);
  50:build/openmote-cc2538_armgcc/openstack/02a-MAClow/IEEE802154E.c **** void     activity_rie1(void);
  51:build/openmote-cc2538_armgcc/openstack/02a-MAClow/IEEE802154E.c **** void     activity_ri3(void);
  52:build/openmote-cc2538_armgcc/openstack/02a-MAClow/IEEE802154E.c **** void     activity_rie2(void);
  53:build/openmote-cc2538_armgcc/openstack/02a-MAClow/IEEE802154E.c **** void     activity_ri4(PORT_RADIOTIMER_WIDTH capturedTime);
  54:build/openmote-cc2538_armgcc/openstack/02a-MAClow/IEEE802154E.c **** void     activity_rie3(void);
  55:build/openmote-cc2538_armgcc/openstack/02a-MAClow/IEEE802154E.c **** void     activity_ri5(PORT_RADIOTIMER_WIDTH capturedTime);
  56:build/openmote-cc2538_armgcc/openstack/02a-MAClow/IEEE802154E.c **** void     activity_ri6(void);
  57:build/openmote-cc2538_armgcc/openstack/02a-MAClow/IEEE802154E.c **** void     activity_rie4(void);
  58:build/openmote-cc2538_armgcc/openstack/02a-MAClow/IEEE802154E.c **** void     activity_ri7(void);
  59:build/openmote-cc2538_armgcc/openstack/02a-MAClow/IEEE802154E.c **** void     activity_rie5(void);
  60:build/openmote-cc2538_armgcc/openstack/02a-MAClow/IEEE802154E.c **** void     activity_ri8(PORT_RADIOTIMER_WIDTH capturedTime);
  61:build/openmote-cc2538_armgcc/openstack/02a-MAClow/IEEE802154E.c **** void     activity_rie6(void);
  62:build/openmote-cc2538_armgcc/openstack/02a-MAClow/IEEE802154E.c **** void     activity_ri9(PORT_RADIOTIMER_WIDTH capturedTime);
  63:build/openmote-cc2538_armgcc/openstack/02a-MAClow/IEEE802154E.c **** 
  64:build/openmote-cc2538_armgcc/openstack/02a-MAClow/IEEE802154E.c **** // frame validity check
  65:build/openmote-cc2538_armgcc/openstack/02a-MAClow/IEEE802154E.c **** bool     isValidRxFrame(ieee802154_header_iht* ieee802514_header);
  66:build/openmote-cc2538_armgcc/openstack/02a-MAClow/IEEE802154E.c **** bool     isValidAck(ieee802154_header_iht*     ieee802514_header,
  67:build/openmote-cc2538_armgcc/openstack/02a-MAClow/IEEE802154E.c ****                     OpenQueueEntry_t*          packetSent);
  68:build/openmote-cc2538_armgcc/openstack/02a-MAClow/IEEE802154E.c **** bool     isValidJoin(OpenQueueEntry_t* eb, ieee802154_header_iht *parsedHeader); 
  69:build/openmote-cc2538_armgcc/openstack/02a-MAClow/IEEE802154E.c **** // IEs Handling
  70:build/openmote-cc2538_armgcc/openstack/02a-MAClow/IEEE802154E.c **** bool     ieee154e_processIEs(OpenQueueEntry_t* pkt, uint16_t* lenIE);
  71:build/openmote-cc2538_armgcc/openstack/02a-MAClow/IEEE802154E.c **** // ASN handling
  72:build/openmote-cc2538_armgcc/openstack/02a-MAClow/IEEE802154E.c **** void     incrementAsnOffset(void);
  73:build/openmote-cc2538_armgcc/openstack/02a-MAClow/IEEE802154E.c **** void     ieee154e_resetAsn(void);
  74:build/openmote-cc2538_armgcc/openstack/02a-MAClow/IEEE802154E.c **** void     ieee154e_syncSlotOffset(void);
  75:build/openmote-cc2538_armgcc/openstack/02a-MAClow/IEEE802154E.c **** void     asnStoreFromEB(uint8_t* asn);
  76:build/openmote-cc2538_armgcc/openstack/02a-MAClow/IEEE802154E.c **** void     joinPriorityStoreFromEB(uint8_t jp);
  77:build/openmote-cc2538_armgcc/openstack/02a-MAClow/IEEE802154E.c **** 
  78:build/openmote-cc2538_armgcc/openstack/02a-MAClow/IEEE802154E.c **** // timeslot template handling
  79:build/openmote-cc2538_armgcc/openstack/02a-MAClow/IEEE802154E.c **** void     timeslotTemplateIDStoreFromEB(uint8_t id);
  80:build/openmote-cc2538_armgcc/openstack/02a-MAClow/IEEE802154E.c **** // channelhopping template handling
  81:build/openmote-cc2538_armgcc/openstack/02a-MAClow/IEEE802154E.c **** void     channelhoppingTemplateIDStoreFromEB(uint8_t id);
  82:build/openmote-cc2538_armgcc/openstack/02a-MAClow/IEEE802154E.c **** // synchronization
  83:build/openmote-cc2538_armgcc/openstack/02a-MAClow/IEEE802154E.c **** void     synchronizePacket(PORT_RADIOTIMER_WIDTH timeReceived);
  84:build/openmote-cc2538_armgcc/openstack/02a-MAClow/IEEE802154E.c **** void     synchronizeAck(PORT_SIGNED_INT_WIDTH timeCorrection);
  85:build/openmote-cc2538_armgcc/openstack/02a-MAClow/IEEE802154E.c **** void     changeIsSync(bool newIsSync);
  86:build/openmote-cc2538_armgcc/openstack/02a-MAClow/IEEE802154E.c **** // notifying upper layer
  87:build/openmote-cc2538_armgcc/openstack/02a-MAClow/IEEE802154E.c **** void     notif_sendDone(OpenQueueEntry_t* packetSent, owerror_t error);
  88:build/openmote-cc2538_armgcc/openstack/02a-MAClow/IEEE802154E.c **** void     notif_receive(OpenQueueEntry_t* packetReceived);
  89:build/openmote-cc2538_armgcc/openstack/02a-MAClow/IEEE802154E.c **** // statistics
  90:build/openmote-cc2538_armgcc/openstack/02a-MAClow/IEEE802154E.c **** void     resetStats(void);
  91:build/openmote-cc2538_armgcc/openstack/02a-MAClow/IEEE802154E.c **** void     updateStats(PORT_SIGNED_INT_WIDTH timeCorrection);
  92:build/openmote-cc2538_armgcc/openstack/02a-MAClow/IEEE802154E.c **** // misc
  93:build/openmote-cc2538_armgcc/openstack/02a-MAClow/IEEE802154E.c **** uint8_t  calculateFrequency(uint8_t channelOffset);
  94:build/openmote-cc2538_armgcc/openstack/02a-MAClow/IEEE802154E.c **** void     changeState(ieee154e_state_t newstate);
  95:build/openmote-cc2538_armgcc/openstack/02a-MAClow/IEEE802154E.c **** void     endSlot(void);
  96:build/openmote-cc2538_armgcc/openstack/02a-MAClow/IEEE802154E.c **** bool     debugPrint_asn(void);
  97:build/openmote-cc2538_armgcc/openstack/02a-MAClow/IEEE802154E.c **** bool     debugPrint_isSync(void);
  98:build/openmote-cc2538_armgcc/openstack/02a-MAClow/IEEE802154E.c **** // interrupts
  99:build/openmote-cc2538_armgcc/openstack/02a-MAClow/IEEE802154E.c **** void     isr_ieee154e_newSlot(void);
 100:build/openmote-cc2538_armgcc/openstack/02a-MAClow/IEEE802154E.c **** void     isr_ieee154e_timer(void);
 101:build/openmote-cc2538_armgcc/openstack/02a-MAClow/IEEE802154E.c **** 
 102:build/openmote-cc2538_armgcc/openstack/02a-MAClow/IEEE802154E.c **** //=========================== admin ===========================================
 103:build/openmote-cc2538_armgcc/openstack/02a-MAClow/IEEE802154E.c **** 
 104:build/openmote-cc2538_armgcc/openstack/02a-MAClow/IEEE802154E.c **** /**
 105:build/openmote-cc2538_armgcc/openstack/02a-MAClow/IEEE802154E.c **** \brief This function initializes this module.
 106:build/openmote-cc2538_armgcc/openstack/02a-MAClow/IEEE802154E.c **** 
 107:build/openmote-cc2538_armgcc/openstack/02a-MAClow/IEEE802154E.c **** Call this function once before any other function in this module, possibly
 108:build/openmote-cc2538_armgcc/openstack/02a-MAClow/IEEE802154E.c **** during boot-up.
 109:build/openmote-cc2538_armgcc/openstack/02a-MAClow/IEEE802154E.c **** */
 110:build/openmote-cc2538_armgcc/openstack/02a-MAClow/IEEE802154E.c **** void ieee154e_init() {
  96              		.loc 1 110 0
  97              		.cfi_startproc
  98              		@ args = 0, pretend = 0, frame = 0
  99              		@ frame_needed = 1, uses_anonymous_args = 0
 100 0000 98B5     		push	{r3, r4, r7, lr}
 101              		.cfi_def_cfa_offset 16
 102              		.cfi_offset 3, -16
 103              		.cfi_offset 4, -12
 104              		.cfi_offset 7, -8
 105              		.cfi_offset 14, -4
 106 0002 00AF     		add	r7, sp, #0
 107              		.cfi_def_cfa_register 7
 111:build/openmote-cc2538_armgcc/openstack/02a-MAClow/IEEE802154E.c ****    
 112:build/openmote-cc2538_armgcc/openstack/02a-MAClow/IEEE802154E.c ****    // initialize variables
 113:build/openmote-cc2538_armgcc/openstack/02a-MAClow/IEEE802154E.c ****    memset(&ieee154e_vars,0,sizeof(ieee154e_vars_t));
 108              		.loc 1 113 0
 109 0004 40F20000 		movw	r0, #:lower16:ieee154e_vars
 110 0008 C0F20000 		movt	r0, #:upper16:ieee154e_vars
 111 000c 0021     		movs	r1, #0
 112 000e 4FF4B672 		mov	r2, #364
 113 0012 FFF7FEFF 		bl	memset
 114:build/openmote-cc2538_armgcc/openstack/02a-MAClow/IEEE802154E.c ****    memset(&ieee154e_dbg,0,sizeof(ieee154e_dbg_t));
 114              		.loc 1 114 0
 115 0016 40F20000 		movw	r0, #:lower16:ieee154e_dbg
 116 001a C0F20000 		movt	r0, #:upper16:ieee154e_dbg
 117 001e 0021     		movs	r1, #0
 118 0020 1022     		movs	r2, #16
 119 0022 FFF7FEFF 		bl	memset
 115:build/openmote-cc2538_armgcc/openstack/02a-MAClow/IEEE802154E.c ****    
 116:build/openmote-cc2538_armgcc/openstack/02a-MAClow/IEEE802154E.c ****    ieee154e_vars.singleChannel     = 0; // 0 means channel hopping
 120              		.loc 1 116 0
 121 0026 40F20003 		movw	r3, #:lower16:ieee154e_vars
 122 002a C0F20003 		movt	r3, #:upper16:ieee154e_vars
 123 002e 0022     		movs	r2, #0
 124 0030 83F84621 		strb	r2, [r3, #326]
 117:build/openmote-cc2538_armgcc/openstack/02a-MAClow/IEEE802154E.c ****    ieee154e_vars.isAckEnabled      = TRUE;
 125              		.loc 1 117 0
 126 0034 40F20003 		movw	r3, #:lower16:ieee154e_vars
 127 0038 C0F20003 		movt	r3, #:upper16:ieee154e_vars
 128 003c 0122     		movs	r2, #1
 129 003e 83F86521 		strb	r2, [r3, #357]
 118:build/openmote-cc2538_armgcc/openstack/02a-MAClow/IEEE802154E.c ****    ieee154e_vars.isSecurityEnabled = FALSE;
 130              		.loc 1 118 0
 131 0042 40F20003 		movw	r3, #:lower16:ieee154e_vars
 132 0046 C0F20003 		movt	r3, #:upper16:ieee154e_vars
 133 004a 0022     		movs	r2, #0
 134 004c 83F86621 		strb	r2, [r3, #358]
 119:build/openmote-cc2538_armgcc/openstack/02a-MAClow/IEEE802154E.c ****    ieee154e_vars.slotDuration      = TsSlotDuration;
 135              		.loc 1 119 0
 136 0050 40F20003 		movw	r3, #:lower16:ieee154e_vars
 137 0054 C0F20003 		movt	r3, #:upper16:ieee154e_vars
 138 0058 4FF4F672 		mov	r2, #492
 139 005c A3F86A21 		strh	r2, [r3, #362]	@ movhi
 120:build/openmote-cc2538_armgcc/openstack/02a-MAClow/IEEE802154E.c ****    ieee154e_vars.numOfSleepSlots   = 1;
 140              		.loc 1 120 0
 141 0060 40F20003 		movw	r3, #:lower16:ieee154e_vars
 142 0064 C0F20003 		movt	r3, #:upper16:ieee154e_vars
 143 0068 0122     		movs	r2, #1
 144 006a C3F82421 		str	r2, [r3, #292]
 121:build/openmote-cc2538_armgcc/openstack/02a-MAClow/IEEE802154E.c ****    
 122:build/openmote-cc2538_armgcc/openstack/02a-MAClow/IEEE802154E.c ****    // default hopping template
 123:build/openmote-cc2538_armgcc/openstack/02a-MAClow/IEEE802154E.c ****    memcpy(
 145              		.loc 1 123 0
 146 006e 40F20002 		movw	r2, #:lower16:ieee154e_vars
 147 0072 C0F20002 		movt	r2, #:upper16:ieee154e_vars
 148 0076 40F20003 		movw	r3, #:lower16:chTemplate_default
 149 007a C0F20003 		movt	r3, #:upper16:chTemplate_default
 150 007e 02F5A474 		add	r4, r2, #328
 151 0082 0FCB     		ldmia	r3, {r0, r1, r2, r3}
 152 0084 84E80F00 		stmia	r4, {r0, r1, r2, r3}
 124:build/openmote-cc2538_armgcc/openstack/02a-MAClow/IEEE802154E.c ****        &(ieee154e_vars.chTemplate[0]),
 125:build/openmote-cc2538_armgcc/openstack/02a-MAClow/IEEE802154E.c ****        chTemplate_default,
 126:build/openmote-cc2538_armgcc/openstack/02a-MAClow/IEEE802154E.c ****        sizeof(ieee154e_vars.chTemplate)
 127:build/openmote-cc2538_armgcc/openstack/02a-MAClow/IEEE802154E.c ****    );
 128:build/openmote-cc2538_armgcc/openstack/02a-MAClow/IEEE802154E.c ****    
 129:build/openmote-cc2538_armgcc/openstack/02a-MAClow/IEEE802154E.c ****    if (idmanager_getIsDAGroot()==TRUE) {
 153              		.loc 1 129 0
 154 0088 FFF7FEFF 		bl	idmanager_getIsDAGroot
 155 008c 0346     		mov	r3, r0
 156 008e 002B     		cmp	r3, #0
 157 0090 03D0     		beq	.L2
 130:build/openmote-cc2538_armgcc/openstack/02a-MAClow/IEEE802154E.c ****       changeIsSync(TRUE);
 158              		.loc 1 130 0
 159 0092 0120     		movs	r0, #1
 160 0094 FFF7FEFF 		bl	changeIsSync
 161 0098 02E0     		b	.L3
 162              	.L2:
 131:build/openmote-cc2538_armgcc/openstack/02a-MAClow/IEEE802154E.c ****    } else {
 132:build/openmote-cc2538_armgcc/openstack/02a-MAClow/IEEE802154E.c ****       changeIsSync(FALSE);
 163              		.loc 1 132 0
 164 009a 0020     		movs	r0, #0
 165 009c FFF7FEFF 		bl	changeIsSync
 166              	.L3:
 133:build/openmote-cc2538_armgcc/openstack/02a-MAClow/IEEE802154E.c ****    }
 134:build/openmote-cc2538_armgcc/openstack/02a-MAClow/IEEE802154E.c ****    
 135:build/openmote-cc2538_armgcc/openstack/02a-MAClow/IEEE802154E.c ****    resetStats();
 167              		.loc 1 135 0
 168 00a0 FFF7FEFF 		bl	resetStats
 136:build/openmote-cc2538_armgcc/openstack/02a-MAClow/IEEE802154E.c ****    ieee154e_stats.numDeSync                 = 0;
 169              		.loc 1 136 0
 170 00a4 40F20003 		movw	r3, #:lower16:ieee154e_stats
 171 00a8 C0F20003 		movt	r3, #:upper16:ieee154e_stats
 172 00ac 0022     		movs	r2, #0
 173 00ae 9A71     		strb	r2, [r3, #6]
 137:build/openmote-cc2538_armgcc/openstack/02a-MAClow/IEEE802154E.c ****    
 138:build/openmote-cc2538_armgcc/openstack/02a-MAClow/IEEE802154E.c ****    // switch radio on
 139:build/openmote-cc2538_armgcc/openstack/02a-MAClow/IEEE802154E.c ****    radio_rfOn();
 174              		.loc 1 139 0
 175 00b0 FFF7FEFF 		bl	radio_rfOn
 140:build/openmote-cc2538_armgcc/openstack/02a-MAClow/IEEE802154E.c ****    
 141:build/openmote-cc2538_armgcc/openstack/02a-MAClow/IEEE802154E.c ****    // set callback functions for the radio
 142:build/openmote-cc2538_armgcc/openstack/02a-MAClow/IEEE802154E.c ****    radio_setOverflowCb(isr_ieee154e_newSlot);
 176              		.loc 1 142 0
 177 00b4 40F20000 		movw	r0, #:lower16:isr_ieee154e_newSlot
 178 00b8 C0F20000 		movt	r0, #:upper16:isr_ieee154e_newSlot
 179 00bc FFF7FEFF 		bl	radio_setOverflowCb
 143:build/openmote-cc2538_armgcc/openstack/02a-MAClow/IEEE802154E.c ****    radio_setCompareCb(isr_ieee154e_timer);
 180              		.loc 1 143 0
 181 00c0 40F20000 		movw	r0, #:lower16:isr_ieee154e_timer
 182 00c4 C0F20000 		movt	r0, #:upper16:isr_ieee154e_timer
 183 00c8 FFF7FEFF 		bl	radio_setCompareCb
 144:build/openmote-cc2538_armgcc/openstack/02a-MAClow/IEEE802154E.c ****    radio_setStartFrameCb(ieee154e_startOfFrame);
 184              		.loc 1 144 0
 185 00cc 40F20000 		movw	r0, #:lower16:ieee154e_startOfFrame
 186 00d0 C0F20000 		movt	r0, #:upper16:ieee154e_startOfFrame
 187 00d4 FFF7FEFF 		bl	radio_setStartFrameCb
 145:build/openmote-cc2538_armgcc/openstack/02a-MAClow/IEEE802154E.c ****    radio_setEndFrameCb(ieee154e_endOfFrame);
 188              		.loc 1 145 0
 189 00d8 40F20000 		movw	r0, #:lower16:ieee154e_endOfFrame
 190 00dc C0F20000 		movt	r0, #:upper16:ieee154e_endOfFrame
 191 00e0 FFF7FEFF 		bl	radio_setEndFrameCb
 146:build/openmote-cc2538_armgcc/openstack/02a-MAClow/IEEE802154E.c ****    // have the radio start its timer
 147:build/openmote-cc2538_armgcc/openstack/02a-MAClow/IEEE802154E.c ****    radio_startTimer(ieee154e_vars.slotDuration);
 192              		.loc 1 147 0
 193 00e4 40F20003 		movw	r3, #:lower16:ieee154e_vars
 194 00e8 C0F20003 		movt	r3, #:upper16:ieee154e_vars
 195 00ec B3F86A31 		ldrh	r3, [r3, #362]
 196 00f0 1846     		mov	r0, r3
 197 00f2 FFF7FEFF 		bl	radio_startTimer
 148:build/openmote-cc2538_armgcc/openstack/02a-MAClow/IEEE802154E.c **** }
 198              		.loc 1 148 0
 199 00f6 98BD     		pop	{r3, r4, r7, pc}
 200              		.cfi_endproc
 201              	.LFE0:
 203              		.align	2
 204              		.global	ieee154e_asnDiff
 205              		.thumb
 206              		.thumb_func
 208              	ieee154e_asnDiff:
 209              	.LFB1:
 149:build/openmote-cc2538_armgcc/openstack/02a-MAClow/IEEE802154E.c **** 
 150:build/openmote-cc2538_armgcc/openstack/02a-MAClow/IEEE802154E.c **** //=========================== public ==========================================
 151:build/openmote-cc2538_armgcc/openstack/02a-MAClow/IEEE802154E.c **** 
 152:build/openmote-cc2538_armgcc/openstack/02a-MAClow/IEEE802154E.c **** /**
 153:build/openmote-cc2538_armgcc/openstack/02a-MAClow/IEEE802154E.c **** /brief Difference between some older ASN and the current ASN.
 154:build/openmote-cc2538_armgcc/openstack/02a-MAClow/IEEE802154E.c **** 
 155:build/openmote-cc2538_armgcc/openstack/02a-MAClow/IEEE802154E.c **** \param[in] someASN some ASN to compare to the current
 156:build/openmote-cc2538_armgcc/openstack/02a-MAClow/IEEE802154E.c **** 
 157:build/openmote-cc2538_armgcc/openstack/02a-MAClow/IEEE802154E.c **** \returns The ASN difference, or 0xffff if more than 65535 different
 158:build/openmote-cc2538_armgcc/openstack/02a-MAClow/IEEE802154E.c **** */
 159:build/openmote-cc2538_armgcc/openstack/02a-MAClow/IEEE802154E.c **** PORT_RADIOTIMER_WIDTH ieee154e_asnDiff(asn_t* someASN) {
 210              		.loc 1 159 0
 211              		.cfi_startproc
 212              		@ args = 0, pretend = 0, frame = 16
 213              		@ frame_needed = 1, uses_anonymous_args = 0
 214 00f8 80B5     		push	{r7, lr}
 215              		.cfi_def_cfa_offset 8
 216              		.cfi_offset 7, -8
 217              		.cfi_offset 14, -4
 218 00fa 84B0     		sub	sp, sp, #16
 219              		.cfi_def_cfa_offset 24
 220 00fc 00AF     		add	r7, sp, #0
 221              		.cfi_def_cfa_register 7
 222 00fe 7860     		str	r0, [r7, #4]
 160:build/openmote-cc2538_armgcc/openstack/02a-MAClow/IEEE802154E.c ****    PORT_RADIOTIMER_WIDTH diff;
 161:build/openmote-cc2538_armgcc/openstack/02a-MAClow/IEEE802154E.c ****    INTERRUPT_DECLARATION();
 162:build/openmote-cc2538_armgcc/openstack/02a-MAClow/IEEE802154E.c ****    DISABLE_INTERRUPTS();
 223              		.loc 1 162 0
 224 0100 FFF7FEFF 		bl	IntMasterDisable
 163:build/openmote-cc2538_armgcc/openstack/02a-MAClow/IEEE802154E.c ****    if (ieee154e_vars.asn.byte4 != someASN->byte4) {
 225              		.loc 1 163 0
 226 0104 40F20003 		movw	r3, #:lower16:ieee154e_vars
 227 0108 C0F20003 		movt	r3, #:upper16:ieee154e_vars
 228 010c 1A78     		ldrb	r2, [r3]	@ zero_extendqisi2
 229 010e 7B68     		ldr	r3, [r7, #4]
 230 0110 1B78     		ldrb	r3, [r3]	@ zero_extendqisi2
 231 0112 9A42     		cmp	r2, r3
 232 0114 04D0     		beq	.L5
 164:build/openmote-cc2538_armgcc/openstack/02a-MAClow/IEEE802154E.c ****       ENABLE_INTERRUPTS();
 233              		.loc 1 164 0
 234 0116 FFF7FEFF 		bl	IntMasterEnable
 165:build/openmote-cc2538_armgcc/openstack/02a-MAClow/IEEE802154E.c ****       return (PORT_RADIOTIMER_WIDTH)0xFFFFFFFF;;
 235              		.loc 1 165 0
 236 011a 4FF0FF33 		mov	r3, #-1
 237 011e 49E0     		b	.L6
 238              	.L5:
 166:build/openmote-cc2538_armgcc/openstack/02a-MAClow/IEEE802154E.c ****    }
 167:build/openmote-cc2538_armgcc/openstack/02a-MAClow/IEEE802154E.c ****    
 168:build/openmote-cc2538_armgcc/openstack/02a-MAClow/IEEE802154E.c ****    diff = 0;
 239              		.loc 1 168 0
 240 0120 0023     		movs	r3, #0
 241 0122 FB60     		str	r3, [r7, #12]
 169:build/openmote-cc2538_armgcc/openstack/02a-MAClow/IEEE802154E.c ****    if (ieee154e_vars.asn.bytes2and3 == someASN->bytes2and3) {
 242              		.loc 1 169 0
 243 0124 40F20003 		movw	r3, #:lower16:ieee154e_vars
 244 0128 C0F20003 		movt	r3, #:upper16:ieee154e_vars
 245 012c B3F80130 		ldrh	r3, [r3, #1]	@ unaligned
 246 0130 9AB2     		uxth	r2, r3
 247 0132 7B68     		ldr	r3, [r7, #4]
 248 0134 B3F80130 		ldrh	r3, [r3, #1]	@ unaligned
 249 0138 9BB2     		uxth	r3, r3
 250 013a 9A42     		cmp	r2, r3
 251 013c 0FD1     		bne	.L7
 170:build/openmote-cc2538_armgcc/openstack/02a-MAClow/IEEE802154E.c ****       ENABLE_INTERRUPTS();
 252              		.loc 1 170 0
 253 013e FFF7FEFF 		bl	IntMasterEnable
 171:build/openmote-cc2538_armgcc/openstack/02a-MAClow/IEEE802154E.c ****       return ieee154e_vars.asn.bytes0and1-someASN->bytes0and1;
 254              		.loc 1 171 0
 255 0142 40F20003 		movw	r3, #:lower16:ieee154e_vars
 256 0146 C0F20003 		movt	r3, #:upper16:ieee154e_vars
 257 014a B3F80330 		ldrh	r3, [r3, #3]	@ unaligned
 258 014e 9BB2     		uxth	r3, r3
 259 0150 1A46     		mov	r2, r3
 260 0152 7B68     		ldr	r3, [r7, #4]
 261 0154 B3F80330 		ldrh	r3, [r3, #3]	@ unaligned
 262 0158 9BB2     		uxth	r3, r3
 263 015a D31A     		subs	r3, r2, r3
 264 015c 2AE0     		b	.L6
 265              	.L7:
 172:build/openmote-cc2538_armgcc/openstack/02a-MAClow/IEEE802154E.c ****    } else if (ieee154e_vars.asn.bytes2and3-someASN->bytes2and3==1) {
 266              		.loc 1 172 0
 267 015e 40F20003 		movw	r3, #:lower16:ieee154e_vars
 268 0162 C0F20003 		movt	r3, #:upper16:ieee154e_vars
 269 0166 B3F80130 		ldrh	r3, [r3, #1]	@ unaligned
 270 016a 9BB2     		uxth	r3, r3
 271 016c 1A46     		mov	r2, r3
 272 016e 7B68     		ldr	r3, [r7, #4]
 273 0170 B3F80130 		ldrh	r3, [r3, #1]	@ unaligned
 274 0174 9BB2     		uxth	r3, r3
 275 0176 D31A     		subs	r3, r2, r3
 276 0178 012B     		cmp	r3, #1
 277 017a 15D1     		bne	.L8
 173:build/openmote-cc2538_armgcc/openstack/02a-MAClow/IEEE802154E.c ****       diff  = ieee154e_vars.asn.bytes0and1;
 278              		.loc 1 173 0
 279 017c 40F20003 		movw	r3, #:lower16:ieee154e_vars
 280 0180 C0F20003 		movt	r3, #:upper16:ieee154e_vars
 281 0184 B3F80330 		ldrh	r3, [r3, #3]	@ unaligned
 282 0188 9BB2     		uxth	r3, r3
 283 018a FB60     		str	r3, [r7, #12]
 174:build/openmote-cc2538_armgcc/openstack/02a-MAClow/IEEE802154E.c ****       diff += 0xffff-someASN->bytes0and1;
 284              		.loc 1 174 0
 285 018c 7B68     		ldr	r3, [r7, #4]
 286 018e B3F80330 		ldrh	r3, [r3, #3]	@ unaligned
 287 0192 9BB2     		uxth	r3, r3
 288 0194 FA68     		ldr	r2, [r7, #12]
 289 0196 D31A     		subs	r3, r2, r3
 290 0198 03F57F43 		add	r3, r3, #65280
 291 019c FF33     		adds	r3, r3, #255
 292 019e FB60     		str	r3, [r7, #12]
 175:build/openmote-cc2538_armgcc/openstack/02a-MAClow/IEEE802154E.c ****       diff += 1;
 293              		.loc 1 175 0
 294 01a0 FB68     		ldr	r3, [r7, #12]
 295 01a2 0133     		adds	r3, r3, #1
 296 01a4 FB60     		str	r3, [r7, #12]
 297 01a6 02E0     		b	.L9
 298              	.L8:
 176:build/openmote-cc2538_armgcc/openstack/02a-MAClow/IEEE802154E.c ****    } else {
 177:build/openmote-cc2538_armgcc/openstack/02a-MAClow/IEEE802154E.c ****       diff = (PORT_RADIOTIMER_WIDTH)0xFFFFFFFF;;
 299              		.loc 1 177 0
 300 01a8 4FF0FF33 		mov	r3, #-1
 301 01ac FB60     		str	r3, [r7, #12]
 302              	.L9:
 178:build/openmote-cc2538_armgcc/openstack/02a-MAClow/IEEE802154E.c ****    }
 179:build/openmote-cc2538_armgcc/openstack/02a-MAClow/IEEE802154E.c ****    ENABLE_INTERRUPTS();
 303              		.loc 1 179 0
 304 01ae FFF7FEFF 		bl	IntMasterEnable
 180:build/openmote-cc2538_armgcc/openstack/02a-MAClow/IEEE802154E.c ****    return diff;
 305              		.loc 1 180 0
 306 01b2 FB68     		ldr	r3, [r7, #12]
 307              	.L6:
 181:build/openmote-cc2538_armgcc/openstack/02a-MAClow/IEEE802154E.c **** }
 308              		.loc 1 181 0
 309 01b4 1846     		mov	r0, r3
 310 01b6 1037     		adds	r7, r7, #16
 311 01b8 BD46     		mov	sp, r7
 312              		@ sp needed
 313 01ba 80BD     		pop	{r7, pc}
 314              		.cfi_endproc
 315              	.LFE1:
 317              		.align	2
 318              		.global	isr_ieee154e_newSlot
 319              		.thumb
 320              		.thumb_func
 322              	isr_ieee154e_newSlot:
 323              	.LFB2:
 182:build/openmote-cc2538_armgcc/openstack/02a-MAClow/IEEE802154E.c **** 
 183:build/openmote-cc2538_armgcc/openstack/02a-MAClow/IEEE802154E.c **** //======= events
 184:build/openmote-cc2538_armgcc/openstack/02a-MAClow/IEEE802154E.c **** 
 185:build/openmote-cc2538_armgcc/openstack/02a-MAClow/IEEE802154E.c **** /**
 186:build/openmote-cc2538_armgcc/openstack/02a-MAClow/IEEE802154E.c **** \brief Indicates a new slot has just started.
 187:build/openmote-cc2538_armgcc/openstack/02a-MAClow/IEEE802154E.c **** 
 188:build/openmote-cc2538_armgcc/openstack/02a-MAClow/IEEE802154E.c **** This function executes in ISR mode, when the new slot timer fires.
 189:build/openmote-cc2538_armgcc/openstack/02a-MAClow/IEEE802154E.c **** */
 190:build/openmote-cc2538_armgcc/openstack/02a-MAClow/IEEE802154E.c **** void isr_ieee154e_newSlot() {
 324              		.loc 1 190 0
 325              		.cfi_startproc
 326              		@ args = 0, pretend = 0, frame = 0
 327              		@ frame_needed = 1, uses_anonymous_args = 0
 328 01bc 80B5     		push	{r7, lr}
 329              		.cfi_def_cfa_offset 8
 330              		.cfi_offset 7, -8
 331              		.cfi_offset 14, -4
 332 01be 00AF     		add	r7, sp, #0
 333              		.cfi_def_cfa_register 7
 191:build/openmote-cc2538_armgcc/openstack/02a-MAClow/IEEE802154E.c ****    radio_setTimerPeriod(ieee154e_vars.slotDuration);
 334              		.loc 1 191 0
 335 01c0 40F20003 		movw	r3, #:lower16:ieee154e_vars
 336 01c4 C0F20003 		movt	r3, #:upper16:ieee154e_vars
 337 01c8 B3F86A31 		ldrh	r3, [r3, #362]
 338 01cc 1846     		mov	r0, r3
 339 01ce FFF7FEFF 		bl	radio_setTimerPeriod
 192:build/openmote-cc2538_armgcc/openstack/02a-MAClow/IEEE802154E.c ****    if (ieee154e_vars.isSync==FALSE) {
 340              		.loc 1 192 0
 341 01d2 40F20003 		movw	r3, #:lower16:ieee154e_vars
 342 01d6 C0F20003 		movt	r3, #:upper16:ieee154e_vars
 343 01da 1B7C     		ldrb	r3, [r3, #16]	@ zero_extendqisi2
 344 01dc 83F00103 		eor	r3, r3, #1
 345 01e0 DBB2     		uxtb	r3, r3
 346 01e2 002B     		cmp	r3, #0
 347 01e4 16D0     		beq	.L11
 193:build/openmote-cc2538_armgcc/openstack/02a-MAClow/IEEE802154E.c ****       if (idmanager_getIsDAGroot()==TRUE) {
 348              		.loc 1 193 0
 349 01e6 FFF7FEFF 		bl	idmanager_getIsDAGroot
 350 01ea 0346     		mov	r3, r0
 351 01ec 002B     		cmp	r3, #0
 352 01ee 0ED0     		beq	.L12
 194:build/openmote-cc2538_armgcc/openstack/02a-MAClow/IEEE802154E.c ****          changeIsSync(TRUE);
 353              		.loc 1 194 0
 354 01f0 0120     		movs	r0, #1
 355 01f2 FFF7FEFF 		bl	changeIsSync
 195:build/openmote-cc2538_armgcc/openstack/02a-MAClow/IEEE802154E.c ****          ieee154e_resetAsn();
 356              		.loc 1 195 0
 357 01f6 FFF7FEFF 		bl	ieee154e_resetAsn
 196:build/openmote-cc2538_armgcc/openstack/02a-MAClow/IEEE802154E.c ****          ieee154e_vars.nextActiveSlotOffset = schedule_getNextActiveSlotOffset();
 358              		.loc 1 196 0
 359 01fa FFF7FEFF 		bl	schedule_getNextActiveSlotOffset
 360 01fe 0346     		mov	r3, r0
 361 0200 1A46     		mov	r2, r3
 362 0202 40F20003 		movw	r3, #:lower16:ieee154e_vars
 363 0206 C0F20003 		movt	r3, #:upper16:ieee154e_vars
 364 020a 1A81     		strh	r2, [r3, #8]	@ movhi
 365 020c 04E0     		b	.L14
 366              	.L12:
 197:build/openmote-cc2538_armgcc/openstack/02a-MAClow/IEEE802154E.c ****       } else {
 198:build/openmote-cc2538_armgcc/openstack/02a-MAClow/IEEE802154E.c ****          activity_synchronize_newSlot();
 367              		.loc 1 198 0
 368 020e FFF7FEFF 		bl	activity_synchronize_newSlot
 369 0212 01E0     		b	.L14
 370              	.L11:
 199:build/openmote-cc2538_armgcc/openstack/02a-MAClow/IEEE802154E.c ****       }
 200:build/openmote-cc2538_armgcc/openstack/02a-MAClow/IEEE802154E.c ****    } else {
 201:build/openmote-cc2538_armgcc/openstack/02a-MAClow/IEEE802154E.c **** #ifdef ADAPTIVE_SYNC
 202:build/openmote-cc2538_armgcc/openstack/02a-MAClow/IEEE802154E.c ****      // adaptive synchronization
 203:build/openmote-cc2538_armgcc/openstack/02a-MAClow/IEEE802154E.c ****       adaptive_sync_countCompensationTimeout();
 204:build/openmote-cc2538_armgcc/openstack/02a-MAClow/IEEE802154E.c **** #endif
 205:build/openmote-cc2538_armgcc/openstack/02a-MAClow/IEEE802154E.c ****       activity_ti1ORri1();
 371              		.loc 1 205 0
 372 0214 FFF7FEFF 		bl	activity_ti1ORri1
 373              	.L14:
 206:build/openmote-cc2538_armgcc/openstack/02a-MAClow/IEEE802154E.c ****    }
 207:build/openmote-cc2538_armgcc/openstack/02a-MAClow/IEEE802154E.c ****    ieee154e_dbg.num_newSlot++;
 374              		.loc 1 207 0
 375 0218 40F20003 		movw	r3, #:lower16:ieee154e_dbg
 376 021c C0F20003 		movt	r3, #:upper16:ieee154e_dbg
 377 0220 1B68     		ldr	r3, [r3]
 378 0222 5A1C     		adds	r2, r3, #1
 379 0224 40F20003 		movw	r3, #:lower16:ieee154e_dbg
 380 0228 C0F20003 		movt	r3, #:upper16:ieee154e_dbg
 381 022c 1A60     		str	r2, [r3]
 208:build/openmote-cc2538_armgcc/openstack/02a-MAClow/IEEE802154E.c **** }
 382              		.loc 1 208 0
 383 022e 80BD     		pop	{r7, pc}
 384              		.cfi_endproc
 385              	.LFE2:
 387              		.align	2
 388              		.global	isr_ieee154e_timer
 389              		.thumb
 390              		.thumb_func
 392              	isr_ieee154e_timer:
 393              	.LFB3:
 209:build/openmote-cc2538_armgcc/openstack/02a-MAClow/IEEE802154E.c **** 
 210:build/openmote-cc2538_armgcc/openstack/02a-MAClow/IEEE802154E.c **** /**
 211:build/openmote-cc2538_armgcc/openstack/02a-MAClow/IEEE802154E.c **** \brief Indicates the FSM timer has fired.
 212:build/openmote-cc2538_armgcc/openstack/02a-MAClow/IEEE802154E.c **** 
 213:build/openmote-cc2538_armgcc/openstack/02a-MAClow/IEEE802154E.c **** This function executes in ISR mode, when the FSM timer fires.
 214:build/openmote-cc2538_armgcc/openstack/02a-MAClow/IEEE802154E.c **** */
 215:build/openmote-cc2538_armgcc/openstack/02a-MAClow/IEEE802154E.c **** void isr_ieee154e_timer() {
 394              		.loc 1 215 0
 395              		.cfi_startproc
 396              		@ args = 0, pretend = 0, frame = 0
 397              		@ frame_needed = 1, uses_anonymous_args = 0
 398 0230 80B5     		push	{r7, lr}
 399              		.cfi_def_cfa_offset 8
 400              		.cfi_offset 7, -8
 401              		.cfi_offset 14, -4
 402 0232 00AF     		add	r7, sp, #0
 403              		.cfi_def_cfa_register 7
 216:build/openmote-cc2538_armgcc/openstack/02a-MAClow/IEEE802154E.c ****    switch (ieee154e_vars.state) {
 404              		.loc 1 216 0
 405 0234 40F20003 		movw	r3, #:lower16:ieee154e_vars
 406 0238 C0F20003 		movt	r3, #:upper16:ieee154e_vars
 407 023c 93F82831 		ldrb	r3, [r3, #296]	@ zero_extendqisi2
 408 0240 043B     		subs	r3, r3, #4
 409 0242 142B     		cmp	r3, #20
 410 0244 68D8     		bhi	.L16
 411 0246 01A2     		adr	r2, .L18
 412 0248 52F823F0 		ldr	pc, [r2, r3, lsl #2]
 413              		.p2align 2
 414              	.L18:
 415 024c A1020000 		.word	.L17+1
 416 0250 A7020000 		.word	.L19+1
 417 0254 AD020000 		.word	.L20+1
 418 0258 B3020000 		.word	.L21+1
 419 025c B9020000 		.word	.L22+1
 420 0260 BF020000 		.word	.L23+1
 421 0264 C5020000 		.word	.L24+1
 422 0268 CB020000 		.word	.L25+1
 423 026c D1020000 		.word	.L26+1
 424 0270 D7020000 		.word	.L27+1
 425 0274 19030000 		.word	.L16+1
 426 0278 DD020000 		.word	.L28+1
 427 027c E3020000 		.word	.L29+1
 428 0280 E9020000 		.word	.L30+1
 429 0284 EF020000 		.word	.L31+1
 430 0288 F5020000 		.word	.L32+1
 431 028c FB020000 		.word	.L33+1
 432 0290 01030000 		.word	.L34+1
 433 0294 07030000 		.word	.L35+1
 434 0298 0D030000 		.word	.L36+1
 435 029c 13030000 		.word	.L37+1
 436              	.L17:
 217:build/openmote-cc2538_armgcc/openstack/02a-MAClow/IEEE802154E.c ****       case S_TXDATAOFFSET:
 218:build/openmote-cc2538_armgcc/openstack/02a-MAClow/IEEE802154E.c ****          activity_ti2();
 437              		.loc 1 218 0
 438 02a0 FFF7FEFF 		bl	activity_ti2
 219:build/openmote-cc2538_armgcc/openstack/02a-MAClow/IEEE802154E.c ****          break;
 439              		.loc 1 219 0
 440 02a4 4BE0     		b	.L38
 441              	.L19:
 220:build/openmote-cc2538_armgcc/openstack/02a-MAClow/IEEE802154E.c ****       case S_TXDATAPREPARE:
 221:build/openmote-cc2538_armgcc/openstack/02a-MAClow/IEEE802154E.c ****          activity_tie1();
 442              		.loc 1 221 0
 443 02a6 FFF7FEFF 		bl	activity_tie1
 222:build/openmote-cc2538_armgcc/openstack/02a-MAClow/IEEE802154E.c ****          break;
 444              		.loc 1 222 0
 445 02aa 48E0     		b	.L38
 446              	.L20:
 223:build/openmote-cc2538_armgcc/openstack/02a-MAClow/IEEE802154E.c ****       case S_TXDATAREADY:
 224:build/openmote-cc2538_armgcc/openstack/02a-MAClow/IEEE802154E.c ****          activity_ti3();
 447              		.loc 1 224 0
 448 02ac FFF7FEFF 		bl	activity_ti3
 225:build/openmote-cc2538_armgcc/openstack/02a-MAClow/IEEE802154E.c ****          break;
 449              		.loc 1 225 0
 450 02b0 45E0     		b	.L38
 451              	.L21:
 226:build/openmote-cc2538_armgcc/openstack/02a-MAClow/IEEE802154E.c ****       case S_TXDATADELAY:
 227:build/openmote-cc2538_armgcc/openstack/02a-MAClow/IEEE802154E.c ****          activity_tie2();
 452              		.loc 1 227 0
 453 02b2 FFF7FEFF 		bl	activity_tie2
 228:build/openmote-cc2538_armgcc/openstack/02a-MAClow/IEEE802154E.c ****          break;
 454              		.loc 1 228 0
 455 02b6 42E0     		b	.L38
 456              	.L22:
 229:build/openmote-cc2538_armgcc/openstack/02a-MAClow/IEEE802154E.c ****       case S_TXDATA:
 230:build/openmote-cc2538_armgcc/openstack/02a-MAClow/IEEE802154E.c ****          activity_tie3();
 457              		.loc 1 230 0
 458 02b8 FFF7FEFF 		bl	activity_tie3
 231:build/openmote-cc2538_armgcc/openstack/02a-MAClow/IEEE802154E.c ****          break;
 459              		.loc 1 231 0
 460 02bc 3FE0     		b	.L38
 461              	.L23:
 232:build/openmote-cc2538_armgcc/openstack/02a-MAClow/IEEE802154E.c ****       case S_RXACKOFFSET:
 233:build/openmote-cc2538_armgcc/openstack/02a-MAClow/IEEE802154E.c ****          activity_ti6();
 462              		.loc 1 233 0
 463 02be FFF7FEFF 		bl	activity_ti6
 234:build/openmote-cc2538_armgcc/openstack/02a-MAClow/IEEE802154E.c ****          break;
 464              		.loc 1 234 0
 465 02c2 3CE0     		b	.L38
 466              	.L24:
 235:build/openmote-cc2538_armgcc/openstack/02a-MAClow/IEEE802154E.c ****       case S_RXACKPREPARE:
 236:build/openmote-cc2538_armgcc/openstack/02a-MAClow/IEEE802154E.c ****          activity_tie4();
 467              		.loc 1 236 0
 468 02c4 FFF7FEFF 		bl	activity_tie4
 237:build/openmote-cc2538_armgcc/openstack/02a-MAClow/IEEE802154E.c ****          break;
 469              		.loc 1 237 0
 470 02c8 39E0     		b	.L38
 471              	.L25:
 238:build/openmote-cc2538_armgcc/openstack/02a-MAClow/IEEE802154E.c ****       case S_RXACKREADY:
 239:build/openmote-cc2538_armgcc/openstack/02a-MAClow/IEEE802154E.c ****          activity_ti7();
 472              		.loc 1 239 0
 473 02ca FFF7FEFF 		bl	activity_ti7
 240:build/openmote-cc2538_armgcc/openstack/02a-MAClow/IEEE802154E.c ****          break;
 474              		.loc 1 240 0
 475 02ce 36E0     		b	.L38
 476              	.L26:
 241:build/openmote-cc2538_armgcc/openstack/02a-MAClow/IEEE802154E.c ****       case S_RXACKLISTEN:
 242:build/openmote-cc2538_armgcc/openstack/02a-MAClow/IEEE802154E.c ****          activity_tie5();
 477              		.loc 1 242 0
 478 02d0 FFF7FEFF 		bl	activity_tie5
 243:build/openmote-cc2538_armgcc/openstack/02a-MAClow/IEEE802154E.c ****          break;
 479              		.loc 1 243 0
 480 02d4 33E0     		b	.L38
 481              	.L27:
 244:build/openmote-cc2538_armgcc/openstack/02a-MAClow/IEEE802154E.c ****       case S_RXACK:
 245:build/openmote-cc2538_armgcc/openstack/02a-MAClow/IEEE802154E.c ****          activity_tie6();
 482              		.loc 1 245 0
 483 02d6 FFF7FEFF 		bl	activity_tie6
 246:build/openmote-cc2538_armgcc/openstack/02a-MAClow/IEEE802154E.c ****          break;
 484              		.loc 1 246 0
 485 02da 30E0     		b	.L38
 486              	.L28:
 247:build/openmote-cc2538_armgcc/openstack/02a-MAClow/IEEE802154E.c ****       case S_RXDATAOFFSET:
 248:build/openmote-cc2538_armgcc/openstack/02a-MAClow/IEEE802154E.c ****          activity_ri2(); 
 487              		.loc 1 248 0
 488 02dc FFF7FEFF 		bl	activity_ri2
 249:build/openmote-cc2538_armgcc/openstack/02a-MAClow/IEEE802154E.c ****          break;
 489              		.loc 1 249 0
 490 02e0 2DE0     		b	.L38
 491              	.L29:
 250:build/openmote-cc2538_armgcc/openstack/02a-MAClow/IEEE802154E.c ****       case S_RXDATAPREPARE:
 251:build/openmote-cc2538_armgcc/openstack/02a-MAClow/IEEE802154E.c ****          activity_rie1();
 492              		.loc 1 251 0
 493 02e2 FFF7FEFF 		bl	activity_rie1
 252:build/openmote-cc2538_armgcc/openstack/02a-MAClow/IEEE802154E.c ****          break;
 494              		.loc 1 252 0
 495 02e6 2AE0     		b	.L38
 496              	.L30:
 253:build/openmote-cc2538_armgcc/openstack/02a-MAClow/IEEE802154E.c ****       case S_RXDATAREADY:
 254:build/openmote-cc2538_armgcc/openstack/02a-MAClow/IEEE802154E.c ****          activity_ri3();
 497              		.loc 1 254 0
 498 02e8 FFF7FEFF 		bl	activity_ri3
 255:build/openmote-cc2538_armgcc/openstack/02a-MAClow/IEEE802154E.c ****          break;
 499              		.loc 1 255 0
 500 02ec 27E0     		b	.L38
 501              	.L31:
 256:build/openmote-cc2538_armgcc/openstack/02a-MAClow/IEEE802154E.c ****       case S_RXDATALISTEN:
 257:build/openmote-cc2538_armgcc/openstack/02a-MAClow/IEEE802154E.c ****          activity_rie2();
 502              		.loc 1 257 0
 503 02ee FFF7FEFF 		bl	activity_rie2
 258:build/openmote-cc2538_armgcc/openstack/02a-MAClow/IEEE802154E.c ****          break;
 504              		.loc 1 258 0
 505 02f2 24E0     		b	.L38
 506              	.L32:
 259:build/openmote-cc2538_armgcc/openstack/02a-MAClow/IEEE802154E.c ****       case S_RXDATA:
 260:build/openmote-cc2538_armgcc/openstack/02a-MAClow/IEEE802154E.c ****          activity_rie3();
 507              		.loc 1 260 0
 508 02f4 FFF7FEFF 		bl	activity_rie3
 261:build/openmote-cc2538_armgcc/openstack/02a-MAClow/IEEE802154E.c ****          break;
 509              		.loc 1 261 0
 510 02f8 21E0     		b	.L38
 511              	.L33:
 262:build/openmote-cc2538_armgcc/openstack/02a-MAClow/IEEE802154E.c ****       case S_TXACKOFFSET: 
 263:build/openmote-cc2538_armgcc/openstack/02a-MAClow/IEEE802154E.c ****          activity_ri6();
 512              		.loc 1 263 0
 513 02fa FFF7FEFF 		bl	activity_ri6
 264:build/openmote-cc2538_armgcc/openstack/02a-MAClow/IEEE802154E.c ****          break;
 514              		.loc 1 264 0
 515 02fe 1EE0     		b	.L38
 516              	.L34:
 265:build/openmote-cc2538_armgcc/openstack/02a-MAClow/IEEE802154E.c ****       case S_TXACKPREPARE:
 266:build/openmote-cc2538_armgcc/openstack/02a-MAClow/IEEE802154E.c ****          activity_rie4();
 517              		.loc 1 266 0
 518 0300 FFF7FEFF 		bl	activity_rie4
 267:build/openmote-cc2538_armgcc/openstack/02a-MAClow/IEEE802154E.c ****          break;
 519              		.loc 1 267 0
 520 0304 1BE0     		b	.L38
 521              	.L35:
 268:build/openmote-cc2538_armgcc/openstack/02a-MAClow/IEEE802154E.c ****       case S_TXACKREADY:
 269:build/openmote-cc2538_armgcc/openstack/02a-MAClow/IEEE802154E.c ****          activity_ri7();
 522              		.loc 1 269 0
 523 0306 FFF7FEFF 		bl	activity_ri7
 270:build/openmote-cc2538_armgcc/openstack/02a-MAClow/IEEE802154E.c ****          break;
 524              		.loc 1 270 0
 525 030a 18E0     		b	.L38
 526              	.L36:
 271:build/openmote-cc2538_armgcc/openstack/02a-MAClow/IEEE802154E.c ****       case S_TXACKDELAY:
 272:build/openmote-cc2538_armgcc/openstack/02a-MAClow/IEEE802154E.c ****          activity_rie5();
 527              		.loc 1 272 0
 528 030c FFF7FEFF 		bl	activity_rie5
 273:build/openmote-cc2538_armgcc/openstack/02a-MAClow/IEEE802154E.c ****          break;
 529              		.loc 1 273 0
 530 0310 15E0     		b	.L38
 531              	.L37:
 274:build/openmote-cc2538_armgcc/openstack/02a-MAClow/IEEE802154E.c ****       case S_TXACK:
 275:build/openmote-cc2538_armgcc/openstack/02a-MAClow/IEEE802154E.c ****          activity_rie6();
 532              		.loc 1 275 0
 533 0312 FFF7FEFF 		bl	activity_rie6
 276:build/openmote-cc2538_armgcc/openstack/02a-MAClow/IEEE802154E.c ****          break;
 534              		.loc 1 276 0
 535 0316 12E0     		b	.L38
 536              	.L16:
 277:build/openmote-cc2538_armgcc/openstack/02a-MAClow/IEEE802154E.c ****       default:
 278:build/openmote-cc2538_armgcc/openstack/02a-MAClow/IEEE802154E.c ****          // log the error
 279:build/openmote-cc2538_armgcc/openstack/02a-MAClow/IEEE802154E.c ****          openserial_printError(COMPONENT_IEEE802154E,ERR_WRONG_STATE_IN_TIMERFIRES,
 280:build/openmote-cc2538_armgcc/openstack/02a-MAClow/IEEE802154E.c ****                                (errorparameter_t)ieee154e_vars.state,
 537              		.loc 1 280 0
 538 0318 40F20003 		movw	r3, #:lower16:ieee154e_vars
 539 031c C0F20003 		movt	r3, #:upper16:ieee154e_vars
 540 0320 93F82831 		ldrb	r3, [r3, #296]	@ zero_extendqisi2
 279:build/openmote-cc2538_armgcc/openstack/02a-MAClow/IEEE802154E.c ****                                (errorparameter_t)ieee154e_vars.state,
 541              		.loc 1 279 0
 542 0324 1A46     		mov	r2, r3
 543 0326 40F20003 		movw	r3, #:lower16:ieee154e_vars
 544 032a C0F20003 		movt	r3, #:upper16:ieee154e_vars
 545 032e DB88     		ldrh	r3, [r3, #6]
 546 0330 0920     		movs	r0, #9
 547 0332 1F21     		movs	r1, #31
 548 0334 FFF7FEFF 		bl	openserial_printError
 281:build/openmote-cc2538_armgcc/openstack/02a-MAClow/IEEE802154E.c ****                                (errorparameter_t)ieee154e_vars.slotOffset);
 282:build/openmote-cc2538_armgcc/openstack/02a-MAClow/IEEE802154E.c ****          // abort
 283:build/openmote-cc2538_armgcc/openstack/02a-MAClow/IEEE802154E.c ****          endSlot();
 549              		.loc 1 283 0
 550 0338 FFF7FEFF 		bl	endSlot
 284:build/openmote-cc2538_armgcc/openstack/02a-MAClow/IEEE802154E.c ****          break;
 551              		.loc 1 284 0
 552 033c 00BF     		nop
 553              	.L38:
 285:build/openmote-cc2538_armgcc/openstack/02a-MAClow/IEEE802154E.c ****    }
 286:build/openmote-cc2538_armgcc/openstack/02a-MAClow/IEEE802154E.c ****    ieee154e_dbg.num_timer++;
 554              		.loc 1 286 0
 555 033e 40F20003 		movw	r3, #:lower16:ieee154e_dbg
 556 0342 C0F20003 		movt	r3, #:upper16:ieee154e_dbg
 557 0346 5B68     		ldr	r3, [r3, #4]
 558 0348 5A1C     		adds	r2, r3, #1
 559 034a 40F20003 		movw	r3, #:lower16:ieee154e_dbg
 560 034e C0F20003 		movt	r3, #:upper16:ieee154e_dbg
 561 0352 5A60     		str	r2, [r3, #4]
 287:build/openmote-cc2538_armgcc/openstack/02a-MAClow/IEEE802154E.c **** }
 562              		.loc 1 287 0
 563 0354 80BD     		pop	{r7, pc}
 564              		.cfi_endproc
 565              	.LFE3:
 567 0356 00BF     		.align	2
 568              		.global	ieee154e_startOfFrame
 569              		.thumb
 570              		.thumb_func
 572              	ieee154e_startOfFrame:
 573              	.LFB4:
 288:build/openmote-cc2538_armgcc/openstack/02a-MAClow/IEEE802154E.c **** 
 289:build/openmote-cc2538_armgcc/openstack/02a-MAClow/IEEE802154E.c **** /**
 290:build/openmote-cc2538_armgcc/openstack/02a-MAClow/IEEE802154E.c **** \brief Indicates the radio just received the first byte of a packet.
 291:build/openmote-cc2538_armgcc/openstack/02a-MAClow/IEEE802154E.c **** 
 292:build/openmote-cc2538_armgcc/openstack/02a-MAClow/IEEE802154E.c **** This function executes in ISR mode.
 293:build/openmote-cc2538_armgcc/openstack/02a-MAClow/IEEE802154E.c **** */
 294:build/openmote-cc2538_armgcc/openstack/02a-MAClow/IEEE802154E.c **** void ieee154e_startOfFrame(PORT_RADIOTIMER_WIDTH capturedTime) {
 574              		.loc 1 294 0
 575              		.cfi_startproc
 576              		@ args = 0, pretend = 0, frame = 8
 577              		@ frame_needed = 1, uses_anonymous_args = 0
 578 0358 80B5     		push	{r7, lr}
 579              		.cfi_def_cfa_offset 8
 580              		.cfi_offset 7, -8
 581              		.cfi_offset 14, -4
 582 035a 82B0     		sub	sp, sp, #8
 583              		.cfi_def_cfa_offset 16
 584 035c 00AF     		add	r7, sp, #0
 585              		.cfi_def_cfa_register 7
 586 035e 7860     		str	r0, [r7, #4]
 295:build/openmote-cc2538_armgcc/openstack/02a-MAClow/IEEE802154E.c ****    if (ieee154e_vars.isSync==FALSE) {
 587              		.loc 1 295 0
 588 0360 40F20003 		movw	r3, #:lower16:ieee154e_vars
 589 0364 C0F20003 		movt	r3, #:upper16:ieee154e_vars
 590 0368 1B7C     		ldrb	r3, [r3, #16]	@ zero_extendqisi2
 591 036a 83F00103 		eor	r3, r3, #1
 592 036e DBB2     		uxtb	r3, r3
 593 0370 002B     		cmp	r3, #0
 594 0372 03D0     		beq	.L40
 296:build/openmote-cc2538_armgcc/openstack/02a-MAClow/IEEE802154E.c ****      activity_synchronize_startOfFrame(capturedTime);
 595              		.loc 1 296 0
 596 0374 7868     		ldr	r0, [r7, #4]
 597 0376 FFF7FEFF 		bl	activity_synchronize_startOfFrame
 598 037a 50E0     		b	.L41
 599              	.L40:
 297:build/openmote-cc2538_armgcc/openstack/02a-MAClow/IEEE802154E.c ****    } else {
 298:build/openmote-cc2538_armgcc/openstack/02a-MAClow/IEEE802154E.c ****       switch (ieee154e_vars.state) {
 600              		.loc 1 298 0
 601 037c 40F20003 		movw	r3, #:lower16:ieee154e_vars
 602 0380 C0F20003 		movt	r3, #:upper16:ieee154e_vars
 603 0384 93F82831 		ldrb	r3, [r3, #296]	@ zero_extendqisi2
 604 0388 073B     		subs	r3, r3, #7
 605 038a 102B     		cmp	r3, #16
 606 038c 34D8     		bhi	.L42
 607 038e 01A2     		adr	r2, .L44
 608 0390 52F823F0 		ldr	pc, [r2, r3, lsl #2]
 609              		.p2align 2
 610              	.L44:
 611 0394 D9030000 		.word	.L43+1
 612 0398 F9030000 		.word	.L42+1
 613 039c F9030000 		.word	.L42+1
 614 03a0 F9030000 		.word	.L42+1
 615 03a4 E1030000 		.word	.L45+1
 616 03a8 E1030000 		.word	.L45+1
 617 03ac F9030000 		.word	.L42+1
 618 03b0 F9030000 		.word	.L42+1
 619 03b4 F9030000 		.word	.L42+1
 620 03b8 F9030000 		.word	.L42+1
 621 03bc E9030000 		.word	.L46+1
 622 03c0 E9030000 		.word	.L46+1
 623 03c4 F9030000 		.word	.L42+1
 624 03c8 F9030000 		.word	.L42+1
 625 03cc F9030000 		.word	.L42+1
 626 03d0 F9030000 		.word	.L42+1
 627 03d4 F1030000 		.word	.L47+1
 628              	.L43:
 299:build/openmote-cc2538_armgcc/openstack/02a-MAClow/IEEE802154E.c ****          case S_TXDATADELAY:   
 300:build/openmote-cc2538_armgcc/openstack/02a-MAClow/IEEE802154E.c ****             activity_ti4(capturedTime);
 629              		.loc 1 300 0
 630 03d8 7868     		ldr	r0, [r7, #4]
 631 03da FFF7FEFF 		bl	activity_ti4
 301:build/openmote-cc2538_armgcc/openstack/02a-MAClow/IEEE802154E.c ****             break;
 632              		.loc 1 301 0
 633 03de 1EE0     		b	.L41
 634              	.L45:
 302:build/openmote-cc2538_armgcc/openstack/02a-MAClow/IEEE802154E.c ****          case S_RXACKREADY:
 303:build/openmote-cc2538_armgcc/openstack/02a-MAClow/IEEE802154E.c ****             /*
 304:build/openmote-cc2538_armgcc/openstack/02a-MAClow/IEEE802154E.c ****             It is possible to receive in this state for radio where there is no
 305:build/openmote-cc2538_armgcc/openstack/02a-MAClow/IEEE802154E.c ****             way of differentiated between "ready to listen" and "listening"
 306:build/openmote-cc2538_armgcc/openstack/02a-MAClow/IEEE802154E.c ****             (e.g. CC2420). We must therefore expect to the start of a packet in
 307:build/openmote-cc2538_armgcc/openstack/02a-MAClow/IEEE802154E.c ****             this "ready" state.
 308:build/openmote-cc2538_armgcc/openstack/02a-MAClow/IEEE802154E.c ****             */
 309:build/openmote-cc2538_armgcc/openstack/02a-MAClow/IEEE802154E.c ****             // no break!
 310:build/openmote-cc2538_armgcc/openstack/02a-MAClow/IEEE802154E.c ****          case S_RXACKLISTEN:
 311:build/openmote-cc2538_armgcc/openstack/02a-MAClow/IEEE802154E.c ****             activity_ti8(capturedTime);
 635              		.loc 1 311 0
 636 03e0 7868     		ldr	r0, [r7, #4]
 637 03e2 FFF7FEFF 		bl	activity_ti8
 312:build/openmote-cc2538_armgcc/openstack/02a-MAClow/IEEE802154E.c ****             break;
 638              		.loc 1 312 0
 639 03e6 1AE0     		b	.L41
 640              	.L46:
 313:build/openmote-cc2538_armgcc/openstack/02a-MAClow/IEEE802154E.c ****          case S_RXDATAREADY:
 314:build/openmote-cc2538_armgcc/openstack/02a-MAClow/IEEE802154E.c ****             /*
 315:build/openmote-cc2538_armgcc/openstack/02a-MAClow/IEEE802154E.c ****             Similarly as above.
 316:build/openmote-cc2538_armgcc/openstack/02a-MAClow/IEEE802154E.c ****             */
 317:build/openmote-cc2538_armgcc/openstack/02a-MAClow/IEEE802154E.c ****             // no break!
 318:build/openmote-cc2538_armgcc/openstack/02a-MAClow/IEEE802154E.c ****          case S_RXDATALISTEN:
 319:build/openmote-cc2538_armgcc/openstack/02a-MAClow/IEEE802154E.c ****             activity_ri4(capturedTime);
 641              		.loc 1 319 0
 642 03e8 7868     		ldr	r0, [r7, #4]
 643 03ea FFF7FEFF 		bl	activity_ri4
 320:build/openmote-cc2538_armgcc/openstack/02a-MAClow/IEEE802154E.c ****             break;
 644              		.loc 1 320 0
 645 03ee 16E0     		b	.L41
 646              	.L47:
 321:build/openmote-cc2538_armgcc/openstack/02a-MAClow/IEEE802154E.c ****          case S_TXACKDELAY:
 322:build/openmote-cc2538_armgcc/openstack/02a-MAClow/IEEE802154E.c ****             activity_ri8(capturedTime);
 647              		.loc 1 322 0
 648 03f0 7868     		ldr	r0, [r7, #4]
 649 03f2 FFF7FEFF 		bl	activity_ri8
 323:build/openmote-cc2538_armgcc/openstack/02a-MAClow/IEEE802154E.c ****             break;
 650              		.loc 1 323 0
 651 03f6 12E0     		b	.L41
 652              	.L42:
 324:build/openmote-cc2538_armgcc/openstack/02a-MAClow/IEEE802154E.c ****          default:
 325:build/openmote-cc2538_armgcc/openstack/02a-MAClow/IEEE802154E.c ****             // log the error
 326:build/openmote-cc2538_armgcc/openstack/02a-MAClow/IEEE802154E.c ****             openserial_printError(COMPONENT_IEEE802154E,ERR_WRONG_STATE_IN_NEWSLOT,
 327:build/openmote-cc2538_armgcc/openstack/02a-MAClow/IEEE802154E.c ****                                   (errorparameter_t)ieee154e_vars.state,
 653              		.loc 1 327 0
 654 03f8 40F20003 		movw	r3, #:lower16:ieee154e_vars
 655 03fc C0F20003 		movt	r3, #:upper16:ieee154e_vars
 656 0400 93F82831 		ldrb	r3, [r3, #296]	@ zero_extendqisi2
 326:build/openmote-cc2538_armgcc/openstack/02a-MAClow/IEEE802154E.c ****                                   (errorparameter_t)ieee154e_vars.state,
 657              		.loc 1 326 0
 658 0404 1A46     		mov	r2, r3
 659 0406 40F20003 		movw	r3, #:lower16:ieee154e_vars
 660 040a C0F20003 		movt	r3, #:upper16:ieee154e_vars
 661 040e DB88     		ldrh	r3, [r3, #6]
 662 0410 0920     		movs	r0, #9
 663 0412 2021     		movs	r1, #32
 664 0414 FFF7FEFF 		bl	openserial_printError
 328:build/openmote-cc2538_armgcc/openstack/02a-MAClow/IEEE802154E.c ****                                   (errorparameter_t)ieee154e_vars.slotOffset);
 329:build/openmote-cc2538_armgcc/openstack/02a-MAClow/IEEE802154E.c ****             // abort
 330:build/openmote-cc2538_armgcc/openstack/02a-MAClow/IEEE802154E.c ****             endSlot();
 665              		.loc 1 330 0
 666 0418 FFF7FEFF 		bl	endSlot
 331:build/openmote-cc2538_armgcc/openstack/02a-MAClow/IEEE802154E.c ****             break;
 667              		.loc 1 331 0
 668 041c 00BF     		nop
 669              	.L41:
 332:build/openmote-cc2538_armgcc/openstack/02a-MAClow/IEEE802154E.c ****       }
 333:build/openmote-cc2538_armgcc/openstack/02a-MAClow/IEEE802154E.c ****    }
 334:build/openmote-cc2538_armgcc/openstack/02a-MAClow/IEEE802154E.c ****    ieee154e_dbg.num_startOfFrame++;
 670              		.loc 1 334 0
 671 041e 40F20003 		movw	r3, #:lower16:ieee154e_dbg
 672 0422 C0F20003 		movt	r3, #:upper16:ieee154e_dbg
 673 0426 9B68     		ldr	r3, [r3, #8]
 674 0428 5A1C     		adds	r2, r3, #1
 675 042a 40F20003 		movw	r3, #:lower16:ieee154e_dbg
 676 042e C0F20003 		movt	r3, #:upper16:ieee154e_dbg
 677 0432 9A60     		str	r2, [r3, #8]
 335:build/openmote-cc2538_armgcc/openstack/02a-MAClow/IEEE802154E.c **** }
 678              		.loc 1 335 0
 679 0434 0837     		adds	r7, r7, #8
 680 0436 BD46     		mov	sp, r7
 681              		@ sp needed
 682 0438 80BD     		pop	{r7, pc}
 683              		.cfi_endproc
 684              	.LFE4:
 686 043a 00BF     		.align	2
 687              		.global	ieee154e_endOfFrame
 688              		.thumb
 689              		.thumb_func
 691              	ieee154e_endOfFrame:
 692              	.LFB5:
 336:build/openmote-cc2538_armgcc/openstack/02a-MAClow/IEEE802154E.c **** 
 337:build/openmote-cc2538_armgcc/openstack/02a-MAClow/IEEE802154E.c **** /**
 338:build/openmote-cc2538_armgcc/openstack/02a-MAClow/IEEE802154E.c **** \brief Indicates the radio just received the last byte of a packet.
 339:build/openmote-cc2538_armgcc/openstack/02a-MAClow/IEEE802154E.c **** 
 340:build/openmote-cc2538_armgcc/openstack/02a-MAClow/IEEE802154E.c **** This function executes in ISR mode.
 341:build/openmote-cc2538_armgcc/openstack/02a-MAClow/IEEE802154E.c **** */
 342:build/openmote-cc2538_armgcc/openstack/02a-MAClow/IEEE802154E.c **** void ieee154e_endOfFrame(PORT_RADIOTIMER_WIDTH capturedTime) {
 693              		.loc 1 342 0
 694              		.cfi_startproc
 695              		@ args = 0, pretend = 0, frame = 8
 696              		@ frame_needed = 1, uses_anonymous_args = 0
 697 043c 80B5     		push	{r7, lr}
 698              		.cfi_def_cfa_offset 8
 699              		.cfi_offset 7, -8
 700              		.cfi_offset 14, -4
 701 043e 82B0     		sub	sp, sp, #8
 702              		.cfi_def_cfa_offset 16
 703 0440 00AF     		add	r7, sp, #0
 704              		.cfi_def_cfa_register 7
 705 0442 7860     		str	r0, [r7, #4]
 343:build/openmote-cc2538_armgcc/openstack/02a-MAClow/IEEE802154E.c ****    if (ieee154e_vars.isSync==FALSE) {
 706              		.loc 1 343 0
 707 0444 40F20003 		movw	r3, #:lower16:ieee154e_vars
 708 0448 C0F20003 		movt	r3, #:upper16:ieee154e_vars
 709 044c 1B7C     		ldrb	r3, [r3, #16]	@ zero_extendqisi2
 710 044e 83F00103 		eor	r3, r3, #1
 711 0452 DBB2     		uxtb	r3, r3
 712 0454 002B     		cmp	r3, #0
 713 0456 03D0     		beq	.L49
 344:build/openmote-cc2538_armgcc/openstack/02a-MAClow/IEEE802154E.c ****       activity_synchronize_endOfFrame(capturedTime);
 714              		.loc 1 344 0
 715 0458 7868     		ldr	r0, [r7, #4]
 716 045a FFF7FEFF 		bl	activity_synchronize_endOfFrame
 717 045e 50E0     		b	.L50
 718              	.L49:
 345:build/openmote-cc2538_armgcc/openstack/02a-MAClow/IEEE802154E.c ****    } else {
 346:build/openmote-cc2538_armgcc/openstack/02a-MAClow/IEEE802154E.c ****       switch (ieee154e_vars.state) {
 719              		.loc 1 346 0
 720 0460 40F20003 		movw	r3, #:lower16:ieee154e_vars
 721 0464 C0F20003 		movt	r3, #:upper16:ieee154e_vars
 722 0468 93F82831 		ldrb	r3, [r3, #296]	@ zero_extendqisi2
 723 046c 083B     		subs	r3, r3, #8
 724 046e 102B     		cmp	r3, #16
 725 0470 34D8     		bhi	.L51
 726 0472 01A2     		adr	r2, .L53
 727 0474 52F823F0 		ldr	pc, [r2, r3, lsl #2]
 728              		.p2align 2
 729              	.L53:
 730 0478 BD040000 		.word	.L52+1
 731 047c DD040000 		.word	.L51+1
 732 0480 DD040000 		.word	.L51+1
 733 0484 DD040000 		.word	.L51+1
 734 0488 DD040000 		.word	.L51+1
 735 048c C5040000 		.word	.L54+1
 736 0490 DD040000 		.word	.L51+1
 737 0494 DD040000 		.word	.L51+1
 738 0498 DD040000 		.word	.L51+1
 739 049c DD040000 		.word	.L51+1
 740 04a0 DD040000 		.word	.L51+1
 741 04a4 CD040000 		.word	.L55+1
 742 04a8 DD040000 		.word	.L51+1
 743 04ac DD040000 		.word	.L51+1
 744 04b0 DD040000 		.word	.L51+1
 745 04b4 DD040000 		.word	.L51+1
 746 04b8 D5040000 		.word	.L56+1
 747              	.L52:
 347:build/openmote-cc2538_armgcc/openstack/02a-MAClow/IEEE802154E.c ****          case S_TXDATA:
 348:build/openmote-cc2538_armgcc/openstack/02a-MAClow/IEEE802154E.c ****             activity_ti5(capturedTime);
 748              		.loc 1 348 0
 749 04bc 7868     		ldr	r0, [r7, #4]
 750 04be FFF7FEFF 		bl	activity_ti5
 349:build/openmote-cc2538_armgcc/openstack/02a-MAClow/IEEE802154E.c ****             break;
 751              		.loc 1 349 0
 752 04c2 1EE0     		b	.L50
 753              	.L54:
 350:build/openmote-cc2538_armgcc/openstack/02a-MAClow/IEEE802154E.c ****          case S_RXACK:
 351:build/openmote-cc2538_armgcc/openstack/02a-MAClow/IEEE802154E.c ****             activity_ti9(capturedTime);
 754              		.loc 1 351 0
 755 04c4 7868     		ldr	r0, [r7, #4]
 756 04c6 FFF7FEFF 		bl	activity_ti9
 352:build/openmote-cc2538_armgcc/openstack/02a-MAClow/IEEE802154E.c ****             break;
 757              		.loc 1 352 0
 758 04ca 1AE0     		b	.L50
 759              	.L55:
 353:build/openmote-cc2538_armgcc/openstack/02a-MAClow/IEEE802154E.c ****          case S_RXDATA:
 354:build/openmote-cc2538_armgcc/openstack/02a-MAClow/IEEE802154E.c ****             activity_ri5(capturedTime);
 760              		.loc 1 354 0
 761 04cc 7868     		ldr	r0, [r7, #4]
 762 04ce FFF7FEFF 		bl	activity_ri5
 355:build/openmote-cc2538_armgcc/openstack/02a-MAClow/IEEE802154E.c ****             break;
 763              		.loc 1 355 0
 764 04d2 16E0     		b	.L50
 765              	.L56:
 356:build/openmote-cc2538_armgcc/openstack/02a-MAClow/IEEE802154E.c ****          case S_TXACK:
 357:build/openmote-cc2538_armgcc/openstack/02a-MAClow/IEEE802154E.c ****             activity_ri9(capturedTime);
 766              		.loc 1 357 0
 767 04d4 7868     		ldr	r0, [r7, #4]
 768 04d6 FFF7FEFF 		bl	activity_ri9
 358:build/openmote-cc2538_armgcc/openstack/02a-MAClow/IEEE802154E.c ****             break;
 769              		.loc 1 358 0
 770 04da 12E0     		b	.L50
 771              	.L51:
 359:build/openmote-cc2538_armgcc/openstack/02a-MAClow/IEEE802154E.c ****          default:
 360:build/openmote-cc2538_armgcc/openstack/02a-MAClow/IEEE802154E.c ****             // log the error
 361:build/openmote-cc2538_armgcc/openstack/02a-MAClow/IEEE802154E.c ****             openserial_printError(COMPONENT_IEEE802154E,ERR_WRONG_STATE_IN_ENDOFFRAME,
 362:build/openmote-cc2538_armgcc/openstack/02a-MAClow/IEEE802154E.c ****                                   (errorparameter_t)ieee154e_vars.state,
 772              		.loc 1 362 0
 773 04dc 40F20003 		movw	r3, #:lower16:ieee154e_vars
 774 04e0 C0F20003 		movt	r3, #:upper16:ieee154e_vars
 775 04e4 93F82831 		ldrb	r3, [r3, #296]	@ zero_extendqisi2
 361:build/openmote-cc2538_armgcc/openstack/02a-MAClow/IEEE802154E.c ****                                   (errorparameter_t)ieee154e_vars.state,
 776              		.loc 1 361 0
 777 04e8 1A46     		mov	r2, r3
 778 04ea 40F20003 		movw	r3, #:lower16:ieee154e_vars
 779 04ee C0F20003 		movt	r3, #:upper16:ieee154e_vars
 780 04f2 DB88     		ldrh	r3, [r3, #6]
 781 04f4 0920     		movs	r0, #9
 782 04f6 2121     		movs	r1, #33
 783 04f8 FFF7FEFF 		bl	openserial_printError
 363:build/openmote-cc2538_armgcc/openstack/02a-MAClow/IEEE802154E.c ****                                   (errorparameter_t)ieee154e_vars.slotOffset);
 364:build/openmote-cc2538_armgcc/openstack/02a-MAClow/IEEE802154E.c ****             // abort
 365:build/openmote-cc2538_armgcc/openstack/02a-MAClow/IEEE802154E.c ****             endSlot();
 784              		.loc 1 365 0
 785 04fc FFF7FEFF 		bl	endSlot
 366:build/openmote-cc2538_armgcc/openstack/02a-MAClow/IEEE802154E.c ****             break;
 786              		.loc 1 366 0
 787 0500 00BF     		nop
 788              	.L50:
 367:build/openmote-cc2538_armgcc/openstack/02a-MAClow/IEEE802154E.c ****       }
 368:build/openmote-cc2538_armgcc/openstack/02a-MAClow/IEEE802154E.c ****    }
 369:build/openmote-cc2538_armgcc/openstack/02a-MAClow/IEEE802154E.c ****    ieee154e_dbg.num_endOfFrame++;
 789              		.loc 1 369 0
 790 0502 40F20003 		movw	r3, #:lower16:ieee154e_dbg
 791 0506 C0F20003 		movt	r3, #:upper16:ieee154e_dbg
 792 050a DB68     		ldr	r3, [r3, #12]
 793 050c 5A1C     		adds	r2, r3, #1
 794 050e 40F20003 		movw	r3, #:lower16:ieee154e_dbg
 795 0512 C0F20003 		movt	r3, #:upper16:ieee154e_dbg
 796 0516 DA60     		str	r2, [r3, #12]
 370:build/openmote-cc2538_armgcc/openstack/02a-MAClow/IEEE802154E.c **** }
 797              		.loc 1 370 0
 798 0518 0837     		adds	r7, r7, #8
 799 051a BD46     		mov	sp, r7
 800              		@ sp needed
 801 051c 80BD     		pop	{r7, pc}
 802              		.cfi_endproc
 803              	.LFE5:
 805 051e 00BF     		.align	2
 806              		.global	debugPrint_asn
 807              		.thumb
 808              		.thumb_func
 810              	debugPrint_asn:
 811              	.LFB6:
 371:build/openmote-cc2538_armgcc/openstack/02a-MAClow/IEEE802154E.c **** 
 372:build/openmote-cc2538_armgcc/openstack/02a-MAClow/IEEE802154E.c **** //======= misc
 373:build/openmote-cc2538_armgcc/openstack/02a-MAClow/IEEE802154E.c **** 
 374:build/openmote-cc2538_armgcc/openstack/02a-MAClow/IEEE802154E.c **** /**
 375:build/openmote-cc2538_armgcc/openstack/02a-MAClow/IEEE802154E.c **** \brief Trigger this module to print status information, over serial.
 376:build/openmote-cc2538_armgcc/openstack/02a-MAClow/IEEE802154E.c **** 
 377:build/openmote-cc2538_armgcc/openstack/02a-MAClow/IEEE802154E.c **** debugPrint_* functions are used by the openserial module to continuously print
 378:build/openmote-cc2538_armgcc/openstack/02a-MAClow/IEEE802154E.c **** status information about several modules in the OpenWSN stack.
 379:build/openmote-cc2538_armgcc/openstack/02a-MAClow/IEEE802154E.c **** 
 380:build/openmote-cc2538_armgcc/openstack/02a-MAClow/IEEE802154E.c **** \returns TRUE if this function printed something, FALSE otherwise.
 381:build/openmote-cc2538_armgcc/openstack/02a-MAClow/IEEE802154E.c **** */
 382:build/openmote-cc2538_armgcc/openstack/02a-MAClow/IEEE802154E.c **** bool debugPrint_asn() {
 812              		.loc 1 382 0
 813              		.cfi_startproc
 814              		@ args = 0, pretend = 0, frame = 8
 815              		@ frame_needed = 1, uses_anonymous_args = 0
 816 0520 80B5     		push	{r7, lr}
 817              		.cfi_def_cfa_offset 8
 818              		.cfi_offset 7, -8
 819              		.cfi_offset 14, -4
 820 0522 82B0     		sub	sp, sp, #8
 821              		.cfi_def_cfa_offset 16
 822 0524 00AF     		add	r7, sp, #0
 823              		.cfi_def_cfa_register 7
 383:build/openmote-cc2538_armgcc/openstack/02a-MAClow/IEEE802154E.c ****    asn_t output;
 384:build/openmote-cc2538_armgcc/openstack/02a-MAClow/IEEE802154E.c ****    output.byte4         =  ieee154e_vars.asn.byte4;
 824              		.loc 1 384 0
 825 0526 40F20003 		movw	r3, #:lower16:ieee154e_vars
 826 052a C0F20003 		movt	r3, #:upper16:ieee154e_vars
 827 052e 1B78     		ldrb	r3, [r3]	@ zero_extendqisi2
 828 0530 3B70     		strb	r3, [r7]
 385:build/openmote-cc2538_armgcc/openstack/02a-MAClow/IEEE802154E.c ****    output.bytes2and3    =  ieee154e_vars.asn.bytes2and3;
 829              		.loc 1 385 0
 830 0532 40F20003 		movw	r3, #:lower16:ieee154e_vars
 831 0536 C0F20003 		movt	r3, #:upper16:ieee154e_vars
 832 053a B3F80130 		ldrh	r3, [r3, #1]	@ unaligned
 833 053e 9BB2     		uxth	r3, r3
 834 0540 A7F80130 		strh	r3, [r7, #1]	@ unaligned
 386:build/openmote-cc2538_armgcc/openstack/02a-MAClow/IEEE802154E.c ****    output.bytes0and1    =  ieee154e_vars.asn.bytes0and1;
 835              		.loc 1 386 0
 836 0544 40F20003 		movw	r3, #:lower16:ieee154e_vars
 837 0548 C0F20003 		movt	r3, #:upper16:ieee154e_vars
 838 054c B3F80330 		ldrh	r3, [r3, #3]	@ unaligned
 839 0550 9BB2     		uxth	r3, r3
 840 0552 A7F80330 		strh	r3, [r7, #3]	@ unaligned
 387:build/openmote-cc2538_armgcc/openstack/02a-MAClow/IEEE802154E.c ****    openserial_printStatus(STATUS_ASN,(uint8_t*)&output,sizeof(output));
 841              		.loc 1 387 0
 842 0556 3B46     		mov	r3, r7
 843 0558 0420     		movs	r0, #4
 844 055a 1946     		mov	r1, r3
 845 055c 0522     		movs	r2, #5
 846 055e FFF7FEFF 		bl	openserial_printStatus
 388:build/openmote-cc2538_armgcc/openstack/02a-MAClow/IEEE802154E.c ****    return TRUE;
 847              		.loc 1 388 0
 848 0562 0123     		movs	r3, #1
 389:build/openmote-cc2538_armgcc/openstack/02a-MAClow/IEEE802154E.c **** }
 849              		.loc 1 389 0
 850 0564 1846     		mov	r0, r3
 851 0566 0837     		adds	r7, r7, #8
 852 0568 BD46     		mov	sp, r7
 853              		@ sp needed
 854 056a 80BD     		pop	{r7, pc}
 855              		.cfi_endproc
 856              	.LFE6:
 858              		.align	2
 859              		.global	debugPrint_isSync
 860              		.thumb
 861              		.thumb_func
 863              	debugPrint_isSync:
 864              	.LFB7:
 390:build/openmote-cc2538_armgcc/openstack/02a-MAClow/IEEE802154E.c **** 
 391:build/openmote-cc2538_armgcc/openstack/02a-MAClow/IEEE802154E.c **** /**
 392:build/openmote-cc2538_armgcc/openstack/02a-MAClow/IEEE802154E.c **** \brief Trigger this module to print status information, over serial.
 393:build/openmote-cc2538_armgcc/openstack/02a-MAClow/IEEE802154E.c **** 
 394:build/openmote-cc2538_armgcc/openstack/02a-MAClow/IEEE802154E.c **** debugPrint_* functions are used by the openserial module to continuously print
 395:build/openmote-cc2538_armgcc/openstack/02a-MAClow/IEEE802154E.c **** status information about several modules in the OpenWSN stack.
 396:build/openmote-cc2538_armgcc/openstack/02a-MAClow/IEEE802154E.c **** 
 397:build/openmote-cc2538_armgcc/openstack/02a-MAClow/IEEE802154E.c **** \returns TRUE if this function printed something, FALSE otherwise.
 398:build/openmote-cc2538_armgcc/openstack/02a-MAClow/IEEE802154E.c **** */
 399:build/openmote-cc2538_armgcc/openstack/02a-MAClow/IEEE802154E.c **** bool debugPrint_isSync() {
 865              		.loc 1 399 0
 866              		.cfi_startproc
 867              		@ args = 0, pretend = 0, frame = 8
 868              		@ frame_needed = 1, uses_anonymous_args = 0
 869 056c 80B5     		push	{r7, lr}
 870              		.cfi_def_cfa_offset 8
 871              		.cfi_offset 7, -8
 872              		.cfi_offset 14, -4
 873 056e 82B0     		sub	sp, sp, #8
 874              		.cfi_def_cfa_offset 16
 875 0570 00AF     		add	r7, sp, #0
 876              		.cfi_def_cfa_register 7
 400:build/openmote-cc2538_armgcc/openstack/02a-MAClow/IEEE802154E.c ****    uint8_t output=0;
 877              		.loc 1 400 0
 878 0572 0023     		movs	r3, #0
 879 0574 FB71     		strb	r3, [r7, #7]
 401:build/openmote-cc2538_armgcc/openstack/02a-MAClow/IEEE802154E.c ****    output = ieee154e_vars.isSync;
 880              		.loc 1 401 0
 881 0576 40F20003 		movw	r3, #:lower16:ieee154e_vars
 882 057a C0F20003 		movt	r3, #:upper16:ieee154e_vars
 883 057e 1B7C     		ldrb	r3, [r3, #16]	@ zero_extendqisi2
 884 0580 FB71     		strb	r3, [r7, #7]
 402:build/openmote-cc2538_armgcc/openstack/02a-MAClow/IEEE802154E.c ****    openserial_printStatus(STATUS_ISSYNC,(uint8_t*)&output,sizeof(uint8_t));
 885              		.loc 1 402 0
 886 0582 FB1D     		adds	r3, r7, #7
 887 0584 0020     		movs	r0, #0
 888 0586 1946     		mov	r1, r3
 889 0588 0122     		movs	r2, #1
 890 058a FFF7FEFF 		bl	openserial_printStatus
 403:build/openmote-cc2538_armgcc/openstack/02a-MAClow/IEEE802154E.c ****    return TRUE;
 891              		.loc 1 403 0
 892 058e 0123     		movs	r3, #1
 404:build/openmote-cc2538_armgcc/openstack/02a-MAClow/IEEE802154E.c **** }
 893              		.loc 1 404 0
 894 0590 1846     		mov	r0, r3
 895 0592 0837     		adds	r7, r7, #8
 896 0594 BD46     		mov	sp, r7
 897              		@ sp needed
 898 0596 80BD     		pop	{r7, pc}
 899              		.cfi_endproc
 900              	.LFE7:
 902              		.align	2
 903              		.global	debugPrint_macStats
 904              		.thumb
 905              		.thumb_func
 907              	debugPrint_macStats:
 908              	.LFB8:
 405:build/openmote-cc2538_armgcc/openstack/02a-MAClow/IEEE802154E.c **** 
 406:build/openmote-cc2538_armgcc/openstack/02a-MAClow/IEEE802154E.c **** /**
 407:build/openmote-cc2538_armgcc/openstack/02a-MAClow/IEEE802154E.c **** \brief Trigger this module to print status information, over serial.
 408:build/openmote-cc2538_armgcc/openstack/02a-MAClow/IEEE802154E.c **** 
 409:build/openmote-cc2538_armgcc/openstack/02a-MAClow/IEEE802154E.c **** debugPrint_* functions are used by the openserial module to continuously print
 410:build/openmote-cc2538_armgcc/openstack/02a-MAClow/IEEE802154E.c **** status information about several modules in the OpenWSN stack.
 411:build/openmote-cc2538_armgcc/openstack/02a-MAClow/IEEE802154E.c **** 
 412:build/openmote-cc2538_armgcc/openstack/02a-MAClow/IEEE802154E.c **** \returns TRUE if this function printed something, FALSE otherwise.
 413:build/openmote-cc2538_armgcc/openstack/02a-MAClow/IEEE802154E.c **** */
 414:build/openmote-cc2538_armgcc/openstack/02a-MAClow/IEEE802154E.c **** bool debugPrint_macStats() {
 909              		.loc 1 414 0
 910              		.cfi_startproc
 911              		@ args = 0, pretend = 0, frame = 0
 912              		@ frame_needed = 1, uses_anonymous_args = 0
 913 0598 80B5     		push	{r7, lr}
 914              		.cfi_def_cfa_offset 8
 915              		.cfi_offset 7, -8
 916              		.cfi_offset 14, -4
 917 059a 00AF     		add	r7, sp, #0
 918              		.cfi_def_cfa_register 7
 415:build/openmote-cc2538_armgcc/openstack/02a-MAClow/IEEE802154E.c ****    // send current stats over serial
 416:build/openmote-cc2538_armgcc/openstack/02a-MAClow/IEEE802154E.c ****    openserial_printStatus(STATUS_MACSTATS,(uint8_t*)&ieee154e_stats,sizeof(ieee154e_stats_t));
 919              		.loc 1 416 0
 920 059c 0520     		movs	r0, #5
 921 059e 40F20001 		movw	r1, #:lower16:ieee154e_stats
 922 05a2 C0F20001 		movt	r1, #:upper16:ieee154e_stats
 923 05a6 0F22     		movs	r2, #15
 924 05a8 FFF7FEFF 		bl	openserial_printStatus
 417:build/openmote-cc2538_armgcc/openstack/02a-MAClow/IEEE802154E.c ****    return TRUE;
 925              		.loc 1 417 0
 926 05ac 0123     		movs	r3, #1
 418:build/openmote-cc2538_armgcc/openstack/02a-MAClow/IEEE802154E.c **** }
 927              		.loc 1 418 0
 928 05ae 1846     		mov	r0, r3
 929 05b0 80BD     		pop	{r7, pc}
 930              		.cfi_endproc
 931              	.LFE8:
 933 05b2 00BF     		.align	2
 934              		.global	activity_synchronize_newSlot
 935              		.thumb
 936              		.thumb_func
 938              	activity_synchronize_newSlot:
 939              	.LFB9:
 419:build/openmote-cc2538_armgcc/openstack/02a-MAClow/IEEE802154E.c **** 
 420:build/openmote-cc2538_armgcc/openstack/02a-MAClow/IEEE802154E.c **** //=========================== private =========================================
 421:build/openmote-cc2538_armgcc/openstack/02a-MAClow/IEEE802154E.c **** 
 422:build/openmote-cc2538_armgcc/openstack/02a-MAClow/IEEE802154E.c **** //======= SYNCHRONIZING
 423:build/openmote-cc2538_armgcc/openstack/02a-MAClow/IEEE802154E.c **** 
 424:build/openmote-cc2538_armgcc/openstack/02a-MAClow/IEEE802154E.c **** port_INLINE void activity_synchronize_newSlot() {
 940              		.loc 1 424 0
 941              		.cfi_startproc
 942              		@ args = 0, pretend = 0, frame = 0
 943              		@ frame_needed = 1, uses_anonymous_args = 0
 944 05b4 80B5     		push	{r7, lr}
 945              		.cfi_def_cfa_offset 8
 946              		.cfi_offset 7, -8
 947              		.cfi_offset 14, -4
 948 05b6 00AF     		add	r7, sp, #0
 949              		.cfi_def_cfa_register 7
 425:build/openmote-cc2538_armgcc/openstack/02a-MAClow/IEEE802154E.c ****    // I'm in the middle of receiving a packet
 426:build/openmote-cc2538_armgcc/openstack/02a-MAClow/IEEE802154E.c ****    if (ieee154e_vars.state==S_SYNCRX) {
 950              		.loc 1 426 0
 951 05b8 40F20003 		movw	r3, #:lower16:ieee154e_vars
 952 05bc C0F20003 		movt	r3, #:upper16:ieee154e_vars
 953 05c0 93F82831 		ldrb	r3, [r3, #296]	@ zero_extendqisi2
 954 05c4 022B     		cmp	r3, #2
 955 05c6 00D1     		bne	.L64
 427:build/openmote-cc2538_armgcc/openstack/02a-MAClow/IEEE802154E.c ****       return;
 956              		.loc 1 427 0
 957 05c8 92E0     		b	.L63
 958              	.L64:
 428:build/openmote-cc2538_armgcc/openstack/02a-MAClow/IEEE802154E.c ****    }
 429:build/openmote-cc2538_armgcc/openstack/02a-MAClow/IEEE802154E.c ****    
 430:build/openmote-cc2538_armgcc/openstack/02a-MAClow/IEEE802154E.c ****    // if this is the first time I call this function while not synchronized,
 431:build/openmote-cc2538_armgcc/openstack/02a-MAClow/IEEE802154E.c ****    // switch on the radio in Rx mode
 432:build/openmote-cc2538_armgcc/openstack/02a-MAClow/IEEE802154E.c ****    if (ieee154e_vars.state!=S_SYNCLISTEN) {
 959              		.loc 1 432 0
 960 05ca 40F20003 		movw	r3, #:lower16:ieee154e_vars
 961 05ce C0F20003 		movt	r3, #:upper16:ieee154e_vars
 962 05d2 93F82831 		ldrb	r3, [r3, #296]	@ zero_extendqisi2
 963 05d6 012B     		cmp	r3, #1
 964 05d8 22D0     		beq	.L66
 433:build/openmote-cc2538_armgcc/openstack/02a-MAClow/IEEE802154E.c ****       // change state
 434:build/openmote-cc2538_armgcc/openstack/02a-MAClow/IEEE802154E.c ****       changeState(S_SYNCLISTEN);
 965              		.loc 1 434 0
 966 05da 0120     		movs	r0, #1
 967 05dc FFF7FEFF 		bl	changeState
 435:build/openmote-cc2538_armgcc/openstack/02a-MAClow/IEEE802154E.c ****       
 436:build/openmote-cc2538_armgcc/openstack/02a-MAClow/IEEE802154E.c ****       // turn off the radio (in case it wasn't yet)
 437:build/openmote-cc2538_armgcc/openstack/02a-MAClow/IEEE802154E.c ****       radio_rfOff();
 968              		.loc 1 437 0
 969 05e0 FFF7FEFF 		bl	radio_rfOff
 438:build/openmote-cc2538_armgcc/openstack/02a-MAClow/IEEE802154E.c ****       
 439:build/openmote-cc2538_armgcc/openstack/02a-MAClow/IEEE802154E.c ****       // configure the radio to listen to the default synchronizing channel
 440:build/openmote-cc2538_armgcc/openstack/02a-MAClow/IEEE802154E.c ****       radio_setFrequency(SYNCHRONIZING_CHANNEL);
 970              		.loc 1 440 0
 971 05e4 1420     		movs	r0, #20
 972 05e6 FFF7FEFF 		bl	radio_setFrequency
 441:build/openmote-cc2538_armgcc/openstack/02a-MAClow/IEEE802154E.c ****       
 442:build/openmote-cc2538_armgcc/openstack/02a-MAClow/IEEE802154E.c ****       // update record of current channel
 443:build/openmote-cc2538_armgcc/openstack/02a-MAClow/IEEE802154E.c ****       ieee154e_vars.freq = SYNCHRONIZING_CHANNEL;
 973              		.loc 1 443 0
 974 05ea 40F20003 		movw	r3, #:lower16:ieee154e_vars
 975 05ee C0F20003 		movt	r3, #:upper16:ieee154e_vars
 976 05f2 1422     		movs	r2, #20
 977 05f4 83F84421 		strb	r2, [r3, #324]
 444:build/openmote-cc2538_armgcc/openstack/02a-MAClow/IEEE802154E.c ****       
 445:build/openmote-cc2538_armgcc/openstack/02a-MAClow/IEEE802154E.c ****       // switch on the radio in Rx mode.
 446:build/openmote-cc2538_armgcc/openstack/02a-MAClow/IEEE802154E.c ****       radio_rxEnable();
 978              		.loc 1 446 0
 979 05f8 FFF7FEFF 		bl	radio_rxEnable
 447:build/openmote-cc2538_armgcc/openstack/02a-MAClow/IEEE802154E.c ****       ieee154e_vars.radioOnInit=radio_getTimerValue();
 980              		.loc 1 447 0
 981 05fc FFF7FEFF 		bl	radio_getTimerValue
 982 0600 0246     		mov	r2, r0
 983 0602 40F20003 		movw	r3, #:lower16:ieee154e_vars
 984 0606 C0F20003 		movt	r3, #:upper16:ieee154e_vars
 985 060a C3F85C21 		str	r2, [r3, #348]
 448:build/openmote-cc2538_armgcc/openstack/02a-MAClow/IEEE802154E.c ****       ieee154e_vars.radioOnThisSlot=TRUE;
 986              		.loc 1 448 0
 987 060e 40F20003 		movw	r3, #:lower16:ieee154e_vars
 988 0612 C0F20003 		movt	r3, #:upper16:ieee154e_vars
 989 0616 0122     		movs	r2, #1
 990 0618 83F86421 		strb	r2, [r3, #356]
 449:build/openmote-cc2538_armgcc/openstack/02a-MAClow/IEEE802154E.c ****       radio_rxNow();
 991              		.loc 1 449 0
 992 061c FFF7FEFF 		bl	radio_rxNow
 993              	.L66:
 450:build/openmote-cc2538_armgcc/openstack/02a-MAClow/IEEE802154E.c ****    }
 451:build/openmote-cc2538_armgcc/openstack/02a-MAClow/IEEE802154E.c ****    
 452:build/openmote-cc2538_armgcc/openstack/02a-MAClow/IEEE802154E.c ****    // if I'm already in S_SYNCLISTEN, while not synchronized,
 453:build/openmote-cc2538_armgcc/openstack/02a-MAClow/IEEE802154E.c ****    // but the synchronizing channel has been changed,
 454:build/openmote-cc2538_armgcc/openstack/02a-MAClow/IEEE802154E.c ****    // change the synchronizing channel
 455:build/openmote-cc2538_armgcc/openstack/02a-MAClow/IEEE802154E.c ****    if ((ieee154e_vars.state==S_SYNCLISTEN) && (ieee154e_vars.singleChannelChanged == TRUE)) {
 994              		.loc 1 455 0
 995 0620 40F20003 		movw	r3, #:lower16:ieee154e_vars
 996 0624 C0F20003 		movt	r3, #:upper16:ieee154e_vars
 997 0628 93F82831 		ldrb	r3, [r3, #296]	@ zero_extendqisi2
 998 062c 012B     		cmp	r3, #1
 999 062e 3ED1     		bne	.L67
 1000              		.loc 1 455 0 is_stmt 0 discriminator 1
 1001 0630 40F20003 		movw	r3, #:lower16:ieee154e_vars
 1002 0634 C0F20003 		movt	r3, #:upper16:ieee154e_vars
 1003 0638 93F84731 		ldrb	r3, [r3, #327]	@ zero_extendqisi2
 1004 063c 002B     		cmp	r3, #0
 1005 063e 36D0     		beq	.L67
 456:build/openmote-cc2538_armgcc/openstack/02a-MAClow/IEEE802154E.c ****       // turn off the radio (in case it wasn't yet)
 457:build/openmote-cc2538_armgcc/openstack/02a-MAClow/IEEE802154E.c ****       radio_rfOff();
 1006              		.loc 1 457 0 is_stmt 1
 1007 0640 FFF7FEFF 		bl	radio_rfOff
 458:build/openmote-cc2538_armgcc/openstack/02a-MAClow/IEEE802154E.c ****       
 459:build/openmote-cc2538_armgcc/openstack/02a-MAClow/IEEE802154E.c ****       // update record of current channel
 460:build/openmote-cc2538_armgcc/openstack/02a-MAClow/IEEE802154E.c ****       ieee154e_vars.freq = calculateFrequency(ieee154e_vars.singleChannel);
 1008              		.loc 1 460 0
 1009 0644 40F20003 		movw	r3, #:lower16:ieee154e_vars
 1010 0648 C0F20003 		movt	r3, #:upper16:ieee154e_vars
 1011 064c 93F84631 		ldrb	r3, [r3, #326]	@ zero_extendqisi2
 1012 0650 1846     		mov	r0, r3
 1013 0652 FFF7FEFF 		bl	calculateFrequency
 1014 0656 0346     		mov	r3, r0
 1015 0658 1A46     		mov	r2, r3
 1016 065a 40F20003 		movw	r3, #:lower16:ieee154e_vars
 1017 065e C0F20003 		movt	r3, #:upper16:ieee154e_vars
 1018 0662 83F84421 		strb	r2, [r3, #324]
 461:build/openmote-cc2538_armgcc/openstack/02a-MAClow/IEEE802154E.c ****       
 462:build/openmote-cc2538_armgcc/openstack/02a-MAClow/IEEE802154E.c ****       // configure the radio to listen to the default synchronizing channel
 463:build/openmote-cc2538_armgcc/openstack/02a-MAClow/IEEE802154E.c ****       radio_setFrequency(ieee154e_vars.freq);
 1019              		.loc 1 463 0
 1020 0666 40F20003 		movw	r3, #:lower16:ieee154e_vars
 1021 066a C0F20003 		movt	r3, #:upper16:ieee154e_vars
 1022 066e 93F84431 		ldrb	r3, [r3, #324]	@ zero_extendqisi2
 1023 0672 1846     		mov	r0, r3
 1024 0674 FFF7FEFF 		bl	radio_setFrequency
 464:build/openmote-cc2538_armgcc/openstack/02a-MAClow/IEEE802154E.c ****       
 465:build/openmote-cc2538_armgcc/openstack/02a-MAClow/IEEE802154E.c ****       // switch on the radio in Rx mode.
 466:build/openmote-cc2538_armgcc/openstack/02a-MAClow/IEEE802154E.c ****       radio_rxEnable();
 1025              		.loc 1 466 0
 1026 0678 FFF7FEFF 		bl	radio_rxEnable
 467:build/openmote-cc2538_armgcc/openstack/02a-MAClow/IEEE802154E.c ****       ieee154e_vars.radioOnInit=radio_getTimerValue();
 1027              		.loc 1 467 0
 1028 067c FFF7FEFF 		bl	radio_getTimerValue
 1029 0680 0246     		mov	r2, r0
 1030 0682 40F20003 		movw	r3, #:lower16:ieee154e_vars
 1031 0686 C0F20003 		movt	r3, #:upper16:ieee154e_vars
 1032 068a C3F85C21 		str	r2, [r3, #348]
 468:build/openmote-cc2538_armgcc/openstack/02a-MAClow/IEEE802154E.c ****       ieee154e_vars.radioOnThisSlot=TRUE;
 1033              		.loc 1 468 0
 1034 068e 40F20003 		movw	r3, #:lower16:ieee154e_vars
 1035 0692 C0F20003 		movt	r3, #:upper16:ieee154e_vars
 1036 0696 0122     		movs	r2, #1
 1037 0698 83F86421 		strb	r2, [r3, #356]
 469:build/openmote-cc2538_armgcc/openstack/02a-MAClow/IEEE802154E.c ****       radio_rxNow();
 1038              		.loc 1 469 0
 1039 069c FFF7FEFF 		bl	radio_rxNow
 470:build/openmote-cc2538_armgcc/openstack/02a-MAClow/IEEE802154E.c ****       ieee154e_vars.singleChannelChanged = FALSE;
 1040              		.loc 1 470 0
 1041 06a0 40F20003 		movw	r3, #:lower16:ieee154e_vars
 1042 06a4 C0F20003 		movt	r3, #:upper16:ieee154e_vars
 1043 06a8 0022     		movs	r2, #0
 1044 06aa 83F84721 		strb	r2, [r3, #327]
 1045              	.L67:
 471:build/openmote-cc2538_armgcc/openstack/02a-MAClow/IEEE802154E.c ****    }
 472:build/openmote-cc2538_armgcc/openstack/02a-MAClow/IEEE802154E.c ****    
 473:build/openmote-cc2538_armgcc/openstack/02a-MAClow/IEEE802154E.c ****    // increment ASN (used only to schedule serial activity)
 474:build/openmote-cc2538_armgcc/openstack/02a-MAClow/IEEE802154E.c ****    incrementAsnOffset();
 1046              		.loc 1 474 0
 1047 06ae FFF7FEFF 		bl	incrementAsnOffset
 475:build/openmote-cc2538_armgcc/openstack/02a-MAClow/IEEE802154E.c ****    
 476:build/openmote-cc2538_armgcc/openstack/02a-MAClow/IEEE802154E.c ****    // to be able to receive and transmist serial even when not synchronized
 477:build/openmote-cc2538_armgcc/openstack/02a-MAClow/IEEE802154E.c ****    // take turns every 8 slots sending and receiving
 478:build/openmote-cc2538_armgcc/openstack/02a-MAClow/IEEE802154E.c ****    if        ((ieee154e_vars.asn.bytes0and1&0x000f)==0x0000) {
 1048              		.loc 1 478 0
 1049 06b2 40F20003 		movw	r3, #:lower16:ieee154e_vars
 1050 06b6 C0F20003 		movt	r3, #:upper16:ieee154e_vars
 1051 06ba B3F80330 		ldrh	r3, [r3, #3]	@ unaligned
 1052 06be 9BB2     		uxth	r3, r3
 1053 06c0 03F00F03 		and	r3, r3, #15
 1054 06c4 002B     		cmp	r3, #0
 1055 06c6 04D1     		bne	.L68
 479:build/openmote-cc2538_armgcc/openstack/02a-MAClow/IEEE802154E.c ****       openserial_stop();
 1056              		.loc 1 479 0
 1057 06c8 FFF7FEFF 		bl	openserial_stop
 480:build/openmote-cc2538_armgcc/openstack/02a-MAClow/IEEE802154E.c ****       openserial_startOutput();
 1058              		.loc 1 480 0
 1059 06cc FFF7FEFF 		bl	openserial_startOutput
 1060 06d0 0EE0     		b	.L63
 1061              	.L68:
 481:build/openmote-cc2538_armgcc/openstack/02a-MAClow/IEEE802154E.c ****    } else if ((ieee154e_vars.asn.bytes0and1&0x000f)==0x0008) {
 1062              		.loc 1 481 0
 1063 06d2 40F20003 		movw	r3, #:lower16:ieee154e_vars
 1064 06d6 C0F20003 		movt	r3, #:upper16:ieee154e_vars
 1065 06da B3F80330 		ldrh	r3, [r3, #3]	@ unaligned
 1066 06de 9BB2     		uxth	r3, r3
 1067 06e0 03F00F03 		and	r3, r3, #15
 1068 06e4 082B     		cmp	r3, #8
 1069 06e6 03D1     		bne	.L63
 482:build/openmote-cc2538_armgcc/openstack/02a-MAClow/IEEE802154E.c ****       openserial_stop();
 1070              		.loc 1 482 0
 1071 06e8 FFF7FEFF 		bl	openserial_stop
 483:build/openmote-cc2538_armgcc/openstack/02a-MAClow/IEEE802154E.c ****       openserial_startInput();
 1072              		.loc 1 483 0
 1073 06ec FFF7FEFF 		bl	openserial_startInput
 1074              	.L63:
 484:build/openmote-cc2538_armgcc/openstack/02a-MAClow/IEEE802154E.c ****    }
 485:build/openmote-cc2538_armgcc/openstack/02a-MAClow/IEEE802154E.c **** }
 1075              		.loc 1 485 0
 1076 06f0 80BD     		pop	{r7, pc}
 1077              		.cfi_endproc
 1078              	.LFE9:
 1080 06f2 00BF     		.align	2
 1081              		.global	activity_synchronize_startOfFrame
 1082              		.thumb
 1083              		.thumb_func
 1085              	activity_synchronize_startOfFrame:
 1086              	.LFB10:
 486:build/openmote-cc2538_armgcc/openstack/02a-MAClow/IEEE802154E.c **** 
 487:build/openmote-cc2538_armgcc/openstack/02a-MAClow/IEEE802154E.c **** port_INLINE void activity_synchronize_startOfFrame(PORT_RADIOTIMER_WIDTH capturedTime) {
 1087              		.loc 1 487 0
 1088              		.cfi_startproc
 1089              		@ args = 0, pretend = 0, frame = 8
 1090              		@ frame_needed = 1, uses_anonymous_args = 0
 1091 06f4 80B5     		push	{r7, lr}
 1092              		.cfi_def_cfa_offset 8
 1093              		.cfi_offset 7, -8
 1094              		.cfi_offset 14, -4
 1095 06f6 82B0     		sub	sp, sp, #8
 1096              		.cfi_def_cfa_offset 16
 1097 06f8 00AF     		add	r7, sp, #0
 1098              		.cfi_def_cfa_register 7
 1099 06fa 7860     		str	r0, [r7, #4]
 488:build/openmote-cc2538_armgcc/openstack/02a-MAClow/IEEE802154E.c ****    
 489:build/openmote-cc2538_armgcc/openstack/02a-MAClow/IEEE802154E.c ****    // don't care about packet if I'm not listening
 490:build/openmote-cc2538_armgcc/openstack/02a-MAClow/IEEE802154E.c ****    if (ieee154e_vars.state!=S_SYNCLISTEN) {
 1100              		.loc 1 490 0
 1101 06fc 40F20003 		movw	r3, #:lower16:ieee154e_vars
 1102 0700 C0F20003 		movt	r3, #:upper16:ieee154e_vars
 1103 0704 93F82831 		ldrb	r3, [r3, #296]	@ zero_extendqisi2
 1104 0708 012B     		cmp	r3, #1
 1105 070a 00D0     		beq	.L70
 491:build/openmote-cc2538_armgcc/openstack/02a-MAClow/IEEE802154E.c ****       return;
 1106              		.loc 1 491 0
 1107 070c 12E0     		b	.L69
 1108              	.L70:
 492:build/openmote-cc2538_armgcc/openstack/02a-MAClow/IEEE802154E.c ****    }
 493:build/openmote-cc2538_armgcc/openstack/02a-MAClow/IEEE802154E.c ****    
 494:build/openmote-cc2538_armgcc/openstack/02a-MAClow/IEEE802154E.c ****    // change state
 495:build/openmote-cc2538_armgcc/openstack/02a-MAClow/IEEE802154E.c ****    changeState(S_SYNCRX);
 1109              		.loc 1 495 0
 1110 070e 0220     		movs	r0, #2
 1111 0710 FFF7FEFF 		bl	changeState
 496:build/openmote-cc2538_armgcc/openstack/02a-MAClow/IEEE802154E.c ****    
 497:build/openmote-cc2538_armgcc/openstack/02a-MAClow/IEEE802154E.c ****    // stop the serial
 498:build/openmote-cc2538_armgcc/openstack/02a-MAClow/IEEE802154E.c ****    openserial_stop();
 1112              		.loc 1 498 0
 1113 0714 FFF7FEFF 		bl	openserial_stop
 499:build/openmote-cc2538_armgcc/openstack/02a-MAClow/IEEE802154E.c ****    
 500:build/openmote-cc2538_armgcc/openstack/02a-MAClow/IEEE802154E.c ****    // record the captured time 
 501:build/openmote-cc2538_armgcc/openstack/02a-MAClow/IEEE802154E.c ****    ieee154e_vars.lastCapturedTime = capturedTime;
 1114              		.loc 1 501 0
 1115 0718 40F20003 		movw	r3, #:lower16:ieee154e_vars
 1116 071c C0F20003 		movt	r3, #:upper16:ieee154e_vars
 1117 0720 7A68     		ldr	r2, [r7, #4]
 1118 0722 C3F83C21 		str	r2, [r3, #316]
 502:build/openmote-cc2538_armgcc/openstack/02a-MAClow/IEEE802154E.c ****    
 503:build/openmote-cc2538_armgcc/openstack/02a-MAClow/IEEE802154E.c ****    // record the captured time (for sync)
 504:build/openmote-cc2538_armgcc/openstack/02a-MAClow/IEEE802154E.c ****    ieee154e_vars.syncCapturedTime = capturedTime;
 1119              		.loc 1 504 0
 1120 0726 40F20003 		movw	r3, #:lower16:ieee154e_vars
 1121 072a C0F20003 		movt	r3, #:upper16:ieee154e_vars
 1122 072e 7A68     		ldr	r2, [r7, #4]
 1123 0730 C3F84021 		str	r2, [r3, #320]
 1124              	.L69:
 505:build/openmote-cc2538_armgcc/openstack/02a-MAClow/IEEE802154E.c **** }
 1125              		.loc 1 505 0
 1126 0734 0837     		adds	r7, r7, #8
 1127 0736 BD46     		mov	sp, r7
 1128              		@ sp needed
 1129 0738 80BD     		pop	{r7, pc}
 1130              		.cfi_endproc
 1131              	.LFE10:
 1133 073a 00BF     		.align	2
 1134              		.global	activity_synchronize_endOfFrame
 1135              		.thumb
 1136              		.thumb_func
 1138              	activity_synchronize_endOfFrame:
 1139              	.LFB11:
 506:build/openmote-cc2538_armgcc/openstack/02a-MAClow/IEEE802154E.c **** 
 507:build/openmote-cc2538_armgcc/openstack/02a-MAClow/IEEE802154E.c **** port_INLINE void activity_synchronize_endOfFrame(PORT_RADIOTIMER_WIDTH capturedTime) {
 1140              		.loc 1 507 0
 1141              		.cfi_startproc
 1142              		@ args = 0, pretend = 0, frame = 80
 1143              		@ frame_needed = 1, uses_anonymous_args = 0
 1144 073c B0B5     		push	{r4, r5, r7, lr}
 1145              		.cfi_def_cfa_offset 16
 1146              		.cfi_offset 4, -16
 1147              		.cfi_offset 5, -12
 1148              		.cfi_offset 7, -8
 1149              		.cfi_offset 14, -4
 1150 073e 96B0     		sub	sp, sp, #88
 1151              		.cfi_def_cfa_offset 104
 1152 0740 02AF     		add	r7, sp, #8
 1153              		.cfi_def_cfa 7, 96
 1154 0742 7860     		str	r0, [r7, #4]
 508:build/openmote-cc2538_armgcc/openstack/02a-MAClow/IEEE802154E.c ****    ieee802154_header_iht ieee802514_header;
 509:build/openmote-cc2538_armgcc/openstack/02a-MAClow/IEEE802154E.c ****    uint16_t              lenIE;
 510:build/openmote-cc2538_armgcc/openstack/02a-MAClow/IEEE802154E.c ****    
 511:build/openmote-cc2538_armgcc/openstack/02a-MAClow/IEEE802154E.c ****    // check state
 512:build/openmote-cc2538_armgcc/openstack/02a-MAClow/IEEE802154E.c ****    if (ieee154e_vars.state!=S_SYNCRX) {
 1155              		.loc 1 512 0
 1156 0744 40F20003 		movw	r3, #:lower16:ieee154e_vars
 1157 0748 C0F20003 		movt	r3, #:upper16:ieee154e_vars
 1158 074c 93F82831 		ldrb	r3, [r3, #296]	@ zero_extendqisi2
 1159 0750 022B     		cmp	r3, #2
 1160 0752 0DD0     		beq	.L73
 513:build/openmote-cc2538_armgcc/openstack/02a-MAClow/IEEE802154E.c ****       // log the error
 514:build/openmote-cc2538_armgcc/openstack/02a-MAClow/IEEE802154E.c ****       openserial_printError(COMPONENT_IEEE802154E,ERR_WRONG_STATE_IN_ENDFRAME_SYNC,
 515:build/openmote-cc2538_armgcc/openstack/02a-MAClow/IEEE802154E.c ****                             (errorparameter_t)ieee154e_vars.state,
 1161              		.loc 1 515 0
 1162 0754 40F20003 		movw	r3, #:lower16:ieee154e_vars
 1163 0758 C0F20003 		movt	r3, #:upper16:ieee154e_vars
 1164 075c 93F82831 		ldrb	r3, [r3, #296]	@ zero_extendqisi2
 514:build/openmote-cc2538_armgcc/openstack/02a-MAClow/IEEE802154E.c ****                             (errorparameter_t)ieee154e_vars.state,
 1165              		.loc 1 514 0
 1166 0760 0920     		movs	r0, #9
 1167 0762 1D21     		movs	r1, #29
 1168 0764 1A46     		mov	r2, r3
 1169 0766 0023     		movs	r3, #0
 1170 0768 FFF7FEFF 		bl	openserial_printError
 516:build/openmote-cc2538_armgcc/openstack/02a-MAClow/IEEE802154E.c ****                             (errorparameter_t)0);
 517:build/openmote-cc2538_armgcc/openstack/02a-MAClow/IEEE802154E.c ****       // abort
 518:build/openmote-cc2538_armgcc/openstack/02a-MAClow/IEEE802154E.c ****       endSlot();
 1171              		.loc 1 518 0
 1172 076c FFF7FEFF 		bl	endSlot
 1173              	.L73:
 519:build/openmote-cc2538_armgcc/openstack/02a-MAClow/IEEE802154E.c ****    }
 520:build/openmote-cc2538_armgcc/openstack/02a-MAClow/IEEE802154E.c ****    
 521:build/openmote-cc2538_armgcc/openstack/02a-MAClow/IEEE802154E.c ****    // change state
 522:build/openmote-cc2538_armgcc/openstack/02a-MAClow/IEEE802154E.c ****    changeState(S_SYNCPROC);
 1174              		.loc 1 522 0
 1175 0770 0320     		movs	r0, #3
 1176 0772 FFF7FEFF 		bl	changeState
 523:build/openmote-cc2538_armgcc/openstack/02a-MAClow/IEEE802154E.c ****    
 524:build/openmote-cc2538_armgcc/openstack/02a-MAClow/IEEE802154E.c ****    // get a buffer to put the (received) frame in
 525:build/openmote-cc2538_armgcc/openstack/02a-MAClow/IEEE802154E.c ****    ieee154e_vars.dataReceived = openqueue_getFreePacketBuffer(COMPONENT_IEEE802154E);
 1177              		.loc 1 525 0
 1178 0776 0920     		movs	r0, #9
 1179 0778 FFF7FEFF 		bl	openqueue_getFreePacketBuffer
 1180 077c 0246     		mov	r2, r0
 1181 077e 40F20003 		movw	r3, #:lower16:ieee154e_vars
 1182 0782 C0F20003 		movt	r3, #:upper16:ieee154e_vars
 1183 0786 C3F83021 		str	r2, [r3, #304]
 526:build/openmote-cc2538_armgcc/openstack/02a-MAClow/IEEE802154E.c ****    if (ieee154e_vars.dataReceived==NULL) {
 1184              		.loc 1 526 0
 1185 078a 40F20003 		movw	r3, #:lower16:ieee154e_vars
 1186 078e C0F20003 		movt	r3, #:upper16:ieee154e_vars
 1187 0792 D3F83031 		ldr	r3, [r3, #304]
 1188 0796 002B     		cmp	r3, #0
 1189 0798 08D1     		bne	.L74
 527:build/openmote-cc2538_armgcc/openstack/02a-MAClow/IEEE802154E.c ****       // log the error
 528:build/openmote-cc2538_armgcc/openstack/02a-MAClow/IEEE802154E.c ****       openserial_printError(COMPONENT_IEEE802154E,ERR_NO_FREE_PACKET_BUFFER,
 1190              		.loc 1 528 0
 1191 079a 0920     		movs	r0, #9
 1192 079c 2C21     		movs	r1, #44
 1193 079e 0022     		movs	r2, #0
 1194 07a0 0023     		movs	r3, #0
 1195 07a2 FFF7FEFF 		bl	openserial_printError
 529:build/openmote-cc2538_armgcc/openstack/02a-MAClow/IEEE802154E.c ****                             (errorparameter_t)0,
 530:build/openmote-cc2538_armgcc/openstack/02a-MAClow/IEEE802154E.c ****                             (errorparameter_t)0);
 531:build/openmote-cc2538_armgcc/openstack/02a-MAClow/IEEE802154E.c ****       // abort
 532:build/openmote-cc2538_armgcc/openstack/02a-MAClow/IEEE802154E.c ****       endSlot();
 1196              		.loc 1 532 0
 1197 07a6 FFF7FEFF 		bl	endSlot
 533:build/openmote-cc2538_armgcc/openstack/02a-MAClow/IEEE802154E.c ****       return;
 1198              		.loc 1 533 0
 1199 07aa 8AE1     		b	.L72
 1200              	.L74:
 534:build/openmote-cc2538_armgcc/openstack/02a-MAClow/IEEE802154E.c ****    }
 535:build/openmote-cc2538_armgcc/openstack/02a-MAClow/IEEE802154E.c ****    
 536:build/openmote-cc2538_armgcc/openstack/02a-MAClow/IEEE802154E.c ****    // declare ownership over that packet
 537:build/openmote-cc2538_armgcc/openstack/02a-MAClow/IEEE802154E.c ****    ieee154e_vars.dataReceived->creator = COMPONENT_IEEE802154E;
 1201              		.loc 1 537 0
 1202 07ac 40F20003 		movw	r3, #:lower16:ieee154e_vars
 1203 07b0 C0F20003 		movt	r3, #:upper16:ieee154e_vars
 1204 07b4 D3F83031 		ldr	r3, [r3, #304]
 1205 07b8 0922     		movs	r2, #9
 1206 07ba 1A70     		strb	r2, [r3]
 538:build/openmote-cc2538_armgcc/openstack/02a-MAClow/IEEE802154E.c ****    ieee154e_vars.dataReceived->owner   = COMPONENT_IEEE802154E;
 1207              		.loc 1 538 0
 1208 07bc 40F20003 		movw	r3, #:lower16:ieee154e_vars
 1209 07c0 C0F20003 		movt	r3, #:upper16:ieee154e_vars
 1210 07c4 D3F83031 		ldr	r3, [r3, #304]
 1211 07c8 0922     		movs	r2, #9
 1212 07ca 5A70     		strb	r2, [r3, #1]
 539:build/openmote-cc2538_armgcc/openstack/02a-MAClow/IEEE802154E.c ****    
 540:build/openmote-cc2538_armgcc/openstack/02a-MAClow/IEEE802154E.c ****    /*
 541:build/openmote-cc2538_armgcc/openstack/02a-MAClow/IEEE802154E.c ****    The do-while loop that follows is a little parsing trick.
 542:build/openmote-cc2538_armgcc/openstack/02a-MAClow/IEEE802154E.c ****    Because it contains a while(0) condition, it gets executed only once.
 543:build/openmote-cc2538_armgcc/openstack/02a-MAClow/IEEE802154E.c ****    The behavior is:
 544:build/openmote-cc2538_armgcc/openstack/02a-MAClow/IEEE802154E.c ****    - if a break occurs inside the do{} body, the error code below the loop
 545:build/openmote-cc2538_armgcc/openstack/02a-MAClow/IEEE802154E.c ****      gets executed. This indicates something is wrong with the packet being 
 546:build/openmote-cc2538_armgcc/openstack/02a-MAClow/IEEE802154E.c ****      parsed.
 547:build/openmote-cc2538_armgcc/openstack/02a-MAClow/IEEE802154E.c ****    - if a return occurs inside the do{} body, the error code below the loop
 548:build/openmote-cc2538_armgcc/openstack/02a-MAClow/IEEE802154E.c ****      does not get executed. This indicates the received packet is correct.
 549:build/openmote-cc2538_armgcc/openstack/02a-MAClow/IEEE802154E.c ****    */
 550:build/openmote-cc2538_armgcc/openstack/02a-MAClow/IEEE802154E.c ****    do { // this "loop" is only executed once
 551:build/openmote-cc2538_armgcc/openstack/02a-MAClow/IEEE802154E.c ****       
 552:build/openmote-cc2538_armgcc/openstack/02a-MAClow/IEEE802154E.c ****       // retrieve the received data frame from the radio's Rx buffer
 553:build/openmote-cc2538_armgcc/openstack/02a-MAClow/IEEE802154E.c ****       ieee154e_vars.dataReceived->payload = &(ieee154e_vars.dataReceived->packet[FIRST_FRAME_BYTE])
 1213              		.loc 1 553 0
 1214 07cc 40F20003 		movw	r3, #:lower16:ieee154e_vars
 1215 07d0 C0F20003 		movt	r3, #:upper16:ieee154e_vars
 1216 07d4 D3F83021 		ldr	r2, [r3, #304]
 1217 07d8 40F20003 		movw	r3, #:lower16:ieee154e_vars
 1218 07dc C0F20003 		movt	r3, #:upper16:ieee154e_vars
 1219 07e0 D3F83031 		ldr	r3, [r3, #304]
 1220 07e4 8D33     		adds	r3, r3, #141
 1221 07e6 5360     		str	r3, [r2, #4]
 554:build/openmote-cc2538_armgcc/openstack/02a-MAClow/IEEE802154E.c ****       radio_getReceivedFrame(       ieee154e_vars.dataReceived->payload,
 1222              		.loc 1 554 0
 1223 07e8 40F20003 		movw	r3, #:lower16:ieee154e_vars
 1224 07ec C0F20003 		movt	r3, #:upper16:ieee154e_vars
 1225 07f0 D3F83031 		ldr	r3, [r3, #304]
 1226 07f4 5968     		ldr	r1, [r3, #4]
 555:build/openmote-cc2538_armgcc/openstack/02a-MAClow/IEEE802154E.c ****                                    &ieee154e_vars.dataReceived->length,
 1227              		.loc 1 555 0
 1228 07f6 40F20003 		movw	r3, #:lower16:ieee154e_vars
 1229 07fa C0F20003 		movt	r3, #:upper16:ieee154e_vars
 1230 07fe D3F83031 		ldr	r3, [r3, #304]
 554:build/openmote-cc2538_armgcc/openstack/02a-MAClow/IEEE802154E.c ****       radio_getReceivedFrame(       ieee154e_vars.dataReceived->payload,
 1231              		.loc 1 554 0
 1232 0802 03F10802 		add	r2, r3, #8
 556:build/openmote-cc2538_armgcc/openstack/02a-MAClow/IEEE802154E.c ****                              sizeof(ieee154e_vars.dataReceived->packet),
 557:build/openmote-cc2538_armgcc/openstack/02a-MAClow/IEEE802154E.c ****                                    &ieee154e_vars.dataReceived->l1_rssi,
 1233              		.loc 1 557 0
 1234 0806 40F20003 		movw	r3, #:lower16:ieee154e_vars
 1235 080a C0F20003 		movt	r3, #:upper16:ieee154e_vars
 1236 080e D3F83031 		ldr	r3, [r3, #304]
 554:build/openmote-cc2538_armgcc/openstack/02a-MAClow/IEEE802154E.c ****                                    &ieee154e_vars.dataReceived->length,
 1237              		.loc 1 554 0
 1238 0812 03F18904 		add	r4, r3, #137
 558:build/openmote-cc2538_armgcc/openstack/02a-MAClow/IEEE802154E.c ****                                    &ieee154e_vars.dataReceived->l1_lqi,
 1239              		.loc 1 558 0
 1240 0816 40F20003 		movw	r3, #:lower16:ieee154e_vars
 1241 081a C0F20003 		movt	r3, #:upper16:ieee154e_vars
 1242 081e D3F83031 		ldr	r3, [r3, #304]
 554:build/openmote-cc2538_armgcc/openstack/02a-MAClow/IEEE802154E.c ****                                    &ieee154e_vars.dataReceived->length,
 1243              		.loc 1 554 0
 1244 0822 03F18A00 		add	r0, r3, #138
 559:build/openmote-cc2538_armgcc/openstack/02a-MAClow/IEEE802154E.c ****                                    &ieee154e_vars.dataReceived->l1_crc);
 1245              		.loc 1 559 0
 1246 0826 40F20003 		movw	r3, #:lower16:ieee154e_vars
 1247 082a C0F20003 		movt	r3, #:upper16:ieee154e_vars
 1248 082e D3F83031 		ldr	r3, [r3, #304]
 554:build/openmote-cc2538_armgcc/openstack/02a-MAClow/IEEE802154E.c ****                                    &ieee154e_vars.dataReceived->length,
 1249              		.loc 1 554 0
 1250 0832 8B33     		adds	r3, r3, #139
 1251 0834 0090     		str	r0, [sp]
 1252 0836 0193     		str	r3, [sp, #4]
 1253 0838 0846     		mov	r0, r1
 1254 083a 1146     		mov	r1, r2
 1255 083c 8222     		movs	r2, #130
 1256 083e 2346     		mov	r3, r4
 1257 0840 FFF7FEFF 		bl	radio_getReceivedFrame
 560:build/openmote-cc2538_armgcc/openstack/02a-MAClow/IEEE802154E.c ****       
 561:build/openmote-cc2538_armgcc/openstack/02a-MAClow/IEEE802154E.c ****       // break if packet too short
 562:build/openmote-cc2538_armgcc/openstack/02a-MAClow/IEEE802154E.c ****       if (ieee154e_vars.dataReceived->length<LENGTH_CRC || ieee154e_vars.dataReceived->length>LENGT
 1258              		.loc 1 562 0
 1259 0844 40F20003 		movw	r3, #:lower16:ieee154e_vars
 1260 0848 C0F20003 		movt	r3, #:upper16:ieee154e_vars
 1261 084c D3F83031 		ldr	r3, [r3, #304]
 1262 0850 1B7A     		ldrb	r3, [r3, #8]	@ zero_extendqisi2
 1263 0852 012B     		cmp	r3, #1
 1264 0854 08D9     		bls	.L76
 1265              		.loc 1 562 0 is_stmt 0 discriminator 1
 1266 0856 40F20003 		movw	r3, #:lower16:ieee154e_vars
 1267 085a C0F20003 		movt	r3, #:upper16:ieee154e_vars
 1268 085e D3F83031 		ldr	r3, [r3, #304]
 1269 0862 1B7A     		ldrb	r3, [r3, #8]	@ zero_extendqisi2
 1270 0864 802B     		cmp	r3, #128
 1271 0866 0CD9     		bls	.L77
 1272              	.L76:
 563:build/openmote-cc2538_armgcc/openstack/02a-MAClow/IEEE802154E.c ****          // break from the do-while loop and execute abort code below
 564:build/openmote-cc2538_armgcc/openstack/02a-MAClow/IEEE802154E.c ****           openserial_printError(COMPONENT_IEEE802154E,ERR_INVALIDPACKETFROMRADIO,
 565:build/openmote-cc2538_armgcc/openstack/02a-MAClow/IEEE802154E.c ****                             (errorparameter_t)0,
 566:build/openmote-cc2538_armgcc/openstack/02a-MAClow/IEEE802154E.c ****                             ieee154e_vars.dataReceived->length);
 1273              		.loc 1 566 0 is_stmt 1
 1274 0868 40F20003 		movw	r3, #:lower16:ieee154e_vars
 1275 086c C0F20003 		movt	r3, #:upper16:ieee154e_vars
 1276 0870 D3F83031 		ldr	r3, [r3, #304]
 1277 0874 1B7A     		ldrb	r3, [r3, #8]	@ zero_extendqisi2
 564:build/openmote-cc2538_armgcc/openstack/02a-MAClow/IEEE802154E.c ****                             (errorparameter_t)0,
 1278              		.loc 1 564 0
 1279 0876 0920     		movs	r0, #9
 1280 0878 3721     		movs	r1, #55
 1281 087a 0022     		movs	r2, #0
 1282 087c FFF7FEFF 		bl	openserial_printError
 567:build/openmote-cc2538_armgcc/openstack/02a-MAClow/IEEE802154E.c ****          break;
 1283              		.loc 1 567 0
 1284 0880 0CE1     		b	.L78
 1285              	.L77:
 568:build/openmote-cc2538_armgcc/openstack/02a-MAClow/IEEE802154E.c ****       }
 569:build/openmote-cc2538_armgcc/openstack/02a-MAClow/IEEE802154E.c ****       
 570:build/openmote-cc2538_armgcc/openstack/02a-MAClow/IEEE802154E.c ****       // toss CRC (2 last bytes)
 571:build/openmote-cc2538_armgcc/openstack/02a-MAClow/IEEE802154E.c ****       packetfunctions_tossFooter(   ieee154e_vars.dataReceived, LENGTH_CRC);
 1286              		.loc 1 571 0
 1287 0882 40F20003 		movw	r3, #:lower16:ieee154e_vars
 1288 0886 C0F20003 		movt	r3, #:upper16:ieee154e_vars
 1289 088a D3F83031 		ldr	r3, [r3, #304]
 1290 088e 1846     		mov	r0, r3
 1291 0890 0221     		movs	r1, #2
 1292 0892 FFF7FEFF 		bl	packetfunctions_tossFooter
 572:build/openmote-cc2538_armgcc/openstack/02a-MAClow/IEEE802154E.c ****       
 573:build/openmote-cc2538_armgcc/openstack/02a-MAClow/IEEE802154E.c ****       // break if invalid CRC
 574:build/openmote-cc2538_armgcc/openstack/02a-MAClow/IEEE802154E.c ****       if (ieee154e_vars.dataReceived->l1_crc==FALSE) {
 1293              		.loc 1 574 0
 1294 0896 40F20003 		movw	r3, #:lower16:ieee154e_vars
 1295 089a C0F20003 		movt	r3, #:upper16:ieee154e_vars
 1296 089e D3F83031 		ldr	r3, [r3, #304]
 1297 08a2 93F88B30 		ldrb	r3, [r3, #139]	@ zero_extendqisi2
 1298 08a6 83F00103 		eor	r3, r3, #1
 1299 08aa DBB2     		uxtb	r3, r3
 1300 08ac 002B     		cmp	r3, #0
 1301 08ae 00D0     		beq	.L79
 575:build/openmote-cc2538_armgcc/openstack/02a-MAClow/IEEE802154E.c ****          // break from the do-while loop and execute abort code below
 576:build/openmote-cc2538_armgcc/openstack/02a-MAClow/IEEE802154E.c ****          break;
 1302              		.loc 1 576 0
 1303 08b0 F4E0     		b	.L78
 1304              	.L79:
 577:build/openmote-cc2538_armgcc/openstack/02a-MAClow/IEEE802154E.c ****       }
 578:build/openmote-cc2538_armgcc/openstack/02a-MAClow/IEEE802154E.c ****       
 579:build/openmote-cc2538_armgcc/openstack/02a-MAClow/IEEE802154E.c ****       // parse the IEEE802.15.4 header (synchronize, end of frame)
 580:build/openmote-cc2538_armgcc/openstack/02a-MAClow/IEEE802154E.c ****       ieee802154_retrieveHeader(ieee154e_vars.dataReceived,&ieee802514_header);
 1305              		.loc 1 580 0
 1306 08b2 40F20003 		movw	r3, #:lower16:ieee154e_vars
 1307 08b6 C0F20003 		movt	r3, #:upper16:ieee154e_vars
 1308 08ba D3F83021 		ldr	r2, [r3, #304]
 1309 08be 07F11003 		add	r3, r7, #16
 1310 08c2 1046     		mov	r0, r2
 1311 08c4 1946     		mov	r1, r3
 1312 08c6 FFF7FEFF 		bl	ieee802154_retrieveHeader
 581:build/openmote-cc2538_armgcc/openstack/02a-MAClow/IEEE802154E.c ****       
 582:build/openmote-cc2538_armgcc/openstack/02a-MAClow/IEEE802154E.c ****       // break if invalid IEEE802.15.4 header
 583:build/openmote-cc2538_armgcc/openstack/02a-MAClow/IEEE802154E.c ****       if (ieee802514_header.valid==FALSE) {
 1313              		.loc 1 583 0
 1314 08ca 3B7C     		ldrb	r3, [r7, #16]	@ zero_extendqisi2
 1315 08cc 83F00103 		eor	r3, r3, #1
 1316 08d0 DBB2     		uxtb	r3, r3
 1317 08d2 002B     		cmp	r3, #0
 1318 08d4 00D0     		beq	.L80
 584:build/openmote-cc2538_armgcc/openstack/02a-MAClow/IEEE802154E.c ****          // break from the do-while loop and execute the clean-up code below
 585:build/openmote-cc2538_armgcc/openstack/02a-MAClow/IEEE802154E.c ****          break;
 1319              		.loc 1 585 0
 1320 08d6 E1E0     		b	.L78
 1321              	.L80:
 586:build/openmote-cc2538_armgcc/openstack/02a-MAClow/IEEE802154E.c ****       }
 587:build/openmote-cc2538_armgcc/openstack/02a-MAClow/IEEE802154E.c ****       
 588:build/openmote-cc2538_armgcc/openstack/02a-MAClow/IEEE802154E.c ****       // store header details in packet buffer
 589:build/openmote-cc2538_armgcc/openstack/02a-MAClow/IEEE802154E.c ****       ieee154e_vars.dataReceived->l2_frameType = ieee802514_header.frameType;
 1322              		.loc 1 589 0
 1323 08d8 40F20003 		movw	r3, #:lower16:ieee154e_vars
 1324 08dc C0F20003 		movt	r3, #:upper16:ieee154e_vars
 1325 08e0 D3F83031 		ldr	r3, [r3, #304]
 1326 08e4 BA7C     		ldrb	r2, [r7, #18]	@ zero_extendqisi2
 1327 08e6 83F84920 		strb	r2, [r3, #73]
 590:build/openmote-cc2538_armgcc/openstack/02a-MAClow/IEEE802154E.c ****       ieee154e_vars.dataReceived->l2_dsn       = ieee802514_header.dsn;
 1328              		.loc 1 590 0
 1329 08ea 40F20003 		movw	r3, #:lower16:ieee154e_vars
 1330 08ee C0F20003 		movt	r3, #:upper16:ieee154e_vars
 1331 08f2 D3F83031 		ldr	r3, [r3, #304]
 1332 08f6 7A7E     		ldrb	r2, [r7, #25]	@ zero_extendqisi2
 1333 08f8 83F84A20 		strb	r2, [r3, #74]
 591:build/openmote-cc2538_armgcc/openstack/02a-MAClow/IEEE802154E.c ****       memcpy(&(ieee154e_vars.dataReceived->l2_nextORpreviousHop),&(ieee802514_header.src),sizeof(op
 1334              		.loc 1 591 0
 1335 08fc 40F20003 		movw	r3, #:lower16:ieee154e_vars
 1336 0900 C0F20003 		movt	r3, #:upper16:ieee154e_vars
 1337 0904 D3F83031 		ldr	r3, [r3, #304]
 1338 0908 3833     		adds	r3, r3, #56
 1339 090a 07F13D02 		add	r2, r7, #61
 1340 090e 1568     		ldr	r5, [r2]	@ unaligned
 1341 0910 5468     		ldr	r4, [r2, #4]	@ unaligned
 1342 0912 9068     		ldr	r0, [r2, #8]	@ unaligned
 1343 0914 D168     		ldr	r1, [r2, #12]	@ unaligned
 1344 0916 1D60     		str	r5, [r3]	@ unaligned
 1345 0918 5C60     		str	r4, [r3, #4]	@ unaligned
 1346 091a 9860     		str	r0, [r3, #8]	@ unaligned
 1347 091c D960     		str	r1, [r3, #12]	@ unaligned
 1348 091e 127C     		ldrb	r2, [r2, #16]
 1349 0920 1A74     		strb	r2, [r3, #16]
 592:build/openmote-cc2538_armgcc/openstack/02a-MAClow/IEEE802154E.c **** 
 593:build/openmote-cc2538_armgcc/openstack/02a-MAClow/IEEE802154E.c ****       if (ieee154e_vars.dataReceived->l2_securityLevel != IEEE154_ASH_SLF_TYPE_NOSEC) {
 1350              		.loc 1 593 0
 1351 0922 40F20003 		movw	r3, #:lower16:ieee154e_vars
 1352 0926 C0F20003 		movt	r3, #:upper16:ieee154e_vars
 1353 092a D3F83031 		ldr	r3, [r3, #304]
 1354 092e 93F86C30 		ldrb	r3, [r3, #108]	@ zero_extendqisi2
 1355 0932 002B     		cmp	r3, #0
 1356 0934 2AD0     		beq	.L81
 594:build/openmote-cc2538_armgcc/openstack/02a-MAClow/IEEE802154E.c ****          // If we are not synced, we need to parse IEs and retrieve the ASN
 595:build/openmote-cc2538_armgcc/openstack/02a-MAClow/IEEE802154E.c ****          // before authenticating the beacon, because nonce is created from the ASN
 596:build/openmote-cc2538_armgcc/openstack/02a-MAClow/IEEE802154E.c ****          if (!ieee154e_vars.isSync && ieee802514_header.frameType == IEEE154_TYPE_BEACON) {
 1357              		.loc 1 596 0
 1358 0936 40F20003 		movw	r3, #:lower16:ieee154e_vars
 1359 093a C0F20003 		movt	r3, #:upper16:ieee154e_vars
 1360 093e 1B7C     		ldrb	r3, [r3, #16]	@ zero_extendqisi2
 1361 0940 83F00103 		eor	r3, r3, #1
 1362 0944 DBB2     		uxtb	r3, r3
 1363 0946 002B     		cmp	r3, #0
 1364 0948 00F0A880 		beq	.L78
 1365              		.loc 1 596 0 is_stmt 0 discriminator 1
 1366 094c BB7C     		ldrb	r3, [r7, #18]	@ zero_extendqisi2
 1367 094e 002B     		cmp	r3, #0
 1368 0950 40F0A480 		bne	.L78
 597:build/openmote-cc2538_armgcc/openstack/02a-MAClow/IEEE802154E.c ****             if (!isValidJoin(ieee154e_vars.dataReceived, &ieee802514_header)) {
 1369              		.loc 1 597 0 is_stmt 1
 1370 0954 40F20003 		movw	r3, #:lower16:ieee154e_vars
 1371 0958 C0F20003 		movt	r3, #:upper16:ieee154e_vars
 1372 095c D3F83021 		ldr	r2, [r3, #304]
 1373 0960 07F11003 		add	r3, r7, #16
 1374 0964 1046     		mov	r0, r2
 1375 0966 1946     		mov	r1, r3
 1376 0968 FFF7FEFF 		bl	isValidJoin
 1377 096c 0346     		mov	r3, r0
 1378 096e 83F00103 		eor	r3, r3, #1
 1379 0972 DBB2     		uxtb	r3, r3
 1380 0974 002B     		cmp	r3, #0
 1381 0976 09D0     		beq	.L81
 598:build/openmote-cc2538_armgcc/openstack/02a-MAClow/IEEE802154E.c ****                // invalidate variables
 599:build/openmote-cc2538_armgcc/openstack/02a-MAClow/IEEE802154E.c ****                memset(&ieee154e_vars, 0, sizeof(ieee154e_vars_t));
 1382              		.loc 1 599 0
 1383 0978 40F20000 		movw	r0, #:lower16:ieee154e_vars
 1384 097c C0F20000 		movt	r0, #:upper16:ieee154e_vars
 1385 0980 0021     		movs	r1, #0
 1386 0982 4FF4B672 		mov	r2, #364
 1387 0986 FFF7FEFF 		bl	memset
 600:build/openmote-cc2538_armgcc/openstack/02a-MAClow/IEEE802154E.c ****                break;
 1388              		.loc 1 600 0
 1389 098a 87E0     		b	.L78
 1390              	.L81:
 601:build/openmote-cc2538_armgcc/openstack/02a-MAClow/IEEE802154E.c ****             }
 602:build/openmote-cc2538_armgcc/openstack/02a-MAClow/IEEE802154E.c ****          }
 603:build/openmote-cc2538_armgcc/openstack/02a-MAClow/IEEE802154E.c ****          else { // discard other frames as we cannot decrypt without being synced
 604:build/openmote-cc2538_armgcc/openstack/02a-MAClow/IEEE802154E.c ****             break;
 605:build/openmote-cc2538_armgcc/openstack/02a-MAClow/IEEE802154E.c ****          }
 606:build/openmote-cc2538_armgcc/openstack/02a-MAClow/IEEE802154E.c ****       } // checked if unsecured frame should pass during header retrieval
 607:build/openmote-cc2538_armgcc/openstack/02a-MAClow/IEEE802154E.c **** 
 608:build/openmote-cc2538_armgcc/openstack/02a-MAClow/IEEE802154E.c ****       // toss the IEEE802.15.4 header -- this does not include IEs as they are processed
 609:build/openmote-cc2538_armgcc/openstack/02a-MAClow/IEEE802154E.c ****       // next.
 610:build/openmote-cc2538_armgcc/openstack/02a-MAClow/IEEE802154E.c ****       packetfunctions_tossHeader(ieee154e_vars.dataReceived,ieee802514_header.headerLength);
 1391              		.loc 1 610 0
 1392 098c 40F20003 		movw	r3, #:lower16:ieee154e_vars
 1393 0990 C0F20003 		movt	r3, #:upper16:ieee154e_vars
 1394 0994 D3F83021 		ldr	r2, [r3, #304]
 1395 0998 7B7C     		ldrb	r3, [r7, #17]	@ zero_extendqisi2
 1396 099a 1046     		mov	r0, r2
 1397 099c 1946     		mov	r1, r3
 1398 099e FFF7FEFF 		bl	packetfunctions_tossHeader
 611:build/openmote-cc2538_armgcc/openstack/02a-MAClow/IEEE802154E.c ****      
 612:build/openmote-cc2538_armgcc/openstack/02a-MAClow/IEEE802154E.c ****       // process IEs
 613:build/openmote-cc2538_armgcc/openstack/02a-MAClow/IEEE802154E.c ****       lenIE = 0;
 1399              		.loc 1 613 0
 1400 09a2 0023     		movs	r3, #0
 1401 09a4 FB81     		strh	r3, [r7, #14]	@ movhi
 614:build/openmote-cc2538_armgcc/openstack/02a-MAClow/IEEE802154E.c ****       if (
 615:build/openmote-cc2538_armgcc/openstack/02a-MAClow/IEEE802154E.c ****             (
 616:build/openmote-cc2538_armgcc/openstack/02a-MAClow/IEEE802154E.c ****                ieee802514_header.valid==TRUE                                                       
 1402              		.loc 1 616 0
 1403 09a6 3B7C     		ldrb	r3, [r7, #16]	@ zero_extendqisi2
 617:build/openmote-cc2538_armgcc/openstack/02a-MAClow/IEEE802154E.c ****                ieee802514_header.ieListPresent==TRUE                                               
 618:build/openmote-cc2538_armgcc/openstack/02a-MAClow/IEEE802154E.c ****                ieee802514_header.frameType==IEEE154_TYPE_BEACON                                    
 619:build/openmote-cc2538_armgcc/openstack/02a-MAClow/IEEE802154E.c ****                packetfunctions_sameAddress(&ieee802514_header.panid,idmanager_getMyID(ADDR_PANID)) 
 1404              		.loc 1 619 0
 1405 09a8 002B     		cmp	r3, #0
 1406 09aa 24D0     		beq	.L82
 617:build/openmote-cc2538_armgcc/openstack/02a-MAClow/IEEE802154E.c ****                ieee802514_header.ieListPresent==TRUE                                               
 1407              		.loc 1 617 0
 1408 09ac FB7D     		ldrb	r3, [r7, #23]	@ zero_extendqisi2
 616:build/openmote-cc2538_armgcc/openstack/02a-MAClow/IEEE802154E.c ****                ieee802514_header.ieListPresent==TRUE                                               
 1409              		.loc 1 616 0
 1410 09ae 002B     		cmp	r3, #0
 1411 09b0 21D0     		beq	.L82
 618:build/openmote-cc2538_armgcc/openstack/02a-MAClow/IEEE802154E.c ****                packetfunctions_sameAddress(&ieee802514_header.panid,idmanager_getMyID(ADDR_PANID)) 
 1412              		.loc 1 618 0
 1413 09b2 BB7C     		ldrb	r3, [r7, #18]	@ zero_extendqisi2
 617:build/openmote-cc2538_armgcc/openstack/02a-MAClow/IEEE802154E.c ****                ieee802514_header.ieListPresent==TRUE                                               
 1414              		.loc 1 617 0
 1415 09b4 002B     		cmp	r3, #0
 1416 09b6 1ED1     		bne	.L82
 1417              		.loc 1 619 0
 1418 09b8 0420     		movs	r0, #4
 1419 09ba FFF7FEFF 		bl	idmanager_getMyID
 1420 09be 0346     		mov	r3, r0
 1421 09c0 07F11002 		add	r2, r7, #16
 1422 09c4 0B32     		adds	r2, r2, #11
 1423 09c6 1046     		mov	r0, r2
 1424 09c8 1946     		mov	r1, r3
 1425 09ca FFF7FEFF 		bl	packetfunctions_sameAddress
 1426 09ce 0346     		mov	r3, r0
 618:build/openmote-cc2538_armgcc/openstack/02a-MAClow/IEEE802154E.c ****                packetfunctions_sameAddress(&ieee802514_header.panid,idmanager_getMyID(ADDR_PANID)) 
 1427              		.loc 1 618 0
 1428 09d0 002B     		cmp	r3, #0
 1429 09d2 10D0     		beq	.L82
 620:build/openmote-cc2538_armgcc/openstack/02a-MAClow/IEEE802154E.c ****                ieee154e_processIEs(ieee154e_vars.dataReceived,&lenIE)
 1430              		.loc 1 620 0
 1431 09d4 40F20003 		movw	r3, #:lower16:ieee154e_vars
 1432 09d8 C0F20003 		movt	r3, #:upper16:ieee154e_vars
 1433 09dc D3F83021 		ldr	r2, [r3, #304]
 1434 09e0 07F10E03 		add	r3, r7, #14
 1435 09e4 1046     		mov	r0, r2
 1436 09e6 1946     		mov	r1, r3
 1437 09e8 FFF7FEFF 		bl	ieee154e_processIEs
 1438 09ec 0346     		mov	r3, r0
 619:build/openmote-cc2538_armgcc/openstack/02a-MAClow/IEEE802154E.c ****                ieee154e_processIEs(ieee154e_vars.dataReceived,&lenIE)
 1439              		.loc 1 619 0
 1440 09ee 002B     		cmp	r3, #0
 1441 09f0 01D0     		beq	.L82
 619:build/openmote-cc2538_armgcc/openstack/02a-MAClow/IEEE802154E.c ****                ieee154e_processIEs(ieee154e_vars.dataReceived,&lenIE)
 1442              		.loc 1 619 0 is_stmt 0 discriminator 2
 1443 09f2 0123     		movs	r3, #1
 1444 09f4 00E0     		b	.L83
 1445              	.L82:
 619:build/openmote-cc2538_armgcc/openstack/02a-MAClow/IEEE802154E.c ****                ieee154e_processIEs(ieee154e_vars.dataReceived,&lenIE)
 1446              		.loc 1 619 0 discriminator 1
 1447 09f6 0023     		movs	r3, #0
 1448              	.L83:
 614:build/openmote-cc2538_armgcc/openstack/02a-MAClow/IEEE802154E.c ****             (
 1449              		.loc 1 614 0 is_stmt 1
 1450 09f8 002B     		cmp	r3, #0
 1451 09fa 00D1     		bne	.L84
 621:build/openmote-cc2538_armgcc/openstack/02a-MAClow/IEEE802154E.c ****             )==FALSE) {
 622:build/openmote-cc2538_armgcc/openstack/02a-MAClow/IEEE802154E.c ****          // break from the do-while loop and execute the clean-up code below
 623:build/openmote-cc2538_armgcc/openstack/02a-MAClow/IEEE802154E.c ****          break;
 1452              		.loc 1 623 0
 1453 09fc 4EE0     		b	.L78
 1454              	.L84:
 624:build/openmote-cc2538_armgcc/openstack/02a-MAClow/IEEE802154E.c ****       }
 625:build/openmote-cc2538_armgcc/openstack/02a-MAClow/IEEE802154E.c ****     
 626:build/openmote-cc2538_armgcc/openstack/02a-MAClow/IEEE802154E.c ****       // turn off the radio
 627:build/openmote-cc2538_armgcc/openstack/02a-MAClow/IEEE802154E.c ****       radio_rfOff();
 1455              		.loc 1 627 0
 1456 09fe FFF7FEFF 		bl	radio_rfOff
 628:build/openmote-cc2538_armgcc/openstack/02a-MAClow/IEEE802154E.c ****       
 629:build/openmote-cc2538_armgcc/openstack/02a-MAClow/IEEE802154E.c ****       // compute radio duty cycle
 630:build/openmote-cc2538_armgcc/openstack/02a-MAClow/IEEE802154E.c ****       ieee154e_vars.radioOnTics += (radio_getTimerValue()-ieee154e_vars.radioOnInit);
 1457              		.loc 1 630 0
 1458 0a02 40F20003 		movw	r3, #:lower16:ieee154e_vars
 1459 0a06 C0F20003 		movt	r3, #:upper16:ieee154e_vars
 1460 0a0a D3F86041 		ldr	r4, [r3, #352]
 1461 0a0e FFF7FEFF 		bl	radio_getTimerValue
 1462 0a12 0246     		mov	r2, r0
 1463 0a14 40F20003 		movw	r3, #:lower16:ieee154e_vars
 1464 0a18 C0F20003 		movt	r3, #:upper16:ieee154e_vars
 1465 0a1c D3F85C31 		ldr	r3, [r3, #348]
 1466 0a20 D31A     		subs	r3, r2, r3
 1467 0a22 E218     		adds	r2, r4, r3
 1468 0a24 40F20003 		movw	r3, #:lower16:ieee154e_vars
 1469 0a28 C0F20003 		movt	r3, #:upper16:ieee154e_vars
 1470 0a2c C3F86021 		str	r2, [r3, #352]
 631:build/openmote-cc2538_armgcc/openstack/02a-MAClow/IEEE802154E.c **** 
 632:build/openmote-cc2538_armgcc/openstack/02a-MAClow/IEEE802154E.c ****       // toss the IEs
 633:build/openmote-cc2538_armgcc/openstack/02a-MAClow/IEEE802154E.c ****       packetfunctions_tossHeader(ieee154e_vars.dataReceived,lenIE);
 1471              		.loc 1 633 0
 1472 0a30 40F20003 		movw	r3, #:lower16:ieee154e_vars
 1473 0a34 C0F20003 		movt	r3, #:upper16:ieee154e_vars
 1474 0a38 D3F83021 		ldr	r2, [r3, #304]
 1475 0a3c FB89     		ldrh	r3, [r7, #14]
 1476 0a3e DBB2     		uxtb	r3, r3
 1477 0a40 1046     		mov	r0, r2
 1478 0a42 1946     		mov	r1, r3
 1479 0a44 FFF7FEFF 		bl	packetfunctions_tossHeader
 634:build/openmote-cc2538_armgcc/openstack/02a-MAClow/IEEE802154E.c ****       
 635:build/openmote-cc2538_armgcc/openstack/02a-MAClow/IEEE802154E.c ****       // synchronize (for the first time) to the sender's EB
 636:build/openmote-cc2538_armgcc/openstack/02a-MAClow/IEEE802154E.c ****       synchronizePacket(ieee154e_vars.syncCapturedTime);
 1480              		.loc 1 636 0
 1481 0a48 40F20003 		movw	r3, #:lower16:ieee154e_vars
 1482 0a4c C0F20003 		movt	r3, #:upper16:ieee154e_vars
 1483 0a50 D3F84031 		ldr	r3, [r3, #320]
 1484 0a54 1846     		mov	r0, r3
 1485 0a56 FFF7FEFF 		bl	synchronizePacket
 637:build/openmote-cc2538_armgcc/openstack/02a-MAClow/IEEE802154E.c ****       
 638:build/openmote-cc2538_armgcc/openstack/02a-MAClow/IEEE802154E.c ****       // declare synchronized
 639:build/openmote-cc2538_armgcc/openstack/02a-MAClow/IEEE802154E.c ****       changeIsSync(TRUE);
 1486              		.loc 1 639 0
 1487 0a5a 0120     		movs	r0, #1
 1488 0a5c FFF7FEFF 		bl	changeIsSync
 640:build/openmote-cc2538_armgcc/openstack/02a-MAClow/IEEE802154E.c ****       
 641:build/openmote-cc2538_armgcc/openstack/02a-MAClow/IEEE802154E.c ****       // log the info
 642:build/openmote-cc2538_armgcc/openstack/02a-MAClow/IEEE802154E.c ****       openserial_printInfo(COMPONENT_IEEE802154E,ERR_SYNCHRONIZED,
 1489              		.loc 1 642 0
 1490 0a60 40F20003 		movw	r3, #:lower16:ieee154e_vars
 1491 0a64 C0F20003 		movt	r3, #:upper16:ieee154e_vars
 1492 0a68 DB88     		ldrh	r3, [r3, #6]
 1493 0a6a 0920     		movs	r0, #9
 1494 0a6c 1B21     		movs	r1, #27
 1495 0a6e 1A46     		mov	r2, r3
 1496 0a70 0023     		movs	r3, #0
 1497 0a72 FFF7FEFF 		bl	openserial_printInfo
 643:build/openmote-cc2538_armgcc/openstack/02a-MAClow/IEEE802154E.c ****                             (errorparameter_t)ieee154e_vars.slotOffset,
 644:build/openmote-cc2538_armgcc/openstack/02a-MAClow/IEEE802154E.c ****                             (errorparameter_t)0);
 645:build/openmote-cc2538_armgcc/openstack/02a-MAClow/IEEE802154E.c ****       
 646:build/openmote-cc2538_armgcc/openstack/02a-MAClow/IEEE802154E.c ****       // send received EB up the stack so RES can update statistics (synchronizing)
 647:build/openmote-cc2538_armgcc/openstack/02a-MAClow/IEEE802154E.c ****       notif_receive(ieee154e_vars.dataReceived);
 1498              		.loc 1 647 0
 1499 0a76 40F20003 		movw	r3, #:lower16:ieee154e_vars
 1500 0a7a C0F20003 		movt	r3, #:upper16:ieee154e_vars
 1501 0a7e D3F83031 		ldr	r3, [r3, #304]
 1502 0a82 1846     		mov	r0, r3
 1503 0a84 FFF7FEFF 		bl	notif_receive
 648:build/openmote-cc2538_armgcc/openstack/02a-MAClow/IEEE802154E.c ****       
 649:build/openmote-cc2538_armgcc/openstack/02a-MAClow/IEEE802154E.c ****       // clear local variable
 650:build/openmote-cc2538_armgcc/openstack/02a-MAClow/IEEE802154E.c ****       ieee154e_vars.dataReceived = NULL;
 1504              		.loc 1 650 0
 1505 0a88 40F20003 		movw	r3, #:lower16:ieee154e_vars
 1506 0a8c C0F20003 		movt	r3, #:upper16:ieee154e_vars
 1507 0a90 0022     		movs	r2, #0
 1508 0a92 C3F83021 		str	r2, [r3, #304]
 651:build/openmote-cc2538_armgcc/openstack/02a-MAClow/IEEE802154E.c ****       
 652:build/openmote-cc2538_armgcc/openstack/02a-MAClow/IEEE802154E.c ****       // official end of synchronization
 653:build/openmote-cc2538_armgcc/openstack/02a-MAClow/IEEE802154E.c ****       endSlot();
 1509              		.loc 1 653 0
 1510 0a96 FFF7FEFF 		bl	endSlot
 654:build/openmote-cc2538_armgcc/openstack/02a-MAClow/IEEE802154E.c ****       
 655:build/openmote-cc2538_armgcc/openstack/02a-MAClow/IEEE802154E.c ****       // everything went well, return here not to execute the error code below
 656:build/openmote-cc2538_armgcc/openstack/02a-MAClow/IEEE802154E.c ****       return;
 1511              		.loc 1 656 0
 1512 0a9a 12E0     		b	.L72
 1513              	.L78:
 657:build/openmote-cc2538_armgcc/openstack/02a-MAClow/IEEE802154E.c ****       
 658:build/openmote-cc2538_armgcc/openstack/02a-MAClow/IEEE802154E.c ****    } while(0);
 659:build/openmote-cc2538_armgcc/openstack/02a-MAClow/IEEE802154E.c ****    
 660:build/openmote-cc2538_armgcc/openstack/02a-MAClow/IEEE802154E.c ****    // free the (invalid) received data buffer so RAM memory can be recycled
 661:build/openmote-cc2538_armgcc/openstack/02a-MAClow/IEEE802154E.c ****    openqueue_freePacketBuffer(ieee154e_vars.dataReceived);
 1514              		.loc 1 661 0
 1515 0a9c 40F20003 		movw	r3, #:lower16:ieee154e_vars
 1516 0aa0 C0F20003 		movt	r3, #:upper16:ieee154e_vars
 1517 0aa4 D3F83031 		ldr	r3, [r3, #304]
 1518 0aa8 1846     		mov	r0, r3
 1519 0aaa FFF7FEFF 		bl	openqueue_freePacketBuffer
 662:build/openmote-cc2538_armgcc/openstack/02a-MAClow/IEEE802154E.c ****    
 663:build/openmote-cc2538_armgcc/openstack/02a-MAClow/IEEE802154E.c ****    // clear local variable
 664:build/openmote-cc2538_armgcc/openstack/02a-MAClow/IEEE802154E.c ****    ieee154e_vars.dataReceived = NULL;
 1520              		.loc 1 664 0
 1521 0aae 40F20003 		movw	r3, #:lower16:ieee154e_vars
 1522 0ab2 C0F20003 		movt	r3, #:upper16:ieee154e_vars
 1523 0ab6 0022     		movs	r2, #0
 1524 0ab8 C3F83021 		str	r2, [r3, #304]
 665:build/openmote-cc2538_armgcc/openstack/02a-MAClow/IEEE802154E.c ****    
 666:build/openmote-cc2538_armgcc/openstack/02a-MAClow/IEEE802154E.c ****    // return to listening state
 667:build/openmote-cc2538_armgcc/openstack/02a-MAClow/IEEE802154E.c ****    changeState(S_SYNCLISTEN);
 1525              		.loc 1 667 0
 1526 0abc 0120     		movs	r0, #1
 1527 0abe FFF7FEFF 		bl	changeState
 1528              	.L72:
 668:build/openmote-cc2538_armgcc/openstack/02a-MAClow/IEEE802154E.c **** }
 1529              		.loc 1 668 0
 1530 0ac2 5037     		adds	r7, r7, #80
 1531 0ac4 BD46     		mov	sp, r7
 1532              		@ sp needed
 1533 0ac6 B0BD     		pop	{r4, r5, r7, pc}
 1534              		.cfi_endproc
 1535              	.LFE11:
 1537              		.align	2
 1538              		.global	ieee154e_processIEs
 1539              		.thumb
 1540              		.thumb_func
 1542              	ieee154e_processIEs:
 1543              	.LFB12:
 669:build/openmote-cc2538_armgcc/openstack/02a-MAClow/IEEE802154E.c **** 
 670:build/openmote-cc2538_armgcc/openstack/02a-MAClow/IEEE802154E.c **** port_INLINE bool ieee154e_processIEs(OpenQueueEntry_t* pkt, uint16_t* lenIE) {
 1544              		.loc 1 670 0
 1545              		.cfi_startproc
 1546              		@ args = 0, pretend = 0, frame = 24
 1547              		@ frame_needed = 1, uses_anonymous_args = 0
 1548 0ac8 80B5     		push	{r7, lr}
 1549              		.cfi_def_cfa_offset 8
 1550              		.cfi_offset 7, -8
 1551              		.cfi_offset 14, -4
 1552 0aca 86B0     		sub	sp, sp, #24
 1553              		.cfi_def_cfa_offset 32
 1554 0acc 00AF     		add	r7, sp, #0
 1555              		.cfi_def_cfa_register 7
 1556 0ace 7860     		str	r0, [r7, #4]
 1557 0ad0 3960     		str	r1, [r7]
 671:build/openmote-cc2538_armgcc/openstack/02a-MAClow/IEEE802154E.c ****    uint8_t               ptr;
 672:build/openmote-cc2538_armgcc/openstack/02a-MAClow/IEEE802154E.c ****    uint8_t               temp_8b;
 673:build/openmote-cc2538_armgcc/openstack/02a-MAClow/IEEE802154E.c ****    uint8_t               gr_elem_id;
 674:build/openmote-cc2538_armgcc/openstack/02a-MAClow/IEEE802154E.c ****    uint8_t               subid;
 675:build/openmote-cc2538_armgcc/openstack/02a-MAClow/IEEE802154E.c ****    uint16_t              temp_16b;
 676:build/openmote-cc2538_armgcc/openstack/02a-MAClow/IEEE802154E.c ****    uint16_t              len;
 677:build/openmote-cc2538_armgcc/openstack/02a-MAClow/IEEE802154E.c ****    uint16_t              sublen;
 678:build/openmote-cc2538_armgcc/openstack/02a-MAClow/IEEE802154E.c ****    // flag used for understanding if the slotoffset should be inferred from both ASN and slotframe 
 679:build/openmote-cc2538_armgcc/openstack/02a-MAClow/IEEE802154E.c ****    bool                  f_asn2slotoffset;
 680:build/openmote-cc2538_armgcc/openstack/02a-MAClow/IEEE802154E.c ****    uint8_t               i; // used for find the index in channel hopping template
 681:build/openmote-cc2538_armgcc/openstack/02a-MAClow/IEEE802154E.c ****    
 682:build/openmote-cc2538_armgcc/openstack/02a-MAClow/IEEE802154E.c ****    ptr=0;
 1558              		.loc 1 682 0
 1559 0ad2 0023     		movs	r3, #0
 1560 0ad4 FB72     		strb	r3, [r7, #11]
 683:build/openmote-cc2538_armgcc/openstack/02a-MAClow/IEEE802154E.c ****    
 684:build/openmote-cc2538_armgcc/openstack/02a-MAClow/IEEE802154E.c ****    // payload IE header, header IE is processed before when retrieve header  
 685:build/openmote-cc2538_armgcc/openstack/02a-MAClow/IEEE802154E.c ****    
 686:build/openmote-cc2538_armgcc/openstack/02a-MAClow/IEEE802154E.c ****    //candidate IE header  if type ==0 header IE if type==1 payload IE
 687:build/openmote-cc2538_armgcc/openstack/02a-MAClow/IEEE802154E.c ****    temp_8b    = *((uint8_t*)(pkt->payload)+ptr);
 1561              		.loc 1 687 0
 1562 0ad6 7B68     		ldr	r3, [r7, #4]
 1563 0ad8 5A68     		ldr	r2, [r3, #4]
 1564 0ada FB7A     		ldrb	r3, [r7, #11]	@ zero_extendqisi2
 1565 0adc 1344     		add	r3, r3, r2
 1566 0ade 1B78     		ldrb	r3, [r3]
 1567 0ae0 FB73     		strb	r3, [r7, #15]
 688:build/openmote-cc2538_armgcc/openstack/02a-MAClow/IEEE802154E.c ****    ptr++;
 1568              		.loc 1 688 0
 1569 0ae2 FB7A     		ldrb	r3, [r7, #11]	@ zero_extendqisi2
 1570 0ae4 0133     		adds	r3, r3, #1
 1571 0ae6 DBB2     		uxtb	r3, r3
 1572 0ae8 FB72     		strb	r3, [r7, #11]
 689:build/openmote-cc2538_armgcc/openstack/02a-MAClow/IEEE802154E.c ****    
 690:build/openmote-cc2538_armgcc/openstack/02a-MAClow/IEEE802154E.c ****    temp_16b   = temp_8b + ((*((uint8_t*)(pkt->payload)+ptr)) << 8);
 1573              		.loc 1 690 0
 1574 0aea FB7B     		ldrb	r3, [r7, #15]	@ zero_extendqisi2
 1575 0aec 9AB2     		uxth	r2, r3
 1576 0aee 7B68     		ldr	r3, [r7, #4]
 1577 0af0 5968     		ldr	r1, [r3, #4]
 1578 0af2 FB7A     		ldrb	r3, [r7, #11]	@ zero_extendqisi2
 1579 0af4 0B44     		add	r3, r3, r1
 1580 0af6 1B78     		ldrb	r3, [r3]	@ zero_extendqisi2
 1581 0af8 1B02     		lsls	r3, r3, #8
 1582 0afa 9BB2     		uxth	r3, r3
 1583 0afc 1344     		add	r3, r3, r2
 1584 0afe BB81     		strh	r3, [r7, #12]	@ movhi
 691:build/openmote-cc2538_armgcc/openstack/02a-MAClow/IEEE802154E.c ****    ptr++;
 1585              		.loc 1 691 0
 1586 0b00 FB7A     		ldrb	r3, [r7, #11]	@ zero_extendqisi2
 1587 0b02 0133     		adds	r3, r3, #1
 1588 0b04 DBB2     		uxtb	r3, r3
 1589 0b06 FB72     		strb	r3, [r7, #11]
 692:build/openmote-cc2538_armgcc/openstack/02a-MAClow/IEEE802154E.c ****    
 693:build/openmote-cc2538_armgcc/openstack/02a-MAClow/IEEE802154E.c ****    *lenIE     = ptr;
 1590              		.loc 1 693 0
 1591 0b08 FB7A     		ldrb	r3, [r7, #11]	@ zero_extendqisi2
 1592 0b0a 1A46     		mov	r2, r3
 1593 0b0c 3B68     		ldr	r3, [r7]
 1594 0b0e 1A80     		strh	r2, [r3]	@ movhi
 694:build/openmote-cc2538_armgcc/openstack/02a-MAClow/IEEE802154E.c ****    
 695:build/openmote-cc2538_armgcc/openstack/02a-MAClow/IEEE802154E.c ****    if ((temp_16b & IEEE802154E_DESC_TYPE_PAYLOAD_IE) == IEEE802154E_DESC_TYPE_PAYLOAD_IE){
 1595              		.loc 1 695 0
 1596 0b10 BB89     		ldrh	r3, [r7, #12]
 1597 0b12 1BB2     		sxth	r3, r3
 1598 0b14 002B     		cmp	r3, #0
 1599 0b16 09DA     		bge	.L87
 696:build/openmote-cc2538_armgcc/openstack/02a-MAClow/IEEE802154E.c ****       // payload IE
 697:build/openmote-cc2538_armgcc/openstack/02a-MAClow/IEEE802154E.c ****       
 698:build/openmote-cc2538_armgcc/openstack/02a-MAClow/IEEE802154E.c ****       len          = temp_16b & IEEE802154E_DESC_LEN_PAYLOAD_IE_MASK;
 1600              		.loc 1 698 0
 1601 0b18 BB89     		ldrh	r3, [r7, #12]	@ movhi
 1602 0b1a C3F30A03 		ubfx	r3, r3, #0, #11
 1603 0b1e BB82     		strh	r3, [r7, #20]	@ movhi
 699:build/openmote-cc2538_armgcc/openstack/02a-MAClow/IEEE802154E.c ****       gr_elem_id   = (temp_16b & IEEE802154E_DESC_GROUPID_PAYLOAD_IE_MASK)>>IEEE802154E_DESC_GROUPI
 1604              		.loc 1 699 0
 1605 0b20 BB89     		ldrh	r3, [r7, #12]
 1606 0b22 03F4F043 		and	r3, r3, #30720
 1607 0b26 DB12     		asrs	r3, r3, #11
 1608 0b28 FB75     		strb	r3, [r7, #23]
 1609 0b2a 08E0     		b	.L88
 1610              	.L87:
 700:build/openmote-cc2538_armgcc/openstack/02a-MAClow/IEEE802154E.c ****    } else {
 701:build/openmote-cc2538_armgcc/openstack/02a-MAClow/IEEE802154E.c ****       // header IE
 702:build/openmote-cc2538_armgcc/openstack/02a-MAClow/IEEE802154E.c ****       
 703:build/openmote-cc2538_armgcc/openstack/02a-MAClow/IEEE802154E.c ****       len          = temp_16b & IEEE802154E_DESC_LEN_HEADER_IE_MASK;
 1611              		.loc 1 703 0
 1612 0b2c BB89     		ldrh	r3, [r7, #12]	@ movhi
 1613 0b2e 03F07F03 		and	r3, r3, #127
 1614 0b32 BB82     		strh	r3, [r7, #20]	@ movhi
 704:build/openmote-cc2538_armgcc/openstack/02a-MAClow/IEEE802154E.c ****       gr_elem_id   = (temp_16b & IEEE802154E_DESC_ELEMENTID_HEADER_IE_MASK)>>IEEE802154E_DESC_ELEME
 1615              		.loc 1 704 0
 1616 0b34 BB89     		ldrh	r3, [r7, #12]
 1617 0b36 03F4FF43 		and	r3, r3, #32640
 1618 0b3a DB11     		asrs	r3, r3, #7
 1619 0b3c FB75     		strb	r3, [r7, #23]
 1620              	.L88:
 705:build/openmote-cc2538_armgcc/openstack/02a-MAClow/IEEE802154E.c ****    }
 706:build/openmote-cc2538_armgcc/openstack/02a-MAClow/IEEE802154E.c ****    
 707:build/openmote-cc2538_armgcc/openstack/02a-MAClow/IEEE802154E.c ****    *lenIE         += len;
 1621              		.loc 1 707 0
 1622 0b3e 3B68     		ldr	r3, [r7]
 1623 0b40 1A88     		ldrh	r2, [r3]
 1624 0b42 BB8A     		ldrh	r3, [r7, #20]	@ movhi
 1625 0b44 1344     		add	r3, r3, r2
 1626 0b46 9AB2     		uxth	r2, r3
 1627 0b48 3B68     		ldr	r3, [r7]
 1628 0b4a 1A80     		strh	r2, [r3]	@ movhi
 708:build/openmote-cc2538_armgcc/openstack/02a-MAClow/IEEE802154E.c ****    
 709:build/openmote-cc2538_armgcc/openstack/02a-MAClow/IEEE802154E.c ****    //===== sub-elements
 710:build/openmote-cc2538_armgcc/openstack/02a-MAClow/IEEE802154E.c ****    
 711:build/openmote-cc2538_armgcc/openstack/02a-MAClow/IEEE802154E.c ****    switch(gr_elem_id){
 1629              		.loc 1 711 0
 1630 0b4c FB7D     		ldrb	r3, [r7, #23]	@ zero_extendqisi2
 1631 0b4e 012B     		cmp	r3, #1
 1632 0b50 40F04881 		bne	.L114
 712:build/openmote-cc2538_armgcc/openstack/02a-MAClow/IEEE802154E.c ****       
 713:build/openmote-cc2538_armgcc/openstack/02a-MAClow/IEEE802154E.c ****       case IEEE802154E_MLME_IE_GROUPID:
 714:build/openmote-cc2538_armgcc/openstack/02a-MAClow/IEEE802154E.c ****          // MLME IE
 715:build/openmote-cc2538_armgcc/openstack/02a-MAClow/IEEE802154E.c ****          f_asn2slotoffset = FALSE;
 1633              		.loc 1 715 0
 1634 0b54 0023     		movs	r3, #0
 1635 0b56 7B74     		strb	r3, [r7, #17]
 1636              	.L105:
 716:build/openmote-cc2538_armgcc/openstack/02a-MAClow/IEEE802154E.c ****          do {
 717:build/openmote-cc2538_armgcc/openstack/02a-MAClow/IEEE802154E.c ****             
 718:build/openmote-cc2538_armgcc/openstack/02a-MAClow/IEEE802154E.c ****             //read sub IE header
 719:build/openmote-cc2538_armgcc/openstack/02a-MAClow/IEEE802154E.c ****             temp_8b     = *((uint8_t*)(pkt->payload)+ptr);
 1637              		.loc 1 719 0
 1638 0b58 7B68     		ldr	r3, [r7, #4]
 1639 0b5a 5A68     		ldr	r2, [r3, #4]
 1640 0b5c FB7A     		ldrb	r3, [r7, #11]	@ zero_extendqisi2
 1641 0b5e 1344     		add	r3, r3, r2
 1642 0b60 1B78     		ldrb	r3, [r3]
 1643 0b62 FB73     		strb	r3, [r7, #15]
 720:build/openmote-cc2538_armgcc/openstack/02a-MAClow/IEEE802154E.c ****             ptr         = ptr + 1;
 1644              		.loc 1 720 0
 1645 0b64 FB7A     		ldrb	r3, [r7, #11]	@ zero_extendqisi2
 1646 0b66 0133     		adds	r3, r3, #1
 1647 0b68 DBB2     		uxtb	r3, r3
 1648 0b6a FB72     		strb	r3, [r7, #11]
 721:build/openmote-cc2538_armgcc/openstack/02a-MAClow/IEEE802154E.c ****             temp_16b    = temp_8b  + ((*((uint8_t*)(pkt->payload)+ptr))<<8);
 1649              		.loc 1 721 0
 1650 0b6c FB7B     		ldrb	r3, [r7, #15]	@ zero_extendqisi2
 1651 0b6e 9AB2     		uxth	r2, r3
 1652 0b70 7B68     		ldr	r3, [r7, #4]
 1653 0b72 5968     		ldr	r1, [r3, #4]
 1654 0b74 FB7A     		ldrb	r3, [r7, #11]	@ zero_extendqisi2
 1655 0b76 0B44     		add	r3, r3, r1
 1656 0b78 1B78     		ldrb	r3, [r3]	@ zero_extendqisi2
 1657 0b7a 1B02     		lsls	r3, r3, #8
 1658 0b7c 9BB2     		uxth	r3, r3
 1659 0b7e 1344     		add	r3, r3, r2
 1660 0b80 BB81     		strh	r3, [r7, #12]	@ movhi
 722:build/openmote-cc2538_armgcc/openstack/02a-MAClow/IEEE802154E.c ****             ptr         = ptr + 1;
 1661              		.loc 1 722 0
 1662 0b82 FB7A     		ldrb	r3, [r7, #11]	@ zero_extendqisi2
 1663 0b84 0133     		adds	r3, r3, #1
 1664 0b86 DBB2     		uxtb	r3, r3
 1665 0b88 FB72     		strb	r3, [r7, #11]
 723:build/openmote-cc2538_armgcc/openstack/02a-MAClow/IEEE802154E.c ****             
 724:build/openmote-cc2538_armgcc/openstack/02a-MAClow/IEEE802154E.c ****             len         = len - 2; //remove header fields len
 1666              		.loc 1 724 0
 1667 0b8a BB8A     		ldrh	r3, [r7, #20]	@ movhi
 1668 0b8c 023B     		subs	r3, r3, #2
 1669 0b8e BB82     		strh	r3, [r7, #20]	@ movhi
 725:build/openmote-cc2538_armgcc/openstack/02a-MAClow/IEEE802154E.c ****             
 726:build/openmote-cc2538_armgcc/openstack/02a-MAClow/IEEE802154E.c ****             if ((temp_16b & IEEE802154E_DESC_TYPE_LONG) == IEEE802154E_DESC_TYPE_LONG){
 1670              		.loc 1 726 0
 1671 0b90 BB89     		ldrh	r3, [r7, #12]
 1672 0b92 1BB2     		sxth	r3, r3
 1673 0b94 002B     		cmp	r3, #0
 1674 0b96 09DA     		bge	.L91
 727:build/openmote-cc2538_armgcc/openstack/02a-MAClow/IEEE802154E.c ****                // long sub-IE
 728:build/openmote-cc2538_armgcc/openstack/02a-MAClow/IEEE802154E.c ****                
 729:build/openmote-cc2538_armgcc/openstack/02a-MAClow/IEEE802154E.c ****                sublen   = temp_16b & IEEE802154E_DESC_LEN_LONG_MLME_IE_MASK;
 1675              		.loc 1 729 0
 1676 0b98 BB89     		ldrh	r3, [r7, #12]	@ movhi
 1677 0b9a C3F30A03 		ubfx	r3, r3, #0, #11
 1678 0b9e 7B82     		strh	r3, [r7, #18]	@ movhi
 730:build/openmote-cc2538_armgcc/openstack/02a-MAClow/IEEE802154E.c ****                subid    = (temp_16b & IEEE802154E_DESC_SUBID_LONG_MLME_IE_MASK)>>IEEE802154E_DESC_S
 1679              		.loc 1 730 0
 1680 0ba0 BB89     		ldrh	r3, [r7, #12]
 1681 0ba2 03F4F043 		and	r3, r3, #30720
 1682 0ba6 DB12     		asrs	r3, r3, #11
 1683 0ba8 BB75     		strb	r3, [r7, #22]
 1684 0baa 07E0     		b	.L92
 1685              	.L91:
 731:build/openmote-cc2538_armgcc/openstack/02a-MAClow/IEEE802154E.c ****             } else {
 732:build/openmote-cc2538_armgcc/openstack/02a-MAClow/IEEE802154E.c ****                // short sub-IE
 733:build/openmote-cc2538_armgcc/openstack/02a-MAClow/IEEE802154E.c ****                
 734:build/openmote-cc2538_armgcc/openstack/02a-MAClow/IEEE802154E.c ****                sublen   = temp_16b & IEEE802154E_DESC_LEN_SHORT_MLME_IE_MASK;
 1686              		.loc 1 734 0
 1687 0bac BB89     		ldrh	r3, [r7, #12]	@ movhi
 1688 0bae DBB2     		uxtb	r3, r3
 1689 0bb0 7B82     		strh	r3, [r7, #18]	@ movhi
 735:build/openmote-cc2538_armgcc/openstack/02a-MAClow/IEEE802154E.c ****                subid    = (temp_16b & IEEE802154E_DESC_SUBID_SHORT_MLME_IE_MASK)>>IEEE802154E_DESC_
 1690              		.loc 1 735 0
 1691 0bb2 BB89     		ldrh	r3, [r7, #12]
 1692 0bb4 03F4FE43 		and	r3, r3, #32512
 1693 0bb8 1B12     		asrs	r3, r3, #8
 1694 0bba BB75     		strb	r3, [r7, #22]
 1695              	.L92:
 736:build/openmote-cc2538_armgcc/openstack/02a-MAClow/IEEE802154E.c ****             }
 737:build/openmote-cc2538_armgcc/openstack/02a-MAClow/IEEE802154E.c ****             
 738:build/openmote-cc2538_armgcc/openstack/02a-MAClow/IEEE802154E.c ****             switch(subid){
 1696              		.loc 1 738 0
 1697 0bbc BB7D     		ldrb	r3, [r7, #22]	@ zero_extendqisi2
 1698 0bbe 093B     		subs	r3, r3, #9
 1699 0bc0 132B     		cmp	r3, #19
 1700 0bc2 00F2C580 		bhi	.L93
 1701 0bc6 01A2     		adr	r2, .L95
 1702 0bc8 52F823F0 		ldr	pc, [r2, r3, lsl #2]
 1703              		.p2align 2
 1704              	.L95:
 1705 0bcc 250D0000 		.word	.L94+1
 1706 0bd0 510D0000 		.word	.L93+1
 1707 0bd4 510D0000 		.word	.L93+1
 1708 0bd8 510D0000 		.word	.L93+1
 1709 0bdc 510D0000 		.word	.L93+1
 1710 0be0 510D0000 		.word	.L93+1
 1711 0be4 510D0000 		.word	.L93+1
 1712 0be8 510D0000 		.word	.L93+1
 1713 0bec 510D0000 		.word	.L93+1
 1714 0bf0 510D0000 		.word	.L93+1
 1715 0bf4 510D0000 		.word	.L93+1
 1716 0bf8 510D0000 		.word	.L93+1
 1717 0bfc 510D0000 		.word	.L93+1
 1718 0c00 510D0000 		.word	.L93+1
 1719 0c04 510D0000 		.word	.L93+1
 1720 0c08 510D0000 		.word	.L93+1
 1721 0c0c 510D0000 		.word	.L93+1
 1722 0c10 1D0C0000 		.word	.L96+1
 1723 0c14 630C0000 		.word	.L97+1
 1724 0c18 930C0000 		.word	.L98+1
 1725              	.L96:
 739:build/openmote-cc2538_armgcc/openstack/02a-MAClow/IEEE802154E.c ****                
 740:build/openmote-cc2538_armgcc/openstack/02a-MAClow/IEEE802154E.c ****                case IEEE802154E_MLME_SYNC_IE_SUBID:
 741:build/openmote-cc2538_armgcc/openstack/02a-MAClow/IEEE802154E.c ****                   // Sync IE: ASN and Join Priority 
 742:build/openmote-cc2538_armgcc/openstack/02a-MAClow/IEEE802154E.c ****                   
 743:build/openmote-cc2538_armgcc/openstack/02a-MAClow/IEEE802154E.c ****                   if (idmanager_getIsDAGroot()==FALSE) {
 1726              		.loc 1 743 0
 1727 0c1c FFF7FEFF 		bl	idmanager_getIsDAGroot
 1728 0c20 0346     		mov	r3, r0
 1729 0c22 83F00103 		eor	r3, r3, #1
 1730 0c26 DBB2     		uxtb	r3, r3
 1731 0c28 002B     		cmp	r3, #0
 1732 0c2a 19D0     		beq	.L99
 744:build/openmote-cc2538_armgcc/openstack/02a-MAClow/IEEE802154E.c ****                      // ASN
 745:build/openmote-cc2538_armgcc/openstack/02a-MAClow/IEEE802154E.c ****                      asnStoreFromEB((uint8_t*)(pkt->payload)+ptr);
 1733              		.loc 1 745 0
 1734 0c2c 7B68     		ldr	r3, [r7, #4]
 1735 0c2e 5A68     		ldr	r2, [r3, #4]
 1736 0c30 FB7A     		ldrb	r3, [r7, #11]	@ zero_extendqisi2
 1737 0c32 1344     		add	r3, r3, r2
 1738 0c34 1846     		mov	r0, r3
 1739 0c36 FFF7FEFF 		bl	asnStoreFromEB
 746:build/openmote-cc2538_armgcc/openstack/02a-MAClow/IEEE802154E.c ****                      // ASN is known, but the frame length is not
 747:build/openmote-cc2538_armgcc/openstack/02a-MAClow/IEEE802154E.c ****                      // frame length will be known after parsing the frame and link IE
 748:build/openmote-cc2538_armgcc/openstack/02a-MAClow/IEEE802154E.c ****                      f_asn2slotoffset = TRUE;
 1740              		.loc 1 748 0
 1741 0c3a 0123     		movs	r3, #1
 1742 0c3c 7B74     		strb	r3, [r7, #17]
 749:build/openmote-cc2538_armgcc/openstack/02a-MAClow/IEEE802154E.c ****                      ptr = ptr + 5;
 1743              		.loc 1 749 0
 1744 0c3e FB7A     		ldrb	r3, [r7, #11]	@ zero_extendqisi2
 1745 0c40 0533     		adds	r3, r3, #5
 1746 0c42 DBB2     		uxtb	r3, r3
 1747 0c44 FB72     		strb	r3, [r7, #11]
 750:build/openmote-cc2538_armgcc/openstack/02a-MAClow/IEEE802154E.c ****                      // join priority
 751:build/openmote-cc2538_armgcc/openstack/02a-MAClow/IEEE802154E.c ****                      joinPriorityStoreFromEB(*((uint8_t*)(pkt->payload)+ptr));
 1748              		.loc 1 751 0
 1749 0c46 7B68     		ldr	r3, [r7, #4]
 1750 0c48 5A68     		ldr	r2, [r3, #4]
 1751 0c4a FB7A     		ldrb	r3, [r7, #11]	@ zero_extendqisi2
 1752 0c4c 1344     		add	r3, r3, r2
 1753 0c4e 1B78     		ldrb	r3, [r3]	@ zero_extendqisi2
 1754 0c50 1846     		mov	r0, r3
 1755 0c52 FFF7FEFF 		bl	joinPriorityStoreFromEB
 752:build/openmote-cc2538_armgcc/openstack/02a-MAClow/IEEE802154E.c ****                      ptr = ptr + 1;
 1756              		.loc 1 752 0
 1757 0c56 FB7A     		ldrb	r3, [r7, #11]	@ zero_extendqisi2
 1758 0c58 0133     		adds	r3, r3, #1
 1759 0c5a DBB2     		uxtb	r3, r3
 1760 0c5c FB72     		strb	r3, [r7, #11]
 753:build/openmote-cc2538_armgcc/openstack/02a-MAClow/IEEE802154E.c ****                   }
 754:build/openmote-cc2538_armgcc/openstack/02a-MAClow/IEEE802154E.c ****                   break;
 1761              		.loc 1 754 0
 1762 0c5e 79E0     		b	.L100
 1763              	.L99:
 1764 0c60 78E0     		b	.L100
 1765              	.L97:
 755:build/openmote-cc2538_armgcc/openstack/02a-MAClow/IEEE802154E.c ****                
 756:build/openmote-cc2538_armgcc/openstack/02a-MAClow/IEEE802154E.c ****                case IEEE802154E_MLME_SLOTFRAME_LINK_IE_SUBID:
 757:build/openmote-cc2538_armgcc/openstack/02a-MAClow/IEEE802154E.c ****                   if ((idmanager_getIsDAGroot()==FALSE) && (ieee154e_isSynch()==FALSE)) {
 1766              		.loc 1 757 0
 1767 0c62 FFF7FEFF 		bl	idmanager_getIsDAGroot
 1768 0c66 0346     		mov	r3, r0
 1769 0c68 83F00103 		eor	r3, r3, #1
 1770 0c6c DBB2     		uxtb	r3, r3
 1771 0c6e 002B     		cmp	r3, #0
 1772 0c70 0ED0     		beq	.L101
 1773              		.loc 1 757 0 is_stmt 0 discriminator 1
 1774 0c72 FFF7FEFF 		bl	ieee154e_isSynch
 1775 0c76 0346     		mov	r3, r0
 1776 0c78 83F00103 		eor	r3, r3, #1
 1777 0c7c DBB2     		uxtb	r3, r3
 1778 0c7e 002B     		cmp	r3, #0
 1779 0c80 06D0     		beq	.L101
 758:build/openmote-cc2538_armgcc/openstack/02a-MAClow/IEEE802154E.c ****                      processIE_retrieveSlotframeLinkIE(pkt,&ptr);
 1780              		.loc 1 758 0 is_stmt 1
 1781 0c82 07F10B03 		add	r3, r7, #11
 1782 0c86 7868     		ldr	r0, [r7, #4]
 1783 0c88 1946     		mov	r1, r3
 1784 0c8a FFF7FEFF 		bl	processIE_retrieveSlotframeLinkIE
 759:build/openmote-cc2538_armgcc/openstack/02a-MAClow/IEEE802154E.c ****                   }
 760:build/openmote-cc2538_armgcc/openstack/02a-MAClow/IEEE802154E.c ****                   break;
 1785              		.loc 1 760 0
 1786 0c8e 61E0     		b	.L100
 1787              	.L101:
 1788 0c90 60E0     		b	.L100
 1789              	.L98:
 761:build/openmote-cc2538_armgcc/openstack/02a-MAClow/IEEE802154E.c ****                
 762:build/openmote-cc2538_armgcc/openstack/02a-MAClow/IEEE802154E.c ****                case IEEE802154E_MLME_TIMESLOT_IE_SUBID:
 763:build/openmote-cc2538_armgcc/openstack/02a-MAClow/IEEE802154E.c ****                   if (idmanager_getIsDAGroot()==FALSE) {
 1790              		.loc 1 763 0
 1791 0c92 FFF7FEFF 		bl	idmanager_getIsDAGroot
 1792 0c96 0346     		mov	r3, r0
 1793 0c98 83F00103 		eor	r3, r3, #1
 1794 0c9c DBB2     		uxtb	r3, r3
 1795 0c9e 002B     		cmp	r3, #0
 1796 0ca0 3FD0     		beq	.L102
 764:build/openmote-cc2538_armgcc/openstack/02a-MAClow/IEEE802154E.c ****                       // timeslot template ID
 765:build/openmote-cc2538_armgcc/openstack/02a-MAClow/IEEE802154E.c ****                       timeslotTemplateIDStoreFromEB(*((uint8_t*)(pkt->payload)+ptr));
 1797              		.loc 1 765 0
 1798 0ca2 7B68     		ldr	r3, [r7, #4]
 1799 0ca4 5A68     		ldr	r2, [r3, #4]
 1800 0ca6 FB7A     		ldrb	r3, [r7, #11]	@ zero_extendqisi2
 1801 0ca8 1344     		add	r3, r3, r2
 1802 0caa 1B78     		ldrb	r3, [r3]	@ zero_extendqisi2
 1803 0cac 1846     		mov	r0, r3
 1804 0cae FFF7FEFF 		bl	timeslotTemplateIDStoreFromEB
 766:build/openmote-cc2538_armgcc/openstack/02a-MAClow/IEEE802154E.c ****                       ptr = ptr + 1;
 1805              		.loc 1 766 0
 1806 0cb2 FB7A     		ldrb	r3, [r7, #11]	@ zero_extendqisi2
 1807 0cb4 0133     		adds	r3, r3, #1
 1808 0cb6 DBB2     		uxtb	r3, r3
 1809 0cb8 FB72     		strb	r3, [r7, #11]
 767:build/openmote-cc2538_armgcc/openstack/02a-MAClow/IEEE802154E.c ****                       if (ieee154e_vars.tsTemplateId != TIMESLOT_TEMPLATE_ID){
 1810              		.loc 1 767 0
 1811 0cba 40F20003 		movw	r3, #:lower16:ieee154e_vars
 1812 0cbe C0F20003 		movt	r3, #:upper16:ieee154e_vars
 1813 0cc2 93F85831 		ldrb	r3, [r3, #344]	@ zero_extendqisi2
 1814 0cc6 002B     		cmp	r3, #0
 1815 0cc8 2BD0     		beq	.L102
 768:build/openmote-cc2538_armgcc/openstack/02a-MAClow/IEEE802154E.c ****                           ieee154e_vars.slotDuration = *((uint8_t*)(pkt->payload)+ptr);
 1816              		.loc 1 768 0
 1817 0cca 7B68     		ldr	r3, [r7, #4]
 1818 0ccc 5A68     		ldr	r2, [r3, #4]
 1819 0cce FB7A     		ldrb	r3, [r7, #11]	@ zero_extendqisi2
 1820 0cd0 1344     		add	r3, r3, r2
 1821 0cd2 1B78     		ldrb	r3, [r3]	@ zero_extendqisi2
 1822 0cd4 1A46     		mov	r2, r3
 1823 0cd6 40F20003 		movw	r3, #:lower16:ieee154e_vars
 1824 0cda C0F20003 		movt	r3, #:upper16:ieee154e_vars
 1825 0cde A3F86A21 		strh	r2, [r3, #362]	@ movhi
 769:build/openmote-cc2538_armgcc/openstack/02a-MAClow/IEEE802154E.c ****                           ptr = ptr + 1;
 1826              		.loc 1 769 0
 1827 0ce2 FB7A     		ldrb	r3, [r7, #11]	@ zero_extendqisi2
 1828 0ce4 0133     		adds	r3, r3, #1
 1829 0ce6 DBB2     		uxtb	r3, r3
 1830 0ce8 FB72     		strb	r3, [r7, #11]
 770:build/openmote-cc2538_armgcc/openstack/02a-MAClow/IEEE802154E.c ****                           ieee154e_vars.slotDuration |= ((*((uint8_t*)(pkt->payload)+ptr))<<8) & 0x
 1831              		.loc 1 770 0
 1832 0cea 40F20003 		movw	r3, #:lower16:ieee154e_vars
 1833 0cee C0F20003 		movt	r3, #:upper16:ieee154e_vars
 1834 0cf2 B3F86A31 		ldrh	r3, [r3, #362]
 1835 0cf6 9AB2     		uxth	r2, r3
 1836 0cf8 7B68     		ldr	r3, [r7, #4]
 1837 0cfa 5968     		ldr	r1, [r3, #4]
 1838 0cfc FB7A     		ldrb	r3, [r7, #11]	@ zero_extendqisi2
 1839 0cfe 0B44     		add	r3, r3, r1
 1840 0d00 1B78     		ldrb	r3, [r3]	@ zero_extendqisi2
 1841 0d02 1B02     		lsls	r3, r3, #8
 1842 0d04 9BB2     		uxth	r3, r3
 1843 0d06 1343     		orrs	r3, r3, r2
 1844 0d08 9BB2     		uxth	r3, r3
 1845 0d0a 9AB2     		uxth	r2, r3
 1846 0d0c 40F20003 		movw	r3, #:lower16:ieee154e_vars
 1847 0d10 C0F20003 		movt	r3, #:upper16:ieee154e_vars
 1848 0d14 A3F86A21 		strh	r2, [r3, #362]	@ movhi
 771:build/openmote-cc2538_armgcc/openstack/02a-MAClow/IEEE802154E.c ****                           ptr = ptr + 1;
 1849              		.loc 1 771 0
 1850 0d18 FB7A     		ldrb	r3, [r7, #11]	@ zero_extendqisi2
 1851 0d1a 0133     		adds	r3, r3, #1
 1852 0d1c DBB2     		uxtb	r3, r3
 1853 0d1e FB72     		strb	r3, [r7, #11]
 772:build/openmote-cc2538_armgcc/openstack/02a-MAClow/IEEE802154E.c ****                       }
 773:build/openmote-cc2538_armgcc/openstack/02a-MAClow/IEEE802154E.c ****                   }
 774:build/openmote-cc2538_armgcc/openstack/02a-MAClow/IEEE802154E.c ****                   break;
 1854              		.loc 1 774 0
 1855 0d20 18E0     		b	.L100
 1856              	.L102:
 1857 0d22 17E0     		b	.L100
 1858              	.L94:
 775:build/openmote-cc2538_armgcc/openstack/02a-MAClow/IEEE802154E.c ****                   
 776:build/openmote-cc2538_armgcc/openstack/02a-MAClow/IEEE802154E.c ****                case IEEE802154E_MLME_CHANNELHOPPING_IE_SUBID:
 777:build/openmote-cc2538_armgcc/openstack/02a-MAClow/IEEE802154E.c ****                   if (idmanager_getIsDAGroot()==FALSE) {
 1859              		.loc 1 777 0
 1860 0d24 FFF7FEFF 		bl	idmanager_getIsDAGroot
 1861 0d28 0346     		mov	r3, r0
 1862 0d2a 83F00103 		eor	r3, r3, #1
 1863 0d2e DBB2     		uxtb	r3, r3
 1864 0d30 002B     		cmp	r3, #0
 1865 0d32 0CD0     		beq	.L103
 778:build/openmote-cc2538_armgcc/openstack/02a-MAClow/IEEE802154E.c ****                       // channelhopping template ID
 779:build/openmote-cc2538_armgcc/openstack/02a-MAClow/IEEE802154E.c ****                       channelhoppingTemplateIDStoreFromEB(*((uint8_t*)(pkt->payload)+ptr));
 1866              		.loc 1 779 0
 1867 0d34 7B68     		ldr	r3, [r7, #4]
 1868 0d36 5A68     		ldr	r2, [r3, #4]
 1869 0d38 FB7A     		ldrb	r3, [r7, #11]	@ zero_extendqisi2
 1870 0d3a 1344     		add	r3, r3, r2
 1871 0d3c 1B78     		ldrb	r3, [r3]	@ zero_extendqisi2
 1872 0d3e 1846     		mov	r0, r3
 1873 0d40 FFF7FEFF 		bl	channelhoppingTemplateIDStoreFromEB
 780:build/openmote-cc2538_armgcc/openstack/02a-MAClow/IEEE802154E.c ****                       ptr = ptr + 1;
 1874              		.loc 1 780 0
 1875 0d44 FB7A     		ldrb	r3, [r7, #11]	@ zero_extendqisi2
 1876 0d46 0133     		adds	r3, r3, #1
 1877 0d48 DBB2     		uxtb	r3, r3
 1878 0d4a FB72     		strb	r3, [r7, #11]
 781:build/openmote-cc2538_armgcc/openstack/02a-MAClow/IEEE802154E.c ****                   }
 782:build/openmote-cc2538_armgcc/openstack/02a-MAClow/IEEE802154E.c ****                   break;
 1879              		.loc 1 782 0
 1880 0d4c 02E0     		b	.L100
 1881              	.L103:
 1882 0d4e 01E0     		b	.L100
 1883              	.L93:
 783:build/openmote-cc2538_armgcc/openstack/02a-MAClow/IEEE802154E.c ****                default:
 784:build/openmote-cc2538_armgcc/openstack/02a-MAClow/IEEE802154E.c ****                   return FALSE;
 1884              		.loc 1 784 0
 1885 0d50 0023     		movs	r3, #0
 1886 0d52 59E0     		b	.L113
 1887              	.L100:
 785:build/openmote-cc2538_armgcc/openstack/02a-MAClow/IEEE802154E.c ****                   break;
 786:build/openmote-cc2538_armgcc/openstack/02a-MAClow/IEEE802154E.c ****             }
 787:build/openmote-cc2538_armgcc/openstack/02a-MAClow/IEEE802154E.c ****             
 788:build/openmote-cc2538_armgcc/openstack/02a-MAClow/IEEE802154E.c ****             len = len - sublen;
 1888              		.loc 1 788 0
 1889 0d54 BA8A     		ldrh	r2, [r7, #20]	@ movhi
 1890 0d56 7B8A     		ldrh	r3, [r7, #18]	@ movhi
 1891 0d58 D31A     		subs	r3, r2, r3
 1892 0d5a BB82     		strh	r3, [r7, #20]	@ movhi
 789:build/openmote-cc2538_armgcc/openstack/02a-MAClow/IEEE802154E.c ****          } while(len>0);
 1893              		.loc 1 789 0
 1894 0d5c BB8A     		ldrh	r3, [r7, #20]
 1895 0d5e 002B     		cmp	r3, #0
 1896 0d60 7FF4FAAE 		bne	.L105
 790:build/openmote-cc2538_armgcc/openstack/02a-MAClow/IEEE802154E.c ****          if (f_asn2slotoffset == TRUE) {
 1897              		.loc 1 790 0
 1898 0d64 7B7C     		ldrb	r3, [r7, #17]	@ zero_extendqisi2
 1899 0d66 002B     		cmp	r3, #0
 1900 0d68 3BD0     		beq	.L106
 791:build/openmote-cc2538_armgcc/openstack/02a-MAClow/IEEE802154E.c ****             // at this point, ASN and frame length are known
 792:build/openmote-cc2538_armgcc/openstack/02a-MAClow/IEEE802154E.c ****             // the current slotoffset can be inferred
 793:build/openmote-cc2538_armgcc/openstack/02a-MAClow/IEEE802154E.c ****             ieee154e_syncSlotOffset();
 1901              		.loc 1 793 0
 1902 0d6a FFF7FEFF 		bl	ieee154e_syncSlotOffset
 794:build/openmote-cc2538_armgcc/openstack/02a-MAClow/IEEE802154E.c ****             schedule_syncSlotOffset(ieee154e_vars.slotOffset);
 1903              		.loc 1 794 0
 1904 0d6e 40F20003 		movw	r3, #:lower16:ieee154e_vars
 1905 0d72 C0F20003 		movt	r3, #:upper16:ieee154e_vars
 1906 0d76 DB88     		ldrh	r3, [r3, #6]
 1907 0d78 1846     		mov	r0, r3
 1908 0d7a FFF7FEFF 		bl	schedule_syncSlotOffset
 795:build/openmote-cc2538_armgcc/openstack/02a-MAClow/IEEE802154E.c ****             ieee154e_vars.nextActiveSlotOffset = schedule_getNextActiveSlotOffset();
 1909              		.loc 1 795 0
 1910 0d7e FFF7FEFF 		bl	schedule_getNextActiveSlotOffset
 1911 0d82 0346     		mov	r3, r0
 1912 0d84 1A46     		mov	r2, r3
 1913 0d86 40F20003 		movw	r3, #:lower16:ieee154e_vars
 1914 0d8a C0F20003 		movt	r3, #:upper16:ieee154e_vars
 1915 0d8e 1A81     		strh	r2, [r3, #8]	@ movhi
 796:build/openmote-cc2538_armgcc/openstack/02a-MAClow/IEEE802154E.c ****             /* 
 797:build/openmote-cc2538_armgcc/openstack/02a-MAClow/IEEE802154E.c ****             infer the asnOffset based on the fact that
 798:build/openmote-cc2538_armgcc/openstack/02a-MAClow/IEEE802154E.c ****             ieee154e_vars.freq = 11 + (asnOffset + channelOffset)%16 
 799:build/openmote-cc2538_armgcc/openstack/02a-MAClow/IEEE802154E.c ****             */
 800:build/openmote-cc2538_armgcc/openstack/02a-MAClow/IEEE802154E.c ****             for (i=0;i<16;i++){
 1916              		.loc 1 800 0
 1917 0d90 0023     		movs	r3, #0
 1918 0d92 3B74     		strb	r3, [r7, #16]
 1919 0d94 15E0     		b	.L107
 1920              	.L110:
 801:build/openmote-cc2538_armgcc/openstack/02a-MAClow/IEEE802154E.c ****                 if ((ieee154e_vars.freq - 11)==ieee154e_vars.chTemplate[i]){
 1921              		.loc 1 801 0
 1922 0d96 40F20003 		movw	r3, #:lower16:ieee154e_vars
 1923 0d9a C0F20003 		movt	r3, #:upper16:ieee154e_vars
 1924 0d9e 93F84431 		ldrb	r3, [r3, #324]	@ zero_extendqisi2
 1925 0da2 A3F10B02 		sub	r2, r3, #11
 1926 0da6 397C     		ldrb	r1, [r7, #16]	@ zero_extendqisi2
 1927 0da8 40F20003 		movw	r3, #:lower16:ieee154e_vars
 1928 0dac C0F20003 		movt	r3, #:upper16:ieee154e_vars
 1929 0db0 0B44     		add	r3, r3, r1
 1930 0db2 93F84831 		ldrb	r3, [r3, #328]	@ zero_extendqisi2
 1931 0db6 9A42     		cmp	r2, r3
 1932 0db8 00D1     		bne	.L108
 802:build/openmote-cc2538_armgcc/openstack/02a-MAClow/IEEE802154E.c ****                     break;
 1933              		.loc 1 802 0
 1934 0dba 05E0     		b	.L109
 1935              	.L108:
 800:build/openmote-cc2538_armgcc/openstack/02a-MAClow/IEEE802154E.c ****                 if ((ieee154e_vars.freq - 11)==ieee154e_vars.chTemplate[i]){
 1936              		.loc 1 800 0
 1937 0dbc 3B7C     		ldrb	r3, [r7, #16]	@ zero_extendqisi2
 1938 0dbe 0133     		adds	r3, r3, #1
 1939 0dc0 3B74     		strb	r3, [r7, #16]
 1940              	.L107:
 800:build/openmote-cc2538_armgcc/openstack/02a-MAClow/IEEE802154E.c ****                 if ((ieee154e_vars.freq - 11)==ieee154e_vars.chTemplate[i]){
 1941              		.loc 1 800 0 is_stmt 0 discriminator 1
 1942 0dc2 3B7C     		ldrb	r3, [r7, #16]	@ zero_extendqisi2
 1943 0dc4 0F2B     		cmp	r3, #15
 1944 0dc6 E6D9     		bls	.L110
 1945              	.L109:
 803:build/openmote-cc2538_armgcc/openstack/02a-MAClow/IEEE802154E.c ****                 }
 804:build/openmote-cc2538_armgcc/openstack/02a-MAClow/IEEE802154E.c ****             }
 805:build/openmote-cc2538_armgcc/openstack/02a-MAClow/IEEE802154E.c ****             ieee154e_vars.asnOffset = i - schedule_getChannelOffset();
 1946              		.loc 1 805 0 is_stmt 1
 1947 0dc8 FFF7FEFF 		bl	schedule_getChannelOffset
 1948 0dcc 0346     		mov	r3, r0
 1949 0dce 3A7C     		ldrb	r2, [r7, #16]
 1950 0dd0 D31A     		subs	r3, r2, r3
 1951 0dd2 DAB2     		uxtb	r2, r3
 1952 0dd4 40F20003 		movw	r3, #:lower16:ieee154e_vars
 1953 0dd8 C0F20003 		movt	r3, #:upper16:ieee154e_vars
 1954 0ddc 83F84521 		strb	r2, [r3, #325]
 806:build/openmote-cc2538_armgcc/openstack/02a-MAClow/IEEE802154E.c ****          }
 807:build/openmote-cc2538_armgcc/openstack/02a-MAClow/IEEE802154E.c ****          break;
 1955              		.loc 1 807 0
 1956 0de0 05E0     		b	.L111
 1957              	.L106:
 1958 0de2 04E0     		b	.L111
 1959              	.L114:
 808:build/openmote-cc2538_armgcc/openstack/02a-MAClow/IEEE802154E.c ****          
 809:build/openmote-cc2538_armgcc/openstack/02a-MAClow/IEEE802154E.c ****       default:
 810:build/openmote-cc2538_armgcc/openstack/02a-MAClow/IEEE802154E.c ****          *lenIE = 0; //no header or not recognized.
 1960              		.loc 1 810 0
 1961 0de4 3B68     		ldr	r3, [r7]
 1962 0de6 0022     		movs	r2, #0
 1963 0de8 1A80     		strh	r2, [r3]	@ movhi
 811:build/openmote-cc2538_armgcc/openstack/02a-MAClow/IEEE802154E.c ****          return FALSE;
 1964              		.loc 1 811 0
 1965 0dea 0023     		movs	r3, #0
 1966 0dec 0CE0     		b	.L113
 1967              	.L111:
 812:build/openmote-cc2538_armgcc/openstack/02a-MAClow/IEEE802154E.c ****    }
 813:build/openmote-cc2538_armgcc/openstack/02a-MAClow/IEEE802154E.c ****    
 814:build/openmote-cc2538_armgcc/openstack/02a-MAClow/IEEE802154E.c ****    if(*lenIE>127) {
 1968              		.loc 1 814 0
 1969 0dee 3B68     		ldr	r3, [r7]
 1970 0df0 1B88     		ldrh	r3, [r3]
 1971 0df2 7F2B     		cmp	r3, #127
 1972 0df4 07D9     		bls	.L112
 815:build/openmote-cc2538_armgcc/openstack/02a-MAClow/IEEE802154E.c ****       // log the error
 816:build/openmote-cc2538_armgcc/openstack/02a-MAClow/IEEE802154E.c ****       openserial_printError(
 1973              		.loc 1 816 0
 1974 0df6 3B68     		ldr	r3, [r7]
 1975 0df8 1B88     		ldrh	r3, [r3]
 1976 0dfa 0920     		movs	r0, #9
 1977 0dfc 3321     		movs	r1, #51
 1978 0dfe 1A46     		mov	r2, r3
 1979 0e00 0123     		movs	r3, #1
 1980 0e02 FFF7FEFF 		bl	openserial_printError
 1981              	.L112:
 817:build/openmote-cc2538_armgcc/openstack/02a-MAClow/IEEE802154E.c ****          COMPONENT_IEEE802154E,
 818:build/openmote-cc2538_armgcc/openstack/02a-MAClow/IEEE802154E.c ****          ERR_HEADER_TOO_LONG,
 819:build/openmote-cc2538_armgcc/openstack/02a-MAClow/IEEE802154E.c ****          (errorparameter_t)*lenIE,
 820:build/openmote-cc2538_armgcc/openstack/02a-MAClow/IEEE802154E.c ****          (errorparameter_t)1
 821:build/openmote-cc2538_armgcc/openstack/02a-MAClow/IEEE802154E.c ****       );
 822:build/openmote-cc2538_armgcc/openstack/02a-MAClow/IEEE802154E.c ****    }
 823:build/openmote-cc2538_armgcc/openstack/02a-MAClow/IEEE802154E.c ****    return TRUE;
 1982              		.loc 1 823 0
 1983 0e06 0123     		movs	r3, #1
 1984              	.L113:
 824:build/openmote-cc2538_armgcc/openstack/02a-MAClow/IEEE802154E.c **** }
 1985              		.loc 1 824 0
 1986 0e08 1846     		mov	r0, r3
 1987 0e0a 1837     		adds	r7, r7, #24
 1988 0e0c BD46     		mov	sp, r7
 1989              		@ sp needed
 1990 0e0e 80BD     		pop	{r7, pc}
 1991              		.cfi_endproc
 1992              	.LFE12:
 1994              		.align	2
 1995              		.global	activity_ti1ORri1
 1996              		.thumb
 1997              		.thumb_func
 1999              	activity_ti1ORri1:
 2000              	.LFB13:
 825:build/openmote-cc2538_armgcc/openstack/02a-MAClow/IEEE802154E.c **** 
 826:build/openmote-cc2538_armgcc/openstack/02a-MAClow/IEEE802154E.c **** //======= TX
 827:build/openmote-cc2538_armgcc/openstack/02a-MAClow/IEEE802154E.c **** 
 828:build/openmote-cc2538_armgcc/openstack/02a-MAClow/IEEE802154E.c **** port_INLINE void activity_ti1ORri1() {
 2001              		.loc 1 828 0
 2002              		.cfi_startproc
 2003              		@ args = 0, pretend = 0, frame = 32
 2004              		@ frame_needed = 1, uses_anonymous_args = 0
 2005 0e10 80B5     		push	{r7, lr}
 2006              		.cfi_def_cfa_offset 8
 2007              		.cfi_offset 7, -8
 2008              		.cfi_offset 14, -4
 2009 0e12 88B0     		sub	sp, sp, #32
 2010              		.cfi_def_cfa_offset 40
 2011 0e14 00AF     		add	r7, sp, #0
 2012              		.cfi_def_cfa_register 7
 829:build/openmote-cc2538_armgcc/openstack/02a-MAClow/IEEE802154E.c ****    cellType_t  cellType;
 830:build/openmote-cc2538_armgcc/openstack/02a-MAClow/IEEE802154E.c ****    open_addr_t neighbor;
 831:build/openmote-cc2538_armgcc/openstack/02a-MAClow/IEEE802154E.c ****    uint8_t     i;
 832:build/openmote-cc2538_armgcc/openstack/02a-MAClow/IEEE802154E.c ****    sync_IE_ht  sync_IE;
 833:build/openmote-cc2538_armgcc/openstack/02a-MAClow/IEEE802154E.c ****    bool        changeToRX=FALSE;
 2013              		.loc 1 833 0
 2014 0e16 0023     		movs	r3, #0
 2015 0e18 BB77     		strb	r3, [r7, #30]
 834:build/openmote-cc2538_armgcc/openstack/02a-MAClow/IEEE802154E.c ****    bool        couldSendEB=FALSE;
 2016              		.loc 1 834 0
 2017 0e1a 0023     		movs	r3, #0
 2018 0e1c 7B77     		strb	r3, [r7, #29]
 835:build/openmote-cc2538_armgcc/openstack/02a-MAClow/IEEE802154E.c **** 
 836:build/openmote-cc2538_armgcc/openstack/02a-MAClow/IEEE802154E.c ****    // increment ASN (do this first so debug pins are in sync)
 837:build/openmote-cc2538_armgcc/openstack/02a-MAClow/IEEE802154E.c ****    incrementAsnOffset();
 2019              		.loc 1 837 0
 2020 0e1e FFF7FEFF 		bl	incrementAsnOffset
 838:build/openmote-cc2538_armgcc/openstack/02a-MAClow/IEEE802154E.c ****    
 839:build/openmote-cc2538_armgcc/openstack/02a-MAClow/IEEE802154E.c ****    // wiggle debug pins
 840:build/openmote-cc2538_armgcc/openstack/02a-MAClow/IEEE802154E.c ****    debugpins_slot_toggle();
 2021              		.loc 1 840 0
 2022 0e22 FFF7FEFF 		bl	debugpins_slot_toggle
 841:build/openmote-cc2538_armgcc/openstack/02a-MAClow/IEEE802154E.c ****    if (ieee154e_vars.slotOffset==0) {
 2023              		.loc 1 841 0
 2024 0e26 40F20003 		movw	r3, #:lower16:ieee154e_vars
 2025 0e2a C0F20003 		movt	r3, #:upper16:ieee154e_vars
 2026 0e2e DB88     		ldrh	r3, [r3, #6]
 2027 0e30 002B     		cmp	r3, #0
 2028 0e32 01D1     		bne	.L116
 842:build/openmote-cc2538_armgcc/openstack/02a-MAClow/IEEE802154E.c ****       debugpins_frame_toggle();
 2029              		.loc 1 842 0
 2030 0e34 FFF7FEFF 		bl	debugpins_frame_toggle
 2031              	.L116:
 843:build/openmote-cc2538_armgcc/openstack/02a-MAClow/IEEE802154E.c ****    }
 844:build/openmote-cc2538_armgcc/openstack/02a-MAClow/IEEE802154E.c ****    
 845:build/openmote-cc2538_armgcc/openstack/02a-MAClow/IEEE802154E.c ****    // desynchronize if needed
 846:build/openmote-cc2538_armgcc/openstack/02a-MAClow/IEEE802154E.c ****    if (idmanager_getIsDAGroot()==FALSE) {
 2032              		.loc 1 846 0
 2033 0e38 FFF7FEFF 		bl	idmanager_getIsDAGroot
 2034 0e3c 0346     		mov	r3, r0
 2035 0e3e 83F00103 		eor	r3, r3, #1
 2036 0e42 DBB2     		uxtb	r3, r3
 2037 0e44 002B     		cmp	r3, #0
 2038 0e46 42D0     		beq	.L117
 847:build/openmote-cc2538_armgcc/openstack/02a-MAClow/IEEE802154E.c ****       if(ieee154e_vars.deSyncTimeout > ieee154e_vars.numOfSleepSlots){
 2039              		.loc 1 847 0
 2040 0e48 40F20003 		movw	r3, #:lower16:ieee154e_vars
 2041 0e4c C0F20003 		movt	r3, #:upper16:ieee154e_vars
 2042 0e50 DA68     		ldr	r2, [r3, #12]
 2043 0e52 40F20003 		movw	r3, #:lower16:ieee154e_vars
 2044 0e56 C0F20003 		movt	r3, #:upper16:ieee154e_vars
 2045 0e5a D3F82431 		ldr	r3, [r3, #292]
 2046 0e5e 9A42     		cmp	r2, r3
 2047 0e60 11D9     		bls	.L118
 848:build/openmote-cc2538_armgcc/openstack/02a-MAClow/IEEE802154E.c ****          ieee154e_vars.deSyncTimeout -= ieee154e_vars.numOfSleepSlots;
 2048              		.loc 1 848 0
 2049 0e62 40F20003 		movw	r3, #:lower16:ieee154e_vars
 2050 0e66 C0F20003 		movt	r3, #:upper16:ieee154e_vars
 2051 0e6a DA68     		ldr	r2, [r3, #12]
 2052 0e6c 40F20003 		movw	r3, #:lower16:ieee154e_vars
 2053 0e70 C0F20003 		movt	r3, #:upper16:ieee154e_vars
 2054 0e74 D3F82431 		ldr	r3, [r3, #292]
 2055 0e78 D21A     		subs	r2, r2, r3
 2056 0e7a 40F20003 		movw	r3, #:lower16:ieee154e_vars
 2057 0e7e C0F20003 		movt	r3, #:upper16:ieee154e_vars
 2058 0e82 DA60     		str	r2, [r3, #12]
 2059 0e84 23E0     		b	.L117
 2060              	.L118:
 849:build/openmote-cc2538_armgcc/openstack/02a-MAClow/IEEE802154E.c ****       }
 850:build/openmote-cc2538_armgcc/openstack/02a-MAClow/IEEE802154E.c ****       else{
 851:build/openmote-cc2538_armgcc/openstack/02a-MAClow/IEEE802154E.c ****             // Reset sleep slots
 852:build/openmote-cc2538_armgcc/openstack/02a-MAClow/IEEE802154E.c ****             ieee154e_vars.numOfSleepSlots = 1;
 2061              		.loc 1 852 0
 2062 0e86 40F20003 		movw	r3, #:lower16:ieee154e_vars
 2063 0e8a C0F20003 		movt	r3, #:upper16:ieee154e_vars
 2064 0e8e 0122     		movs	r2, #1
 2065 0e90 C3F82421 		str	r2, [r3, #292]
 853:build/openmote-cc2538_armgcc/openstack/02a-MAClow/IEEE802154E.c ****         
 854:build/openmote-cc2538_armgcc/openstack/02a-MAClow/IEEE802154E.c ****             // declare myself desynchronized
 855:build/openmote-cc2538_armgcc/openstack/02a-MAClow/IEEE802154E.c ****             changeIsSync(FALSE);
 2066              		.loc 1 855 0
 2067 0e94 0020     		movs	r0, #0
 2068 0e96 FFF7FEFF 		bl	changeIsSync
 856:build/openmote-cc2538_armgcc/openstack/02a-MAClow/IEEE802154E.c ****             
 857:build/openmote-cc2538_armgcc/openstack/02a-MAClow/IEEE802154E.c ****             // log the error
 858:build/openmote-cc2538_armgcc/openstack/02a-MAClow/IEEE802154E.c ****             openserial_printError(COMPONENT_IEEE802154E,ERR_DESYNCHRONIZED,
 2069              		.loc 1 858 0
 2070 0e9a 40F20003 		movw	r3, #:lower16:ieee154e_vars
 2071 0e9e C0F20003 		movt	r3, #:upper16:ieee154e_vars
 2072 0ea2 DB88     		ldrh	r3, [r3, #6]
 2073 0ea4 0920     		movs	r0, #9
 2074 0ea6 1A21     		movs	r1, #26
 2075 0ea8 1A46     		mov	r2, r3
 2076 0eaa 0023     		movs	r3, #0
 2077 0eac FFF7FEFF 		bl	openserial_printError
 859:build/openmote-cc2538_armgcc/openstack/02a-MAClow/IEEE802154E.c ****                                   (errorparameter_t)ieee154e_vars.slotOffset,
 860:build/openmote-cc2538_armgcc/openstack/02a-MAClow/IEEE802154E.c ****                                   (errorparameter_t)0);
 861:build/openmote-cc2538_armgcc/openstack/02a-MAClow/IEEE802154E.c ****             
 862:build/openmote-cc2538_armgcc/openstack/02a-MAClow/IEEE802154E.c ****             // update the statistics
 863:build/openmote-cc2538_armgcc/openstack/02a-MAClow/IEEE802154E.c ****             ieee154e_stats.numDeSync++;
 2078              		.loc 1 863 0
 2079 0eb0 40F20003 		movw	r3, #:lower16:ieee154e_stats
 2080 0eb4 C0F20003 		movt	r3, #:upper16:ieee154e_stats
 2081 0eb8 9B79     		ldrb	r3, [r3, #6]	@ zero_extendqisi2
 2082 0eba 0133     		adds	r3, r3, #1
 2083 0ebc DAB2     		uxtb	r2, r3
 2084 0ebe 40F20003 		movw	r3, #:lower16:ieee154e_stats
 2085 0ec2 C0F20003 		movt	r3, #:upper16:ieee154e_stats
 2086 0ec6 9A71     		strb	r2, [r3, #6]
 864:build/openmote-cc2538_armgcc/openstack/02a-MAClow/IEEE802154E.c ****                
 865:build/openmote-cc2538_armgcc/openstack/02a-MAClow/IEEE802154E.c ****             // abort
 866:build/openmote-cc2538_armgcc/openstack/02a-MAClow/IEEE802154E.c ****             endSlot();
 2087              		.loc 1 866 0
 2088 0ec8 FFF7FEFF 		bl	endSlot
 867:build/openmote-cc2538_armgcc/openstack/02a-MAClow/IEEE802154E.c ****             return;
 2089              		.loc 1 867 0
 2090 0ecc 05E2     		b	.L115
 2091              	.L117:
 868:build/openmote-cc2538_armgcc/openstack/02a-MAClow/IEEE802154E.c ****       }
 869:build/openmote-cc2538_armgcc/openstack/02a-MAClow/IEEE802154E.c ****    }
 870:build/openmote-cc2538_armgcc/openstack/02a-MAClow/IEEE802154E.c ****    
 871:build/openmote-cc2538_armgcc/openstack/02a-MAClow/IEEE802154E.c ****    // if the previous slot took too long, we will not be in the right state
 872:build/openmote-cc2538_armgcc/openstack/02a-MAClow/IEEE802154E.c ****    if (ieee154e_vars.state!=S_SLEEP) {
 2092              		.loc 1 872 0
 2093 0ece 40F20003 		movw	r3, #:lower16:ieee154e_vars
 2094 0ed2 C0F20003 		movt	r3, #:upper16:ieee154e_vars
 2095 0ed6 93F82831 		ldrb	r3, [r3, #296]	@ zero_extendqisi2
 2096 0eda 002B     		cmp	r3, #0
 2097 0edc 12D0     		beq	.L120
 873:build/openmote-cc2538_armgcc/openstack/02a-MAClow/IEEE802154E.c ****       // log the error
 874:build/openmote-cc2538_armgcc/openstack/02a-MAClow/IEEE802154E.c ****       openserial_printError(COMPONENT_IEEE802154E,ERR_WRONG_STATE_IN_STARTSLOT,
 875:build/openmote-cc2538_armgcc/openstack/02a-MAClow/IEEE802154E.c ****                             (errorparameter_t)ieee154e_vars.state,
 2098              		.loc 1 875 0
 2099 0ede 40F20003 		movw	r3, #:lower16:ieee154e_vars
 2100 0ee2 C0F20003 		movt	r3, #:upper16:ieee154e_vars
 2101 0ee6 93F82831 		ldrb	r3, [r3, #296]	@ zero_extendqisi2
 874:build/openmote-cc2538_armgcc/openstack/02a-MAClow/IEEE802154E.c ****                             (errorparameter_t)ieee154e_vars.state,
 2102              		.loc 1 874 0
 2103 0eea 1A46     		mov	r2, r3
 2104 0eec 40F20003 		movw	r3, #:lower16:ieee154e_vars
 2105 0ef0 C0F20003 		movt	r3, #:upper16:ieee154e_vars
 2106 0ef4 DB88     		ldrh	r3, [r3, #6]
 2107 0ef6 0920     		movs	r0, #9
 2108 0ef8 1E21     		movs	r1, #30
 2109 0efa FFF7FEFF 		bl	openserial_printError
 876:build/openmote-cc2538_armgcc/openstack/02a-MAClow/IEEE802154E.c ****                             (errorparameter_t)ieee154e_vars.slotOffset);
 877:build/openmote-cc2538_armgcc/openstack/02a-MAClow/IEEE802154E.c ****       // abort
 878:build/openmote-cc2538_armgcc/openstack/02a-MAClow/IEEE802154E.c ****       endSlot();
 2110              		.loc 1 878 0
 2111 0efe FFF7FEFF 		bl	endSlot
 879:build/openmote-cc2538_armgcc/openstack/02a-MAClow/IEEE802154E.c ****       return;
 2112              		.loc 1 879 0
 2113 0f02 EAE1     		b	.L115
 2114              	.L120:
 880:build/openmote-cc2538_armgcc/openstack/02a-MAClow/IEEE802154E.c ****    }
 881:build/openmote-cc2538_armgcc/openstack/02a-MAClow/IEEE802154E.c ****    
 882:build/openmote-cc2538_armgcc/openstack/02a-MAClow/IEEE802154E.c ****    // Reset sleep slots
 883:build/openmote-cc2538_armgcc/openstack/02a-MAClow/IEEE802154E.c ****    ieee154e_vars.numOfSleepSlots = 1;
 2115              		.loc 1 883 0
 2116 0f04 40F20003 		movw	r3, #:lower16:ieee154e_vars
 2117 0f08 C0F20003 		movt	r3, #:upper16:ieee154e_vars
 2118 0f0c 0122     		movs	r2, #1
 2119 0f0e C3F82421 		str	r2, [r3, #292]
 884:build/openmote-cc2538_armgcc/openstack/02a-MAClow/IEEE802154E.c ****    
 885:build/openmote-cc2538_armgcc/openstack/02a-MAClow/IEEE802154E.c ****    if (ieee154e_vars.slotOffset==ieee154e_vars.nextActiveSlotOffset) {
 2120              		.loc 1 885 0
 2121 0f12 40F20003 		movw	r3, #:lower16:ieee154e_vars
 2122 0f16 C0F20003 		movt	r3, #:upper16:ieee154e_vars
 2123 0f1a DA88     		ldrh	r2, [r3, #6]
 2124 0f1c 40F20003 		movw	r3, #:lower16:ieee154e_vars
 2125 0f20 C0F20003 		movt	r3, #:upper16:ieee154e_vars
 2126 0f24 1B89     		ldrh	r3, [r3, #8]
 2127 0f26 9A42     		cmp	r2, r3
 2128 0f28 40F09C80 		bne	.L121
 886:build/openmote-cc2538_armgcc/openstack/02a-MAClow/IEEE802154E.c ****       // this is the next active slot
 887:build/openmote-cc2538_armgcc/openstack/02a-MAClow/IEEE802154E.c ****       
 888:build/openmote-cc2538_armgcc/openstack/02a-MAClow/IEEE802154E.c ****       // advance the schedule
 889:build/openmote-cc2538_armgcc/openstack/02a-MAClow/IEEE802154E.c ****       schedule_advanceSlot();
 2129              		.loc 1 889 0
 2130 0f2c FFF7FEFF 		bl	schedule_advanceSlot
 890:build/openmote-cc2538_armgcc/openstack/02a-MAClow/IEEE802154E.c ****       
 891:build/openmote-cc2538_armgcc/openstack/02a-MAClow/IEEE802154E.c ****       // calculate the frequency to transmit on
 892:build/openmote-cc2538_armgcc/openstack/02a-MAClow/IEEE802154E.c ****       ieee154e_vars.freq = calculateFrequency(schedule_getChannelOffset()); 
 2131              		.loc 1 892 0
 2132 0f30 FFF7FEFF 		bl	schedule_getChannelOffset
 2133 0f34 0346     		mov	r3, r0
 2134 0f36 1846     		mov	r0, r3
 2135 0f38 FFF7FEFF 		bl	calculateFrequency
 2136 0f3c 0346     		mov	r3, r0
 2137 0f3e 1A46     		mov	r2, r3
 2138 0f40 40F20003 		movw	r3, #:lower16:ieee154e_vars
 2139 0f44 C0F20003 		movt	r3, #:upper16:ieee154e_vars
 2140 0f48 83F84421 		strb	r2, [r3, #324]
 893:build/openmote-cc2538_armgcc/openstack/02a-MAClow/IEEE802154E.c ****       
 894:build/openmote-cc2538_armgcc/openstack/02a-MAClow/IEEE802154E.c ****       // find the next one
 895:build/openmote-cc2538_armgcc/openstack/02a-MAClow/IEEE802154E.c ****       ieee154e_vars.nextActiveSlotOffset = schedule_getNextActiveSlotOffset();
 2141              		.loc 1 895 0
 2142 0f4c FFF7FEFF 		bl	schedule_getNextActiveSlotOffset
 2143 0f50 0346     		mov	r3, r0
 2144 0f52 1A46     		mov	r2, r3
 2145 0f54 40F20003 		movw	r3, #:lower16:ieee154e_vars
 2146 0f58 C0F20003 		movt	r3, #:upper16:ieee154e_vars
 2147 0f5c 1A81     		strh	r2, [r3, #8]	@ movhi
 896:build/openmote-cc2538_armgcc/openstack/02a-MAClow/IEEE802154E.c ****       if (idmanager_getIsSlotSkip() && idmanager_getIsDAGroot()==FALSE) {
 2148              		.loc 1 896 0
 2149 0f5e FFF7FEFF 		bl	idmanager_getIsSlotSkip
 2150 0f62 0346     		mov	r3, r0
 2151 0f64 002B     		cmp	r3, #0
 2152 0f66 5DD0     		beq	.L122
 2153              		.loc 1 896 0 is_stmt 0 discriminator 1
 2154 0f68 FFF7FEFF 		bl	idmanager_getIsDAGroot
 2155 0f6c 0346     		mov	r3, r0
 2156 0f6e 83F00103 		eor	r3, r3, #1
 2157 0f72 DBB2     		uxtb	r3, r3
 2158 0f74 002B     		cmp	r3, #0
 2159 0f76 55D0     		beq	.L122
 897:build/openmote-cc2538_armgcc/openstack/02a-MAClow/IEEE802154E.c ****           if (ieee154e_vars.nextActiveSlotOffset>ieee154e_vars.slotOffset) {
 2160              		.loc 1 897 0 is_stmt 1
 2161 0f78 40F20003 		movw	r3, #:lower16:ieee154e_vars
 2162 0f7c C0F20003 		movt	r3, #:upper16:ieee154e_vars
 2163 0f80 1A89     		ldrh	r2, [r3, #8]
 2164 0f82 40F20003 		movw	r3, #:lower16:ieee154e_vars
 2165 0f86 C0F20003 		movt	r3, #:upper16:ieee154e_vars
 2166 0f8a DB88     		ldrh	r3, [r3, #6]
 2167 0f8c 9A42     		cmp	r2, r3
 2168 0f8e 13D9     		bls	.L123
 898:build/openmote-cc2538_armgcc/openstack/02a-MAClow/IEEE802154E.c ****                ieee154e_vars.numOfSleepSlots = ieee154e_vars.nextActiveSlotOffset-ieee154e_vars.slo
 2169              		.loc 1 898 0
 2170 0f90 40F20003 		movw	r3, #:lower16:ieee154e_vars
 2171 0f94 C0F20003 		movt	r3, #:upper16:ieee154e_vars
 2172 0f98 1B89     		ldrh	r3, [r3, #8]
 2173 0f9a 1A46     		mov	r2, r3
 2174 0f9c 40F20003 		movw	r3, #:lower16:ieee154e_vars
 2175 0fa0 C0F20003 		movt	r3, #:upper16:ieee154e_vars
 2176 0fa4 DB88     		ldrh	r3, [r3, #6]
 2177 0fa6 D31A     		subs	r3, r2, r3
 2178 0fa8 1A46     		mov	r2, r3
 2179 0faa 40F20003 		movw	r3, #:lower16:ieee154e_vars
 2180 0fae C0F20003 		movt	r3, #:upper16:ieee154e_vars
 2181 0fb2 C3F82421 		str	r2, [r3, #292]
 2182 0fb6 16E0     		b	.L124
 2183              	.L123:
 899:build/openmote-cc2538_armgcc/openstack/02a-MAClow/IEEE802154E.c ****           } else {
 900:build/openmote-cc2538_armgcc/openstack/02a-MAClow/IEEE802154E.c ****                ieee154e_vars.numOfSleepSlots = schedule_getFrameLength()+ieee154e_vars.nextActiveSl
 2184              		.loc 1 900 0
 2185 0fb8 FFF7FEFF 		bl	schedule_getFrameLength
 2186 0fbc 0346     		mov	r3, r0
 2187 0fbe 1A46     		mov	r2, r3
 2188 0fc0 40F20003 		movw	r3, #:lower16:ieee154e_vars
 2189 0fc4 C0F20003 		movt	r3, #:upper16:ieee154e_vars
 2190 0fc8 1B89     		ldrh	r3, [r3, #8]
 2191 0fca 1A44     		add	r2, r2, r3
 2192 0fcc 40F20003 		movw	r3, #:lower16:ieee154e_vars
 2193 0fd0 C0F20003 		movt	r3, #:upper16:ieee154e_vars
 2194 0fd4 DB88     		ldrh	r3, [r3, #6]
 2195 0fd6 D31A     		subs	r3, r2, r3
 2196 0fd8 1A46     		mov	r2, r3
 2197 0fda 40F20003 		movw	r3, #:lower16:ieee154e_vars
 2198 0fde C0F20003 		movt	r3, #:upper16:ieee154e_vars
 2199 0fe2 C3F82421 		str	r2, [r3, #292]
 2200              	.L124:
 901:build/openmote-cc2538_armgcc/openstack/02a-MAClow/IEEE802154E.c ****           }
 902:build/openmote-cc2538_armgcc/openstack/02a-MAClow/IEEE802154E.c ****           
 903:build/openmote-cc2538_armgcc/openstack/02a-MAClow/IEEE802154E.c ****           radio_setTimerPeriod(TsSlotDuration*(ieee154e_vars.numOfSleepSlots));
 2201              		.loc 1 903 0
 2202 0fe6 40F20003 		movw	r3, #:lower16:ieee154e_vars
 2203 0fea C0F20003 		movt	r3, #:upper16:ieee154e_vars
 2204 0fee D3F82431 		ldr	r3, [r3, #292]
 2205 0ff2 4FF4F672 		mov	r2, #492
 2206 0ff6 02FB03F3 		mul	r3, r2, r3
 2207 0ffa 1846     		mov	r0, r3
 2208 0ffc FFF7FEFF 		bl	radio_setTimerPeriod
 904:build/openmote-cc2538_armgcc/openstack/02a-MAClow/IEEE802154E.c ****            
 905:build/openmote-cc2538_armgcc/openstack/02a-MAClow/IEEE802154E.c ****           //increase ASN by numOfSleepSlots-1 slots as at this slot is already incremented by 1
 906:build/openmote-cc2538_armgcc/openstack/02a-MAClow/IEEE802154E.c ****           for (i=0;i<ieee154e_vars.numOfSleepSlots-1;i++){
 2209              		.loc 1 906 0
 2210 1000 0023     		movs	r3, #0
 2211 1002 FB77     		strb	r3, [r7, #31]
 2212 1004 04E0     		b	.L125
 2213              	.L126:
 907:build/openmote-cc2538_armgcc/openstack/02a-MAClow/IEEE802154E.c ****              incrementAsnOffset();
 2214              		.loc 1 907 0 discriminator 2
 2215 1006 FFF7FEFF 		bl	incrementAsnOffset
 906:build/openmote-cc2538_armgcc/openstack/02a-MAClow/IEEE802154E.c ****              incrementAsnOffset();
 2216              		.loc 1 906 0 discriminator 2
 2217 100a FB7F     		ldrb	r3, [r7, #31]	@ zero_extendqisi2
 2218 100c 0133     		adds	r3, r3, #1
 2219 100e FB77     		strb	r3, [r7, #31]
 2220              	.L125:
 906:build/openmote-cc2538_armgcc/openstack/02a-MAClow/IEEE802154E.c ****              incrementAsnOffset();
 2221              		.loc 1 906 0 is_stmt 0 discriminator 1
 2222 1010 FA7F     		ldrb	r2, [r7, #31]	@ zero_extendqisi2
 2223 1012 40F20003 		movw	r3, #:lower16:ieee154e_vars
 2224 1016 C0F20003 		movt	r3, #:upper16:ieee154e_vars
 2225 101a D3F82431 		ldr	r3, [r3, #292]
 2226 101e 013B     		subs	r3, r3, #1
 2227 1020 9A42     		cmp	r2, r3
 2228 1022 F0D3     		bcc	.L126
 2229              	.L122:
 908:build/openmote-cc2538_armgcc/openstack/02a-MAClow/IEEE802154E.c ****           }
 909:build/openmote-cc2538_armgcc/openstack/02a-MAClow/IEEE802154E.c ****       }  
 910:build/openmote-cc2538_armgcc/openstack/02a-MAClow/IEEE802154E.c ****       ieee154e_vars.nextActiveSlotOffset = schedule_getNextActiveSlotOffset();      
 2230              		.loc 1 910 0 is_stmt 1
 2231 1024 FFF7FEFF 		bl	schedule_getNextActiveSlotOffset
 2232 1028 0346     		mov	r3, r0
 2233 102a 1A46     		mov	r2, r3
 2234 102c 40F20003 		movw	r3, #:lower16:ieee154e_vars
 2235 1030 C0F20003 		movt	r3, #:upper16:ieee154e_vars
 2236 1034 1A81     		strh	r2, [r3, #8]	@ movhi
 911:build/openmote-cc2538_armgcc/openstack/02a-MAClow/IEEE802154E.c ****    } else {
 912:build/openmote-cc2538_armgcc/openstack/02a-MAClow/IEEE802154E.c ****       // this is NOT the next active slot, abort
 913:build/openmote-cc2538_armgcc/openstack/02a-MAClow/IEEE802154E.c ****       // stop using serial
 914:build/openmote-cc2538_armgcc/openstack/02a-MAClow/IEEE802154E.c ****       openserial_stop();
 915:build/openmote-cc2538_armgcc/openstack/02a-MAClow/IEEE802154E.c ****       // abort the slot
 916:build/openmote-cc2538_armgcc/openstack/02a-MAClow/IEEE802154E.c ****       endSlot();
 917:build/openmote-cc2538_armgcc/openstack/02a-MAClow/IEEE802154E.c ****       //start outputing serial
 918:build/openmote-cc2538_armgcc/openstack/02a-MAClow/IEEE802154E.c ****       openserial_startOutput();
 919:build/openmote-cc2538_armgcc/openstack/02a-MAClow/IEEE802154E.c ****       return;
 920:build/openmote-cc2538_armgcc/openstack/02a-MAClow/IEEE802154E.c ****    }
 921:build/openmote-cc2538_armgcc/openstack/02a-MAClow/IEEE802154E.c ****    
 922:build/openmote-cc2538_armgcc/openstack/02a-MAClow/IEEE802154E.c ****    // check the schedule to see what type of slot this is
 923:build/openmote-cc2538_armgcc/openstack/02a-MAClow/IEEE802154E.c ****    cellType = schedule_getType();
 2237              		.loc 1 923 0
 2238 1036 FFF7FEFF 		bl	schedule_getType
 2239 103a 0346     		mov	r3, r0
 2240 103c 3B77     		strb	r3, [r7, #28]
 924:build/openmote-cc2538_armgcc/openstack/02a-MAClow/IEEE802154E.c ****    switch (cellType) {
 2241              		.loc 1 924 0
 2242 103e 3B7F     		ldrb	r3, [r7, #28]	@ zero_extendqisi2
 2243 1040 013B     		subs	r3, r3, #1
 2244 1042 042B     		cmp	r3, #4
 2245 1044 00F23881 		bhi	.L128
 2246 1048 01A2     		adr	r2, .L130
 2247 104a 52F823F0 		ldr	pc, [r2, r3, lsl #2]
 2248 104e 00BF     		.p2align 2
 2249              	.L130:
 2250 1050 73100000 		.word	.L129+1
 2251 1054 7B110000 		.word	.L131+1
 2252 1058 73100000 		.word	.L129+1
 2253 105c A7110000 		.word	.L132+1
 2254 1060 D9120000 		.word	.L148+1
 2255              	.L121:
 914:build/openmote-cc2538_armgcc/openstack/02a-MAClow/IEEE802154E.c ****       // abort the slot
 2256              		.loc 1 914 0
 2257 1064 FFF7FEFF 		bl	openserial_stop
 916:build/openmote-cc2538_armgcc/openstack/02a-MAClow/IEEE802154E.c ****       //start outputing serial
 2258              		.loc 1 916 0
 2259 1068 FFF7FEFF 		bl	endSlot
 918:build/openmote-cc2538_armgcc/openstack/02a-MAClow/IEEE802154E.c ****       return;
 2260              		.loc 1 918 0
 2261 106c FFF7FEFF 		bl	openserial_startOutput
 919:build/openmote-cc2538_armgcc/openstack/02a-MAClow/IEEE802154E.c ****    }
 2262              		.loc 1 919 0
 2263 1070 33E1     		b	.L115
 2264              	.L129:
 925:build/openmote-cc2538_armgcc/openstack/02a-MAClow/IEEE802154E.c ****       case CELLTYPE_TXRX:
 926:build/openmote-cc2538_armgcc/openstack/02a-MAClow/IEEE802154E.c ****       case CELLTYPE_TX:
 927:build/openmote-cc2538_armgcc/openstack/02a-MAClow/IEEE802154E.c ****          // stop using serial
 928:build/openmote-cc2538_armgcc/openstack/02a-MAClow/IEEE802154E.c ****          openserial_stop();
 2265              		.loc 1 928 0
 2266 1072 FFF7FEFF 		bl	openserial_stop
 929:build/openmote-cc2538_armgcc/openstack/02a-MAClow/IEEE802154E.c ****          // assuming that there is nothing to send
 930:build/openmote-cc2538_armgcc/openstack/02a-MAClow/IEEE802154E.c ****          ieee154e_vars.dataToSend = NULL;
 2267              		.loc 1 930 0
 2268 1076 40F20003 		movw	r3, #:lower16:ieee154e_vars
 2269 107a C0F20003 		movt	r3, #:upper16:ieee154e_vars
 2270 107e 0022     		movs	r2, #0
 2271 1080 C3F82C21 		str	r2, [r3, #300]
 931:build/openmote-cc2538_armgcc/openstack/02a-MAClow/IEEE802154E.c ****          // check whether we can send
 932:build/openmote-cc2538_armgcc/openstack/02a-MAClow/IEEE802154E.c ****          if (schedule_getOkToSend()) {
 2272              		.loc 1 932 0
 2273 1084 FFF7FEFF 		bl	schedule_getOkToSend
 2274 1088 0346     		mov	r3, r0
 2275 108a 002B     		cmp	r3, #0
 2276 108c 26D0     		beq	.L134
 933:build/openmote-cc2538_armgcc/openstack/02a-MAClow/IEEE802154E.c ****             schedule_getNeighbor(&neighbor);
 2277              		.loc 1 933 0
 2278 108e 07F10803 		add	r3, r7, #8
 2279 1092 1846     		mov	r0, r3
 2280 1094 FFF7FEFF 		bl	schedule_getNeighbor
 934:build/openmote-cc2538_armgcc/openstack/02a-MAClow/IEEE802154E.c ****             ieee154e_vars.dataToSend = openqueue_macGetDataPacket(&neighbor);
 2281              		.loc 1 934 0
 2282 1098 07F10803 		add	r3, r7, #8
 2283 109c 1846     		mov	r0, r3
 2284 109e FFF7FEFF 		bl	openqueue_macGetDataPacket
 2285 10a2 0246     		mov	r2, r0
 2286 10a4 40F20003 		movw	r3, #:lower16:ieee154e_vars
 2287 10a8 C0F20003 		movt	r3, #:upper16:ieee154e_vars
 2288 10ac C3F82C21 		str	r2, [r3, #300]
 935:build/openmote-cc2538_armgcc/openstack/02a-MAClow/IEEE802154E.c ****             if ((ieee154e_vars.dataToSend==NULL) && (cellType==CELLTYPE_TXRX)) {
 2289              		.loc 1 935 0
 2290 10b0 40F20003 		movw	r3, #:lower16:ieee154e_vars
 2291 10b4 C0F20003 		movt	r3, #:upper16:ieee154e_vars
 2292 10b8 D3F82C31 		ldr	r3, [r3, #300]
 2293 10bc 002B     		cmp	r3, #0
 2294 10be 0DD1     		bne	.L134
 2295              		.loc 1 935 0 is_stmt 0 discriminator 1
 2296 10c0 3B7F     		ldrb	r3, [r7, #28]	@ zero_extendqisi2
 2297 10c2 032B     		cmp	r3, #3
 2298 10c4 0AD1     		bne	.L134
 936:build/openmote-cc2538_armgcc/openstack/02a-MAClow/IEEE802154E.c ****                couldSendEB=TRUE;
 2299              		.loc 1 936 0 is_stmt 1
 2300 10c6 0123     		movs	r3, #1
 2301 10c8 7B77     		strb	r3, [r7, #29]
 937:build/openmote-cc2538_armgcc/openstack/02a-MAClow/IEEE802154E.c ****                // look for an EB packet in the queue
 938:build/openmote-cc2538_armgcc/openstack/02a-MAClow/IEEE802154E.c ****                ieee154e_vars.dataToSend = openqueue_macGetEBPacket();
 2302              		.loc 1 938 0
 2303 10ca FFF7FEFF 		bl	openqueue_macGetEBPacket
 2304 10ce 0246     		mov	r2, r0
 2305 10d0 40F20003 		movw	r3, #:lower16:ieee154e_vars
 2306 10d4 C0F20003 		movt	r3, #:upper16:ieee154e_vars
 2307 10d8 C3F82C21 		str	r2, [r3, #300]
 2308              	.L134:
 939:build/openmote-cc2538_armgcc/openstack/02a-MAClow/IEEE802154E.c ****             }
 940:build/openmote-cc2538_armgcc/openstack/02a-MAClow/IEEE802154E.c ****          }
 941:build/openmote-cc2538_armgcc/openstack/02a-MAClow/IEEE802154E.c ****          if (ieee154e_vars.dataToSend==NULL) {
 2309              		.loc 1 941 0
 2310 10dc 40F20003 		movw	r3, #:lower16:ieee154e_vars
 2311 10e0 C0F20003 		movt	r3, #:upper16:ieee154e_vars
 2312 10e4 D3F82C31 		ldr	r3, [r3, #300]
 2313 10e8 002B     		cmp	r3, #0
 2314 10ea 08D1     		bne	.L135
 942:build/openmote-cc2538_armgcc/openstack/02a-MAClow/IEEE802154E.c ****             if (cellType==CELLTYPE_TX) {
 2315              		.loc 1 942 0
 2316 10ec 3B7F     		ldrb	r3, [r7, #28]	@ zero_extendqisi2
 2317 10ee 012B     		cmp	r3, #1
 2318 10f0 02D1     		bne	.L136
 943:build/openmote-cc2538_armgcc/openstack/02a-MAClow/IEEE802154E.c ****                // abort
 944:build/openmote-cc2538_armgcc/openstack/02a-MAClow/IEEE802154E.c ****                endSlot();
 2319              		.loc 1 944 0
 2320 10f2 FFF7FEFF 		bl	endSlot
 945:build/openmote-cc2538_armgcc/openstack/02a-MAClow/IEEE802154E.c ****                break;
 2321              		.loc 1 945 0
 2322 10f6 F0E0     		b	.L137
 2323              	.L136:
 946:build/openmote-cc2538_armgcc/openstack/02a-MAClow/IEEE802154E.c ****             } else {
 947:build/openmote-cc2538_armgcc/openstack/02a-MAClow/IEEE802154E.c ****                changeToRX=TRUE;
 2324              		.loc 1 947 0
 2325 10f8 0123     		movs	r3, #1
 2326 10fa BB77     		strb	r3, [r7, #30]
 2327 10fc 3DE0     		b	.L131
 2328              	.L135:
 948:build/openmote-cc2538_armgcc/openstack/02a-MAClow/IEEE802154E.c ****             }
 949:build/openmote-cc2538_armgcc/openstack/02a-MAClow/IEEE802154E.c ****          } else {
 950:build/openmote-cc2538_armgcc/openstack/02a-MAClow/IEEE802154E.c ****             // change state
 951:build/openmote-cc2538_armgcc/openstack/02a-MAClow/IEEE802154E.c ****             changeState(S_TXDATAOFFSET);
 2329              		.loc 1 951 0
 2330 10fe 0420     		movs	r0, #4
 2331 1100 FFF7FEFF 		bl	changeState
 952:build/openmote-cc2538_armgcc/openstack/02a-MAClow/IEEE802154E.c ****             // change owner
 953:build/openmote-cc2538_armgcc/openstack/02a-MAClow/IEEE802154E.c ****             ieee154e_vars.dataToSend->owner = COMPONENT_IEEE802154E;
 2332              		.loc 1 953 0
 2333 1104 40F20003 		movw	r3, #:lower16:ieee154e_vars
 2334 1108 C0F20003 		movt	r3, #:upper16:ieee154e_vars
 2335 110c D3F82C31 		ldr	r3, [r3, #300]
 2336 1110 0922     		movs	r2, #9
 2337 1112 5A70     		strb	r2, [r3, #1]
 954:build/openmote-cc2538_armgcc/openstack/02a-MAClow/IEEE802154E.c ****             if (couldSendEB==TRUE) {        // I will be sending an EB
 2338              		.loc 1 954 0
 2339 1114 7B7F     		ldrb	r3, [r7, #29]	@ zero_extendqisi2
 2340 1116 002B     		cmp	r3, #0
 2341 1118 18D0     		beq	.L138
 955:build/openmote-cc2538_armgcc/openstack/02a-MAClow/IEEE802154E.c ****                //copy synch IE  -- should be Little endian???
 956:build/openmote-cc2538_armgcc/openstack/02a-MAClow/IEEE802154E.c ****                // fill in the ASN field of the EB
 957:build/openmote-cc2538_armgcc/openstack/02a-MAClow/IEEE802154E.c ****                ieee154e_getAsn(sync_IE.asn);
 2342              		.loc 1 957 0
 2343 111a 3B46     		mov	r3, r7
 2344 111c 1846     		mov	r0, r3
 2345 111e FFF7FEFF 		bl	ieee154e_getAsn
 958:build/openmote-cc2538_armgcc/openstack/02a-MAClow/IEEE802154E.c ****                sync_IE.join_priority = (icmpv6rpl_getMyDAGrank()/MINHOPRANKINCREASE)-1; //poipoi --
 2346              		.loc 1 958 0
 2347 1122 FFF7FEFF 		bl	icmpv6rpl_getMyDAGrank
 2348 1126 0346     		mov	r3, r0
 2349 1128 1B0A     		lsrs	r3, r3, #8
 2350 112a 9BB2     		uxth	r3, r3
 2351 112c DBB2     		uxtb	r3, r3
 2352 112e 013B     		subs	r3, r3, #1
 2353 1130 DBB2     		uxtb	r3, r3
 2354 1132 7B71     		strb	r3, [r7, #5]
 959:build/openmote-cc2538_armgcc/openstack/02a-MAClow/IEEE802154E.c ****                memcpy(ieee154e_vars.dataToSend->l2_ASNpayload,&sync_IE,sizeof(sync_IE_ht));
 2355              		.loc 1 959 0
 2356 1134 40F20003 		movw	r3, #:lower16:ieee154e_vars
 2357 1138 C0F20003 		movt	r3, #:upper16:ieee154e_vars
 2358 113c D3F82C31 		ldr	r3, [r3, #300]
 2359 1140 1B6E     		ldr	r3, [r3, #96]
 2360 1142 3A46     		mov	r2, r7
 2361 1144 1068     		ldr	r0, [r2]	@ unaligned
 2362 1146 1860     		str	r0, [r3]	@ unaligned
 2363 1148 9288     		ldrh	r2, [r2, #4]	@ unaligned
 2364 114a 9A80     		strh	r2, [r3, #4]	@ unaligned
 2365              	.L138:
 960:build/openmote-cc2538_armgcc/openstack/02a-MAClow/IEEE802154E.c ****             }
 961:build/openmote-cc2538_armgcc/openstack/02a-MAClow/IEEE802154E.c ****             // record that I attempt to transmit this packet
 962:build/openmote-cc2538_armgcc/openstack/02a-MAClow/IEEE802154E.c ****             ieee154e_vars.dataToSend->l2_numTxAttempts++;
 2366              		.loc 1 962 0
 2367 114c 40F20003 		movw	r3, #:lower16:ieee154e_vars
 2368 1150 C0F20003 		movt	r3, #:upper16:ieee154e_vars
 2369 1154 D3F82C31 		ldr	r3, [r3, #300]
 2370 1158 93F84C20 		ldrb	r2, [r3, #76]	@ zero_extendqisi2
 2371 115c 0132     		adds	r2, r2, #1
 2372 115e D2B2     		uxtb	r2, r2
 2373 1160 83F84C20 		strb	r2, [r3, #76]
 963:build/openmote-cc2538_armgcc/openstack/02a-MAClow/IEEE802154E.c **** #ifdef SLOT_FSM_IMPLEMENTATION_MULTIPLE_TIMER_INTERRUPT
 964:build/openmote-cc2538_armgcc/openstack/02a-MAClow/IEEE802154E.c ****             // 1. schedule timer for loading packet
 965:build/openmote-cc2538_armgcc/openstack/02a-MAClow/IEEE802154E.c ****             radiotimer_schedule(ACTION_LOAD_PACKET,      DURATION_tt1);
 966:build/openmote-cc2538_armgcc/openstack/02a-MAClow/IEEE802154E.c ****             // prepare the packet for load packet action at DURATION_tt1
 967:build/openmote-cc2538_armgcc/openstack/02a-MAClow/IEEE802154E.c ****             // make a local copy of the frame
 968:build/openmote-cc2538_armgcc/openstack/02a-MAClow/IEEE802154E.c ****             packetfunctions_duplicatePacket(&ieee154e_vars.localCopyForTransmission, ieee154e_vars.
 969:build/openmote-cc2538_armgcc/openstack/02a-MAClow/IEEE802154E.c **** 
 970:build/openmote-cc2538_armgcc/openstack/02a-MAClow/IEEE802154E.c ****             // check if packet needs to be encrypted/authenticated before transmission 
 971:build/openmote-cc2538_armgcc/openstack/02a-MAClow/IEEE802154E.c ****             if (ieee154e_vars.localCopyForTransmission.l2_securityLevel != IEEE154_ASH_SLF_TYPE_NOS
 972:build/openmote-cc2538_armgcc/openstack/02a-MAClow/IEEE802154E.c ****                 // encrypt in a local copy
 973:build/openmote-cc2538_armgcc/openstack/02a-MAClow/IEEE802154E.c ****                 if (IEEE802154_SECURITY.outgoingFrame(&ieee154e_vars.localCopyForTransmission) != E
 974:build/openmote-cc2538_armgcc/openstack/02a-MAClow/IEEE802154E.c ****                     // keep the frame in the OpenQueue in order to retry later
 975:build/openmote-cc2538_armgcc/openstack/02a-MAClow/IEEE802154E.c ****                     endSlot(); // abort
 976:build/openmote-cc2538_armgcc/openstack/02a-MAClow/IEEE802154E.c ****                     return;
 977:build/openmote-cc2538_armgcc/openstack/02a-MAClow/IEEE802154E.c ****                 }
 978:build/openmote-cc2538_armgcc/openstack/02a-MAClow/IEEE802154E.c ****             }
 979:build/openmote-cc2538_armgcc/openstack/02a-MAClow/IEEE802154E.c ****             // add 2 CRC bytes only to the local copy as we end up here for each retransmission
 980:build/openmote-cc2538_armgcc/openstack/02a-MAClow/IEEE802154E.c ****             packetfunctions_reserveFooterSize(&ieee154e_vars.localCopyForTransmission, 2);
 981:build/openmote-cc2538_armgcc/openstack/02a-MAClow/IEEE802154E.c ****             // set the tx buffer address and length register.(packet is NOT loaded at this moment)
 982:build/openmote-cc2538_armgcc/openstack/02a-MAClow/IEEE802154E.c ****             radio_loadPacket_prepare(ieee154e_vars.localCopyForTransmission.payload,
 983:build/openmote-cc2538_armgcc/openstack/02a-MAClow/IEEE802154E.c ****                                      ieee154e_vars.localCopyForTransmission.length);
 984:build/openmote-cc2538_armgcc/openstack/02a-MAClow/IEEE802154E.c ****             // 2. schedule timer for sending packet
 985:build/openmote-cc2538_armgcc/openstack/02a-MAClow/IEEE802154E.c ****             radiotimer_schedule(ACTION_SEND_PACKET,  DURATION_tt2);
 986:build/openmote-cc2538_armgcc/openstack/02a-MAClow/IEEE802154E.c ****             // 3. schedule timer radio tx watchdog
 987:build/openmote-cc2538_armgcc/openstack/02a-MAClow/IEEE802154E.c ****             radiotimer_schedule(ACTION_NORMAL_TIMER, DURATION_tt3);
 988:build/openmote-cc2538_armgcc/openstack/02a-MAClow/IEEE802154E.c ****             // 4. set capture interrupt for Tx SFD senddone and packet senddone
 989:build/openmote-cc2538_armgcc/openstack/02a-MAClow/IEEE802154E.c ****             radiotimer_setCapture(ACTION_TX_SFD_DONE);
 990:build/openmote-cc2538_armgcc/openstack/02a-MAClow/IEEE802154E.c ****             radiotimer_setCapture(ACTION_TX_SEND_DONE);
 991:build/openmote-cc2538_armgcc/openstack/02a-MAClow/IEEE802154E.c **** #else
 992:build/openmote-cc2538_armgcc/openstack/02a-MAClow/IEEE802154E.c ****             // arm tt1
 993:build/openmote-cc2538_armgcc/openstack/02a-MAClow/IEEE802154E.c ****             radiotimer_schedule(DURATION_tt1);
 2374              		.loc 1 993 0
 2375 1164 40F20003 		movw	r3, #:lower16:ieee154e_vars
 2376 1168 C0F20003 		movt	r3, #:upper16:ieee154e_vars
 2377 116c D3F83C31 		ldr	r3, [r3, #316]
 2378 1170 3533     		adds	r3, r3, #53
 2379 1172 1846     		mov	r0, r3
 2380 1174 FFF7FEFF 		bl	radiotimer_schedule
 994:build/openmote-cc2538_armgcc/openstack/02a-MAClow/IEEE802154E.c **** #endif
 995:build/openmote-cc2538_armgcc/openstack/02a-MAClow/IEEE802154E.c ****             break;
 2381              		.loc 1 995 0
 2382 1178 AFE0     		b	.L137
 2383              	.L131:
 996:build/openmote-cc2538_armgcc/openstack/02a-MAClow/IEEE802154E.c ****          }
 997:build/openmote-cc2538_armgcc/openstack/02a-MAClow/IEEE802154E.c ****       case CELLTYPE_RX:
 998:build/openmote-cc2538_armgcc/openstack/02a-MAClow/IEEE802154E.c ****          if (changeToRX==FALSE) {
 2384              		.loc 1 998 0
 2385 117a BB7F     		ldrb	r3, [r7, #30]
 2386 117c 83F00103 		eor	r3, r3, #1
 2387 1180 DBB2     		uxtb	r3, r3
 2388 1182 002B     		cmp	r3, #0
 2389 1184 01D0     		beq	.L139
 999:build/openmote-cc2538_armgcc/openstack/02a-MAClow/IEEE802154E.c ****             // stop using serial
1000:build/openmote-cc2538_armgcc/openstack/02a-MAClow/IEEE802154E.c ****             openserial_stop();
 2390              		.loc 1 1000 0
 2391 1186 FFF7FEFF 		bl	openserial_stop
 2392              	.L139:
1001:build/openmote-cc2538_armgcc/openstack/02a-MAClow/IEEE802154E.c ****          }
1002:build/openmote-cc2538_armgcc/openstack/02a-MAClow/IEEE802154E.c ****          // change state
1003:build/openmote-cc2538_armgcc/openstack/02a-MAClow/IEEE802154E.c ****          changeState(S_RXDATAOFFSET);
 2393              		.loc 1 1003 0
 2394 118a 0F20     		movs	r0, #15
 2395 118c FFF7FEFF 		bl	changeState
1004:build/openmote-cc2538_armgcc/openstack/02a-MAClow/IEEE802154E.c **** #ifdef SLOT_FSM_IMPLEMENTATION_MULTIPLE_TIMER_INTERRUPT
1005:build/openmote-cc2538_armgcc/openstack/02a-MAClow/IEEE802154E.c ****          // arm rt1
1006:build/openmote-cc2538_armgcc/openstack/02a-MAClow/IEEE802154E.c ****          radiotimer_schedule(ACTION_RADIORX_ENABLE,DURATION_rt1);
1007:build/openmote-cc2538_armgcc/openstack/02a-MAClow/IEEE802154E.c ****          radio_rxPacket_prepare();
1008:build/openmote-cc2538_armgcc/openstack/02a-MAClow/IEEE802154E.c ****          // 2. schedule timer for starting 
1009:build/openmote-cc2538_armgcc/openstack/02a-MAClow/IEEE802154E.c ****          radiotimer_schedule(ACTION_NORMAL_TIMER,DURATION_rt2);
1010:build/openmote-cc2538_armgcc/openstack/02a-MAClow/IEEE802154E.c ****          // 3.  set capture interrupt for Rx SFD done and receiving packet done
1011:build/openmote-cc2538_armgcc/openstack/02a-MAClow/IEEE802154E.c ****          radiotimer_setCapture(ACTION_RX_SFD_DONE);
1012:build/openmote-cc2538_armgcc/openstack/02a-MAClow/IEEE802154E.c ****          radiotimer_setCapture(ACTION_RX_DONE);
1013:build/openmote-cc2538_armgcc/openstack/02a-MAClow/IEEE802154E.c **** #else
1014:build/openmote-cc2538_armgcc/openstack/02a-MAClow/IEEE802154E.c ****          // arm rt1
1015:build/openmote-cc2538_armgcc/openstack/02a-MAClow/IEEE802154E.c ****          radiotimer_schedule(DURATION_rt1);
 2396              		.loc 1 1015 0
 2397 1190 40F20003 		movw	r3, #:lower16:ieee154e_vars
 2398 1194 C0F20003 		movt	r3, #:upper16:ieee154e_vars
 2399 1198 D3F83C31 		ldr	r3, [r3, #316]
 2400 119c 3733     		adds	r3, r3, #55
 2401 119e 1846     		mov	r0, r3
 2402 11a0 FFF7FEFF 		bl	radiotimer_schedule
1016:build/openmote-cc2538_armgcc/openstack/02a-MAClow/IEEE802154E.c **** #endif
1017:build/openmote-cc2538_armgcc/openstack/02a-MAClow/IEEE802154E.c ****          break;
 2403              		.loc 1 1017 0
 2404 11a4 99E0     		b	.L137
 2405              	.L132:
1018:build/openmote-cc2538_armgcc/openstack/02a-MAClow/IEEE802154E.c ****       case CELLTYPE_SERIALRX:
1019:build/openmote-cc2538_armgcc/openstack/02a-MAClow/IEEE802154E.c ****          // stop using serial
1020:build/openmote-cc2538_armgcc/openstack/02a-MAClow/IEEE802154E.c ****          openserial_stop();
 2406              		.loc 1 1020 0
 2407 11a6 FFF7FEFF 		bl	openserial_stop
1021:build/openmote-cc2538_armgcc/openstack/02a-MAClow/IEEE802154E.c ****          // abort the slot
1022:build/openmote-cc2538_armgcc/openstack/02a-MAClow/IEEE802154E.c ****          endSlot();
 2408              		.loc 1 1022 0
 2409 11aa FFF7FEFF 		bl	endSlot
1023:build/openmote-cc2538_armgcc/openstack/02a-MAClow/IEEE802154E.c ****          //start inputting serial data
1024:build/openmote-cc2538_armgcc/openstack/02a-MAClow/IEEE802154E.c ****          openserial_startInput();
 2410              		.loc 1 1024 0
 2411 11ae FFF7FEFF 		bl	openserial_startInput
1025:build/openmote-cc2538_armgcc/openstack/02a-MAClow/IEEE802154E.c ****          //this is to emulate a set of serial input slots without having the slotted structure.
1026:build/openmote-cc2538_armgcc/openstack/02a-MAClow/IEEE802154E.c **** 
1027:build/openmote-cc2538_armgcc/openstack/02a-MAClow/IEEE802154E.c ****          //skip the serial rx slots
1028:build/openmote-cc2538_armgcc/openstack/02a-MAClow/IEEE802154E.c ****          ieee154e_vars.numOfSleepSlots = NUMSERIALRX;
 2412              		.loc 1 1028 0
 2413 11b2 40F20003 		movw	r3, #:lower16:ieee154e_vars
 2414 11b6 C0F20003 		movt	r3, #:upper16:ieee154e_vars
 2415 11ba 0322     		movs	r2, #3
 2416 11bc C3F82421 		str	r2, [r3, #292]
1029:build/openmote-cc2538_armgcc/openstack/02a-MAClow/IEEE802154E.c ****          
1030:build/openmote-cc2538_armgcc/openstack/02a-MAClow/IEEE802154E.c ****          //increase ASN by NUMSERIALRX-1 slots as at this slot is already incremented by 1
1031:build/openmote-cc2538_armgcc/openstack/02a-MAClow/IEEE802154E.c ****          for (i=0;i<NUMSERIALRX-1;i++){
 2417              		.loc 1 1031 0
 2418 11c0 0023     		movs	r3, #0
 2419 11c2 FB77     		strb	r3, [r7, #31]
 2420 11c4 0FE0     		b	.L140
 2421              	.L141:
1032:build/openmote-cc2538_armgcc/openstack/02a-MAClow/IEEE802154E.c ****             incrementAsnOffset();
 2422              		.loc 1 1032 0 discriminator 2
 2423 11c6 FFF7FEFF 		bl	incrementAsnOffset
1033:build/openmote-cc2538_armgcc/openstack/02a-MAClow/IEEE802154E.c ****             // advance the schedule
1034:build/openmote-cc2538_armgcc/openstack/02a-MAClow/IEEE802154E.c ****             schedule_advanceSlot();
 2424              		.loc 1 1034 0 discriminator 2
 2425 11ca FFF7FEFF 		bl	schedule_advanceSlot
1035:build/openmote-cc2538_armgcc/openstack/02a-MAClow/IEEE802154E.c ****             // find the next one
1036:build/openmote-cc2538_armgcc/openstack/02a-MAClow/IEEE802154E.c ****             ieee154e_vars.nextActiveSlotOffset = schedule_getNextActiveSlotOffset();
 2426              		.loc 1 1036 0 discriminator 2
 2427 11ce FFF7FEFF 		bl	schedule_getNextActiveSlotOffset
 2428 11d2 0346     		mov	r3, r0
 2429 11d4 1A46     		mov	r2, r3
 2430 11d6 40F20003 		movw	r3, #:lower16:ieee154e_vars
 2431 11da C0F20003 		movt	r3, #:upper16:ieee154e_vars
 2432 11de 1A81     		strh	r2, [r3, #8]	@ movhi
1031:build/openmote-cc2538_armgcc/openstack/02a-MAClow/IEEE802154E.c ****             incrementAsnOffset();
 2433              		.loc 1 1031 0 discriminator 2
 2434 11e0 FB7F     		ldrb	r3, [r7, #31]	@ zero_extendqisi2
 2435 11e2 0133     		adds	r3, r3, #1
 2436 11e4 FB77     		strb	r3, [r7, #31]
 2437              	.L140:
1031:build/openmote-cc2538_armgcc/openstack/02a-MAClow/IEEE802154E.c ****             incrementAsnOffset();
 2438              		.loc 1 1031 0 is_stmt 0 discriminator 1
 2439 11e6 FB7F     		ldrb	r3, [r7, #31]	@ zero_extendqisi2
 2440 11e8 012B     		cmp	r3, #1
 2441 11ea ECD9     		bls	.L141
1037:build/openmote-cc2538_armgcc/openstack/02a-MAClow/IEEE802154E.c ****          }
1038:build/openmote-cc2538_armgcc/openstack/02a-MAClow/IEEE802154E.c ****          // possibly skip additional slots if enabled
1039:build/openmote-cc2538_armgcc/openstack/02a-MAClow/IEEE802154E.c ****          if (idmanager_getIsSlotSkip() && idmanager_getIsDAGroot()==FALSE) {
 2442              		.loc 1 1039 0 is_stmt 1
 2443 11ec FFF7FEFF 		bl	idmanager_getIsSlotSkip
 2444 11f0 0346     		mov	r3, r0
 2445 11f2 002B     		cmp	r3, #0
 2446 11f4 52D0     		beq	.L142
 2447              		.loc 1 1039 0 is_stmt 0 discriminator 1
 2448 11f6 FFF7FEFF 		bl	idmanager_getIsDAGroot
 2449 11fa 0346     		mov	r3, r0
 2450 11fc 83F00103 		eor	r3, r3, #1
 2451 1200 DBB2     		uxtb	r3, r3
 2452 1202 002B     		cmp	r3, #0
 2453 1204 4AD0     		beq	.L142
1040:build/openmote-cc2538_armgcc/openstack/02a-MAClow/IEEE802154E.c ****              if (ieee154e_vars.nextActiveSlotOffset>ieee154e_vars.slotOffset) {
 2454              		.loc 1 1040 0 is_stmt 1
 2455 1206 40F20003 		movw	r3, #:lower16:ieee154e_vars
 2456 120a C0F20003 		movt	r3, #:upper16:ieee154e_vars
 2457 120e 1A89     		ldrh	r2, [r3, #8]
 2458 1210 40F20003 		movw	r3, #:lower16:ieee154e_vars
 2459 1214 C0F20003 		movt	r3, #:upper16:ieee154e_vars
 2460 1218 DB88     		ldrh	r3, [r3, #6]
 2461 121a 9A42     		cmp	r2, r3
 2462 121c 14D9     		bls	.L143
1041:build/openmote-cc2538_armgcc/openstack/02a-MAClow/IEEE802154E.c ****                  ieee154e_vars.numOfSleepSlots = ieee154e_vars.nextActiveSlotOffset-ieee154e_vars.s
 2463              		.loc 1 1041 0
 2464 121e 40F20003 		movw	r3, #:lower16:ieee154e_vars
 2465 1222 C0F20003 		movt	r3, #:upper16:ieee154e_vars
 2466 1226 1B89     		ldrh	r3, [r3, #8]
 2467 1228 1A46     		mov	r2, r3
 2468 122a 40F20003 		movw	r3, #:lower16:ieee154e_vars
 2469 122e C0F20003 		movt	r3, #:upper16:ieee154e_vars
 2470 1232 DB88     		ldrh	r3, [r3, #6]
 2471 1234 D31A     		subs	r3, r2, r3
 2472 1236 0233     		adds	r3, r3, #2
 2473 1238 1A46     		mov	r2, r3
 2474 123a 40F20003 		movw	r3, #:lower16:ieee154e_vars
 2475 123e C0F20003 		movt	r3, #:upper16:ieee154e_vars
 2476 1242 C3F82421 		str	r2, [r3, #292]
 2477 1246 17E0     		b	.L144
 2478              	.L143:
1042:build/openmote-cc2538_armgcc/openstack/02a-MAClow/IEEE802154E.c ****              } else {
1043:build/openmote-cc2538_armgcc/openstack/02a-MAClow/IEEE802154E.c ****                  ieee154e_vars.numOfSleepSlots = schedule_getFrameLength()+ieee154e_vars.nextActive
 2479              		.loc 1 1043 0
 2480 1248 FFF7FEFF 		bl	schedule_getFrameLength
 2481 124c 0346     		mov	r3, r0
 2482 124e 1A46     		mov	r2, r3
 2483 1250 40F20003 		movw	r3, #:lower16:ieee154e_vars
 2484 1254 C0F20003 		movt	r3, #:upper16:ieee154e_vars
 2485 1258 1B89     		ldrh	r3, [r3, #8]
 2486 125a 1A44     		add	r2, r2, r3
 2487 125c 40F20003 		movw	r3, #:lower16:ieee154e_vars
 2488 1260 C0F20003 		movt	r3, #:upper16:ieee154e_vars
 2489 1264 DB88     		ldrh	r3, [r3, #6]
 2490 1266 D31A     		subs	r3, r2, r3
 2491 1268 0233     		adds	r3, r3, #2
 2492 126a 1A46     		mov	r2, r3
 2493 126c 40F20003 		movw	r3, #:lower16:ieee154e_vars
 2494 1270 C0F20003 		movt	r3, #:upper16:ieee154e_vars
 2495 1274 C3F82421 		str	r2, [r3, #292]
 2496              	.L144:
1044:build/openmote-cc2538_armgcc/openstack/02a-MAClow/IEEE802154E.c ****              }
1045:build/openmote-cc2538_armgcc/openstack/02a-MAClow/IEEE802154E.c ****               
1046:build/openmote-cc2538_armgcc/openstack/02a-MAClow/IEEE802154E.c ****              //only increase ASN by numOfSleepSlots-NUMSERIALRX
1047:build/openmote-cc2538_armgcc/openstack/02a-MAClow/IEEE802154E.c ****              for (i=0;i<ieee154e_vars.numOfSleepSlots-NUMSERIALRX;i++){
 2497              		.loc 1 1047 0
 2498 1278 0023     		movs	r3, #0
 2499 127a FB77     		strb	r3, [r7, #31]
 2500 127c 04E0     		b	.L145
 2501              	.L146:
1048:build/openmote-cc2538_armgcc/openstack/02a-MAClow/IEEE802154E.c ****                 incrementAsnOffset();
 2502              		.loc 1 1048 0 discriminator 2
 2503 127e FFF7FEFF 		bl	incrementAsnOffset
1047:build/openmote-cc2538_armgcc/openstack/02a-MAClow/IEEE802154E.c ****                 incrementAsnOffset();
 2504              		.loc 1 1047 0 discriminator 2
 2505 1282 FB7F     		ldrb	r3, [r7, #31]	@ zero_extendqisi2
 2506 1284 0133     		adds	r3, r3, #1
 2507 1286 FB77     		strb	r3, [r7, #31]
 2508              	.L145:
1047:build/openmote-cc2538_armgcc/openstack/02a-MAClow/IEEE802154E.c ****                 incrementAsnOffset();
 2509              		.loc 1 1047 0 is_stmt 0 discriminator 1
 2510 1288 FA7F     		ldrb	r2, [r7, #31]	@ zero_extendqisi2
 2511 128a 40F20003 		movw	r3, #:lower16:ieee154e_vars
 2512 128e C0F20003 		movt	r3, #:upper16:ieee154e_vars
 2513 1292 D3F82431 		ldr	r3, [r3, #292]
 2514 1296 033B     		subs	r3, r3, #3
 2515 1298 9A42     		cmp	r2, r3
 2516 129a F0D3     		bcc	.L146
 2517              	.L142:
1049:build/openmote-cc2538_armgcc/openstack/02a-MAClow/IEEE802154E.c ****              }
1050:build/openmote-cc2538_armgcc/openstack/02a-MAClow/IEEE802154E.c ****          }
1051:build/openmote-cc2538_armgcc/openstack/02a-MAClow/IEEE802154E.c ****          // set the timer based on calcualted number of slots to skip
1052:build/openmote-cc2538_armgcc/openstack/02a-MAClow/IEEE802154E.c ****          radio_setTimerPeriod(TsSlotDuration*(ieee154e_vars.numOfSleepSlots));
 2518              		.loc 1 1052 0 is_stmt 1
 2519 129c 40F20003 		movw	r3, #:lower16:ieee154e_vars
 2520 12a0 C0F20003 		movt	r3, #:upper16:ieee154e_vars
 2521 12a4 D3F82431 		ldr	r3, [r3, #292]
 2522 12a8 4FF4F672 		mov	r2, #492
 2523 12ac 02FB03F3 		mul	r3, r2, r3
 2524 12b0 1846     		mov	r0, r3
 2525 12b2 FFF7FEFF 		bl	radio_setTimerPeriod
1053:build/openmote-cc2538_armgcc/openstack/02a-MAClow/IEEE802154E.c ****          
1054:build/openmote-cc2538_armgcc/openstack/02a-MAClow/IEEE802154E.c **** #ifdef ADAPTIVE_SYNC
1055:build/openmote-cc2538_armgcc/openstack/02a-MAClow/IEEE802154E.c ****          // deal with the case when schedule multi slots
1056:build/openmote-cc2538_armgcc/openstack/02a-MAClow/IEEE802154E.c ****          adaptive_sync_countCompensationTimeout_compoundSlots(NUMSERIALRX-1);
1057:build/openmote-cc2538_armgcc/openstack/02a-MAClow/IEEE802154E.c **** #endif
1058:build/openmote-cc2538_armgcc/openstack/02a-MAClow/IEEE802154E.c ****          break;
 2526              		.loc 1 1058 0
 2527 12b6 10E0     		b	.L137
 2528              	.L128:
1059:build/openmote-cc2538_armgcc/openstack/02a-MAClow/IEEE802154E.c ****       case CELLTYPE_MORESERIALRX:
1060:build/openmote-cc2538_armgcc/openstack/02a-MAClow/IEEE802154E.c ****          // do nothing (not even endSlot())
1061:build/openmote-cc2538_armgcc/openstack/02a-MAClow/IEEE802154E.c ****          break;
1062:build/openmote-cc2538_armgcc/openstack/02a-MAClow/IEEE802154E.c ****       default:
1063:build/openmote-cc2538_armgcc/openstack/02a-MAClow/IEEE802154E.c ****          // stop using serial
1064:build/openmote-cc2538_armgcc/openstack/02a-MAClow/IEEE802154E.c ****          openserial_stop();
 2529              		.loc 1 1064 0
 2530 12b8 FFF7FEFF 		bl	openserial_stop
1065:build/openmote-cc2538_armgcc/openstack/02a-MAClow/IEEE802154E.c ****          // log the error
1066:build/openmote-cc2538_armgcc/openstack/02a-MAClow/IEEE802154E.c ****          openserial_printCritical(COMPONENT_IEEE802154E,ERR_WRONG_CELLTYPE,
 2531              		.loc 1 1066 0
 2532 12bc 3B7F     		ldrb	r3, [r7, #28]	@ zero_extendqisi2
 2533 12be 9AB2     		uxth	r2, r3
 2534 12c0 40F20003 		movw	r3, #:lower16:ieee154e_vars
 2535 12c4 C0F20003 		movt	r3, #:upper16:ieee154e_vars
 2536 12c8 DB88     		ldrh	r3, [r3, #6]
 2537 12ca 0920     		movs	r0, #9
 2538 12cc 1821     		movs	r1, #24
 2539 12ce FFF7FEFF 		bl	openserial_printCritical
1067:build/openmote-cc2538_armgcc/openstack/02a-MAClow/IEEE802154E.c ****                                (errorparameter_t)cellType,
1068:build/openmote-cc2538_armgcc/openstack/02a-MAClow/IEEE802154E.c ****                                (errorparameter_t)ieee154e_vars.slotOffset);
1069:build/openmote-cc2538_armgcc/openstack/02a-MAClow/IEEE802154E.c ****          // abort
1070:build/openmote-cc2538_armgcc/openstack/02a-MAClow/IEEE802154E.c ****          endSlot();
 2540              		.loc 1 1070 0
 2541 12d2 FFF7FEFF 		bl	endSlot
1071:build/openmote-cc2538_armgcc/openstack/02a-MAClow/IEEE802154E.c ****          break;
 2542              		.loc 1 1071 0
 2543 12d6 00E0     		b	.L137
 2544              	.L148:
1061:build/openmote-cc2538_armgcc/openstack/02a-MAClow/IEEE802154E.c ****       default:
 2545              		.loc 1 1061 0
 2546 12d8 00BF     		nop
 2547              	.L137:
 2548              	.L115:
1072:build/openmote-cc2538_armgcc/openstack/02a-MAClow/IEEE802154E.c ****    }
1073:build/openmote-cc2538_armgcc/openstack/02a-MAClow/IEEE802154E.c **** }
 2549              		.loc 1 1073 0
 2550 12da 2037     		adds	r7, r7, #32
 2551 12dc BD46     		mov	sp, r7
 2552              		@ sp needed
 2553 12de 80BD     		pop	{r7, pc}
 2554              		.cfi_endproc
 2555              	.LFE13:
 2557              		.align	2
 2558              		.global	activity_ti2
 2559              		.thumb
 2560              		.thumb_func
 2562              	activity_ti2:
 2563              	.LFB14:
1074:build/openmote-cc2538_armgcc/openstack/02a-MAClow/IEEE802154E.c **** 
1075:build/openmote-cc2538_armgcc/openstack/02a-MAClow/IEEE802154E.c **** port_INLINE void activity_ti2() {
 2564              		.loc 1 1075 0
 2565              		.cfi_startproc
 2566              		@ args = 0, pretend = 0, frame = 0
 2567              		@ frame_needed = 1, uses_anonymous_args = 0
 2568 12e0 80B5     		push	{r7, lr}
 2569              		.cfi_def_cfa_offset 8
 2570              		.cfi_offset 7, -8
 2571              		.cfi_offset 14, -4
 2572 12e2 00AF     		add	r7, sp, #0
 2573              		.cfi_def_cfa_register 7
1076:build/openmote-cc2538_armgcc/openstack/02a-MAClow/IEEE802154E.c ****    
1077:build/openmote-cc2538_armgcc/openstack/02a-MAClow/IEEE802154E.c ****     // change state
1078:build/openmote-cc2538_armgcc/openstack/02a-MAClow/IEEE802154E.c ****     changeState(S_TXDATAPREPARE);
 2574              		.loc 1 1078 0
 2575 12e4 0520     		movs	r0, #5
 2576 12e6 FFF7FEFF 		bl	changeState
1079:build/openmote-cc2538_armgcc/openstack/02a-MAClow/IEEE802154E.c ****     
1080:build/openmote-cc2538_armgcc/openstack/02a-MAClow/IEEE802154E.c **** #ifdef SLOT_FSM_IMPLEMENTATION_MULTIPLE_TIMER_INTERRUPT
1081:build/openmote-cc2538_armgcc/openstack/02a-MAClow/IEEE802154E.c **** #else
1082:build/openmote-cc2538_armgcc/openstack/02a-MAClow/IEEE802154E.c ****     // arm tt2
1083:build/openmote-cc2538_armgcc/openstack/02a-MAClow/IEEE802154E.c ****     radiotimer_schedule(DURATION_tt2);
 2577              		.loc 1 1083 0
 2578 12ea 40F20003 		movw	r3, #:lower16:ieee154e_vars
 2579 12ee C0F20003 		movt	r3, #:upper16:ieee154e_vars
 2580 12f2 D3F83C31 		ldr	r3, [r3, #316]
 2581 12f6 7733     		adds	r3, r3, #119
 2582 12f8 1846     		mov	r0, r3
 2583 12fa FFF7FEFF 		bl	radiotimer_schedule
1084:build/openmote-cc2538_armgcc/openstack/02a-MAClow/IEEE802154E.c **** 
1085:build/openmote-cc2538_armgcc/openstack/02a-MAClow/IEEE802154E.c ****     // make a local copy of the frame
1086:build/openmote-cc2538_armgcc/openstack/02a-MAClow/IEEE802154E.c ****     packetfunctions_duplicatePacket(&ieee154e_vars.localCopyForTransmission, ieee154e_vars.dataToSe
 2584              		.loc 1 1086 0
 2585 12fe 40F20003 		movw	r3, #:lower16:ieee154e_vars
 2586 1302 C0F20003 		movt	r3, #:upper16:ieee154e_vars
 2587 1306 D3F82C31 		ldr	r3, [r3, #300]
 2588 130a 2548     		ldr	r0, .L152
 2589 130c 1946     		mov	r1, r3
 2590 130e FFF7FEFF 		bl	packetfunctions_duplicatePacket
1087:build/openmote-cc2538_armgcc/openstack/02a-MAClow/IEEE802154E.c **** 
1088:build/openmote-cc2538_armgcc/openstack/02a-MAClow/IEEE802154E.c ****     // check if packet needs to be encrypted/authenticated before transmission 
1089:build/openmote-cc2538_armgcc/openstack/02a-MAClow/IEEE802154E.c ****     if (ieee154e_vars.localCopyForTransmission.l2_securityLevel != IEEE154_ASH_SLF_TYPE_NOSEC) { //
 2591              		.loc 1 1089 0
 2592 1312 40F20003 		movw	r3, #:lower16:ieee154e_vars
 2593 1316 C0F20003 		movt	r3, #:upper16:ieee154e_vars
 2594 131a 93F88030 		ldrb	r3, [r3, #128]	@ zero_extendqisi2
 2595 131e 002B     		cmp	r3, #0
 2596 1320 0CD0     		beq	.L150
1090:build/openmote-cc2538_armgcc/openstack/02a-MAClow/IEEE802154E.c ****         // encrypt in a local copy
1091:build/openmote-cc2538_armgcc/openstack/02a-MAClow/IEEE802154E.c ****         if (IEEE802154_SECURITY.outgoingFrame(&ieee154e_vars.localCopyForTransmission) != E_SUCCESS
 2597              		.loc 1 1091 0
 2598 1322 40F20003 		movw	r3, #:lower16:IEEE802154_dummy_security
 2599 1326 C0F20003 		movt	r3, #:upper16:IEEE802154_dummy_security
 2600 132a DB68     		ldr	r3, [r3, #12]
 2601 132c 1C48     		ldr	r0, .L152
 2602 132e 9847     		blx	r3
 2603 1330 0346     		mov	r3, r0
 2604 1332 002B     		cmp	r3, #0
 2605 1334 02D0     		beq	.L150
1092:build/openmote-cc2538_armgcc/openstack/02a-MAClow/IEEE802154E.c ****             // keep the frame in the OpenQueue in order to retry later
1093:build/openmote-cc2538_armgcc/openstack/02a-MAClow/IEEE802154E.c ****             endSlot(); // abort
 2606              		.loc 1 1093 0
 2607 1336 FFF7FEFF 		bl	endSlot
1094:build/openmote-cc2538_armgcc/openstack/02a-MAClow/IEEE802154E.c ****             return;
 2608              		.loc 1 1094 0
 2609 133a 2FE0     		b	.L149
 2610              	.L150:
1095:build/openmote-cc2538_armgcc/openstack/02a-MAClow/IEEE802154E.c ****         }
1096:build/openmote-cc2538_armgcc/openstack/02a-MAClow/IEEE802154E.c ****     }
1097:build/openmote-cc2538_armgcc/openstack/02a-MAClow/IEEE802154E.c ****    
1098:build/openmote-cc2538_armgcc/openstack/02a-MAClow/IEEE802154E.c ****     // add 2 CRC bytes only to the local copy as we end up here for each retransmission
1099:build/openmote-cc2538_armgcc/openstack/02a-MAClow/IEEE802154E.c ****     packetfunctions_reserveFooterSize(&ieee154e_vars.localCopyForTransmission, 2);
 2611              		.loc 1 1099 0
 2612 133c 1848     		ldr	r0, .L152
 2613 133e 0221     		movs	r1, #2
 2614 1340 FFF7FEFF 		bl	packetfunctions_reserveFooterSize
1100:build/openmote-cc2538_armgcc/openstack/02a-MAClow/IEEE802154E.c **** #endif
1101:build/openmote-cc2538_armgcc/openstack/02a-MAClow/IEEE802154E.c ****    
1102:build/openmote-cc2538_armgcc/openstack/02a-MAClow/IEEE802154E.c ****     // configure the radio for that frequency
1103:build/openmote-cc2538_armgcc/openstack/02a-MAClow/IEEE802154E.c ****     radio_setFrequency(ieee154e_vars.freq);
 2615              		.loc 1 1103 0
 2616 1344 40F20003 		movw	r3, #:lower16:ieee154e_vars
 2617 1348 C0F20003 		movt	r3, #:upper16:ieee154e_vars
 2618 134c 93F84431 		ldrb	r3, [r3, #324]	@ zero_extendqisi2
 2619 1350 1846     		mov	r0, r3
 2620 1352 FFF7FEFF 		bl	radio_setFrequency
1104:build/openmote-cc2538_armgcc/openstack/02a-MAClow/IEEE802154E.c **** 
1105:build/openmote-cc2538_armgcc/openstack/02a-MAClow/IEEE802154E.c ****     // load the packet in the radio's Tx buffer
1106:build/openmote-cc2538_armgcc/openstack/02a-MAClow/IEEE802154E.c ****     radio_loadPacket(ieee154e_vars.localCopyForTransmission.payload,
 2621              		.loc 1 1106 0
 2622 1356 40F20003 		movw	r3, #:lower16:ieee154e_vars
 2623 135a C0F20003 		movt	r3, #:upper16:ieee154e_vars
 2624 135e 9A69     		ldr	r2, [r3, #24]
1107:build/openmote-cc2538_armgcc/openstack/02a-MAClow/IEEE802154E.c ****                      ieee154e_vars.localCopyForTransmission.length);
 2625              		.loc 1 1107 0
 2626 1360 40F20003 		movw	r3, #:lower16:ieee154e_vars
 2627 1364 C0F20003 		movt	r3, #:upper16:ieee154e_vars
 2628 1368 1B7F     		ldrb	r3, [r3, #28]	@ zero_extendqisi2
1106:build/openmote-cc2538_armgcc/openstack/02a-MAClow/IEEE802154E.c ****                      ieee154e_vars.localCopyForTransmission.length);
 2629              		.loc 1 1106 0
 2630 136a 1046     		mov	r0, r2
 2631 136c 1946     		mov	r1, r3
 2632 136e FFF7FEFF 		bl	radio_loadPacket
1108:build/openmote-cc2538_armgcc/openstack/02a-MAClow/IEEE802154E.c ****     // enable the radio in Tx mode. This does not send the packet.
1109:build/openmote-cc2538_armgcc/openstack/02a-MAClow/IEEE802154E.c ****     radio_txEnable();
 2633              		.loc 1 1109 0
 2634 1372 FFF7FEFF 		bl	radio_txEnable
1110:build/openmote-cc2538_armgcc/openstack/02a-MAClow/IEEE802154E.c **** 
1111:build/openmote-cc2538_armgcc/openstack/02a-MAClow/IEEE802154E.c ****     ieee154e_vars.radioOnInit=radio_getTimerValue();
 2635              		.loc 1 1111 0
 2636 1376 FFF7FEFF 		bl	radio_getTimerValue
 2637 137a 0246     		mov	r2, r0
 2638 137c 40F20003 		movw	r3, #:lower16:ieee154e_vars
 2639 1380 C0F20003 		movt	r3, #:upper16:ieee154e_vars
 2640 1384 C3F85C21 		str	r2, [r3, #348]
1112:build/openmote-cc2538_armgcc/openstack/02a-MAClow/IEEE802154E.c ****     ieee154e_vars.radioOnThisSlot=TRUE;
 2641              		.loc 1 1112 0
 2642 1388 40F20003 		movw	r3, #:lower16:ieee154e_vars
 2643 138c C0F20003 		movt	r3, #:upper16:ieee154e_vars
 2644 1390 0122     		movs	r2, #1
 2645 1392 83F86421 		strb	r2, [r3, #356]
1113:build/openmote-cc2538_armgcc/openstack/02a-MAClow/IEEE802154E.c ****     // change state
1114:build/openmote-cc2538_armgcc/openstack/02a-MAClow/IEEE802154E.c ****     changeState(S_TXDATAREADY);
 2646              		.loc 1 1114 0
 2647 1396 0620     		movs	r0, #6
 2648 1398 FFF7FEFF 		bl	changeState
 2649              	.L149:
1115:build/openmote-cc2538_armgcc/openstack/02a-MAClow/IEEE802154E.c **** #ifdef SLOT_FSM_IMPLEMENTATION_MULTIPLE_TIMER_INTERRUPT
1116:build/openmote-cc2538_armgcc/openstack/02a-MAClow/IEEE802154E.c ****     // update state in advance
1117:build/openmote-cc2538_armgcc/openstack/02a-MAClow/IEEE802154E.c ****     changeState(S_TXDATADELAY);
1118:build/openmote-cc2538_armgcc/openstack/02a-MAClow/IEEE802154E.c **** #endif
1119:build/openmote-cc2538_armgcc/openstack/02a-MAClow/IEEE802154E.c **** }
 2650              		.loc 1 1119 0
 2651 139c 80BD     		pop	{r7, pc}
 2652              	.L153:
 2653 139e 00BF     		.align	2
 2654              	.L152:
 2655 13a0 14000000 		.word	ieee154e_vars+20
 2656              		.cfi_endproc
 2657              	.LFE14:
 2659              		.align	2
 2660              		.global	activity_tie1
 2661              		.thumb
 2662              		.thumb_func
 2664              	activity_tie1:
 2665              	.LFB15:
1120:build/openmote-cc2538_armgcc/openstack/02a-MAClow/IEEE802154E.c **** 
1121:build/openmote-cc2538_armgcc/openstack/02a-MAClow/IEEE802154E.c **** port_INLINE void activity_tie1() {
 2666              		.loc 1 1121 0
 2667              		.cfi_startproc
 2668              		@ args = 0, pretend = 0, frame = 0
 2669              		@ frame_needed = 1, uses_anonymous_args = 0
 2670 13a4 80B5     		push	{r7, lr}
 2671              		.cfi_def_cfa_offset 8
 2672              		.cfi_offset 7, -8
 2673              		.cfi_offset 14, -4
 2674 13a6 00AF     		add	r7, sp, #0
 2675              		.cfi_def_cfa_register 7
1122:build/openmote-cc2538_armgcc/openstack/02a-MAClow/IEEE802154E.c ****    // log the error
1123:build/openmote-cc2538_armgcc/openstack/02a-MAClow/IEEE802154E.c ****    openserial_printError(COMPONENT_IEEE802154E,ERR_MAXTXDATAPREPARE_OVERFLOW,
1124:build/openmote-cc2538_armgcc/openstack/02a-MAClow/IEEE802154E.c ****                          (errorparameter_t)ieee154e_vars.state,
 2676              		.loc 1 1124 0
 2677 13a8 40F20003 		movw	r3, #:lower16:ieee154e_vars
 2678 13ac C0F20003 		movt	r3, #:upper16:ieee154e_vars
 2679 13b0 93F82831 		ldrb	r3, [r3, #296]	@ zero_extendqisi2
1123:build/openmote-cc2538_armgcc/openstack/02a-MAClow/IEEE802154E.c ****                          (errorparameter_t)ieee154e_vars.state,
 2680              		.loc 1 1123 0
 2681 13b4 1A46     		mov	r2, r3
 2682 13b6 40F20003 		movw	r3, #:lower16:ieee154e_vars
 2683 13ba C0F20003 		movt	r3, #:upper16:ieee154e_vars
 2684 13be DB88     		ldrh	r3, [r3, #6]
 2685 13c0 0920     		movs	r0, #9
 2686 13c2 2221     		movs	r1, #34
 2687 13c4 FFF7FEFF 		bl	openserial_printError
1125:build/openmote-cc2538_armgcc/openstack/02a-MAClow/IEEE802154E.c ****                          (errorparameter_t)ieee154e_vars.slotOffset);
1126:build/openmote-cc2538_armgcc/openstack/02a-MAClow/IEEE802154E.c ****    
1127:build/openmote-cc2538_armgcc/openstack/02a-MAClow/IEEE802154E.c ****    // abort
1128:build/openmote-cc2538_armgcc/openstack/02a-MAClow/IEEE802154E.c ****    endSlot();
 2688              		.loc 1 1128 0
 2689 13c8 FFF7FEFF 		bl	endSlot
1129:build/openmote-cc2538_armgcc/openstack/02a-MAClow/IEEE802154E.c **** }
 2690              		.loc 1 1129 0
 2691 13cc 80BD     		pop	{r7, pc}
 2692              		.cfi_endproc
 2693              	.LFE15:
 2695 13ce 00BF     		.align	2
 2696              		.global	activity_ti3
 2697              		.thumb
 2698              		.thumb_func
 2700              	activity_ti3:
 2701              	.LFB16:
1130:build/openmote-cc2538_armgcc/openstack/02a-MAClow/IEEE802154E.c **** 
1131:build/openmote-cc2538_armgcc/openstack/02a-MAClow/IEEE802154E.c **** port_INLINE void activity_ti3() {
 2702              		.loc 1 1131 0
 2703              		.cfi_startproc
 2704              		@ args = 0, pretend = 0, frame = 0
 2705              		@ frame_needed = 1, uses_anonymous_args = 0
 2706 13d0 80B5     		push	{r7, lr}
 2707              		.cfi_def_cfa_offset 8
 2708              		.cfi_offset 7, -8
 2709              		.cfi_offset 14, -4
 2710 13d2 00AF     		add	r7, sp, #0
 2711              		.cfi_def_cfa_register 7
1132:build/openmote-cc2538_armgcc/openstack/02a-MAClow/IEEE802154E.c ****     // change state
1133:build/openmote-cc2538_armgcc/openstack/02a-MAClow/IEEE802154E.c ****     changeState(S_TXDATADELAY);
 2712              		.loc 1 1133 0
 2713 13d4 0720     		movs	r0, #7
 2714 13d6 FFF7FEFF 		bl	changeState
1134:build/openmote-cc2538_armgcc/openstack/02a-MAClow/IEEE802154E.c **** #ifdef SLOT_FSM_IMPLEMENTATION_MULTIPLE_TIMER_INTERRUPT
1135:build/openmote-cc2538_armgcc/openstack/02a-MAClow/IEEE802154E.c **** #else
1136:build/openmote-cc2538_armgcc/openstack/02a-MAClow/IEEE802154E.c ****     // arm tt3
1137:build/openmote-cc2538_armgcc/openstack/02a-MAClow/IEEE802154E.c ****     radiotimer_schedule(DURATION_tt3);
 2715              		.loc 1 1137 0
 2716 13da 40F20003 		movw	r3, #:lower16:ieee154e_vars
 2717 13de C0F20003 		movt	r3, #:upper16:ieee154e_vars
 2718 13e2 D3F83C31 		ldr	r3, [r3, #316]
 2719 13e6 9833     		adds	r3, r3, #152
 2720 13e8 1846     		mov	r0, r3
 2721 13ea FFF7FEFF 		bl	radiotimer_schedule
1138:build/openmote-cc2538_armgcc/openstack/02a-MAClow/IEEE802154E.c ****     
1139:build/openmote-cc2538_armgcc/openstack/02a-MAClow/IEEE802154E.c ****     // give the 'go' to transmit
1140:build/openmote-cc2538_armgcc/openstack/02a-MAClow/IEEE802154E.c ****     radio_txNow();
 2722              		.loc 1 1140 0
 2723 13ee FFF7FEFF 		bl	radio_txNow
1141:build/openmote-cc2538_armgcc/openstack/02a-MAClow/IEEE802154E.c **** #endif
1142:build/openmote-cc2538_armgcc/openstack/02a-MAClow/IEEE802154E.c **** }
 2724              		.loc 1 1142 0
 2725 13f2 80BD     		pop	{r7, pc}
 2726              		.cfi_endproc
 2727              	.LFE16:
 2729              		.align	2
 2730              		.global	activity_tie2
 2731              		.thumb
 2732              		.thumb_func
 2734              	activity_tie2:
 2735              	.LFB17:
1143:build/openmote-cc2538_armgcc/openstack/02a-MAClow/IEEE802154E.c **** 
1144:build/openmote-cc2538_armgcc/openstack/02a-MAClow/IEEE802154E.c **** port_INLINE void activity_tie2() {
 2736              		.loc 1 1144 0
 2737              		.cfi_startproc
 2738              		@ args = 0, pretend = 0, frame = 0
 2739              		@ frame_needed = 1, uses_anonymous_args = 0
 2740 13f4 80B5     		push	{r7, lr}
 2741              		.cfi_def_cfa_offset 8
 2742              		.cfi_offset 7, -8
 2743              		.cfi_offset 14, -4
 2744 13f6 00AF     		add	r7, sp, #0
 2745              		.cfi_def_cfa_register 7
1145:build/openmote-cc2538_armgcc/openstack/02a-MAClow/IEEE802154E.c ****     // log the error
1146:build/openmote-cc2538_armgcc/openstack/02a-MAClow/IEEE802154E.c ****    openserial_printError(COMPONENT_IEEE802154E,ERR_WDRADIO_OVERFLOWS,
1147:build/openmote-cc2538_armgcc/openstack/02a-MAClow/IEEE802154E.c ****                          (errorparameter_t)ieee154e_vars.state,
 2746              		.loc 1 1147 0
 2747 13f8 40F20003 		movw	r3, #:lower16:ieee154e_vars
 2748 13fc C0F20003 		movt	r3, #:upper16:ieee154e_vars
 2749 1400 93F82831 		ldrb	r3, [r3, #296]	@ zero_extendqisi2
1146:build/openmote-cc2538_armgcc/openstack/02a-MAClow/IEEE802154E.c ****                          (errorparameter_t)ieee154e_vars.state,
 2750              		.loc 1 1146 0
 2751 1404 1A46     		mov	r2, r3
 2752 1406 40F20003 		movw	r3, #:lower16:ieee154e_vars
 2753 140a C0F20003 		movt	r3, #:upper16:ieee154e_vars
 2754 140e DB88     		ldrh	r3, [r3, #6]
 2755 1410 0920     		movs	r0, #9
 2756 1412 2721     		movs	r1, #39
 2757 1414 FFF7FEFF 		bl	openserial_printError
1148:build/openmote-cc2538_armgcc/openstack/02a-MAClow/IEEE802154E.c ****                          (errorparameter_t)ieee154e_vars.slotOffset);
1149:build/openmote-cc2538_armgcc/openstack/02a-MAClow/IEEE802154E.c ****    
1150:build/openmote-cc2538_armgcc/openstack/02a-MAClow/IEEE802154E.c ****     // abort
1151:build/openmote-cc2538_armgcc/openstack/02a-MAClow/IEEE802154E.c ****     endSlot();
 2758              		.loc 1 1151 0
 2759 1418 FFF7FEFF 		bl	endSlot
1152:build/openmote-cc2538_armgcc/openstack/02a-MAClow/IEEE802154E.c **** }
 2760              		.loc 1 1152 0
 2761 141c 80BD     		pop	{r7, pc}
 2762              		.cfi_endproc
 2763              	.LFE17:
 2765 141e 00BF     		.align	2
 2766              		.global	activity_ti4
 2767              		.thumb
 2768              		.thumb_func
 2770              	activity_ti4:
 2771              	.LFB18:
1153:build/openmote-cc2538_armgcc/openstack/02a-MAClow/IEEE802154E.c **** 
1154:build/openmote-cc2538_armgcc/openstack/02a-MAClow/IEEE802154E.c **** //start of frame interrupt
1155:build/openmote-cc2538_armgcc/openstack/02a-MAClow/IEEE802154E.c **** port_INLINE void activity_ti4(PORT_RADIOTIMER_WIDTH capturedTime) {
 2772              		.loc 1 1155 0
 2773              		.cfi_startproc
 2774              		@ args = 0, pretend = 0, frame = 8
 2775              		@ frame_needed = 1, uses_anonymous_args = 0
 2776 1420 80B5     		push	{r7, lr}
 2777              		.cfi_def_cfa_offset 8
 2778              		.cfi_offset 7, -8
 2779              		.cfi_offset 14, -4
 2780 1422 82B0     		sub	sp, sp, #8
 2781              		.cfi_def_cfa_offset 16
 2782 1424 00AF     		add	r7, sp, #0
 2783              		.cfi_def_cfa_register 7
 2784 1426 7860     		str	r0, [r7, #4]
1156:build/openmote-cc2538_armgcc/openstack/02a-MAClow/IEEE802154E.c ****     // change state
1157:build/openmote-cc2538_armgcc/openstack/02a-MAClow/IEEE802154E.c ****     changeState(S_TXDATA);
 2785              		.loc 1 1157 0
 2786 1428 0820     		movs	r0, #8
 2787 142a FFF7FEFF 		bl	changeState
1158:build/openmote-cc2538_armgcc/openstack/02a-MAClow/IEEE802154E.c **** #ifdef SLOT_FSM_IMPLEMENTATION_MULTIPLE_TIMER_INTERRUPT
1159:build/openmote-cc2538_armgcc/openstack/02a-MAClow/IEEE802154E.c ****     // cancel tt3
1160:build/openmote-cc2538_armgcc/openstack/02a-MAClow/IEEE802154E.c ****     radiotimer_cancel(ACTION_NORMAL_TIMER);
1161:build/openmote-cc2538_armgcc/openstack/02a-MAClow/IEEE802154E.c **** #else
1162:build/openmote-cc2538_armgcc/openstack/02a-MAClow/IEEE802154E.c ****     // cancel tt3
1163:build/openmote-cc2538_armgcc/openstack/02a-MAClow/IEEE802154E.c ****     radiotimer_cancel();
 2788              		.loc 1 1163 0
 2789 142e FFF7FEFF 		bl	radiotimer_cancel
1164:build/openmote-cc2538_armgcc/openstack/02a-MAClow/IEEE802154E.c **** #endif
1165:build/openmote-cc2538_armgcc/openstack/02a-MAClow/IEEE802154E.c ****     // record the captured time
1166:build/openmote-cc2538_armgcc/openstack/02a-MAClow/IEEE802154E.c ****     ieee154e_vars.lastCapturedTime = capturedTime;
 2790              		.loc 1 1166 0
 2791 1432 40F20003 		movw	r3, #:lower16:ieee154e_vars
 2792 1436 C0F20003 		movt	r3, #:upper16:ieee154e_vars
 2793 143a 7A68     		ldr	r2, [r7, #4]
 2794 143c C3F83C21 		str	r2, [r3, #316]
1167:build/openmote-cc2538_armgcc/openstack/02a-MAClow/IEEE802154E.c **** #ifdef SLOT_FSM_IMPLEMENTATION_MULTIPLE_TIMER_INTERRUPT
1168:build/openmote-cc2538_armgcc/openstack/02a-MAClow/IEEE802154E.c ****     // arm tt4
1169:build/openmote-cc2538_armgcc/openstack/02a-MAClow/IEEE802154E.c ****     radiotimer_schedule(ACTION_NORMAL_TIMER,DURATION_tt4);
1170:build/openmote-cc2538_armgcc/openstack/02a-MAClow/IEEE802154E.c **** #else
1171:build/openmote-cc2538_armgcc/openstack/02a-MAClow/IEEE802154E.c ****     // arm tt4
1172:build/openmote-cc2538_armgcc/openstack/02a-MAClow/IEEE802154E.c ****     radiotimer_schedule(DURATION_tt4);
 2795              		.loc 1 1172 0
 2796 1440 40F20003 		movw	r3, #:lower16:ieee154e_vars
 2797 1444 C0F20003 		movt	r3, #:upper16:ieee154e_vars
 2798 1448 D3F83C31 		ldr	r3, [r3, #316]
 2799 144c A433     		adds	r3, r3, #164
 2800 144e 1846     		mov	r0, r3
 2801 1450 FFF7FEFF 		bl	radiotimer_schedule
1173:build/openmote-cc2538_armgcc/openstack/02a-MAClow/IEEE802154E.c **** #endif
1174:build/openmote-cc2538_armgcc/openstack/02a-MAClow/IEEE802154E.c **** }
 2802              		.loc 1 1174 0
 2803 1454 0837     		adds	r7, r7, #8
 2804 1456 BD46     		mov	sp, r7
 2805              		@ sp needed
 2806 1458 80BD     		pop	{r7, pc}
 2807              		.cfi_endproc
 2808              	.LFE18:
 2810 145a 00BF     		.align	2
 2811              		.global	activity_tie3
 2812              		.thumb
 2813              		.thumb_func
 2815              	activity_tie3:
 2816              	.LFB19:
1175:build/openmote-cc2538_armgcc/openstack/02a-MAClow/IEEE802154E.c **** 
1176:build/openmote-cc2538_armgcc/openstack/02a-MAClow/IEEE802154E.c **** port_INLINE void activity_tie3() {
 2817              		.loc 1 1176 0
 2818              		.cfi_startproc
 2819              		@ args = 0, pretend = 0, frame = 0
 2820              		@ frame_needed = 1, uses_anonymous_args = 0
 2821 145c 80B5     		push	{r7, lr}
 2822              		.cfi_def_cfa_offset 8
 2823              		.cfi_offset 7, -8
 2824              		.cfi_offset 14, -4
 2825 145e 00AF     		add	r7, sp, #0
 2826              		.cfi_def_cfa_register 7
1177:build/openmote-cc2538_armgcc/openstack/02a-MAClow/IEEE802154E.c ****     // log the error
1178:build/openmote-cc2538_armgcc/openstack/02a-MAClow/IEEE802154E.c ****     openserial_printError(COMPONENT_IEEE802154E,ERR_WDDATADURATION_OVERFLOWS,
1179:build/openmote-cc2538_armgcc/openstack/02a-MAClow/IEEE802154E.c ****                          (errorparameter_t)ieee154e_vars.state,
 2827              		.loc 1 1179 0
 2828 1460 40F20003 		movw	r3, #:lower16:ieee154e_vars
 2829 1464 C0F20003 		movt	r3, #:upper16:ieee154e_vars
 2830 1468 93F82831 		ldrb	r3, [r3, #296]	@ zero_extendqisi2
1178:build/openmote-cc2538_armgcc/openstack/02a-MAClow/IEEE802154E.c ****                          (errorparameter_t)ieee154e_vars.state,
 2831              		.loc 1 1178 0
 2832 146c 1A46     		mov	r2, r3
 2833 146e 40F20003 		movw	r3, #:lower16:ieee154e_vars
 2834 1472 C0F20003 		movt	r3, #:upper16:ieee154e_vars
 2835 1476 DB88     		ldrh	r3, [r3, #6]
 2836 1478 0920     		movs	r0, #9
 2837 147a 2621     		movs	r1, #38
 2838 147c FFF7FEFF 		bl	openserial_printError
1180:build/openmote-cc2538_armgcc/openstack/02a-MAClow/IEEE802154E.c ****                          (errorparameter_t)ieee154e_vars.slotOffset);
1181:build/openmote-cc2538_armgcc/openstack/02a-MAClow/IEEE802154E.c ****    
1182:build/openmote-cc2538_armgcc/openstack/02a-MAClow/IEEE802154E.c ****     // abort
1183:build/openmote-cc2538_armgcc/openstack/02a-MAClow/IEEE802154E.c ****     endSlot();
 2839              		.loc 1 1183 0
 2840 1480 FFF7FEFF 		bl	endSlot
1184:build/openmote-cc2538_armgcc/openstack/02a-MAClow/IEEE802154E.c **** }
 2841              		.loc 1 1184 0
 2842 1484 80BD     		pop	{r7, pc}
 2843              		.cfi_endproc
 2844              	.LFE19:
 2846 1486 00BF     		.align	2
 2847              		.global	activity_ti5
 2848              		.thumb
 2849              		.thumb_func
 2851              	activity_ti5:
 2852              	.LFB20:
1185:build/openmote-cc2538_armgcc/openstack/02a-MAClow/IEEE802154E.c **** 
1186:build/openmote-cc2538_armgcc/openstack/02a-MAClow/IEEE802154E.c **** port_INLINE void activity_ti5(PORT_RADIOTIMER_WIDTH capturedTime) {
 2853              		.loc 1 1186 0
 2854              		.cfi_startproc
 2855              		@ args = 0, pretend = 0, frame = 16
 2856              		@ frame_needed = 1, uses_anonymous_args = 0
 2857 1488 90B5     		push	{r4, r7, lr}
 2858              		.cfi_def_cfa_offset 12
 2859              		.cfi_offset 4, -12
 2860              		.cfi_offset 7, -8
 2861              		.cfi_offset 14, -4
 2862 148a 85B0     		sub	sp, sp, #20
 2863              		.cfi_def_cfa_offset 32
 2864 148c 00AF     		add	r7, sp, #0
 2865              		.cfi_def_cfa_register 7
 2866 148e 7860     		str	r0, [r7, #4]
1187:build/openmote-cc2538_armgcc/openstack/02a-MAClow/IEEE802154E.c ****     bool listenForAck;
1188:build/openmote-cc2538_armgcc/openstack/02a-MAClow/IEEE802154E.c ****     
1189:build/openmote-cc2538_armgcc/openstack/02a-MAClow/IEEE802154E.c ****     // change state
1190:build/openmote-cc2538_armgcc/openstack/02a-MAClow/IEEE802154E.c ****     changeState(S_RXACKOFFSET);
 2867              		.loc 1 1190 0
 2868 1490 0920     		movs	r0, #9
 2869 1492 FFF7FEFF 		bl	changeState
1191:build/openmote-cc2538_armgcc/openstack/02a-MAClow/IEEE802154E.c **** #ifdef SLOT_FSM_IMPLEMENTATION_MULTIPLE_TIMER_INTERRUPT
1192:build/openmote-cc2538_armgcc/openstack/02a-MAClow/IEEE802154E.c ****     // cancel tt4
1193:build/openmote-cc2538_armgcc/openstack/02a-MAClow/IEEE802154E.c ****     radiotimer_cancel(ACTION_NORMAL_TIMER);
1194:build/openmote-cc2538_armgcc/openstack/02a-MAClow/IEEE802154E.c **** #else
1195:build/openmote-cc2538_armgcc/openstack/02a-MAClow/IEEE802154E.c ****     // cancel tt4
1196:build/openmote-cc2538_armgcc/openstack/02a-MAClow/IEEE802154E.c ****     radiotimer_cancel();
 2870              		.loc 1 1196 0
 2871 1496 FFF7FEFF 		bl	radiotimer_cancel
1197:build/openmote-cc2538_armgcc/openstack/02a-MAClow/IEEE802154E.c **** #endif
1198:build/openmote-cc2538_armgcc/openstack/02a-MAClow/IEEE802154E.c ****     // turn off the radio
1199:build/openmote-cc2538_armgcc/openstack/02a-MAClow/IEEE802154E.c ****     radio_rfOff();
 2872              		.loc 1 1199 0
 2873 149a FFF7FEFF 		bl	radio_rfOff
1200:build/openmote-cc2538_armgcc/openstack/02a-MAClow/IEEE802154E.c ****     ieee154e_vars.radioOnTics+=(radio_getTimerValue()-ieee154e_vars.radioOnInit);
 2874              		.loc 1 1200 0
 2875 149e 40F20003 		movw	r3, #:lower16:ieee154e_vars
 2876 14a2 C0F20003 		movt	r3, #:upper16:ieee154e_vars
 2877 14a6 D3F86041 		ldr	r4, [r3, #352]
 2878 14aa FFF7FEFF 		bl	radio_getTimerValue
 2879 14ae 0246     		mov	r2, r0
 2880 14b0 40F20003 		movw	r3, #:lower16:ieee154e_vars
 2881 14b4 C0F20003 		movt	r3, #:upper16:ieee154e_vars
 2882 14b8 D3F85C31 		ldr	r3, [r3, #348]
 2883 14bc D31A     		subs	r3, r2, r3
 2884 14be E218     		adds	r2, r4, r3
 2885 14c0 40F20003 		movw	r3, #:lower16:ieee154e_vars
 2886 14c4 C0F20003 		movt	r3, #:upper16:ieee154e_vars
 2887 14c8 C3F86021 		str	r2, [r3, #352]
1201:build/openmote-cc2538_armgcc/openstack/02a-MAClow/IEEE802154E.c ****    
1202:build/openmote-cc2538_armgcc/openstack/02a-MAClow/IEEE802154E.c ****     // record the captured time
1203:build/openmote-cc2538_armgcc/openstack/02a-MAClow/IEEE802154E.c ****     ieee154e_vars.lastCapturedTime = capturedTime;
 2888              		.loc 1 1203 0
 2889 14cc 40F20003 		movw	r3, #:lower16:ieee154e_vars
 2890 14d0 C0F20003 		movt	r3, #:upper16:ieee154e_vars
 2891 14d4 7A68     		ldr	r2, [r7, #4]
 2892 14d6 C3F83C21 		str	r2, [r3, #316]
1204:build/openmote-cc2538_armgcc/openstack/02a-MAClow/IEEE802154E.c ****    
1205:build/openmote-cc2538_armgcc/openstack/02a-MAClow/IEEE802154E.c ****     // decides whether to listen for an ACK
1206:build/openmote-cc2538_armgcc/openstack/02a-MAClow/IEEE802154E.c ****     if (packetfunctions_isBroadcastMulticast(&ieee154e_vars.dataToSend->l2_nextORpreviousHop)==TRUE
 2893              		.loc 1 1206 0
 2894 14da 40F20003 		movw	r3, #:lower16:ieee154e_vars
 2895 14de C0F20003 		movt	r3, #:upper16:ieee154e_vars
 2896 14e2 D3F82C31 		ldr	r3, [r3, #300]
 2897 14e6 3833     		adds	r3, r3, #56
 2898 14e8 1846     		mov	r0, r3
 2899 14ea FFF7FEFF 		bl	packetfunctions_isBroadcastMulticast
 2900 14ee 0346     		mov	r3, r0
 2901 14f0 002B     		cmp	r3, #0
 2902 14f2 02D0     		beq	.L160
1207:build/openmote-cc2538_armgcc/openstack/02a-MAClow/IEEE802154E.c ****         listenForAck = FALSE;
 2903              		.loc 1 1207 0
 2904 14f4 0023     		movs	r3, #0
 2905 14f6 FB73     		strb	r3, [r7, #15]
 2906 14f8 01E0     		b	.L161
 2907              	.L160:
1208:build/openmote-cc2538_armgcc/openstack/02a-MAClow/IEEE802154E.c ****     } else {
1209:build/openmote-cc2538_armgcc/openstack/02a-MAClow/IEEE802154E.c ****         listenForAck = TRUE;
 2908              		.loc 1 1209 0
 2909 14fa 0123     		movs	r3, #1
 2910 14fc FB73     		strb	r3, [r7, #15]
 2911              	.L161:
1210:build/openmote-cc2538_armgcc/openstack/02a-MAClow/IEEE802154E.c ****     }
1211:build/openmote-cc2538_armgcc/openstack/02a-MAClow/IEEE802154E.c ****    
1212:build/openmote-cc2538_armgcc/openstack/02a-MAClow/IEEE802154E.c ****     if (listenForAck==TRUE) {
 2912              		.loc 1 1212 0
 2913 14fe FB7B     		ldrb	r3, [r7, #15]	@ zero_extendqisi2
 2914 1500 002B     		cmp	r3, #0
 2915 1502 0AD0     		beq	.L162
1213:build/openmote-cc2538_armgcc/openstack/02a-MAClow/IEEE802154E.c **** #ifdef SLOT_FSM_IMPLEMENTATION_MULTIPLE_TIMER_INTERRUPT
1214:build/openmote-cc2538_armgcc/openstack/02a-MAClow/IEEE802154E.c ****         // 1. schedule timer for enabling receiving
1215:build/openmote-cc2538_armgcc/openstack/02a-MAClow/IEEE802154E.c ****         // arm tt5
1216:build/openmote-cc2538_armgcc/openstack/02a-MAClow/IEEE802154E.c ****         radiotimer_schedule(ACTION_RADIORX_ENABLE,DURATION_tt5);
1217:build/openmote-cc2538_armgcc/openstack/02a-MAClow/IEEE802154E.c ****         // set receiving buffer address (radio is NOT enabled at this moment)
1218:build/openmote-cc2538_armgcc/openstack/02a-MAClow/IEEE802154E.c ****         radio_rxPacket_prepare();
