   1              		.syntax unified
   2              		.cpu cortex-m3
   3              		.fpu softvfp
   4              		.eabi_attribute 20, 1
   5              		.eabi_attribute 21, 1
   6              		.eabi_attribute 23, 3
   7              		.eabi_attribute 24, 1
   8              		.eabi_attribute 25, 1
   9              		.eabi_attribute 26, 1
  10              		.eabi_attribute 30, 6
  11              		.eabi_attribute 34, 1
  12              		.eabi_attribute 18, 4
  13              		.thumb
  14              		.file	"IEEE802154_security.c"
  15              		.text
  16              	.Ltext0:
  17              		.cfi_sections	.debug_frame
  18              		.section	.rodata
  19              		.align	2
  22              	rreg_uriquery:
  23 0000 683D7563 		.ascii	"h=ucb\000"
  23      6200
  24 0006 0000     		.align	2
  27              	infoBoardname:
  28 0008 43433235 		.ascii	"CC2538\000"
  28      333800
  29 000f 00       		.align	2
  32              	infouCName:
  33 0010 43433235 		.ascii	"CC2538\000"
  33      333800
  34 0017 00       		.align	2
  37              	infoRadioName:
  38 0018 43433235 		.ascii	"CC2538 SoC\000"
  38      33382053 
  38      6F4300
  39 0023 00       		.align	2
  42              	infoStackName:
  43 0024 4F70656E 		.ascii	"OpenWSN \000"
  43      57534E20 
  43      00
  44 002d 000000   		.align	2
  47              	chTemplate_default:
  48 0030 05       		.byte	5
  49 0031 06       		.byte	6
  50 0032 0C       		.byte	12
  51 0033 07       		.byte	7
  52 0034 0F       		.byte	15
  53 0035 04       		.byte	4
  54 0036 0E       		.byte	14
  55 0037 0B       		.byte	11
  56 0038 08       		.byte	8
  57 0039 00       		.byte	0
  58 003a 01       		.byte	1
  59 003b 02       		.byte	2
  60 003c 0D       		.byte	13
  61 003d 03       		.byte	3
  62 003e 09       		.byte	9
  63 003f 0A       		.byte	10
  64              		.align	2
  67              	all_routers_multicast:
  68 0040 FF       		.byte	-1
  69 0041 02       		.byte	2
  70 0042 00       		.byte	0
  71 0043 00       		.byte	0
  72 0044 00       		.byte	0
  73 0045 00       		.byte	0
  74 0046 00       		.byte	0
  75 0047 00       		.byte	0
  76 0048 00       		.byte	0
  77 0049 00       		.byte	0
  78 004a 00       		.byte	0
  79 004b 00       		.byte	0
  80 004c 00       		.byte	0
  81 004d 00       		.byte	0
  82 004e 00       		.byte	0
  83 004f 1A       		.byte	26
  84              		.comm	ieee802154_security_vars,1164,4
  85              		.text
  86              		.align	2
  87              		.global	IEEE802154_security_init
  88              		.thumb
  89              		.thumb_func
  91              	IEEE802154_security_init:
  92              	.LFB0:
  93              		.file 1 "build/openmote-cc2538_armgcc/openstack/02a-MAClow/IEEE802154_security.c"
   1:build/openmote-cc2538_armgcc/openstack/02a-MAClow/IEEE802154_security.c **** /**
   2:build/openmote-cc2538_armgcc/openstack/02a-MAClow/IEEE802154_security.c **** \brief Security operations defined by IEEE802.15.4e standard
   3:build/openmote-cc2538_armgcc/openstack/02a-MAClow/IEEE802154_security.c **** 
   4:build/openmote-cc2538_armgcc/openstack/02a-MAClow/IEEE802154_security.c **** \author Savio Sciancalepore <savio.sciancalepore@poliba.it>, June 2015.
   5:build/openmote-cc2538_armgcc/openstack/02a-MAClow/IEEE802154_security.c **** \author Giuseppe Piro <giuseppe.piro@poliba.it> June 2015.
   6:build/openmote-cc2538_armgcc/openstack/02a-MAClow/IEEE802154_security.c **** \author Gennaro Boggia <gennaro.boggia@poliba.it> June 2015.
   7:build/openmote-cc2538_armgcc/openstack/02a-MAClow/IEEE802154_security.c **** \author Luigi Alfredo Grieco <alfredo.grieco@poliba.it>, June 2015.
   8:build/openmote-cc2538_armgcc/openstack/02a-MAClow/IEEE802154_security.c **** \author Malisa Vucinic <malishav@gmail.com>, June 2015.
   9:build/openmote-cc2538_armgcc/openstack/02a-MAClow/IEEE802154_security.c **** */
  10:build/openmote-cc2538_armgcc/openstack/02a-MAClow/IEEE802154_security.c **** 
  11:build/openmote-cc2538_armgcc/openstack/02a-MAClow/IEEE802154_security.c **** #include "packetfunctions.h"
  12:build/openmote-cc2538_armgcc/openstack/02a-MAClow/IEEE802154_security.c **** #include "crypto_engine.h"
  13:build/openmote-cc2538_armgcc/openstack/02a-MAClow/IEEE802154_security.c **** #include "IEEE802154.h"
  14:build/openmote-cc2538_armgcc/openstack/02a-MAClow/IEEE802154_security.c **** #include "IEEE802154E.h"
  15:build/openmote-cc2538_armgcc/openstack/02a-MAClow/IEEE802154_security.c **** #include "idmanager.h"
  16:build/openmote-cc2538_armgcc/openstack/02a-MAClow/IEEE802154_security.c **** #include "openserial.h"
  17:build/openmote-cc2538_armgcc/openstack/02a-MAClow/IEEE802154_security.c **** #include "IEEE802154_security.h"
  18:build/openmote-cc2538_armgcc/openstack/02a-MAClow/IEEE802154_security.c **** 
  19:build/openmote-cc2538_armgcc/openstack/02a-MAClow/IEEE802154_security.c **** //=============================define==========================================
  20:build/openmote-cc2538_armgcc/openstack/02a-MAClow/IEEE802154_security.c **** 
  21:build/openmote-cc2538_armgcc/openstack/02a-MAClow/IEEE802154_security.c **** //=========================== variables =======================================
  22:build/openmote-cc2538_armgcc/openstack/02a-MAClow/IEEE802154_security.c **** 
  23:build/openmote-cc2538_armgcc/openstack/02a-MAClow/IEEE802154_security.c **** ieee802154_security_vars_t ieee802154_security_vars;
  24:build/openmote-cc2538_armgcc/openstack/02a-MAClow/IEEE802154_security.c **** 
  25:build/openmote-cc2538_armgcc/openstack/02a-MAClow/IEEE802154_security.c **** //=========================== prototypes ======================================
  26:build/openmote-cc2538_armgcc/openstack/02a-MAClow/IEEE802154_security.c **** 
  27:build/openmote-cc2538_armgcc/openstack/02a-MAClow/IEEE802154_security.c **** void IEEE802154_security_getFrameCounter(macFrameCounter_t reference,
  28:build/openmote-cc2538_armgcc/openstack/02a-MAClow/IEEE802154_security.c ****                                          uint8_t*          array);
  29:build/openmote-cc2538_armgcc/openstack/02a-MAClow/IEEE802154_security.c **** uint8_t IEEE802154_security_authLengthChecking(uint8_t securityLevel);
  30:build/openmote-cc2538_armgcc/openstack/02a-MAClow/IEEE802154_security.c **** 
  31:build/openmote-cc2538_armgcc/openstack/02a-MAClow/IEEE802154_security.c **** uint8_t IEEE802154_security_auxLengthChecking(uint8_t KeyIdMode,
  32:build/openmote-cc2538_armgcc/openstack/02a-MAClow/IEEE802154_security.c ****                                               uint8_t    frameCounterSuppression,
  33:build/openmote-cc2538_armgcc/openstack/02a-MAClow/IEEE802154_security.c ****                                               uint8_t frameCounterSize);
  34:build/openmote-cc2538_armgcc/openstack/02a-MAClow/IEEE802154_security.c **** 
  35:build/openmote-cc2538_armgcc/openstack/02a-MAClow/IEEE802154_security.c **** bool IEEE802154_security_incomingKeyUsagePolicyChecking(m_keyDescriptor* keydesc,
  36:build/openmote-cc2538_armgcc/openstack/02a-MAClow/IEEE802154_security.c ****                                                         uint8_t          frameType,
  37:build/openmote-cc2538_armgcc/openstack/02a-MAClow/IEEE802154_security.c ****                                                         uint8_t          cfi);
  38:build/openmote-cc2538_armgcc/openstack/02a-MAClow/IEEE802154_security.c **** 
  39:build/openmote-cc2538_armgcc/openstack/02a-MAClow/IEEE802154_security.c **** bool IEEE802154_security_incomingSecurityLevelChecking(m_securityLevelDescriptor* secLevDesc,
  40:build/openmote-cc2538_armgcc/openstack/02a-MAClow/IEEE802154_security.c ****                                                        uint8_t                    secLevel,
  41:build/openmote-cc2538_armgcc/openstack/02a-MAClow/IEEE802154_security.c ****                                                        bool                       exempt);
  42:build/openmote-cc2538_armgcc/openstack/02a-MAClow/IEEE802154_security.c **** 
  43:build/openmote-cc2538_armgcc/openstack/02a-MAClow/IEEE802154_security.c **** m_securityLevelDescriptor* IEEE802154_security_securityLevelDescriptorLookup(uint8_t frameType,
  44:build/openmote-cc2538_armgcc/openstack/02a-MAClow/IEEE802154_security.c ****                                                                              uint8_t cfi);
  45:build/openmote-cc2538_armgcc/openstack/02a-MAClow/IEEE802154_security.c **** 
  46:build/openmote-cc2538_armgcc/openstack/02a-MAClow/IEEE802154_security.c **** m_deviceDescriptor* IEEE802154_security_deviceDescriptorLookup(open_addr_t*     address,
  47:build/openmote-cc2538_armgcc/openstack/02a-MAClow/IEEE802154_security.c ****                                                                open_addr_t*     PANID,
  48:build/openmote-cc2538_armgcc/openstack/02a-MAClow/IEEE802154_security.c ****                                                                m_keyDescriptor* keyDescriptor);
  49:build/openmote-cc2538_armgcc/openstack/02a-MAClow/IEEE802154_security.c **** 
  50:build/openmote-cc2538_armgcc/openstack/02a-MAClow/IEEE802154_security.c **** m_keyDescriptor* IEEE802154_security_keyDescriptorLookup(uint8_t      KeyIdMode,
  51:build/openmote-cc2538_armgcc/openstack/02a-MAClow/IEEE802154_security.c ****                                                          open_addr_t* keySource,
  52:build/openmote-cc2538_armgcc/openstack/02a-MAClow/IEEE802154_security.c ****                                                          uint8_t      KeyIndex,
  53:build/openmote-cc2538_armgcc/openstack/02a-MAClow/IEEE802154_security.c ****                                                          open_addr_t* DeviceAddress,
  54:build/openmote-cc2538_armgcc/openstack/02a-MAClow/IEEE802154_security.c ****                                                          open_addr_t* panID,
  55:build/openmote-cc2538_armgcc/openstack/02a-MAClow/IEEE802154_security.c ****                                                          uint8_t      frameType);
  56:build/openmote-cc2538_armgcc/openstack/02a-MAClow/IEEE802154_security.c **** 
  57:build/openmote-cc2538_armgcc/openstack/02a-MAClow/IEEE802154_security.c **** //=========================== admin ===========================================
  58:build/openmote-cc2538_armgcc/openstack/02a-MAClow/IEEE802154_security.c **** 
  59:build/openmote-cc2538_armgcc/openstack/02a-MAClow/IEEE802154_security.c **** /**
  60:build/openmote-cc2538_armgcc/openstack/02a-MAClow/IEEE802154_security.c **** \brief Initialization of security tables and parameters.
  61:build/openmote-cc2538_armgcc/openstack/02a-MAClow/IEEE802154_security.c **** */
  62:build/openmote-cc2538_armgcc/openstack/02a-MAClow/IEEE802154_security.c **** void IEEE802154_security_init(void) {
  94              		.loc 1 62 0
  95              		.cfi_startproc
  96              		@ args = 0, pretend = 0, frame = 8
  97              		@ frame_needed = 1, uses_anonymous_args = 0
  98 0000 B0B5     		push	{r4, r5, r7, lr}
  99              		.cfi_def_cfa_offset 16
 100              		.cfi_offset 4, -16
 101              		.cfi_offset 5, -12
 102              		.cfi_offset 7, -8
 103              		.cfi_offset 14, -4
 104 0002 82B0     		sub	sp, sp, #8
 105              		.cfi_def_cfa_offset 24
 106 0004 00AF     		add	r7, sp, #0
 107              		.cfi_def_cfa_register 7
  63:build/openmote-cc2538_armgcc/openstack/02a-MAClow/IEEE802154_security.c ****    uint8_t i;
  64:build/openmote-cc2538_armgcc/openstack/02a-MAClow/IEEE802154_security.c **** 
  65:build/openmote-cc2538_armgcc/openstack/02a-MAClow/IEEE802154_security.c ****    //Setting UP Phase
  66:build/openmote-cc2538_armgcc/openstack/02a-MAClow/IEEE802154_security.c **** 
  67:build/openmote-cc2538_armgcc/openstack/02a-MAClow/IEEE802154_security.c ****    //KEY 1: '6TiSCH minimal15' - used to authenticate beacon frames
  68:build/openmote-cc2538_armgcc/openstack/02a-MAClow/IEEE802154_security.c ****    memset(&ieee802154_security_vars.Key_1[0], 0, 16);
 108              		.loc 1 68 0
 109 0006 6B48     		ldr	r0, .L6
 110 0008 0021     		movs	r1, #0
 111 000a 1022     		movs	r2, #16
 112 000c FFF7FEFF 		bl	memset
  69:build/openmote-cc2538_armgcc/openstack/02a-MAClow/IEEE802154_security.c ****    ieee802154_security_vars.Key_1[0] = 0x36;
 113              		.loc 1 69 0
 114 0010 40F20003 		movw	r3, #:lower16:ieee802154_security_vars
 115 0014 C0F20003 		movt	r3, #:upper16:ieee802154_security_vars
 116 0018 3622     		movs	r2, #54
 117 001a 83F86A24 		strb	r2, [r3, #1130]
  70:build/openmote-cc2538_armgcc/openstack/02a-MAClow/IEEE802154_security.c ****    ieee802154_security_vars.Key_1[1] = 0x54;
 118              		.loc 1 70 0
 119 001e 40F20003 		movw	r3, #:lower16:ieee802154_security_vars
 120 0022 C0F20003 		movt	r3, #:upper16:ieee802154_security_vars
 121 0026 5422     		movs	r2, #84
 122 0028 83F86B24 		strb	r2, [r3, #1131]
  71:build/openmote-cc2538_armgcc/openstack/02a-MAClow/IEEE802154_security.c ****    ieee802154_security_vars.Key_1[2] = 0x69;
 123              		.loc 1 71 0
 124 002c 40F20003 		movw	r3, #:lower16:ieee802154_security_vars
 125 0030 C0F20003 		movt	r3, #:upper16:ieee802154_security_vars
 126 0034 6922     		movs	r2, #105
 127 0036 83F86C24 		strb	r2, [r3, #1132]
  72:build/openmote-cc2538_armgcc/openstack/02a-MAClow/IEEE802154_security.c ****    ieee802154_security_vars.Key_1[3] = 0x53;
 128              		.loc 1 72 0
 129 003a 40F20003 		movw	r3, #:lower16:ieee802154_security_vars
 130 003e C0F20003 		movt	r3, #:upper16:ieee802154_security_vars
 131 0042 5322     		movs	r2, #83
 132 0044 83F86D24 		strb	r2, [r3, #1133]
  73:build/openmote-cc2538_armgcc/openstack/02a-MAClow/IEEE802154_security.c ****    ieee802154_security_vars.Key_1[4] = 0x43;
 133              		.loc 1 73 0
 134 0048 40F20003 		movw	r3, #:lower16:ieee802154_security_vars
 135 004c C0F20003 		movt	r3, #:upper16:ieee802154_security_vars
 136 0050 4322     		movs	r2, #67
 137 0052 83F86E24 		strb	r2, [r3, #1134]
  74:build/openmote-cc2538_armgcc/openstack/02a-MAClow/IEEE802154_security.c ****    ieee802154_security_vars.Key_1[5] = 0x48;
 138              		.loc 1 74 0
 139 0056 40F20003 		movw	r3, #:lower16:ieee802154_security_vars
 140 005a C0F20003 		movt	r3, #:upper16:ieee802154_security_vars
 141 005e 4822     		movs	r2, #72
 142 0060 83F86F24 		strb	r2, [r3, #1135]
  75:build/openmote-cc2538_armgcc/openstack/02a-MAClow/IEEE802154_security.c ****    ieee802154_security_vars.Key_1[6] = 0x20;
 143              		.loc 1 75 0
 144 0064 40F20003 		movw	r3, #:lower16:ieee802154_security_vars
 145 0068 C0F20003 		movt	r3, #:upper16:ieee802154_security_vars
 146 006c 2022     		movs	r2, #32
 147 006e 83F87024 		strb	r2, [r3, #1136]
  76:build/openmote-cc2538_armgcc/openstack/02a-MAClow/IEEE802154_security.c ****    ieee802154_security_vars.Key_1[7] = 0x6d;
 148              		.loc 1 76 0
 149 0072 40F20003 		movw	r3, #:lower16:ieee802154_security_vars
 150 0076 C0F20003 		movt	r3, #:upper16:ieee802154_security_vars
 151 007a 6D22     		movs	r2, #109
 152 007c 83F87124 		strb	r2, [r3, #1137]
  77:build/openmote-cc2538_armgcc/openstack/02a-MAClow/IEEE802154_security.c ****    ieee802154_security_vars.Key_1[8] = 0x69;
 153              		.loc 1 77 0
 154 0080 40F20003 		movw	r3, #:lower16:ieee802154_security_vars
 155 0084 C0F20003 		movt	r3, #:upper16:ieee802154_security_vars
 156 0088 6922     		movs	r2, #105
 157 008a 83F87224 		strb	r2, [r3, #1138]
  78:build/openmote-cc2538_armgcc/openstack/02a-MAClow/IEEE802154_security.c ****    ieee802154_security_vars.Key_1[9] = 0x6e;
 158              		.loc 1 78 0
 159 008e 40F20003 		movw	r3, #:lower16:ieee802154_security_vars
 160 0092 C0F20003 		movt	r3, #:upper16:ieee802154_security_vars
 161 0096 6E22     		movs	r2, #110
 162 0098 83F87324 		strb	r2, [r3, #1139]
  79:build/openmote-cc2538_armgcc/openstack/02a-MAClow/IEEE802154_security.c ****    ieee802154_security_vars.Key_1[10] = 0x69;
 163              		.loc 1 79 0
 164 009c 40F20003 		movw	r3, #:lower16:ieee802154_security_vars
 165 00a0 C0F20003 		movt	r3, #:upper16:ieee802154_security_vars
 166 00a4 6922     		movs	r2, #105
 167 00a6 83F87424 		strb	r2, [r3, #1140]
  80:build/openmote-cc2538_armgcc/openstack/02a-MAClow/IEEE802154_security.c ****    ieee802154_security_vars.Key_1[11] = 0x6d;
 168              		.loc 1 80 0
 169 00aa 40F20003 		movw	r3, #:lower16:ieee802154_security_vars
 170 00ae C0F20003 		movt	r3, #:upper16:ieee802154_security_vars
 171 00b2 6D22     		movs	r2, #109
 172 00b4 83F87524 		strb	r2, [r3, #1141]
  81:build/openmote-cc2538_armgcc/openstack/02a-MAClow/IEEE802154_security.c ****    ieee802154_security_vars.Key_1[12] = 0x61;
 173              		.loc 1 81 0
 174 00b8 40F20003 		movw	r3, #:lower16:ieee802154_security_vars
 175 00bc C0F20003 		movt	r3, #:upper16:ieee802154_security_vars
 176 00c0 6122     		movs	r2, #97
 177 00c2 83F87624 		strb	r2, [r3, #1142]
  82:build/openmote-cc2538_armgcc/openstack/02a-MAClow/IEEE802154_security.c ****    ieee802154_security_vars.Key_1[13] = 0x6c;
 178              		.loc 1 82 0
 179 00c6 40F20003 		movw	r3, #:lower16:ieee802154_security_vars
 180 00ca C0F20003 		movt	r3, #:upper16:ieee802154_security_vars
 181 00ce 6C22     		movs	r2, #108
 182 00d0 83F87724 		strb	r2, [r3, #1143]
  83:build/openmote-cc2538_armgcc/openstack/02a-MAClow/IEEE802154_security.c ****    ieee802154_security_vars.Key_1[14] = 0x31;
 183              		.loc 1 83 0
 184 00d4 40F20003 		movw	r3, #:lower16:ieee802154_security_vars
 185 00d8 C0F20003 		movt	r3, #:upper16:ieee802154_security_vars
 186 00dc 3122     		movs	r2, #49
 187 00de 83F87824 		strb	r2, [r3, #1144]
  84:build/openmote-cc2538_armgcc/openstack/02a-MAClow/IEEE802154_security.c ****    ieee802154_security_vars.Key_1[15] = 0x35;
 188              		.loc 1 84 0
 189 00e2 40F20003 		movw	r3, #:lower16:ieee802154_security_vars
 190 00e6 C0F20003 		movt	r3, #:upper16:ieee802154_security_vars
 191 00ea 3522     		movs	r2, #53
 192 00ec 83F87924 		strb	r2, [r3, #1145]
  85:build/openmote-cc2538_armgcc/openstack/02a-MAClow/IEEE802154_security.c **** 
  86:build/openmote-cc2538_armgcc/openstack/02a-MAClow/IEEE802154_security.c ****    //Initialization of the MAC Security Level Table
  87:build/openmote-cc2538_armgcc/openstack/02a-MAClow/IEEE802154_security.c ****    for (i = 0; i < IEEE154_TYPE_UNDEFINED; i++) { // iterate through all frame types
 193              		.loc 1 87 0
 194 00f0 0023     		movs	r3, #0
 195 00f2 FB71     		strb	r3, [r7, #7]
 196 00f4 9FE0     		b	.L2
 197              	.L5:
  88:build/openmote-cc2538_armgcc/openstack/02a-MAClow/IEEE802154_security.c ****       ieee802154_security_vars.MacSecurityLevelTable.SecurityDescriptorEntry[i].FrameType = i;
 198              		.loc 1 88 0
 199 00f6 F979     		ldrb	r1, [r7, #7]	@ zero_extendqisi2
 200 00f8 40F20002 		movw	r2, #:lower16:ieee802154_security_vars
 201 00fc C0F20002 		movt	r2, #:upper16:ieee802154_security_vars
 202 0100 0B46     		mov	r3, r1
 203 0102 9B00     		lsls	r3, r3, #2
 204 0104 0B44     		add	r3, r3, r1
 205 0106 5B00     		lsls	r3, r3, #1
 206 0108 0B44     		add	r3, r3, r1
 207 010a 1344     		add	r3, r3, r2
 208 010c 03F58663 		add	r3, r3, #1072
 209 0110 FA79     		ldrb	r2, [r7, #7]
 210 0112 DA70     		strb	r2, [r3, #3]
  89:build/openmote-cc2538_armgcc/openstack/02a-MAClow/IEEE802154_security.c ****       ieee802154_security_vars.MacSecurityLevelTable.SecurityDescriptorEntry[i].CommandFrameIdentif
 211              		.loc 1 89 0
 212 0114 F979     		ldrb	r1, [r7, #7]	@ zero_extendqisi2
 213 0116 40F20002 		movw	r2, #:lower16:ieee802154_security_vars
 214 011a C0F20002 		movt	r2, #:upper16:ieee802154_security_vars
 215 011e 0B46     		mov	r3, r1
 216 0120 9B00     		lsls	r3, r3, #2
 217 0122 0B44     		add	r3, r3, r1
 218 0124 5B00     		lsls	r3, r3, #1
 219 0126 0B44     		add	r3, r3, r1
 220 0128 1344     		add	r3, r3, r2
 221 012a 03F58663 		add	r3, r3, #1072
 222 012e 0022     		movs	r2, #0
 223 0130 1A71     		strb	r2, [r3, #4]
  90:build/openmote-cc2538_armgcc/openstack/02a-MAClow/IEEE802154_security.c ****       ieee802154_security_vars.MacSecurityLevelTable.SecurityDescriptorEntry[i].DeviceOverrideSecur
 224              		.loc 1 90 0
 225 0132 F979     		ldrb	r1, [r7, #7]	@ zero_extendqisi2
 226 0134 40F20002 		movw	r2, #:lower16:ieee802154_security_vars
 227 0138 C0F20002 		movt	r2, #:upper16:ieee802154_security_vars
 228 013c 0B46     		mov	r3, r1
 229 013e 9B00     		lsls	r3, r3, #2
 230 0140 0B44     		add	r3, r3, r1
 231 0142 5B00     		lsls	r3, r3, #1
 232 0144 0B44     		add	r3, r3, r1
 233 0146 1344     		add	r3, r3, r2
 234 0148 03F58663 		add	r3, r3, #1072
 235 014c 0022     		movs	r2, #0
 236 014e 9A71     		strb	r2, [r3, #6]
  91:build/openmote-cc2538_armgcc/openstack/02a-MAClow/IEEE802154_security.c ****       //list of allowed security levels
  92:build/openmote-cc2538_armgcc/openstack/02a-MAClow/IEEE802154_security.c ****       if (i == IEEE154_TYPE_BEACON){   // beacons can only be authenticated but not encrypted
 237              		.loc 1 92 0
 238 0150 FB79     		ldrb	r3, [r7, #7]	@ zero_extendqisi2
 239 0152 002B     		cmp	r3, #0
 240 0154 30D1     		bne	.L3
  93:build/openmote-cc2538_armgcc/openstack/02a-MAClow/IEEE802154_security.c ****          ieee802154_security_vars.MacSecurityLevelTable.SecurityDescriptorEntry[i].AllowedSecurityL
 241              		.loc 1 93 0
 242 0156 F979     		ldrb	r1, [r7, #7]	@ zero_extendqisi2
 243 0158 40F20002 		movw	r2, #:lower16:ieee802154_security_vars
 244 015c C0F20002 		movt	r2, #:upper16:ieee802154_security_vars
 245 0160 0B46     		mov	r3, r1
 246 0162 9B00     		lsls	r3, r3, #2
 247 0164 0B44     		add	r3, r3, r1
 248 0166 5B00     		lsls	r3, r3, #1
 249 0168 0B44     		add	r3, r3, r1
 250 016a 1344     		add	r3, r3, r2
 251 016c 03F58663 		add	r3, r3, #1072
 252 0170 0122     		movs	r2, #1
 253 0172 DA71     		strb	r2, [r3, #7]
  94:build/openmote-cc2538_armgcc/openstack/02a-MAClow/IEEE802154_security.c ****          ieee802154_security_vars.MacSecurityLevelTable.SecurityDescriptorEntry[i].AllowedSecurityL
 254              		.loc 1 94 0
 255 0174 F979     		ldrb	r1, [r7, #7]	@ zero_extendqisi2
 256 0176 40F20002 		movw	r2, #:lower16:ieee802154_security_vars
 257 017a C0F20002 		movt	r2, #:upper16:ieee802154_security_vars
 258 017e 0B46     		mov	r3, r1
 259 0180 9B00     		lsls	r3, r3, #2
 260 0182 0B44     		add	r3, r3, r1
 261 0184 5B00     		lsls	r3, r3, #1
 262 0186 0B44     		add	r3, r3, r1
 263 0188 1344     		add	r3, r3, r2
 264 018a 03F23143 		addw	r3, r3, #1073
 265 018e 0222     		movs	r2, #2
 266 0190 DA71     		strb	r2, [r3, #7]
  95:build/openmote-cc2538_armgcc/openstack/02a-MAClow/IEEE802154_security.c ****          ieee802154_security_vars.MacSecurityLevelTable.SecurityDescriptorEntry[i].AllowedSecurityL
 267              		.loc 1 95 0
 268 0192 F979     		ldrb	r1, [r7, #7]	@ zero_extendqisi2
 269 0194 40F20002 		movw	r2, #:lower16:ieee802154_security_vars
 270 0198 C0F20002 		movt	r2, #:upper16:ieee802154_security_vars
 271 019c 0B46     		mov	r3, r1
 272 019e 9B00     		lsls	r3, r3, #2
 273 01a0 0B44     		add	r3, r3, r1
 274 01a2 5B00     		lsls	r3, r3, #1
 275 01a4 0B44     		add	r3, r3, r1
 276 01a6 1344     		add	r3, r3, r2
 277 01a8 03F23243 		addw	r3, r3, #1074
 278 01ac 0322     		movs	r2, #3
 279 01ae DA71     		strb	r2, [r3, #7]
 280 01b0 2FE0     		b	.L4
 281              	.L7:
 282 01b2 00BF     		.align	2
 283              	.L6:
 284 01b4 6A040000 		.word	ieee802154_security_vars+1130
 285              	.L3:
  96:build/openmote-cc2538_armgcc/openstack/02a-MAClow/IEEE802154_security.c ****       } else { // all other frame types are encrypted + authenticated
  97:build/openmote-cc2538_armgcc/openstack/02a-MAClow/IEEE802154_security.c ****          ieee802154_security_vars.MacSecurityLevelTable.SecurityDescriptorEntry[i].AllowedSecurityL
 286              		.loc 1 97 0
 287 01b8 F979     		ldrb	r1, [r7, #7]	@ zero_extendqisi2
 288 01ba 40F20002 		movw	r2, #:lower16:ieee802154_security_vars
 289 01be C0F20002 		movt	r2, #:upper16:ieee802154_security_vars
 290 01c2 0B46     		mov	r3, r1
 291 01c4 9B00     		lsls	r3, r3, #2
 292 01c6 0B44     		add	r3, r3, r1
 293 01c8 5B00     		lsls	r3, r3, #1
 294 01ca 0B44     		add	r3, r3, r1
 295 01cc 1344     		add	r3, r3, r2
 296 01ce 03F58663 		add	r3, r3, #1072
 297 01d2 0522     		movs	r2, #5
 298 01d4 DA71     		strb	r2, [r3, #7]
  98:build/openmote-cc2538_armgcc/openstack/02a-MAClow/IEEE802154_security.c ****          ieee802154_security_vars.MacSecurityLevelTable.SecurityDescriptorEntry[i].AllowedSecurityL
 299              		.loc 1 98 0
 300 01d6 F979     		ldrb	r1, [r7, #7]	@ zero_extendqisi2
 301 01d8 40F20002 		movw	r2, #:lower16:ieee802154_security_vars
 302 01dc C0F20002 		movt	r2, #:upper16:ieee802154_security_vars
 303 01e0 0B46     		mov	r3, r1
 304 01e2 9B00     		lsls	r3, r3, #2
 305 01e4 0B44     		add	r3, r3, r1
 306 01e6 5B00     		lsls	r3, r3, #1
 307 01e8 0B44     		add	r3, r3, r1
 308 01ea 1344     		add	r3, r3, r2
 309 01ec 03F23143 		addw	r3, r3, #1073
 310 01f0 0622     		movs	r2, #6
 311 01f2 DA71     		strb	r2, [r3, #7]
  99:build/openmote-cc2538_armgcc/openstack/02a-MAClow/IEEE802154_security.c ****          ieee802154_security_vars.MacSecurityLevelTable.SecurityDescriptorEntry[i].AllowedSecurityL
 312              		.loc 1 99 0
 313 01f4 F979     		ldrb	r1, [r7, #7]	@ zero_extendqisi2
 314 01f6 40F20002 		movw	r2, #:lower16:ieee802154_security_vars
 315 01fa C0F20002 		movt	r2, #:upper16:ieee802154_security_vars
 316 01fe 0B46     		mov	r3, r1
 317 0200 9B00     		lsls	r3, r3, #2
 318 0202 0B44     		add	r3, r3, r1
 319 0204 5B00     		lsls	r3, r3, #1
 320 0206 0B44     		add	r3, r3, r1
 321 0208 1344     		add	r3, r3, r2
 322 020a 03F23243 		addw	r3, r3, #1074
 323 020e 0722     		movs	r2, #7
 324 0210 DA71     		strb	r2, [r3, #7]
 325              	.L4:
 100:build/openmote-cc2538_armgcc/openstack/02a-MAClow/IEEE802154_security.c ****       }
 101:build/openmote-cc2538_armgcc/openstack/02a-MAClow/IEEE802154_security.c ****       ieee802154_security_vars.MacSecurityLevelTable.SecurityDescriptorEntry[i].SecurityMinimum = I
 326              		.loc 1 101 0
 327 0212 F979     		ldrb	r1, [r7, #7]	@ zero_extendqisi2
 328 0214 40F20002 		movw	r2, #:lower16:ieee802154_security_vars
 329 0218 C0F20002 		movt	r2, #:upper16:ieee802154_security_vars
 330 021c 0B46     		mov	r3, r1
 331 021e 9B00     		lsls	r3, r3, #2
 332 0220 0B44     		add	r3, r3, r1
 333 0222 5B00     		lsls	r3, r3, #1
 334 0224 0B44     		add	r3, r3, r1
 335 0226 1344     		add	r3, r3, r2
 336 0228 03F58663 		add	r3, r3, #1072
 337 022c 0522     		movs	r2, #5
 338 022e 5A71     		strb	r2, [r3, #5]
  87:build/openmote-cc2538_armgcc/openstack/02a-MAClow/IEEE802154_security.c ****       ieee802154_security_vars.MacSecurityLevelTable.SecurityDescriptorEntry[i].FrameType = i;
 339              		.loc 1 87 0
 340 0230 FB79     		ldrb	r3, [r7, #7]	@ zero_extendqisi2
 341 0232 0133     		adds	r3, r3, #1
 342 0234 FB71     		strb	r3, [r7, #7]
 343              	.L2:
  87:build/openmote-cc2538_armgcc/openstack/02a-MAClow/IEEE802154_security.c ****       ieee802154_security_vars.MacSecurityLevelTable.SecurityDescriptorEntry[i].FrameType = i;
 344              		.loc 1 87 0 is_stmt 0 discriminator 1
 345 0236 FB79     		ldrb	r3, [r7, #7]	@ zero_extendqisi2
 346 0238 042B     		cmp	r3, #4
 347 023a 7FF65CAF 		bls	.L5
 102:build/openmote-cc2538_armgcc/openstack/02a-MAClow/IEEE802154_security.c ****    }
 103:build/openmote-cc2538_armgcc/openstack/02a-MAClow/IEEE802154_security.c **** 
 104:build/openmote-cc2538_armgcc/openstack/02a-MAClow/IEEE802154_security.c ****    //Initialization of MAC KEY TABLE
 105:build/openmote-cc2538_armgcc/openstack/02a-MAClow/IEEE802154_security.c ****    memset(&ieee802154_security_vars.MacKeyTable,
 348              		.loc 1 105 0 is_stmt 1
 349 023e DE48     		ldr	r0, .L8
 350 0240 0021     		movs	r1, #0
 351 0242 4FF45272 		mov	r2, #840
 352 0246 FFF7FEFF 		bl	memset
 106:build/openmote-cc2538_armgcc/openstack/02a-MAClow/IEEE802154_security.c ****           0,
 107:build/openmote-cc2538_armgcc/openstack/02a-MAClow/IEEE802154_security.c ****           sizeof(m_macKeyTable));
 108:build/openmote-cc2538_armgcc/openstack/02a-MAClow/IEEE802154_security.c **** 
 109:build/openmote-cc2538_armgcc/openstack/02a-MAClow/IEEE802154_security.c ****    //Initialization of MAC DEVICE TABLE
 110:build/openmote-cc2538_armgcc/openstack/02a-MAClow/IEEE802154_security.c ****    memset(&ieee802154_security_vars.MacDeviceTable,
 353              		.loc 1 110 0
 354 024a DC48     		ldr	r0, .L8+4
 355 024c 0021     		movs	r1, #0
 356 024e CF22     		movs	r2, #207
 357 0250 FFF7FEFF 		bl	memset
 111:build/openmote-cc2538_armgcc/openstack/02a-MAClow/IEEE802154_security.c ****           0,
 112:build/openmote-cc2538_armgcc/openstack/02a-MAClow/IEEE802154_security.c ****           sizeof(m_macDeviceTable));
 113:build/openmote-cc2538_armgcc/openstack/02a-MAClow/IEEE802154_security.c **** 
 114:build/openmote-cc2538_armgcc/openstack/02a-MAClow/IEEE802154_security.c ****    //Initialization of Frame Counter
 115:build/openmote-cc2538_armgcc/openstack/02a-MAClow/IEEE802154_security.c ****    ieee802154_security_vars.m_macFrameCounterMode = 0x05; // For TSCH, we use implicit 5 byte Frame
 358              		.loc 1 115 0
 359 0254 40F20003 		movw	r3, #:lower16:ieee802154_security_vars
 360 0258 C0F20003 		movt	r3, #:upper16:ieee802154_security_vars
 361 025c 0522     		movs	r2, #5
 362 025e 5A71     		strb	r2, [r3, #5]
 116:build/openmote-cc2538_armgcc/openstack/02a-MAClow/IEEE802154_security.c **** 
 117:build/openmote-cc2538_armgcc/openstack/02a-MAClow/IEEE802154_security.c ****    //macDefaultKeySource - shared
 118:build/openmote-cc2538_armgcc/openstack/02a-MAClow/IEEE802154_security.c ****    ieee802154_security_vars.m_macDefaultKeySource.type = ADDR_64B;
 363              		.loc 1 118 0
 364 0260 40F20003 		movw	r3, #:lower16:ieee802154_security_vars
 365 0264 C0F20003 		movt	r3, #:upper16:ieee802154_security_vars
 366 0268 0222     		movs	r2, #2
 367 026a 5A72     		strb	r2, [r3, #9]
 119:build/openmote-cc2538_armgcc/openstack/02a-MAClow/IEEE802154_security.c ****    ieee802154_security_vars.m_macDefaultKeySource.addr_64b[0] = 0x14;
 368              		.loc 1 119 0
 369 026c 40F20003 		movw	r3, #:lower16:ieee802154_security_vars
 370 0270 C0F20003 		movt	r3, #:upper16:ieee802154_security_vars
 371 0274 1422     		movs	r2, #20
 372 0276 9A72     		strb	r2, [r3, #10]
 120:build/openmote-cc2538_armgcc/openstack/02a-MAClow/IEEE802154_security.c ****    ieee802154_security_vars.m_macDefaultKeySource.addr_64b[1] = 0x15;
 373              		.loc 1 120 0
 374 0278 40F20003 		movw	r3, #:lower16:ieee802154_security_vars
 375 027c C0F20003 		movt	r3, #:upper16:ieee802154_security_vars
 376 0280 1522     		movs	r2, #21
 377 0282 DA72     		strb	r2, [r3, #11]
 121:build/openmote-cc2538_armgcc/openstack/02a-MAClow/IEEE802154_security.c ****    ieee802154_security_vars.m_macDefaultKeySource.addr_64b[2] = 0x92;
 378              		.loc 1 121 0
 379 0284 40F20003 		movw	r3, #:lower16:ieee802154_security_vars
 380 0288 C0F20003 		movt	r3, #:upper16:ieee802154_security_vars
 381 028c 9222     		movs	r2, #146
 382 028e 1A73     		strb	r2, [r3, #12]
 122:build/openmote-cc2538_armgcc/openstack/02a-MAClow/IEEE802154_security.c ****    ieee802154_security_vars.m_macDefaultKeySource.addr_64b[3] = 0x00;
 383              		.loc 1 122 0
 384 0290 40F20003 		movw	r3, #:lower16:ieee802154_security_vars
 385 0294 C0F20003 		movt	r3, #:upper16:ieee802154_security_vars
 386 0298 0022     		movs	r2, #0
 387 029a 5A73     		strb	r2, [r3, #13]
 123:build/openmote-cc2538_armgcc/openstack/02a-MAClow/IEEE802154_security.c ****    ieee802154_security_vars.m_macDefaultKeySource.addr_64b[4] = 0x00;
 388              		.loc 1 123 0
 389 029c 40F20003 		movw	r3, #:lower16:ieee802154_security_vars
 390 02a0 C0F20003 		movt	r3, #:upper16:ieee802154_security_vars
 391 02a4 0022     		movs	r2, #0
 392 02a6 9A73     		strb	r2, [r3, #14]
 124:build/openmote-cc2538_armgcc/openstack/02a-MAClow/IEEE802154_security.c ****    ieee802154_security_vars.m_macDefaultKeySource.addr_64b[5] = 0x15;
 393              		.loc 1 124 0
 394 02a8 40F20003 		movw	r3, #:lower16:ieee802154_security_vars
 395 02ac C0F20003 		movt	r3, #:upper16:ieee802154_security_vars
 396 02b0 1522     		movs	r2, #21
 397 02b2 DA73     		strb	r2, [r3, #15]
 125:build/openmote-cc2538_armgcc/openstack/02a-MAClow/IEEE802154_security.c ****    ieee802154_security_vars.m_macDefaultKeySource.addr_64b[6] = 0x16;
 398              		.loc 1 125 0
 399 02b4 40F20003 		movw	r3, #:lower16:ieee802154_security_vars
 400 02b8 C0F20003 		movt	r3, #:upper16:ieee802154_security_vars
 401 02bc 1622     		movs	r2, #22
 402 02be 1A74     		strb	r2, [r3, #16]
 126:build/openmote-cc2538_armgcc/openstack/02a-MAClow/IEEE802154_security.c ****    ieee802154_security_vars.m_macDefaultKeySource.addr_64b[7] = 0x5a;
 403              		.loc 1 126 0
 404 02c0 40F20003 		movw	r3, #:lower16:ieee802154_security_vars
 405 02c4 C0F20003 		movt	r3, #:upper16:ieee802154_security_vars
 406 02c8 5A22     		movs	r2, #90
 407 02ca 5A74     		strb	r2, [r3, #17]
 127:build/openmote-cc2538_armgcc/openstack/02a-MAClow/IEEE802154_security.c **** 
 128:build/openmote-cc2538_armgcc/openstack/02a-MAClow/IEEE802154_security.c ****    //store the key and related attributes
 129:build/openmote-cc2538_armgcc/openstack/02a-MAClow/IEEE802154_security.c ****    //Creation of the KeyDescriptor
 130:build/openmote-cc2538_armgcc/openstack/02a-MAClow/IEEE802154_security.c ****    ieee802154_security_vars.MacKeyTable.KeyDescriptorElement[0].KeyIdLookupList.KeyIdMode = IEEE154
 408              		.loc 1 130 0
 409 02cc 40F20003 		movw	r3, #:lower16:ieee802154_security_vars
 410 02d0 C0F20003 		movt	r3, #:upper16:ieee802154_security_vars
 411 02d4 0122     		movs	r2, #1
 412 02d6 1A77     		strb	r2, [r3, #28]
 131:build/openmote-cc2538_armgcc/openstack/02a-MAClow/IEEE802154_security.c ****    ieee802154_security_vars.MacKeyTable.KeyDescriptorElement[0].KeyIdLookupList.KeyIndex = IEEE8021
 413              		.loc 1 131 0
 414 02d8 40F20003 		movw	r3, #:lower16:ieee802154_security_vars
 415 02dc C0F20003 		movt	r3, #:upper16:ieee802154_security_vars
 416 02e0 0022     		movs	r2, #0
 417 02e2 5A77     		strb	r2, [r3, #29]
 132:build/openmote-cc2538_armgcc/openstack/02a-MAClow/IEEE802154_security.c ****    ieee802154_security_vars.MacKeyTable.KeyDescriptorElement[0].KeyIdLookupList.KeySource.type = AD
 418              		.loc 1 132 0
 419 02e4 40F20003 		movw	r3, #:lower16:ieee802154_security_vars
 420 02e8 C0F20003 		movt	r3, #:upper16:ieee802154_security_vars
 421 02ec 0222     		movs	r2, #2
 422 02ee 9A77     		strb	r2, [r3, #30]
 133:build/openmote-cc2538_armgcc/openstack/02a-MAClow/IEEE802154_security.c ****    ieee802154_security_vars.MacKeyTable.KeyDescriptorElement[0].KeyIdLookupList.KeySource = ieee802
 423              		.loc 1 133 0
 424 02f0 40F20003 		movw	r3, #:lower16:ieee802154_security_vars
 425 02f4 C0F20003 		movt	r3, #:upper16:ieee802154_security_vars
 426 02f8 40F20002 		movw	r2, #:lower16:ieee802154_security_vars
 427 02fc C0F20002 		movt	r2, #:upper16:ieee802154_security_vars
 428 0300 1E33     		adds	r3, r3, #30
 429 0302 0932     		adds	r2, r2, #9
 430 0304 1568     		ldr	r5, [r2]	@ unaligned
 431 0306 5468     		ldr	r4, [r2, #4]	@ unaligned
 432 0308 9068     		ldr	r0, [r2, #8]	@ unaligned
 433 030a D168     		ldr	r1, [r2, #12]	@ unaligned
 434 030c 1D60     		str	r5, [r3]	@ unaligned
 435 030e 5C60     		str	r4, [r3, #4]	@ unaligned
 436 0310 9860     		str	r0, [r3, #8]	@ unaligned
 437 0312 D960     		str	r1, [r3, #12]	@ unaligned
 438 0314 127C     		ldrb	r2, [r2, #16]
 439 0316 1A74     		strb	r2, [r3, #16]
 134:build/openmote-cc2538_armgcc/openstack/02a-MAClow/IEEE802154_security.c **** 
 135:build/openmote-cc2538_armgcc/openstack/02a-MAClow/IEEE802154_security.c ****    ieee802154_security_vars.MacKeyTable.KeyDescriptorElement[0].KeyIdLookupList.Address = ieee80215
 440              		.loc 1 135 0
 441 0318 40F20002 		movw	r2, #:lower16:ieee802154_security_vars
 442 031c C0F20002 		movt	r2, #:upper16:ieee802154_security_vars
 443 0320 40F20003 		movw	r3, #:lower16:ieee802154_security_vars
 444 0324 C0F20003 		movt	r3, #:upper16:ieee802154_security_vars
 445 0328 02F14004 		add	r4, r2, #64
 446 032c 03F10905 		add	r5, r3, #9
 447 0330 2868     		ldr	r0, [r5]	@ unaligned
 448 0332 6968     		ldr	r1, [r5, #4]	@ unaligned
 449 0334 AA68     		ldr	r2, [r5, #8]	@ unaligned
 450 0336 EB68     		ldr	r3, [r5, #12]	@ unaligned
 451 0338 0FC4     		stmia	r4!, {r0, r1, r2, r3}
 452 033a 2B7C     		ldrb	r3, [r5, #16]
 453 033c 2370     		strb	r3, [r4]
 136:build/openmote-cc2538_armgcc/openstack/02a-MAClow/IEEE802154_security.c ****    ieee802154_security_vars.MacKeyTable.KeyDescriptorElement[0].KeyIdLookupList.PANId = *(idmanager
 454              		.loc 1 136 0
 455 033e 0420     		movs	r0, #4
 456 0340 FFF7FEFF 		bl	idmanager_getMyID
 457 0344 0246     		mov	r2, r0
 458 0346 40F20003 		movw	r3, #:lower16:ieee802154_security_vars
 459 034a C0F20003 		movt	r3, #:upper16:ieee802154_security_vars
 460 034e 2F33     		adds	r3, r3, #47
 461 0350 1568     		ldr	r5, [r2]	@ unaligned
 462 0352 5468     		ldr	r4, [r2, #4]	@ unaligned
 463 0354 9068     		ldr	r0, [r2, #8]	@ unaligned
 464 0356 D168     		ldr	r1, [r2, #12]	@ unaligned
 465 0358 1D60     		str	r5, [r3]	@ unaligned
 466 035a 5C60     		str	r4, [r3, #4]	@ unaligned
 467 035c 9860     		str	r0, [r3, #8]	@ unaligned
 468 035e D960     		str	r1, [r3, #12]	@ unaligned
 469 0360 127C     		ldrb	r2, [r2, #16]
 470 0362 1A74     		strb	r2, [r3, #16]
 137:build/openmote-cc2538_armgcc/openstack/02a-MAClow/IEEE802154_security.c ****    ieee802154_security_vars.MacKeyTable.KeyDescriptorElement[0].KeyUsageList[0].FrameType = IEEE154
 471              		.loc 1 137 0
 472 0364 40F20003 		movw	r3, #:lower16:ieee802154_security_vars
 473 0368 C0F20003 		movt	r3, #:upper16:ieee802154_security_vars
 474 036c 0022     		movs	r2, #0
 475 036e 83F85820 		strb	r2, [r3, #88]
 138:build/openmote-cc2538_armgcc/openstack/02a-MAClow/IEEE802154_security.c **** 
 139:build/openmote-cc2538_armgcc/openstack/02a-MAClow/IEEE802154_security.c ****    memcpy(&ieee802154_security_vars.MacKeyTable.KeyDescriptorElement[0].key[0],
 476              		.loc 1 139 0
 477 0372 9348     		ldr	r0, .L8+8
 478 0374 9349     		ldr	r1, .L8+12
 479 0376 1022     		movs	r2, #16
 480 0378 FFF7FEFF 		bl	memcpy
 140:build/openmote-cc2538_armgcc/openstack/02a-MAClow/IEEE802154_security.c ****           &ieee802154_security_vars.Key_1[0],
 141:build/openmote-cc2538_armgcc/openstack/02a-MAClow/IEEE802154_security.c ****           16);
 142:build/openmote-cc2538_armgcc/openstack/02a-MAClow/IEEE802154_security.c **** 
 143:build/openmote-cc2538_armgcc/openstack/02a-MAClow/IEEE802154_security.c ****    ieee802154_security_vars.MacDeviceTable.DeviceDescriptorEntry[0].deviceAddress = ieee802154_secu
 481              		.loc 1 143 0
 482 037c 40F20002 		movw	r2, #:lower16:ieee802154_security_vars
 483 0380 C0F20002 		movt	r2, #:upper16:ieee802154_security_vars
 484 0384 40F20003 		movw	r3, #:lower16:ieee802154_security_vars
 485 0388 C0F20003 		movt	r3, #:upper16:ieee802154_security_vars
 486 038c 02F55974 		add	r4, r2, #868
 487 0390 03F10905 		add	r5, r3, #9
 488 0394 2868     		ldr	r0, [r5]	@ unaligned
 489 0396 6968     		ldr	r1, [r5, #4]	@ unaligned
 490 0398 AA68     		ldr	r2, [r5, #8]	@ unaligned
 491 039a EB68     		ldr	r3, [r5, #12]	@ unaligned
 492 039c 0FC4     		stmia	r4!, {r0, r1, r2, r3}
 493 039e 2B7C     		ldrb	r3, [r5, #16]
 494 03a0 2370     		strb	r3, [r4]
 144:build/openmote-cc2538_armgcc/openstack/02a-MAClow/IEEE802154_security.c ****    ieee802154_security_vars.MacKeyTable.KeyDescriptorElement[0].DeviceTable = &ieee802154_security_
 495              		.loc 1 144 0
 496 03a2 40F20003 		movw	r3, #:lower16:ieee802154_security_vars
 497 03a6 C0F20003 		movt	r3, #:upper16:ieee802154_security_vars
 498 03aa 844A     		ldr	r2, .L8+4
 499 03ac 5A65     		str	r2, [r3, #84]
 145:build/openmote-cc2538_armgcc/openstack/02a-MAClow/IEEE802154_security.c **** 
 146:build/openmote-cc2538_armgcc/openstack/02a-MAClow/IEEE802154_security.c ****    //KEY 2: 'deadbeeffacecafedeadbeeffacecafe'
 147:build/openmote-cc2538_armgcc/openstack/02a-MAClow/IEEE802154_security.c ****    memset(&ieee802154_security_vars.Key_2[0], 0, 16);
 500              		.loc 1 147 0
 501 03ae 8648     		ldr	r0, .L8+16
 502 03b0 0021     		movs	r1, #0
 503 03b2 1022     		movs	r2, #16
 504 03b4 FFF7FEFF 		bl	memset
 148:build/openmote-cc2538_armgcc/openstack/02a-MAClow/IEEE802154_security.c ****    ieee802154_security_vars.Key_2[0] = 0xde;
 505              		.loc 1 148 0
 506 03b8 40F20003 		movw	r3, #:lower16:ieee802154_security_vars
 507 03bc C0F20003 		movt	r3, #:upper16:ieee802154_security_vars
 508 03c0 DE22     		movs	r2, #222
 509 03c2 83F87A24 		strb	r2, [r3, #1146]
 149:build/openmote-cc2538_armgcc/openstack/02a-MAClow/IEEE802154_security.c ****    ieee802154_security_vars.Key_2[1] = 0xad;
 510              		.loc 1 149 0
 511 03c6 40F20003 		movw	r3, #:lower16:ieee802154_security_vars
 512 03ca C0F20003 		movt	r3, #:upper16:ieee802154_security_vars
 513 03ce AD22     		movs	r2, #173
 514 03d0 83F87B24 		strb	r2, [r3, #1147]
 150:build/openmote-cc2538_armgcc/openstack/02a-MAClow/IEEE802154_security.c ****    ieee802154_security_vars.Key_2[2] = 0xbe;
 515              		.loc 1 150 0
 516 03d4 40F20003 		movw	r3, #:lower16:ieee802154_security_vars
 517 03d8 C0F20003 		movt	r3, #:upper16:ieee802154_security_vars
 518 03dc BE22     		movs	r2, #190
 519 03de 83F87C24 		strb	r2, [r3, #1148]
 151:build/openmote-cc2538_armgcc/openstack/02a-MAClow/IEEE802154_security.c ****    ieee802154_security_vars.Key_2[3] = 0xef;
 520              		.loc 1 151 0
 521 03e2 40F20003 		movw	r3, #:lower16:ieee802154_security_vars
 522 03e6 C0F20003 		movt	r3, #:upper16:ieee802154_security_vars
 523 03ea EF22     		movs	r2, #239
 524 03ec 83F87D24 		strb	r2, [r3, #1149]
 152:build/openmote-cc2538_armgcc/openstack/02a-MAClow/IEEE802154_security.c ****    ieee802154_security_vars.Key_2[4] = 0xfa;
 525              		.loc 1 152 0
 526 03f0 40F20003 		movw	r3, #:lower16:ieee802154_security_vars
 527 03f4 C0F20003 		movt	r3, #:upper16:ieee802154_security_vars
 528 03f8 FA22     		movs	r2, #250
 529 03fa 83F87E24 		strb	r2, [r3, #1150]
 153:build/openmote-cc2538_armgcc/openstack/02a-MAClow/IEEE802154_security.c ****    ieee802154_security_vars.Key_2[5] = 0xce;
 530              		.loc 1 153 0
 531 03fe 40F20003 		movw	r3, #:lower16:ieee802154_security_vars
 532 0402 C0F20003 		movt	r3, #:upper16:ieee802154_security_vars
 533 0406 CE22     		movs	r2, #206
 534 0408 83F87F24 		strb	r2, [r3, #1151]
 154:build/openmote-cc2538_armgcc/openstack/02a-MAClow/IEEE802154_security.c ****    ieee802154_security_vars.Key_2[6] = 0xca;
 535              		.loc 1 154 0
 536 040c 40F20003 		movw	r3, #:lower16:ieee802154_security_vars
 537 0410 C0F20003 		movt	r3, #:upper16:ieee802154_security_vars
 538 0414 CA22     		movs	r2, #202
 539 0416 83F88024 		strb	r2, [r3, #1152]
 155:build/openmote-cc2538_armgcc/openstack/02a-MAClow/IEEE802154_security.c ****    ieee802154_security_vars.Key_2[7] = 0xfe;
 540              		.loc 1 155 0
 541 041a 40F20003 		movw	r3, #:lower16:ieee802154_security_vars
 542 041e C0F20003 		movt	r3, #:upper16:ieee802154_security_vars
 543 0422 FE22     		movs	r2, #254
 544 0424 83F88124 		strb	r2, [r3, #1153]
 156:build/openmote-cc2538_armgcc/openstack/02a-MAClow/IEEE802154_security.c ****    ieee802154_security_vars.Key_2[8] = 0xde;
 545              		.loc 1 156 0
 546 0428 40F20003 		movw	r3, #:lower16:ieee802154_security_vars
 547 042c C0F20003 		movt	r3, #:upper16:ieee802154_security_vars
 548 0430 DE22     		movs	r2, #222
 549 0432 83F88224 		strb	r2, [r3, #1154]
 157:build/openmote-cc2538_armgcc/openstack/02a-MAClow/IEEE802154_security.c ****    ieee802154_security_vars.Key_2[9] = 0xad;
 550              		.loc 1 157 0
 551 0436 40F20003 		movw	r3, #:lower16:ieee802154_security_vars
 552 043a C0F20003 		movt	r3, #:upper16:ieee802154_security_vars
 553 043e AD22     		movs	r2, #173
 554 0440 83F88324 		strb	r2, [r3, #1155]
 158:build/openmote-cc2538_armgcc/openstack/02a-MAClow/IEEE802154_security.c ****    ieee802154_security_vars.Key_2[10] = 0xbe;
 555              		.loc 1 158 0
 556 0444 40F20003 		movw	r3, #:lower16:ieee802154_security_vars
 557 0448 C0F20003 		movt	r3, #:upper16:ieee802154_security_vars
 558 044c BE22     		movs	r2, #190
 559 044e 83F88424 		strb	r2, [r3, #1156]
 159:build/openmote-cc2538_armgcc/openstack/02a-MAClow/IEEE802154_security.c ****    ieee802154_security_vars.Key_2[11] = 0xef;
 560              		.loc 1 159 0
 561 0452 40F20003 		movw	r3, #:lower16:ieee802154_security_vars
 562 0456 C0F20003 		movt	r3, #:upper16:ieee802154_security_vars
 563 045a EF22     		movs	r2, #239
 564 045c 83F88524 		strb	r2, [r3, #1157]
 160:build/openmote-cc2538_armgcc/openstack/02a-MAClow/IEEE802154_security.c ****    ieee802154_security_vars.Key_2[12] = 0xfa;
 565              		.loc 1 160 0
 566 0460 40F20003 		movw	r3, #:lower16:ieee802154_security_vars
 567 0464 C0F20003 		movt	r3, #:upper16:ieee802154_security_vars
 568 0468 FA22     		movs	r2, #250
 569 046a 83F88624 		strb	r2, [r3, #1158]
 161:build/openmote-cc2538_armgcc/openstack/02a-MAClow/IEEE802154_security.c ****    ieee802154_security_vars.Key_2[13] = 0xce;
 570              		.loc 1 161 0
 571 046e 40F20003 		movw	r3, #:lower16:ieee802154_security_vars
 572 0472 C0F20003 		movt	r3, #:upper16:ieee802154_security_vars
 573 0476 CE22     		movs	r2, #206
 574 0478 83F88724 		strb	r2, [r3, #1159]
 162:build/openmote-cc2538_armgcc/openstack/02a-MAClow/IEEE802154_security.c ****    ieee802154_security_vars.Key_2[14] = 0xca;
 575              		.loc 1 162 0
 576 047c 40F20003 		movw	r3, #:lower16:ieee802154_security_vars
 577 0480 C0F20003 		movt	r3, #:upper16:ieee802154_security_vars
 578 0484 CA22     		movs	r2, #202
 579 0486 83F88824 		strb	r2, [r3, #1160]
 163:build/openmote-cc2538_armgcc/openstack/02a-MAClow/IEEE802154_security.c ****    ieee802154_security_vars.Key_2[15] = 0xfe;
 580              		.loc 1 163 0
 581 048a 40F20003 		movw	r3, #:lower16:ieee802154_security_vars
 582 048e C0F20003 		movt	r3, #:upper16:ieee802154_security_vars
 583 0492 FE22     		movs	r2, #254
 584 0494 83F88924 		strb	r2, [r3, #1161]
 164:build/openmote-cc2538_armgcc/openstack/02a-MAClow/IEEE802154_security.c **** 
 165:build/openmote-cc2538_armgcc/openstack/02a-MAClow/IEEE802154_security.c ****    //store the key 2 and related attributes
 166:build/openmote-cc2538_armgcc/openstack/02a-MAClow/IEEE802154_security.c ****    //Creation of the KeyDescriptor - Key 2 should be used to encrypt and authenticate data, command
 167:build/openmote-cc2538_armgcc/openstack/02a-MAClow/IEEE802154_security.c ****    ieee802154_security_vars.MacKeyTable.KeyDescriptorElement[1].KeyIdLookupList.KeyIdMode = IEEE154
 585              		.loc 1 167 0
 586 0498 40F20003 		movw	r3, #:lower16:ieee802154_security_vars
 587 049c C0F20003 		movt	r3, #:upper16:ieee802154_security_vars
 588 04a0 0122     		movs	r2, #1
 589 04a2 83F87020 		strb	r2, [r3, #112]
 168:build/openmote-cc2538_armgcc/openstack/02a-MAClow/IEEE802154_security.c ****    ieee802154_security_vars.MacKeyTable.KeyDescriptorElement[1].KeyIdLookupList.KeyIndex = IEEE8021
 590              		.loc 1 168 0
 591 04a6 40F20003 		movw	r3, #:lower16:ieee802154_security_vars
 592 04aa C0F20003 		movt	r3, #:upper16:ieee802154_security_vars
 593 04ae 0022     		movs	r2, #0
 594 04b0 83F87120 		strb	r2, [r3, #113]
 169:build/openmote-cc2538_armgcc/openstack/02a-MAClow/IEEE802154_security.c ****    ieee802154_security_vars.MacKeyTable.KeyDescriptorElement[1].KeyIdLookupList.KeySource.type = AD
 595              		.loc 1 169 0
 596 04b4 40F20003 		movw	r3, #:lower16:ieee802154_security_vars
 597 04b8 C0F20003 		movt	r3, #:upper16:ieee802154_security_vars
 598 04bc 0222     		movs	r2, #2
 599 04be 83F87220 		strb	r2, [r3, #114]
 170:build/openmote-cc2538_armgcc/openstack/02a-MAClow/IEEE802154_security.c ****    ieee802154_security_vars.MacKeyTable.KeyDescriptorElement[1].KeyIdLookupList.KeySource = ieee802
 600              		.loc 1 170 0
 601 04c2 40F20003 		movw	r3, #:lower16:ieee802154_security_vars
 602 04c6 C0F20003 		movt	r3, #:upper16:ieee802154_security_vars
 603 04ca 40F20002 		movw	r2, #:lower16:ieee802154_security_vars
 604 04ce C0F20002 		movt	r2, #:upper16:ieee802154_security_vars
 605 04d2 7233     		adds	r3, r3, #114
 606 04d4 0932     		adds	r2, r2, #9
 607 04d6 1568     		ldr	r5, [r2]	@ unaligned
 608 04d8 5468     		ldr	r4, [r2, #4]	@ unaligned
 609 04da 9068     		ldr	r0, [r2, #8]	@ unaligned
 610 04dc D168     		ldr	r1, [r2, #12]	@ unaligned
 611 04de 1D60     		str	r5, [r3]	@ unaligned
 612 04e0 5C60     		str	r4, [r3, #4]	@ unaligned
 613 04e2 9860     		str	r0, [r3, #8]	@ unaligned
 614 04e4 D960     		str	r1, [r3, #12]	@ unaligned
 615 04e6 127C     		ldrb	r2, [r2, #16]
 616 04e8 1A74     		strb	r2, [r3, #16]
 171:build/openmote-cc2538_armgcc/openstack/02a-MAClow/IEEE802154_security.c **** 
 172:build/openmote-cc2538_armgcc/openstack/02a-MAClow/IEEE802154_security.c ****    ieee802154_security_vars.MacKeyTable.KeyDescriptorElement[1].KeyIdLookupList.Address = ieee80215
 617              		.loc 1 172 0
 618 04ea 40F20002 		movw	r2, #:lower16:ieee802154_security_vars
 619 04ee C0F20002 		movt	r2, #:upper16:ieee802154_security_vars
 620 04f2 40F20003 		movw	r3, #:lower16:ieee802154_security_vars
 621 04f6 C0F20003 		movt	r3, #:upper16:ieee802154_security_vars
 622 04fa 02F19404 		add	r4, r2, #148
 623 04fe 03F10905 		add	r5, r3, #9
 624 0502 2868     		ldr	r0, [r5]	@ unaligned
 625 0504 6968     		ldr	r1, [r5, #4]	@ unaligned
 626 0506 AA68     		ldr	r2, [r5, #8]	@ unaligned
 627 0508 EB68     		ldr	r3, [r5, #12]	@ unaligned
 628 050a 0FC4     		stmia	r4!, {r0, r1, r2, r3}
 629 050c 2B7C     		ldrb	r3, [r5, #16]
 630 050e 2370     		strb	r3, [r4]
 173:build/openmote-cc2538_armgcc/openstack/02a-MAClow/IEEE802154_security.c ****    ieee802154_security_vars.MacKeyTable.KeyDescriptorElement[1].KeyIdLookupList.PANId = *(idmanager
 631              		.loc 1 173 0
 632 0510 0420     		movs	r0, #4
 633 0512 FFF7FEFF 		bl	idmanager_getMyID
 634 0516 0246     		mov	r2, r0
 635 0518 40F20003 		movw	r3, #:lower16:ieee802154_security_vars
 636 051c C0F20003 		movt	r3, #:upper16:ieee802154_security_vars
 637 0520 8333     		adds	r3, r3, #131
 638 0522 1568     		ldr	r5, [r2]	@ unaligned
 639 0524 5468     		ldr	r4, [r2, #4]	@ unaligned
 640 0526 9068     		ldr	r0, [r2, #8]	@ unaligned
 641 0528 D168     		ldr	r1, [r2, #12]	@ unaligned
 642 052a 1D60     		str	r5, [r3]	@ unaligned
 643 052c 5C60     		str	r4, [r3, #4]	@ unaligned
 644 052e 9860     		str	r0, [r3, #8]	@ unaligned
 645 0530 D960     		str	r1, [r3, #12]	@ unaligned
 646 0532 127C     		ldrb	r2, [r2, #16]
 647 0534 1A74     		strb	r2, [r3, #16]
 174:build/openmote-cc2538_armgcc/openstack/02a-MAClow/IEEE802154_security.c ****    ieee802154_security_vars.MacKeyTable.KeyDescriptorElement[1].KeyUsageList[0].FrameType = IEEE154
 648              		.loc 1 174 0
 649 0536 40F20003 		movw	r3, #:lower16:ieee802154_security_vars
 650 053a C0F20003 		movt	r3, #:upper16:ieee802154_security_vars
 651 053e 0122     		movs	r2, #1
 652 0540 83F8AC20 		strb	r2, [r3, #172]
 175:build/openmote-cc2538_armgcc/openstack/02a-MAClow/IEEE802154_security.c ****    ieee802154_security_vars.MacKeyTable.KeyDescriptorElement[1].KeyUsageList[1].FrameType = IEEE154
 653              		.loc 1 175 0
 654 0544 40F20003 		movw	r3, #:lower16:ieee802154_security_vars
 655 0548 C0F20003 		movt	r3, #:upper16:ieee802154_security_vars
 656 054c 0222     		movs	r2, #2
 657 054e 83F8AE20 		strb	r2, [r3, #174]
 176:build/openmote-cc2538_armgcc/openstack/02a-MAClow/IEEE802154_security.c ****    ieee802154_security_vars.MacKeyTable.KeyDescriptorElement[1].KeyUsageList[2].FrameType = IEEE154
 658              		.loc 1 176 0
 659 0552 40F20003 		movw	r3, #:lower16:ieee802154_security_vars
 660 0556 C0F20003 		movt	r3, #:upper16:ieee802154_security_vars
 661 055a 0322     		movs	r2, #3
 662 055c 83F8B020 		strb	r2, [r3, #176]
 177:build/openmote-cc2538_armgcc/openstack/02a-MAClow/IEEE802154_security.c **** 
 178:build/openmote-cc2538_armgcc/openstack/02a-MAClow/IEEE802154_security.c ****    memcpy(&ieee802154_security_vars.MacKeyTable.KeyDescriptorElement[1].key[0],
 663              		.loc 1 178 0
 664 0560 1A48     		ldr	r0, .L8+20
 665 0562 1949     		ldr	r1, .L8+16
 666 0564 1022     		movs	r2, #16
 667 0566 FFF7FEFF 		bl	memcpy
 179:build/openmote-cc2538_armgcc/openstack/02a-MAClow/IEEE802154_security.c ****           &ieee802154_security_vars.Key_2[0],
 180:build/openmote-cc2538_armgcc/openstack/02a-MAClow/IEEE802154_security.c ****           16);
 181:build/openmote-cc2538_armgcc/openstack/02a-MAClow/IEEE802154_security.c **** 
 182:build/openmote-cc2538_armgcc/openstack/02a-MAClow/IEEE802154_security.c ****    ieee802154_security_vars.MacDeviceTable.DeviceDescriptorEntry[1].deviceAddress = ieee802154_secu
 668              		.loc 1 182 0
 669 056a 40F20003 		movw	r3, #:lower16:ieee802154_security_vars
 670 056e C0F20003 		movt	r3, #:upper16:ieee802154_security_vars
 671 0572 40F20002 		movw	r2, #:lower16:ieee802154_security_vars
 672 0576 C0F20002 		movt	r2, #:upper16:ieee802154_security_vars
 673 057a 03F27B33 		addw	r3, r3, #891
 674 057e 0932     		adds	r2, r2, #9
 675 0580 1568     		ldr	r5, [r2]	@ unaligned
 676 0582 5468     		ldr	r4, [r2, #4]	@ unaligned
 677 0584 9068     		ldr	r0, [r2, #8]	@ unaligned
 678 0586 D168     		ldr	r1, [r2, #12]	@ unaligned
 679 0588 1D60     		str	r5, [r3]	@ unaligned
 680 058a 5C60     		str	r4, [r3, #4]	@ unaligned
 681 058c 9860     		str	r0, [r3, #8]	@ unaligned
 682 058e D960     		str	r1, [r3, #12]	@ unaligned
 683 0590 127C     		ldrb	r2, [r2, #16]
 684 0592 1A74     		strb	r2, [r3, #16]
 183:build/openmote-cc2538_armgcc/openstack/02a-MAClow/IEEE802154_security.c ****    ieee802154_security_vars.MacKeyTable.KeyDescriptorElement[1].DeviceTable = &ieee802154_security_
 685              		.loc 1 183 0
 686 0594 40F20003 		movw	r3, #:lower16:ieee802154_security_vars
 687 0598 C0F20003 		movt	r3, #:upper16:ieee802154_security_vars
 688 059c 074A     		ldr	r2, .L8+4
 689 059e C3F8A820 		str	r2, [r3, #168]
 184:build/openmote-cc2538_armgcc/openstack/02a-MAClow/IEEE802154_security.c **** 
 185:build/openmote-cc2538_armgcc/openstack/02a-MAClow/IEEE802154_security.c ****    ieee802154_security_vars.minimal = IEEE802154_SECURITY_MINIMAL_PROC;
 690              		.loc 1 185 0
 691 05a2 40F20003 		movw	r3, #:lower16:ieee802154_security_vars
 692 05a6 C0F20003 		movt	r3, #:upper16:ieee802154_security_vars
 693 05aa 0022     		movs	r2, #0
 694 05ac 83F88A24 		strb	r2, [r3, #1162]
 186:build/openmote-cc2538_armgcc/openstack/02a-MAClow/IEEE802154_security.c **** }
 695              		.loc 1 186 0
 696 05b0 0837     		adds	r7, r7, #8
 697 05b2 BD46     		mov	sp, r7
 698              		@ sp needed
 699 05b4 B0BD     		pop	{r4, r5, r7, pc}
 700              	.L9:
 701 05b6 00BF     		.align	2
 702              	.L8:
 703 05b8 1C000000 		.word	ieee802154_security_vars+28
 704 05bc 64030000 		.word	ieee802154_security_vars+868
 705 05c0 5E000000 		.word	ieee802154_security_vars+94
 706 05c4 6A040000 		.word	ieee802154_security_vars+1130
 707 05c8 7A040000 		.word	ieee802154_security_vars+1146
 708 05cc B2000000 		.word	ieee802154_security_vars+178
 709              		.cfi_endproc
 710              	.LFE0:
 712              		.align	2
 713              		.global	IEEE802154_security_prependAuxiliarySecurityHeader
 714              		.thumb
 715              		.thumb_func
 717              	IEEE802154_security_prependAuxiliarySecurityHeader:
 718              	.LFB1:
 187:build/openmote-cc2538_armgcc/openstack/02a-MAClow/IEEE802154_security.c **** 
 188:build/openmote-cc2538_armgcc/openstack/02a-MAClow/IEEE802154_security.c **** //=========================== public ==========================================
 189:build/openmote-cc2538_armgcc/openstack/02a-MAClow/IEEE802154_security.c **** /**
 190:build/openmote-cc2538_armgcc/openstack/02a-MAClow/IEEE802154_security.c **** \brief Adding of Auxiliary Security Header to the IEEE802.15.4 MAC header
 191:build/openmote-cc2538_armgcc/openstack/02a-MAClow/IEEE802154_security.c **** */
 192:build/openmote-cc2538_armgcc/openstack/02a-MAClow/IEEE802154_security.c **** void IEEE802154_security_prependAuxiliarySecurityHeader(OpenQueueEntry_t* msg){
 719              		.loc 1 192 0
 720              		.cfi_startproc
 721              		@ args = 0, pretend = 0, frame = 16
 722              		@ frame_needed = 1, uses_anonymous_args = 0
 723 05d0 B0B5     		push	{r4, r5, r7, lr}
 724              		.cfi_def_cfa_offset 16
 725              		.cfi_offset 4, -16
 726              		.cfi_offset 5, -12
 727              		.cfi_offset 7, -8
 728              		.cfi_offset 14, -4
 729 05d2 84B0     		sub	sp, sp, #16
 730              		.cfi_def_cfa_offset 32
 731 05d4 00AF     		add	r7, sp, #0
 732              		.cfi_def_cfa_register 7
 733 05d6 7860     		str	r0, [r7, #4]
 193:build/openmote-cc2538_armgcc/openstack/02a-MAClow/IEEE802154_security.c **** 
 194:build/openmote-cc2538_armgcc/openstack/02a-MAClow/IEEE802154_security.c ****    uint8_t frameCounterSuppression;
 195:build/openmote-cc2538_armgcc/openstack/02a-MAClow/IEEE802154_security.c ****    uint8_t temp8b;
 196:build/openmote-cc2538_armgcc/openstack/02a-MAClow/IEEE802154_security.c ****    open_addr_t* temp_keySource;
 197:build/openmote-cc2538_armgcc/openstack/02a-MAClow/IEEE802154_security.c ****    uint8_t auxiliaryLength;
 198:build/openmote-cc2538_armgcc/openstack/02a-MAClow/IEEE802154_security.c **** 
 199:build/openmote-cc2538_armgcc/openstack/02a-MAClow/IEEE802154_security.c ****    frameCounterSuppression = IEEE154_ASH_FRAMECOUNTER_SUPPRESSED; //the frame counter is carried in
 734              		.loc 1 199 0
 735 05d8 0123     		movs	r3, #1
 736 05da BB73     		strb	r3, [r7, #14]
 200:build/openmote-cc2538_armgcc/openstack/02a-MAClow/IEEE802154_security.c **** 
 201:build/openmote-cc2538_armgcc/openstack/02a-MAClow/IEEE802154_security.c ****    //max length of MAC frames
 202:build/openmote-cc2538_armgcc/openstack/02a-MAClow/IEEE802154_security.c ****    // length of authentication Tag
 203:build/openmote-cc2538_armgcc/openstack/02a-MAClow/IEEE802154_security.c ****    msg->l2_authenticationLength = IEEE802154_security_authLengthChecking(msg->l2_securityLevel);
 737              		.loc 1 203 0
 738 05dc 7B68     		ldr	r3, [r7, #4]
 739 05de 93F86C30 		ldrb	r3, [r3, #108]	@ zero_extendqisi2
 740 05e2 1846     		mov	r0, r3
 741 05e4 FFF7FEFF 		bl	IEEE802154_security_authLengthChecking
 742 05e8 0346     		mov	r3, r0
 743 05ea 1A46     		mov	r2, r3
 744 05ec 7B68     		ldr	r3, [r7, #4]
 745 05ee 83F88020 		strb	r2, [r3, #128]
 204:build/openmote-cc2538_armgcc/openstack/02a-MAClow/IEEE802154_security.c **** 
 205:build/openmote-cc2538_armgcc/openstack/02a-MAClow/IEEE802154_security.c ****    //length of auxiliary security header
 206:build/openmote-cc2538_armgcc/openstack/02a-MAClow/IEEE802154_security.c ****    auxiliaryLength = IEEE802154_security_auxLengthChecking(msg->l2_keyIdMode,
 746              		.loc 1 206 0
 747 05f2 7B68     		ldr	r3, [r7, #4]
 748 05f4 93F86D10 		ldrb	r1, [r3, #109]	@ zero_extendqisi2
 749 05f8 40F20003 		movw	r3, #:lower16:ieee802154_security_vars
 750 05fc C0F20003 		movt	r3, #:upper16:ieee802154_security_vars
 751 0600 5B79     		ldrb	r3, [r3, #5]	@ zero_extendqisi2
 752 0602 BA7B     		ldrb	r2, [r7, #14]	@ zero_extendqisi2
 753 0604 0846     		mov	r0, r1
 754 0606 1146     		mov	r1, r2
 755 0608 1A46     		mov	r2, r3
 756 060a FFF7FEFF 		bl	IEEE802154_security_auxLengthChecking
 757 060e 0346     		mov	r3, r0
 758 0610 7B73     		strb	r3, [r7, #13]
 207:build/openmote-cc2538_armgcc/openstack/02a-MAClow/IEEE802154_security.c ****                                                            frameCounterSuppression,
 208:build/openmote-cc2538_armgcc/openstack/02a-MAClow/IEEE802154_security.c ****                                                            ieee802154_security_vars.m_macFrameCount
 209:build/openmote-cc2538_armgcc/openstack/02a-MAClow/IEEE802154_security.c **** 
 210:build/openmote-cc2538_armgcc/openstack/02a-MAClow/IEEE802154_security.c **** 
 211:build/openmote-cc2538_armgcc/openstack/02a-MAClow/IEEE802154_security.c ****    if ((msg->length+auxiliaryLength+msg->l2_authenticationLength+2) >= 128 ){ //2 bytes of CRC, 127
 759              		.loc 1 211 0
 760 0612 7B68     		ldr	r3, [r7, #4]
 761 0614 1B7A     		ldrb	r3, [r3, #8]	@ zero_extendqisi2
 762 0616 1A46     		mov	r2, r3
 763 0618 7B7B     		ldrb	r3, [r7, #13]	@ zero_extendqisi2
 764 061a 1A44     		add	r2, r2, r3
 765 061c 7B68     		ldr	r3, [r7, #4]
 766 061e 93F88030 		ldrb	r3, [r3, #128]	@ zero_extendqisi2
 767 0622 1344     		add	r3, r3, r2
 768 0624 0233     		adds	r3, r3, #2
 769 0626 7F2B     		cmp	r3, #127
 770 0628 00DD     		ble	.L11
 212:build/openmote-cc2538_armgcc/openstack/02a-MAClow/IEEE802154_security.c ****       return;
 771              		.loc 1 212 0
 772 062a 9DE0     		b	.L10
 773              	.L11:
 213:build/openmote-cc2538_armgcc/openstack/02a-MAClow/IEEE802154_security.c ****    }
 214:build/openmote-cc2538_armgcc/openstack/02a-MAClow/IEEE802154_security.c **** 
 215:build/openmote-cc2538_armgcc/openstack/02a-MAClow/IEEE802154_security.c ****    //start setting the Auxiliary Security Header
 216:build/openmote-cc2538_armgcc/openstack/02a-MAClow/IEEE802154_security.c ****    if (msg->l2_keyIdMode != IEEE154_ASH_KEYIDMODE_IMPLICIT){//if the KeyIdMode is zero, keyIndex an
 774              		.loc 1 216 0
 775 062c 7B68     		ldr	r3, [r7, #4]
 776 062e 93F86D30 		ldrb	r3, [r3, #109]	@ zero_extendqisi2
 777 0632 002B     		cmp	r3, #0
 778 0634 0BD0     		beq	.L13
 217:build/openmote-cc2538_armgcc/openstack/02a-MAClow/IEEE802154_security.c ****       temp8b = msg->l2_keyIndex; //key index field
 779              		.loc 1 217 0
 780 0636 7B68     		ldr	r3, [r7, #4]
 781 0638 93F86E30 		ldrb	r3, [r3, #110]
 782 063c FB73     		strb	r3, [r7, #15]
 218:build/openmote-cc2538_armgcc/openstack/02a-MAClow/IEEE802154_security.c ****       packetfunctions_reserveHeaderSize(msg, sizeof(uint8_t));
 783              		.loc 1 218 0
 784 063e 7868     		ldr	r0, [r7, #4]
 785 0640 0121     		movs	r1, #1
 786 0642 FFF7FEFF 		bl	packetfunctions_reserveHeaderSize
 219:build/openmote-cc2538_armgcc/openstack/02a-MAClow/IEEE802154_security.c ****       *((uint8_t*)(msg->payload)) = temp8b;
 787              		.loc 1 219 0
 788 0646 7B68     		ldr	r3, [r7, #4]
 789 0648 5B68     		ldr	r3, [r3, #4]
 790 064a FA7B     		ldrb	r2, [r7, #15]
 791 064c 1A70     		strb	r2, [r3]
 792              	.L13:
 220:build/openmote-cc2538_armgcc/openstack/02a-MAClow/IEEE802154_security.c ****    }
 221:build/openmote-cc2538_armgcc/openstack/02a-MAClow/IEEE802154_security.c **** 
 222:build/openmote-cc2538_armgcc/openstack/02a-MAClow/IEEE802154_security.c ****    //insert the keyIdMode field
 223:build/openmote-cc2538_armgcc/openstack/02a-MAClow/IEEE802154_security.c ****    switch (msg->l2_keyIdMode){
 793              		.loc 1 223 0
 794 064e 7B68     		ldr	r3, [r7, #4]
 795 0650 93F86D30 		ldrb	r3, [r3, #109]	@ zero_extendqisi2
 796 0654 032B     		cmp	r3, #3
 797 0656 46D8     		bhi	.L14
 798 0658 01A2     		adr	r2, .L16
 799 065a 52F823F0 		ldr	pc, [r2, r3, lsl #2]
 800 065e 00BF     		.p2align 2
 801              	.L16:
 802 0660 71060000 		.word	.L15+1
 803 0664 85060000 		.word	.L17+1
 804 0668 A9060000 		.word	.L18+1
 805 066c D5060000 		.word	.L19+1
 806              	.L15:
 224:build/openmote-cc2538_armgcc/openstack/02a-MAClow/IEEE802154_security.c ****       case IEEE154_ASH_KEYIDMODE_IMPLICIT: //no KeyIDMode field - implicit
 225:build/openmote-cc2538_armgcc/openstack/02a-MAClow/IEEE802154_security.c ****     	 temp_keySource = &ieee802154_security_vars.m_macDefaultKeySource;
 807              		.loc 1 225 0
 808 0670 3F4B     		ldr	r3, .L24
 809 0672 BB60     		str	r3, [r7, #8]
 226:build/openmote-cc2538_armgcc/openstack/02a-MAClow/IEEE802154_security.c ****          memcpy(&(msg->l2_keySource), temp_keySource, sizeof(open_addr_t));
 810              		.loc 1 226 0
 811 0674 7B68     		ldr	r3, [r7, #4]
 812 0676 6F33     		adds	r3, r3, #111
 813 0678 1846     		mov	r0, r3
 814 067a B968     		ldr	r1, [r7, #8]
 815 067c 1122     		movs	r2, #17
 816 067e FFF7FEFF 		bl	memcpy
 227:build/openmote-cc2538_armgcc/openstack/02a-MAClow/IEEE802154_security.c ****          break;
 817              		.loc 1 227 0
 818 0682 3AE0     		b	.L20
 819              	.L17:
 228:build/openmote-cc2538_armgcc/openstack/02a-MAClow/IEEE802154_security.c ****       case IEEE154_ASH_KEYIDMODE_DEFAULTKEYSOURCE:// macDefaultKeySource
 229:build/openmote-cc2538_armgcc/openstack/02a-MAClow/IEEE802154_security.c ****          msg->l2_keySource = ieee802154_security_vars.m_macDefaultKeySource;
 820              		.loc 1 229 0
 821 0684 7B68     		ldr	r3, [r7, #4]
 822 0686 40F20002 		movw	r2, #:lower16:ieee802154_security_vars
 823 068a C0F20002 		movt	r2, #:upper16:ieee802154_security_vars
 824 068e 6F33     		adds	r3, r3, #111
 825 0690 0932     		adds	r2, r2, #9
 826 0692 1568     		ldr	r5, [r2]	@ unaligned
 827 0694 5468     		ldr	r4, [r2, #4]	@ unaligned
 828 0696 9068     		ldr	r0, [r2, #8]	@ unaligned
 829 0698 D168     		ldr	r1, [r2, #12]	@ unaligned
 830 069a 1D60     		str	r5, [r3]	@ unaligned
 831 069c 5C60     		str	r4, [r3, #4]	@ unaligned
 832 069e 9860     		str	r0, [r3, #8]	@ unaligned
 833 06a0 D960     		str	r1, [r3, #12]	@ unaligned
 834 06a2 127C     		ldrb	r2, [r2, #16]
 835 06a4 1A74     		strb	r2, [r3, #16]
 230:build/openmote-cc2538_armgcc/openstack/02a-MAClow/IEEE802154_security.c ****          break;
 836              		.loc 1 230 0
 837 06a6 28E0     		b	.L20
 838              	.L18:
 231:build/openmote-cc2538_armgcc/openstack/02a-MAClow/IEEE802154_security.c ****       case IEEE154_ASH_KEYIDMODE_EXPLICIT_16: //keySource with 16b address
 232:build/openmote-cc2538_armgcc/openstack/02a-MAClow/IEEE802154_security.c ****          temp_keySource = &msg->l2_keySource;
 839              		.loc 1 232 0
 840 06a8 7B68     		ldr	r3, [r7, #4]
 841 06aa 6F33     		adds	r3, r3, #111
 842 06ac BB60     		str	r3, [r7, #8]
 233:build/openmote-cc2538_armgcc/openstack/02a-MAClow/IEEE802154_security.c ****          packetfunctions_reserveHeaderSize(msg, sizeof(uint8_t));
 843              		.loc 1 233 0
 844 06ae 7868     		ldr	r0, [r7, #4]
 845 06b0 0121     		movs	r1, #1
 846 06b2 FFF7FEFF 		bl	packetfunctions_reserveHeaderSize
 234:build/openmote-cc2538_armgcc/openstack/02a-MAClow/IEEE802154_security.c ****          *((uint8_t*)(msg->payload)) = temp_keySource->addr_64b[6];
 847              		.loc 1 234 0
 848 06b6 7B68     		ldr	r3, [r7, #4]
 849 06b8 5B68     		ldr	r3, [r3, #4]
 850 06ba BA68     		ldr	r2, [r7, #8]
 851 06bc D279     		ldrb	r2, [r2, #7]	@ zero_extendqisi2
 852 06be 1A70     		strb	r2, [r3]
 235:build/openmote-cc2538_armgcc/openstack/02a-MAClow/IEEE802154_security.c ****          packetfunctions_reserveHeaderSize(msg, sizeof(uint8_t));
 853              		.loc 1 235 0
 854 06c0 7868     		ldr	r0, [r7, #4]
 855 06c2 0121     		movs	r1, #1
 856 06c4 FFF7FEFF 		bl	packetfunctions_reserveHeaderSize
 236:build/openmote-cc2538_armgcc/openstack/02a-MAClow/IEEE802154_security.c ****          *((uint8_t*)(msg->payload)) = temp_keySource->addr_64b[7];
 857              		.loc 1 236 0
 858 06c8 7B68     		ldr	r3, [r7, #4]
 859 06ca 5B68     		ldr	r3, [r3, #4]
 860 06cc BA68     		ldr	r2, [r7, #8]
 861 06ce 127A     		ldrb	r2, [r2, #8]	@ zero_extendqisi2
 862 06d0 1A70     		strb	r2, [r3]
 237:build/openmote-cc2538_armgcc/openstack/02a-MAClow/IEEE802154_security.c ****          break;
 863              		.loc 1 237 0
 864 06d2 12E0     		b	.L20
 865              	.L19:
 238:build/openmote-cc2538_armgcc/openstack/02a-MAClow/IEEE802154_security.c ****       case IEEE154_ASH_KEYIDMODE_EXPLICIT_64: //keySource with 64b address
 239:build/openmote-cc2538_armgcc/openstack/02a-MAClow/IEEE802154_security.c ****          temp_keySource = &msg->l2_keySource;
 866              		.loc 1 239 0
 867 06d4 7B68     		ldr	r3, [r7, #4]
 868 06d6 6F33     		adds	r3, r3, #111
 869 06d8 BB60     		str	r3, [r7, #8]
 240:build/openmote-cc2538_armgcc/openstack/02a-MAClow/IEEE802154_security.c ****          packetfunctions_writeAddress(msg,temp_keySource,OW_LITTLE_ENDIAN);
 870              		.loc 1 240 0
 871 06da 7868     		ldr	r0, [r7, #4]
 872 06dc B968     		ldr	r1, [r7, #8]
 873 06de 0122     		movs	r2, #1
 874 06e0 FFF7FEFF 		bl	packetfunctions_writeAddress
 241:build/openmote-cc2538_armgcc/openstack/02a-MAClow/IEEE802154_security.c ****          break;
 875              		.loc 1 241 0
 876 06e4 09E0     		b	.L20
 877              	.L14:
 242:build/openmote-cc2538_armgcc/openstack/02a-MAClow/IEEE802154_security.c ****       default://error
 243:build/openmote-cc2538_armgcc/openstack/02a-MAClow/IEEE802154_security.c ****          openserial_printError(COMPONENT_SECURITY,ERR_SECURITY,
 244:build/openmote-cc2538_armgcc/openstack/02a-MAClow/IEEE802154_security.c ****                               (errorparameter_t)msg->l2_frameType,
 878              		.loc 1 244 0
 879 06e6 7B68     		ldr	r3, [r7, #4]
 880 06e8 93F84930 		ldrb	r3, [r3, #73]	@ zero_extendqisi2
 243:build/openmote-cc2538_armgcc/openstack/02a-MAClow/IEEE802154_security.c ****                               (errorparameter_t)msg->l2_frameType,
 881              		.loc 1 243 0
 882 06ec 2620     		movs	r0, #38
 883 06ee 3B21     		movs	r1, #59
 884 06f0 1A46     		mov	r2, r3
 885 06f2 0023     		movs	r3, #0
 886 06f4 FFF7FEFF 		bl	openserial_printError
 245:build/openmote-cc2538_armgcc/openstack/02a-MAClow/IEEE802154_security.c ****                               (errorparameter_t)0);
 246:build/openmote-cc2538_armgcc/openstack/02a-MAClow/IEEE802154_security.c ****          return;
 887              		.loc 1 246 0
 888 06f8 36E0     		b	.L10
 889              	.L20:
 247:build/openmote-cc2538_armgcc/openstack/02a-MAClow/IEEE802154_security.c ****    }
 248:build/openmote-cc2538_armgcc/openstack/02a-MAClow/IEEE802154_security.c **** 
 249:build/openmote-cc2538_armgcc/openstack/02a-MAClow/IEEE802154_security.c ****    //Frame Counter
 250:build/openmote-cc2538_armgcc/openstack/02a-MAClow/IEEE802154_security.c ****    if (frameCounterSuppression == IEEE154_ASH_FRAMECOUNTER_PRESENT){
 890              		.loc 1 250 0
 891 06fa BB7B     		ldrb	r3, [r7, #14]	@ zero_extendqisi2
 892 06fc 002B     		cmp	r3, #0
 893 06fe 08D1     		bne	.L21
 251:build/openmote-cc2538_armgcc/openstack/02a-MAClow/IEEE802154_security.c ****       //here I have to insert the ASN: I can only reserve the space and
 252:build/openmote-cc2538_armgcc/openstack/02a-MAClow/IEEE802154_security.c ****       //save the pointer. The ASN will be added by IEEE802.15.4e
 253:build/openmote-cc2538_armgcc/openstack/02a-MAClow/IEEE802154_security.c **** 
 254:build/openmote-cc2538_armgcc/openstack/02a-MAClow/IEEE802154_security.c ****       // reserve space
 255:build/openmote-cc2538_armgcc/openstack/02a-MAClow/IEEE802154_security.c ****       packetfunctions_reserveHeaderSize(msg,sizeof(macFrameCounter_t));
 894              		.loc 1 255 0
 895 0700 7868     		ldr	r0, [r7, #4]
 896 0702 0521     		movs	r1, #5
 897 0704 FFF7FEFF 		bl	packetfunctions_reserveHeaderSize
 256:build/openmote-cc2538_armgcc/openstack/02a-MAClow/IEEE802154_security.c **** 
 257:build/openmote-cc2538_armgcc/openstack/02a-MAClow/IEEE802154_security.c ****       // Keep a pointer to where the ASN will be
 258:build/openmote-cc2538_armgcc/openstack/02a-MAClow/IEEE802154_security.c ****       // Note: the actual value of the current ASN will be written by the
 259:build/openmote-cc2538_armgcc/openstack/02a-MAClow/IEEE802154_security.c ****       //    IEEE802.15.4e when transmitting
 260:build/openmote-cc2538_armgcc/openstack/02a-MAClow/IEEE802154_security.c ****       msg->l2_FrameCounter = msg->payload;
 898              		.loc 1 260 0
 899 0708 7B68     		ldr	r3, [r7, #4]
 900 070a 5A68     		ldr	r2, [r3, #4]
 901 070c 7B68     		ldr	r3, [r7, #4]
 902 070e C3F88420 		str	r2, [r3, #132]
 903              	.L21:
 261:build/openmote-cc2538_armgcc/openstack/02a-MAClow/IEEE802154_security.c ****    }
 262:build/openmote-cc2538_armgcc/openstack/02a-MAClow/IEEE802154_security.c **** 
 263:build/openmote-cc2538_armgcc/openstack/02a-MAClow/IEEE802154_security.c ****    //security control field
 264:build/openmote-cc2538_armgcc/openstack/02a-MAClow/IEEE802154_security.c ****    packetfunctions_reserveHeaderSize(msg, sizeof(uint8_t));
 904              		.loc 1 264 0
 905 0712 7868     		ldr	r0, [r7, #4]
 906 0714 0121     		movs	r1, #1
 907 0716 FFF7FEFF 		bl	packetfunctions_reserveHeaderSize
 265:build/openmote-cc2538_armgcc/openstack/02a-MAClow/IEEE802154_security.c ****  
 266:build/openmote-cc2538_armgcc/openstack/02a-MAClow/IEEE802154_security.c ****    temp8b = 0;
 908              		.loc 1 266 0
 909 071a 0023     		movs	r3, #0
 910 071c FB73     		strb	r3, [r7, #15]
 267:build/openmote-cc2538_armgcc/openstack/02a-MAClow/IEEE802154_security.c ****    temp8b |= msg->l2_securityLevel << IEEE154_ASH_SCF_SECURITY_LEVEL;//3b
 911              		.loc 1 267 0
 912 071e 7B68     		ldr	r3, [r7, #4]
 913 0720 93F86C20 		ldrb	r2, [r3, #108]	@ zero_extendqisi2
 914 0724 FB7B     		ldrb	r3, [r7, #15]
 915 0726 1343     		orrs	r3, r3, r2
 916 0728 FB73     		strb	r3, [r7, #15]
 268:build/openmote-cc2538_armgcc/openstack/02a-MAClow/IEEE802154_security.c ****    temp8b |= msg->l2_keyIdMode << IEEE154_ASH_SCF_KEY_IDENTIFIER_MODE;//2b
 917              		.loc 1 268 0
 918 072a 7B68     		ldr	r3, [r7, #4]
 919 072c 93F86D30 		ldrb	r3, [r3, #109]	@ zero_extendqisi2
 920 0730 DB00     		lsls	r3, r3, #3
 921 0732 DAB2     		uxtb	r2, r3
 922 0734 FB7B     		ldrb	r3, [r7, #15]	@ zero_extendqisi2
 923 0736 1343     		orrs	r3, r3, r2
 924 0738 DBB2     		uxtb	r3, r3
 925 073a FB73     		strb	r3, [r7, #15]
 269:build/openmote-cc2538_armgcc/openstack/02a-MAClow/IEEE802154_security.c ****    temp8b |= frameCounterSuppression << IEEE154_ASH_SCF_FRAME_CNT_MODE; //1b
 926              		.loc 1 269 0
 927 073c BB7B     		ldrb	r3, [r7, #14]	@ zero_extendqisi2
 928 073e 5B01     		lsls	r3, r3, #5
 929 0740 DAB2     		uxtb	r2, r3
 930 0742 FB7B     		ldrb	r3, [r7, #15]	@ zero_extendqisi2
 931 0744 1343     		orrs	r3, r3, r2
 932 0746 DBB2     		uxtb	r3, r3
 933 0748 FB73     		strb	r3, [r7, #15]
 270:build/openmote-cc2538_armgcc/openstack/02a-MAClow/IEEE802154_security.c **** 
 271:build/openmote-cc2538_armgcc/openstack/02a-MAClow/IEEE802154_security.c ****    if (ieee802154_security_vars.m_macFrameCounterMode == 0x04) { // 4 byte Frame Counter
 934              		.loc 1 271 0
 935 074a 40F20003 		movw	r3, #:lower16:ieee802154_security_vars
 936 074e C0F20003 		movt	r3, #:upper16:ieee802154_security_vars
 937 0752 5B79     		ldrb	r3, [r3, #5]	@ zero_extendqisi2
 938 0754 042B     		cmp	r3, #4
 939 0756 03D0     		beq	.L23
 272:build/openmote-cc2538_armgcc/openstack/02a-MAClow/IEEE802154_security.c ****       temp8b |= 0 << IEEE154_ASH_SCF_FRAME_CNT_SIZE; //1b
 273:build/openmote-cc2538_armgcc/openstack/02a-MAClow/IEEE802154_security.c ****    } else { // 5 byte Frame Counter
 274:build/openmote-cc2538_armgcc/openstack/02a-MAClow/IEEE802154_security.c ****       temp8b |= 1 << IEEE154_ASH_SCF_FRAME_CNT_SIZE; //1b
 940              		.loc 1 274 0
 941 0758 FB7B     		ldrb	r3, [r7, #15]
 942 075a 43F04003 		orr	r3, r3, #64
 943 075e FB73     		strb	r3, [r7, #15]
 944              	.L23:
 275:build/openmote-cc2538_armgcc/openstack/02a-MAClow/IEEE802154_security.c ****    }
 276:build/openmote-cc2538_armgcc/openstack/02a-MAClow/IEEE802154_security.c **** 
 277:build/openmote-cc2538_armgcc/openstack/02a-MAClow/IEEE802154_security.c ****    temp8b |= 0 << 1;//1b reserved
 278:build/openmote-cc2538_armgcc/openstack/02a-MAClow/IEEE802154_security.c ****    *((uint8_t*)(msg->payload)) = temp8b;
 945              		.loc 1 278 0
 946 0760 7B68     		ldr	r3, [r7, #4]
 947 0762 5B68     		ldr	r3, [r3, #4]
 948 0764 FA7B     		ldrb	r2, [r7, #15]
 949 0766 1A70     		strb	r2, [r3]
 950              	.L10:
 279:build/openmote-cc2538_armgcc/openstack/02a-MAClow/IEEE802154_security.c **** }
 951              		.loc 1 279 0
 952 0768 1037     		adds	r7, r7, #16
 953 076a BD46     		mov	sp, r7
 954              		@ sp needed
 955 076c B0BD     		pop	{r4, r5, r7, pc}
 956              	.L25:
 957 076e 00BF     		.align	2
 958              	.L24:
 959 0770 09000000 		.word	ieee802154_security_vars+9
 960              		.cfi_endproc
 961              	.LFE1:
 963              		.align	2
 964              		.global	IEEE802154_security_outgoingFrameSecurity
 965              		.thumb
 966              		.thumb_func
 968              	IEEE802154_security_outgoingFrameSecurity:
 969              	.LFB2:
 280:build/openmote-cc2538_armgcc/openstack/02a-MAClow/IEEE802154_security.c **** 
 281:build/openmote-cc2538_armgcc/openstack/02a-MAClow/IEEE802154_security.c **** /**
 282:build/openmote-cc2538_armgcc/openstack/02a-MAClow/IEEE802154_security.c **** \brief Key searching and encryption/authentication operations.
 283:build/openmote-cc2538_armgcc/openstack/02a-MAClow/IEEE802154_security.c **** */
 284:build/openmote-cc2538_armgcc/openstack/02a-MAClow/IEEE802154_security.c **** owerror_t IEEE802154_security_outgoingFrameSecurity(OpenQueueEntry_t*   msg){
 970              		.loc 1 284 0
 971              		.cfi_startproc
 972              		@ args = 0, pretend = 0, frame = 64
 973              		@ frame_needed = 1, uses_anonymous_args = 0
 974 0774 2DE9F041 		push	{r4, r5, r6, r7, r8, lr}
 975              		.cfi_def_cfa_offset 24
 976              		.cfi_offset 4, -24
 977              		.cfi_offset 5, -20
 978              		.cfi_offset 6, -16
 979              		.cfi_offset 7, -12
 980              		.cfi_offset 8, -8
 981              		.cfi_offset 14, -4
 982 0778 94B0     		sub	sp, sp, #80
 983              		.cfi_def_cfa_offset 104
 984 077a 04AF     		add	r7, sp, #16
 985              		.cfi_def_cfa 7, 88
 986 077c 7860     		str	r0, [r7, #4]
 285:build/openmote-cc2538_armgcc/openstack/02a-MAClow/IEEE802154_security.c ****    uint8_t frameCounterSuppression;
 286:build/openmote-cc2538_armgcc/openstack/02a-MAClow/IEEE802154_security.c ****    m_keyDescriptor* keyDescriptor;
 287:build/openmote-cc2538_armgcc/openstack/02a-MAClow/IEEE802154_security.c ****    uint8_t nonce[13];
 288:build/openmote-cc2538_armgcc/openstack/02a-MAClow/IEEE802154_security.c ****    uint8_t *key;
 289:build/openmote-cc2538_armgcc/openstack/02a-MAClow/IEEE802154_security.c ****    owerror_t outStatus;
 290:build/openmote-cc2538_armgcc/openstack/02a-MAClow/IEEE802154_security.c ****    uint8_t* a;
 291:build/openmote-cc2538_armgcc/openstack/02a-MAClow/IEEE802154_security.c ****    uint8_t len_a;
 292:build/openmote-cc2538_armgcc/openstack/02a-MAClow/IEEE802154_security.c ****    uint8_t* m;
 293:build/openmote-cc2538_armgcc/openstack/02a-MAClow/IEEE802154_security.c ****    uint8_t len_m;
 294:build/openmote-cc2538_armgcc/openstack/02a-MAClow/IEEE802154_security.c ****    uint8_t vectASN[5];
 295:build/openmote-cc2538_armgcc/openstack/02a-MAClow/IEEE802154_security.c ****    macFrameCounter_t l2_frameCounter;
 296:build/openmote-cc2538_armgcc/openstack/02a-MAClow/IEEE802154_security.c **** 
 297:build/openmote-cc2538_armgcc/openstack/02a-MAClow/IEEE802154_security.c ****    if (ieee802154_security_vars.minimal == 0) {
 987              		.loc 1 297 0
 988 077e 40F20003 		movw	r3, #:lower16:ieee802154_security_vars
 989 0782 C0F20003 		movt	r3, #:upper16:ieee802154_security_vars
 990 0786 93F88A34 		ldrb	r3, [r3, #1162]	@ zero_extendqisi2
 991 078a 002B     		cmp	r3, #0
 992 078c 57D1     		bne	.L27
 298:build/openmote-cc2538_armgcc/openstack/02a-MAClow/IEEE802154_security.c ****       //the frame counter is carried in the frame, otherwise 1;
 299:build/openmote-cc2538_armgcc/openstack/02a-MAClow/IEEE802154_security.c ****       frameCounterSuppression = IEEE154_ASH_FRAMECOUNTER_SUPPRESSED;
 993              		.loc 1 299 0
 994 078e 0123     		movs	r3, #1
 995 0790 87F82F30 		strb	r3, [r7, #47]
 300:build/openmote-cc2538_armgcc/openstack/02a-MAClow/IEEE802154_security.c **** 
 301:build/openmote-cc2538_armgcc/openstack/02a-MAClow/IEEE802154_security.c ****       //search for a key
 302:build/openmote-cc2538_armgcc/openstack/02a-MAClow/IEEE802154_security.c ****       keyDescriptor = IEEE802154_security_keyDescriptorLookup(msg->l2_keyIdMode,
 996              		.loc 1 302 0
 997 0794 7B68     		ldr	r3, [r7, #4]
 998 0796 93F86D80 		ldrb	r8, [r3, #109]	@ zero_extendqisi2
 999 079a 7B68     		ldr	r3, [r7, #4]
 1000 079c 03F16F06 		add	r6, r3, #111
 1001 07a0 7B68     		ldr	r3, [r7, #4]
 1002 07a2 93F86E50 		ldrb	r5, [r3, #110]	@ zero_extendqisi2
 1003 07a6 7B68     		ldr	r3, [r7, #4]
 1004 07a8 03F16F04 		add	r4, r3, #111
 1005 07ac 0420     		movs	r0, #4
 1006 07ae FFF7FEFF 		bl	idmanager_getMyID
 1007 07b2 0246     		mov	r2, r0
 1008 07b4 7B68     		ldr	r3, [r7, #4]
 1009 07b6 93F84930 		ldrb	r3, [r3, #73]	@ zero_extendqisi2
 1010 07ba 0092     		str	r2, [sp]
 1011 07bc 0193     		str	r3, [sp, #4]
 1012 07be 4046     		mov	r0, r8
 1013 07c0 3146     		mov	r1, r6
 1014 07c2 2A46     		mov	r2, r5
 1015 07c4 2346     		mov	r3, r4
 1016 07c6 FFF7FEFF 		bl	IEEE802154_security_keyDescriptorLookup
 1017 07ca B862     		str	r0, [r7, #40]
 303:build/openmote-cc2538_armgcc/openstack/02a-MAClow/IEEE802154_security.c ****                                                               &msg->l2_keySource,
 304:build/openmote-cc2538_armgcc/openstack/02a-MAClow/IEEE802154_security.c ****                                                               msg->l2_keyIndex,
 305:build/openmote-cc2538_armgcc/openstack/02a-MAClow/IEEE802154_security.c ****                                                               &msg->l2_keySource,
 306:build/openmote-cc2538_armgcc/openstack/02a-MAClow/IEEE802154_security.c ****                                                               (idmanager_getMyID(ADDR_PANID)),
 307:build/openmote-cc2538_armgcc/openstack/02a-MAClow/IEEE802154_security.c ****                                                               msg->l2_frameType);
 308:build/openmote-cc2538_armgcc/openstack/02a-MAClow/IEEE802154_security.c **** 
 309:build/openmote-cc2538_armgcc/openstack/02a-MAClow/IEEE802154_security.c ****       if (keyDescriptor==NULL){ //key not found
 1018              		.loc 1 309 0
 1019 07cc BB6A     		ldr	r3, [r7, #40]
 1020 07ce 002B     		cmp	r3, #0
 1021 07d0 0AD1     		bne	.L28
 310:build/openmote-cc2538_armgcc/openstack/02a-MAClow/IEEE802154_security.c ****          openserial_printError(COMPONENT_SECURITY,ERR_SECURITY,
 311:build/openmote-cc2538_armgcc/openstack/02a-MAClow/IEEE802154_security.c ****                               (errorparameter_t)msg->l2_frameType,
 1022              		.loc 1 311 0
 1023 07d2 7B68     		ldr	r3, [r7, #4]
 1024 07d4 93F84930 		ldrb	r3, [r3, #73]	@ zero_extendqisi2
 310:build/openmote-cc2538_armgcc/openstack/02a-MAClow/IEEE802154_security.c ****          openserial_printError(COMPONENT_SECURITY,ERR_SECURITY,
 1025              		.loc 1 310 0
 1026 07d8 2620     		movs	r0, #38
 1027 07da 3B21     		movs	r1, #59
 1028 07dc 1A46     		mov	r2, r3
 1029 07de 0123     		movs	r3, #1
 1030 07e0 FFF7FEFF 		bl	openserial_printError
 312:build/openmote-cc2538_armgcc/openstack/02a-MAClow/IEEE802154_security.c ****                               (errorparameter_t)1);
 313:build/openmote-cc2538_armgcc/openstack/02a-MAClow/IEEE802154_security.c ****          return E_FAIL;
 1031              		.loc 1 313 0
 1032 07e4 0123     		movs	r3, #1
 1033 07e6 CBE0     		b	.L43
 1034              	.L28:
 314:build/openmote-cc2538_armgcc/openstack/02a-MAClow/IEEE802154_security.c ****       }
 315:build/openmote-cc2538_armgcc/openstack/02a-MAClow/IEEE802154_security.c **** 
 316:build/openmote-cc2538_armgcc/openstack/02a-MAClow/IEEE802154_security.c ****       key = keyDescriptor->key;
 1035              		.loc 1 316 0
 1036 07e8 BB6A     		ldr	r3, [r7, #40]
 1037 07ea 4233     		adds	r3, r3, #66
 1038 07ec FB63     		str	r3, [r7, #60]
 317:build/openmote-cc2538_armgcc/openstack/02a-MAClow/IEEE802154_security.c **** 
 318:build/openmote-cc2538_armgcc/openstack/02a-MAClow/IEEE802154_security.c ****       if (frameCounterSuppression == IEEE154_ASH_FRAMECOUNTER_PRESENT){//the frame Counter is carri
 1039              		.loc 1 318 0
 1040 07ee 97F82F30 		ldrb	r3, [r7, #47]	@ zero_extendqisi2
 1041 07f2 002B     		cmp	r3, #0
 1042 07f4 2CD1     		bne	.L31
 319:build/openmote-cc2538_armgcc/openstack/02a-MAClow/IEEE802154_security.c ****          ieee154e_getAsn(vectASN);//gets asn from mac layer.
 1043              		.loc 1 319 0
 1044 07f6 07F11003 		add	r3, r7, #16
 1045 07fa 1846     		mov	r0, r3
 1046 07fc FFF7FEFF 		bl	ieee154e_getAsn
 320:build/openmote-cc2538_armgcc/openstack/02a-MAClow/IEEE802154_security.c ****          // save the frame counter of the current frame
 321:build/openmote-cc2538_armgcc/openstack/02a-MAClow/IEEE802154_security.c ****          l2_frameCounter.bytes0and1 = vectASN[0]+256*vectASN[1];
 1047              		.loc 1 321 0
 1048 0800 3B7C     		ldrb	r3, [r7, #16]	@ zero_extendqisi2
 1049 0802 1A46     		mov	r2, r3
 1050 0804 7B7C     		ldrb	r3, [r7, #17]	@ zero_extendqisi2
 1051 0806 1B02     		lsls	r3, r3, #8
 1052 0808 9BB2     		uxth	r3, r3
 1053 080a 1344     		add	r3, r3, r2
 1054 080c 9BB2     		uxth	r3, r3
 1055 080e A7F80B30 		strh	r3, [r7, #11]	@ unaligned
 322:build/openmote-cc2538_armgcc/openstack/02a-MAClow/IEEE802154_security.c ****          l2_frameCounter.bytes2and3 = vectASN[2]+256*vectASN[3];
 1056              		.loc 1 322 0
 1057 0812 BB7C     		ldrb	r3, [r7, #18]	@ zero_extendqisi2
 1058 0814 1A46     		mov	r2, r3
 1059 0816 FB7C     		ldrb	r3, [r7, #19]	@ zero_extendqisi2
 1060 0818 1B02     		lsls	r3, r3, #8
 1061 081a 9BB2     		uxth	r3, r3
 1062 081c 1344     		add	r3, r3, r2
 1063 081e 9BB2     		uxth	r3, r3
 1064 0820 A7F80930 		strh	r3, [r7, #9]	@ unaligned
 323:build/openmote-cc2538_armgcc/openstack/02a-MAClow/IEEE802154_security.c ****          l2_frameCounter.byte4 = vectASN[4];
 1065              		.loc 1 323 0
 1066 0824 3B7D     		ldrb	r3, [r7, #20]	@ zero_extendqisi2
 1067 0826 3B72     		strb	r3, [r7, #8]
 324:build/openmote-cc2538_armgcc/openstack/02a-MAClow/IEEE802154_security.c **** 
 325:build/openmote-cc2538_armgcc/openstack/02a-MAClow/IEEE802154_security.c ****          IEEE802154_security_getFrameCounter(l2_frameCounter,
 1068              		.loc 1 325 0
 1069 0828 7B68     		ldr	r3, [r7, #4]
 1070 082a D3F88430 		ldr	r3, [r3, #132]
 1071 082e 07F10802 		add	r2, r7, #8
 1072 0832 92E80300 		ldmia	r2, {r0, r1}
 1073 0836 1A46     		mov	r2, r3
 1074 0838 FFF7FEFF 		bl	IEEE802154_security_getFrameCounter
 1075 083c 08E0     		b	.L31
 1076              	.L27:
 326:build/openmote-cc2538_armgcc/openstack/02a-MAClow/IEEE802154_security.c ****                                             msg->l2_FrameCounter);
 327:build/openmote-cc2538_armgcc/openstack/02a-MAClow/IEEE802154_security.c ****       } //otherwise the frame counter is not in the frame
 328:build/openmote-cc2538_armgcc/openstack/02a-MAClow/IEEE802154_security.c ****    } else { // minimal processing for efficiency
 329:build/openmote-cc2538_armgcc/openstack/02a-MAClow/IEEE802154_security.c ****       key = msg->l2_frameType == IEEE154_TYPE_BEACON ? ieee802154_security_vars.Key_1 : ieee802154_
 1077              		.loc 1 329 0
 1078 083e 7B68     		ldr	r3, [r7, #4]
 1079 0840 93F84930 		ldrb	r3, [r3, #73]	@ zero_extendqisi2
 1080 0844 002B     		cmp	r3, #0
 1081 0846 01D1     		bne	.L32
 1082              		.loc 1 329 0 is_stmt 0 discriminator 1
 1083 0848 504B     		ldr	r3, .L44
 1084 084a 00E0     		b	.L33
 1085              	.L32:
 1086              		.loc 1 329 0 discriminator 2
 1087 084c 504B     		ldr	r3, .L44+4
 1088              	.L33:
 1089              		.loc 1 329 0 discriminator 3
 1090 084e FB63     		str	r3, [r7, #60]
 1091              	.L31:
 330:build/openmote-cc2538_armgcc/openstack/02a-MAClow/IEEE802154_security.c ****    }
 331:build/openmote-cc2538_armgcc/openstack/02a-MAClow/IEEE802154_security.c **** 
 332:build/openmote-cc2538_armgcc/openstack/02a-MAClow/IEEE802154_security.c ****    // First 8 bytes of the nonce are always the source address of the frame
 333:build/openmote-cc2538_armgcc/openstack/02a-MAClow/IEEE802154_security.c ****    memcpy(&nonce[0],idmanager_getMyID(ADDR_64B)->addr_64b,8);
 1092              		.loc 1 333 0 is_stmt 1
 1093 0850 0220     		movs	r0, #2
 1094 0852 FFF7FEFF 		bl	idmanager_getMyID
 1095 0856 0346     		mov	r3, r0
 1096 0858 0133     		adds	r3, r3, #1
 1097 085a 07F11802 		add	r2, r7, #24
 1098 085e 1046     		mov	r0, r2
 1099 0860 1946     		mov	r1, r3
 1100 0862 0822     		movs	r2, #8
 1101 0864 FFF7FEFF 		bl	memcpy
 334:build/openmote-cc2538_armgcc/openstack/02a-MAClow/IEEE802154_security.c **** 
 335:build/openmote-cc2538_armgcc/openstack/02a-MAClow/IEEE802154_security.c ****    // Fill last 5 bytes with the ASN part of the nonce
 336:build/openmote-cc2538_armgcc/openstack/02a-MAClow/IEEE802154_security.c ****    ieee154e_getAsn(&nonce[8]);
 1102              		.loc 1 336 0
 1103 0868 07F11803 		add	r3, r7, #24
 1104 086c 0833     		adds	r3, r3, #8
 1105 086e 1846     		mov	r0, r3
 1106 0870 FFF7FEFF 		bl	ieee154e_getAsn
 337:build/openmote-cc2538_armgcc/openstack/02a-MAClow/IEEE802154_security.c **** 
 338:build/openmote-cc2538_armgcc/openstack/02a-MAClow/IEEE802154_security.c ****    //identify data to be authenticated and data to be encrypted
 339:build/openmote-cc2538_armgcc/openstack/02a-MAClow/IEEE802154_security.c ****    switch (msg->l2_securityLevel) {
 1107              		.loc 1 339 0
 1108 0874 7B68     		ldr	r3, [r7, #4]
 1109 0876 93F86C30 		ldrb	r3, [r3, #108]	@ zero_extendqisi2
 1110 087a 013B     		subs	r3, r3, #1
 1111 087c 062B     		cmp	r3, #6
 1112 087e 36D8     		bhi	.L34
 1113 0880 01A2     		adr	r2, .L36
 1114 0882 52F823F0 		ldr	pc, [r2, r3, lsl #2]
 1115 0886 00BF     		.p2align 2
 1116              	.L36:
 1117 0888 A5080000 		.word	.L35+1
 1118 088c A5080000 		.word	.L35+1
 1119 0890 A5080000 		.word	.L35+1
 1120 0894 EB080000 		.word	.L37+1
 1121 0898 C5080000 		.word	.L38+1
 1122 089c C5080000 		.word	.L38+1
 1123 08a0 C5080000 		.word	.L38+1
 1124              	.L35:
 340:build/openmote-cc2538_armgcc/openstack/02a-MAClow/IEEE802154_security.c ****       case IEEE154_ASH_SLF_TYPE_MIC_32:  // authentication only cases
 341:build/openmote-cc2538_armgcc/openstack/02a-MAClow/IEEE802154_security.c ****       case IEEE154_ASH_SLF_TYPE_MIC_64:
 342:build/openmote-cc2538_armgcc/openstack/02a-MAClow/IEEE802154_security.c ****       case IEEE154_ASH_SLF_TYPE_MIC_128: 
 343:build/openmote-cc2538_armgcc/openstack/02a-MAClow/IEEE802154_security.c ****          a = msg->payload;             // first byte of the frame
 1125              		.loc 1 343 0
 1126 08a4 7B68     		ldr	r3, [r7, #4]
 1127 08a6 5B68     		ldr	r3, [r3, #4]
 1128 08a8 BB63     		str	r3, [r7, #56]
 344:build/openmote-cc2538_armgcc/openstack/02a-MAClow/IEEE802154_security.c ****          len_a = msg->length;          // whole frame
 1129              		.loc 1 344 0
 1130 08aa 7B68     		ldr	r3, [r7, #4]
 1131 08ac 1B7A     		ldrb	r3, [r3, #8]
 1132 08ae 87F83730 		strb	r3, [r7, #55]
 345:build/openmote-cc2538_armgcc/openstack/02a-MAClow/IEEE802154_security.c ****          m = &msg->payload[len_a];     // concatenate MIC at the end of the frame
 1133              		.loc 1 345 0
 1134 08b2 7B68     		ldr	r3, [r7, #4]
 1135 08b4 5A68     		ldr	r2, [r3, #4]
 1136 08b6 97F83730 		ldrb	r3, [r7, #55]	@ zero_extendqisi2
 1137 08ba 1344     		add	r3, r3, r2
 1138 08bc 3B63     		str	r3, [r7, #48]
 346:build/openmote-cc2538_armgcc/openstack/02a-MAClow/IEEE802154_security.c ****          len_m = 0;                    // length of the encrypted part
 1139              		.loc 1 346 0
 1140 08be 0023     		movs	r3, #0
 1141 08c0 FB75     		strb	r3, [r7, #23]
 347:build/openmote-cc2538_armgcc/openstack/02a-MAClow/IEEE802154_security.c ****          break;
 1142              		.loc 1 347 0
 1143 08c2 16E0     		b	.L39
 1144              	.L38:
 348:build/openmote-cc2538_armgcc/openstack/02a-MAClow/IEEE802154_security.c ****       case IEEE154_ASH_SLF_TYPE_ENC_MIC_32:  // authentication + encryption cases
 349:build/openmote-cc2538_armgcc/openstack/02a-MAClow/IEEE802154_security.c ****       case IEEE154_ASH_SLF_TYPE_ENC_MIC_64:
 350:build/openmote-cc2538_armgcc/openstack/02a-MAClow/IEEE802154_security.c ****       case IEEE154_ASH_SLF_TYPE_ENC_MIC_128:
 351:build/openmote-cc2538_armgcc/openstack/02a-MAClow/IEEE802154_security.c ****          a = msg->payload;             // first byte of the frame
 1145              		.loc 1 351 0
 1146 08c4 7B68     		ldr	r3, [r7, #4]
 1147 08c6 5B68     		ldr	r3, [r3, #4]
 1148 08c8 BB63     		str	r3, [r7, #56]
 352:build/openmote-cc2538_armgcc/openstack/02a-MAClow/IEEE802154_security.c ****          m = msg->l2_payload;          // first byte where we should start encrypting (see 15.4 std
 1149              		.loc 1 352 0
 1150 08ca 7B68     		ldr	r3, [r7, #4]
 1151 08cc 5B6D     		ldr	r3, [r3, #84]
 1152 08ce 3B63     		str	r3, [r7, #48]
 353:build/openmote-cc2538_armgcc/openstack/02a-MAClow/IEEE802154_security.c ****          len_a = m - a;                // part that is only authenticated is the difference of two 
 1153              		.loc 1 353 0
 1154 08d0 3A6B     		ldr	r2, [r7, #48]
 1155 08d2 BB6B     		ldr	r3, [r7, #56]
 1156 08d4 D31A     		subs	r3, r2, r3
 1157 08d6 87F83730 		strb	r3, [r7, #55]
 354:build/openmote-cc2538_armgcc/openstack/02a-MAClow/IEEE802154_security.c ****          len_m = msg->length - len_a;  // part that is encrypted+authenticated is the rest of the f
 1158              		.loc 1 354 0
 1159 08da 7B68     		ldr	r3, [r7, #4]
 1160 08dc 1A7A     		ldrb	r2, [r3, #8]	@ zero_extendqisi2
 1161 08de 97F83730 		ldrb	r3, [r7, #55]
 1162 08e2 D31A     		subs	r3, r2, r3
 1163 08e4 DBB2     		uxtb	r3, r3
 1164 08e6 FB75     		strb	r3, [r7, #23]
 355:build/openmote-cc2538_armgcc/openstack/02a-MAClow/IEEE802154_security.c ****          break;
 1165              		.loc 1 355 0
 1166 08e8 03E0     		b	.L39
 1167              	.L37:
 356:build/openmote-cc2538_armgcc/openstack/02a-MAClow/IEEE802154_security.c ****     case IEEE154_ASH_SLF_TYPE_ENC:    // encryption only
 357:build/openmote-cc2538_armgcc/openstack/02a-MAClow/IEEE802154_security.c ****          // unsecure, should not support it
 358:build/openmote-cc2538_armgcc/openstack/02a-MAClow/IEEE802154_security.c ****          return E_FAIL;
 1168              		.loc 1 358 0
 1169 08ea 0123     		movs	r3, #1
 1170 08ec 48E0     		b	.L43
 1171              	.L34:
 359:build/openmote-cc2538_armgcc/openstack/02a-MAClow/IEEE802154_security.c ****     default:
 360:build/openmote-cc2538_armgcc/openstack/02a-MAClow/IEEE802154_security.c ****          // reject anything else
 361:build/openmote-cc2538_armgcc/openstack/02a-MAClow/IEEE802154_security.c ****          return E_FAIL;
 1172              		.loc 1 361 0
 1173 08ee 0123     		movs	r3, #1
 1174 08f0 46E0     		b	.L43
 1175              	.L39:
 362:build/openmote-cc2538_armgcc/openstack/02a-MAClow/IEEE802154_security.c ****    }
 363:build/openmote-cc2538_armgcc/openstack/02a-MAClow/IEEE802154_security.c **** 
 364:build/openmote-cc2538_armgcc/openstack/02a-MAClow/IEEE802154_security.c ****    // assert
 365:build/openmote-cc2538_armgcc/openstack/02a-MAClow/IEEE802154_security.c ****    if (len_a + len_m > 125) {
 1176              		.loc 1 365 0
 1177 08f2 97F83720 		ldrb	r2, [r7, #55]	@ zero_extendqisi2
 1178 08f6 FB7D     		ldrb	r3, [r7, #23]	@ zero_extendqisi2
 1179 08f8 1344     		add	r3, r3, r2
 1180 08fa 7D2B     		cmp	r3, #125
 1181 08fc 0ADD     		ble	.L40
 366:build/openmote-cc2538_armgcc/openstack/02a-MAClow/IEEE802154_security.c ****       openserial_printError(COMPONENT_SECURITY,ERR_SECURITY,
 367:build/openmote-cc2538_armgcc/openstack/02a-MAClow/IEEE802154_security.c ****                            (errorparameter_t)msg->l2_frameType,
 1182              		.loc 1 367 0
 1183 08fe 7B68     		ldr	r3, [r7, #4]
 1184 0900 93F84930 		ldrb	r3, [r3, #73]	@ zero_extendqisi2
 366:build/openmote-cc2538_armgcc/openstack/02a-MAClow/IEEE802154_security.c ****       openserial_printError(COMPONENT_SECURITY,ERR_SECURITY,
 1185              		.loc 1 366 0
 1186 0904 2620     		movs	r0, #38
 1187 0906 3B21     		movs	r1, #59
 1188 0908 1A46     		mov	r2, r3
 1189 090a 0223     		movs	r3, #2
 1190 090c FFF7FEFF 		bl	openserial_printError
 368:build/openmote-cc2538_armgcc/openstack/02a-MAClow/IEEE802154_security.c ****                            (errorparameter_t)2);
 369:build/openmote-cc2538_armgcc/openstack/02a-MAClow/IEEE802154_security.c ****       return E_FAIL;
 1191              		.loc 1 369 0
 1192 0910 0123     		movs	r3, #1
 1193 0912 35E0     		b	.L43
 1194              	.L40:
 370:build/openmote-cc2538_armgcc/openstack/02a-MAClow/IEEE802154_security.c ****    }
 371:build/openmote-cc2538_armgcc/openstack/02a-MAClow/IEEE802154_security.c **** 
 372:build/openmote-cc2538_armgcc/openstack/02a-MAClow/IEEE802154_security.c ****    if (msg->l2_authenticationLength != 0) {
 1195              		.loc 1 372 0
 1196 0914 7B68     		ldr	r3, [r7, #4]
 1197 0916 93F88030 		ldrb	r3, [r3, #128]	@ zero_extendqisi2
 1198 091a 002B     		cmp	r3, #0
 1199 091c 06D0     		beq	.L41
 373:build/openmote-cc2538_armgcc/openstack/02a-MAClow/IEEE802154_security.c ****       //update the length of the packet
 374:build/openmote-cc2538_armgcc/openstack/02a-MAClow/IEEE802154_security.c ****       packetfunctions_reserveFooterSize(msg,msg->l2_authenticationLength);
 1200              		.loc 1 374 0
 1201 091e 7B68     		ldr	r3, [r7, #4]
 1202 0920 93F88030 		ldrb	r3, [r3, #128]	@ zero_extendqisi2
 1203 0924 7868     		ldr	r0, [r7, #4]
 1204 0926 1946     		mov	r1, r3
 1205 0928 FFF7FEFF 		bl	packetfunctions_reserveFooterSize
 1206              	.L41:
 375:build/openmote-cc2538_armgcc/openstack/02a-MAClow/IEEE802154_security.c ****    }
 376:build/openmote-cc2538_armgcc/openstack/02a-MAClow/IEEE802154_security.c **** 
 377:build/openmote-cc2538_armgcc/openstack/02a-MAClow/IEEE802154_security.c ****    //Encryption and/or authentication
 378:build/openmote-cc2538_armgcc/openstack/02a-MAClow/IEEE802154_security.c ****    // CRYPTO_ENGINE overwrites m[] with ciphertext and appends the MIC
 379:build/openmote-cc2538_armgcc/openstack/02a-MAClow/IEEE802154_security.c ****    outStatus = CRYPTO_ENGINE.aes_ccms_enc(a,
 1207              		.loc 1 379 0
 1208 092c 40F20003 		movw	r3, #:lower16:board_crypto_engine
 1209 0930 C0F20003 		movt	r3, #:upper16:board_crypto_engine
 1210 0934 1C68     		ldr	r4, [r3]
 1211 0936 7B68     		ldr	r3, [r7, #4]
 1212 0938 93F88010 		ldrb	r1, [r3, #128]	@ zero_extendqisi2
 1213 093c 97F83720 		ldrb	r2, [r7, #55]	@ zero_extendqisi2
 1214 0940 07F11703 		add	r3, r7, #23
 1215 0944 07F11800 		add	r0, r7, #24
 1216 0948 0090     		str	r0, [sp]
 1217 094a 0220     		movs	r0, #2
 1218 094c 0190     		str	r0, [sp, #4]
 1219 094e F86B     		ldr	r0, [r7, #60]
 1220 0950 0290     		str	r0, [sp, #8]
 1221 0952 0391     		str	r1, [sp, #12]
 1222 0954 B86B     		ldr	r0, [r7, #56]
 1223 0956 1146     		mov	r1, r2
 1224 0958 3A6B     		ldr	r2, [r7, #48]
 1225 095a A047     		blx	r4
 1226 095c 0346     		mov	r3, r0
 1227 095e 87F82730 		strb	r3, [r7, #39]
 380:build/openmote-cc2538_armgcc/openstack/02a-MAClow/IEEE802154_security.c ****                                           len_a,
 381:build/openmote-cc2538_armgcc/openstack/02a-MAClow/IEEE802154_security.c ****                                           m,
 382:build/openmote-cc2538_armgcc/openstack/02a-MAClow/IEEE802154_security.c ****                                           &len_m,
 383:build/openmote-cc2538_armgcc/openstack/02a-MAClow/IEEE802154_security.c ****                                           nonce,
 384:build/openmote-cc2538_armgcc/openstack/02a-MAClow/IEEE802154_security.c ****                                           2, // L=2 in 15.4 std
 385:build/openmote-cc2538_armgcc/openstack/02a-MAClow/IEEE802154_security.c ****                                           key,
 386:build/openmote-cc2538_armgcc/openstack/02a-MAClow/IEEE802154_security.c ****                                           msg->l2_authenticationLength);
 387:build/openmote-cc2538_armgcc/openstack/02a-MAClow/IEEE802154_security.c **** 
 388:build/openmote-cc2538_armgcc/openstack/02a-MAClow/IEEE802154_security.c ****    //verify that no errors occurred
 389:build/openmote-cc2538_armgcc/openstack/02a-MAClow/IEEE802154_security.c ****    if (outStatus != E_SUCCESS) {
 1228              		.loc 1 389 0
 1229 0962 97F82730 		ldrb	r3, [r7, #39]	@ zero_extendqisi2
 1230 0966 002B     		cmp	r3, #0
 1231 0968 08D0     		beq	.L42
 390:build/openmote-cc2538_armgcc/openstack/02a-MAClow/IEEE802154_security.c ****       openserial_printError(COMPONENT_SECURITY,ERR_SECURITY,
 391:build/openmote-cc2538_armgcc/openstack/02a-MAClow/IEEE802154_security.c ****       (errorparameter_t)msg->l2_frameType,
 1232              		.loc 1 391 0
 1233 096a 7B68     		ldr	r3, [r7, #4]
 1234 096c 93F84930 		ldrb	r3, [r3, #73]	@ zero_extendqisi2
 390:build/openmote-cc2538_armgcc/openstack/02a-MAClow/IEEE802154_security.c ****       openserial_printError(COMPONENT_SECURITY,ERR_SECURITY,
 1235              		.loc 1 390 0
 1236 0970 2620     		movs	r0, #38
 1237 0972 3B21     		movs	r1, #59
 1238 0974 1A46     		mov	r2, r3
 1239 0976 0323     		movs	r3, #3
 1240 0978 FFF7FEFF 		bl	openserial_printError
 1241              	.L42:
 392:build/openmote-cc2538_armgcc/openstack/02a-MAClow/IEEE802154_security.c ****       (errorparameter_t)3);
 393:build/openmote-cc2538_armgcc/openstack/02a-MAClow/IEEE802154_security.c ****    }
 394:build/openmote-cc2538_armgcc/openstack/02a-MAClow/IEEE802154_security.c ****    
 395:build/openmote-cc2538_armgcc/openstack/02a-MAClow/IEEE802154_security.c ****    return outStatus;
 1242              		.loc 1 395 0
 1243 097c 97F82730 		ldrb	r3, [r7, #39]	@ zero_extendqisi2
 1244              	.L43:
 396:build/openmote-cc2538_armgcc/openstack/02a-MAClow/IEEE802154_security.c **** }
 1245              		.loc 1 396 0
 1246 0980 1846     		mov	r0, r3
 1247 0982 4037     		adds	r7, r7, #64
 1248 0984 BD46     		mov	sp, r7
 1249              		@ sp needed
 1250 0986 BDE8F081 		pop	{r4, r5, r6, r7, r8, pc}
 1251              	.L45:
 1252 098a 00BF     		.align	2
 1253              	.L44:
 1254 098c 6A040000 		.word	ieee802154_security_vars+1130
 1255 0990 7A040000 		.word	ieee802154_security_vars+1146
 1256              		.cfi_endproc
 1257              	.LFE2:
 1259              		.align	2
 1260              		.global	IEEE802154_security_retrieveAuxiliarySecurityHeader
 1261              		.thumb
 1262              		.thumb_func
 1264              	IEEE802154_security_retrieveAuxiliarySecurityHeader:
 1265              	.LFB3:
 397:build/openmote-cc2538_armgcc/openstack/02a-MAClow/IEEE802154_security.c **** 
 398:build/openmote-cc2538_armgcc/openstack/02a-MAClow/IEEE802154_security.c **** /**
 399:build/openmote-cc2538_armgcc/openstack/02a-MAClow/IEEE802154_security.c **** \brief Parsing of IEEE802.15.4 Auxiliary Security Header.
 400:build/openmote-cc2538_armgcc/openstack/02a-MAClow/IEEE802154_security.c **** */
 401:build/openmote-cc2538_armgcc/openstack/02a-MAClow/IEEE802154_security.c **** void IEEE802154_security_retrieveAuxiliarySecurityHeader(OpenQueueEntry_t*      msg, 
 402:build/openmote-cc2538_armgcc/openstack/02a-MAClow/IEEE802154_security.c ****                                                         ieee802154_header_iht* tempheader){
 1266              		.loc 1 402 0
 1267              		.cfi_startproc
 1268              		@ args = 0, pretend = 0, frame = 32
 1269              		@ frame_needed = 1, uses_anonymous_args = 0
 1270 0994 B0B5     		push	{r4, r5, r7, lr}
 1271              		.cfi_def_cfa_offset 16
 1272              		.cfi_offset 4, -16
 1273              		.cfi_offset 5, -12
 1274              		.cfi_offset 7, -8
 1275              		.cfi_offset 14, -4
 1276 0996 88B0     		sub	sp, sp, #32
 1277              		.cfi_def_cfa_offset 48
 1278 0998 00AF     		add	r7, sp, #0
 1279              		.cfi_def_cfa_register 7
 1280 099a 7860     		str	r0, [r7, #4]
 1281 099c 3960     		str	r1, [r7]
 403:build/openmote-cc2538_armgcc/openstack/02a-MAClow/IEEE802154_security.c **** 
 404:build/openmote-cc2538_armgcc/openstack/02a-MAClow/IEEE802154_security.c ****    uint8_t frameCnt_Suppression;
 405:build/openmote-cc2538_armgcc/openstack/02a-MAClow/IEEE802154_security.c ****    uint8_t frameCnt_Size;
 406:build/openmote-cc2538_armgcc/openstack/02a-MAClow/IEEE802154_security.c ****    uint8_t temp8b;
 407:build/openmote-cc2538_armgcc/openstack/02a-MAClow/IEEE802154_security.c ****    uint8_t i;
 408:build/openmote-cc2538_armgcc/openstack/02a-MAClow/IEEE802154_security.c ****    uint8_t receivedASN[5];
 409:build/openmote-cc2538_armgcc/openstack/02a-MAClow/IEEE802154_security.c ****    open_addr_t* temp_addr;
 410:build/openmote-cc2538_armgcc/openstack/02a-MAClow/IEEE802154_security.c **** 
 411:build/openmote-cc2538_armgcc/openstack/02a-MAClow/IEEE802154_security.c ****    //Retrieve the Security Control field
 412:build/openmote-cc2538_armgcc/openstack/02a-MAClow/IEEE802154_security.c ****    //1byte, Security Control Field
 413:build/openmote-cc2538_armgcc/openstack/02a-MAClow/IEEE802154_security.c ****    temp8b = *((uint8_t*)(msg->payload)+tempheader->headerLength);
 1282              		.loc 1 413 0
 1283 099e 7B68     		ldr	r3, [r7, #4]
 1284 09a0 5A68     		ldr	r2, [r3, #4]
 1285 09a2 3B68     		ldr	r3, [r7]
 1286 09a4 5B78     		ldrb	r3, [r3, #1]	@ zero_extendqisi2
 1287 09a6 1344     		add	r3, r3, r2
 1288 09a8 1B78     		ldrb	r3, [r3]
 1289 09aa 7B77     		strb	r3, [r7, #29]
 414:build/openmote-cc2538_armgcc/openstack/02a-MAClow/IEEE802154_security.c ****    msg->l2_securityLevel = (temp8b >> IEEE154_ASH_SCF_SECURITY_LEVEL)& 0x07;//3b
 1290              		.loc 1 414 0
 1291 09ac 7B7F     		ldrb	r3, [r7, #29]
 1292 09ae 03F00703 		and	r3, r3, #7
 1293 09b2 DAB2     		uxtb	r2, r3
 1294 09b4 7B68     		ldr	r3, [r7, #4]
 1295 09b6 83F86C20 		strb	r2, [r3, #108]
 415:build/openmote-cc2538_armgcc/openstack/02a-MAClow/IEEE802154_security.c **** 
 416:build/openmote-cc2538_armgcc/openstack/02a-MAClow/IEEE802154_security.c ****    //identify the length of the MIC looking the security level
 417:build/openmote-cc2538_armgcc/openstack/02a-MAClow/IEEE802154_security.c ****    msg->l2_authenticationLength = IEEE802154_security_authLengthChecking(msg->l2_securityLevel);
 1296              		.loc 1 417 0
 1297 09ba 7B68     		ldr	r3, [r7, #4]
 1298 09bc 93F86C30 		ldrb	r3, [r3, #108]	@ zero_extendqisi2
 1299 09c0 1846     		mov	r0, r3
 1300 09c2 FFF7FEFF 		bl	IEEE802154_security_authLengthChecking
 1301 09c6 0346     		mov	r3, r0
 1302 09c8 1A46     		mov	r2, r3
 1303 09ca 7B68     		ldr	r3, [r7, #4]
 1304 09cc 83F88020 		strb	r2, [r3, #128]
 418:build/openmote-cc2538_armgcc/openstack/02a-MAClow/IEEE802154_security.c **** 
 419:build/openmote-cc2538_armgcc/openstack/02a-MAClow/IEEE802154_security.c ****    //retrieve the KeyIdMode field
 420:build/openmote-cc2538_armgcc/openstack/02a-MAClow/IEEE802154_security.c ****    msg->l2_keyIdMode = (temp8b >> IEEE154_ASH_SCF_KEY_IDENTIFIER_MODE)& 0x03;//2b
 1305              		.loc 1 420 0
 1306 09d0 7B7F     		ldrb	r3, [r7, #29]	@ zero_extendqisi2
 1307 09d2 DB08     		lsrs	r3, r3, #3
 1308 09d4 DBB2     		uxtb	r3, r3
 1309 09d6 03F00303 		and	r3, r3, #3
 1310 09da DAB2     		uxtb	r2, r3
 1311 09dc 7B68     		ldr	r3, [r7, #4]
 1312 09de 83F86D20 		strb	r2, [r3, #109]
 421:build/openmote-cc2538_armgcc/openstack/02a-MAClow/IEEE802154_security.c **** 
 422:build/openmote-cc2538_armgcc/openstack/02a-MAClow/IEEE802154_security.c ****    //retrieve information on the Frame Counter Mode
 423:build/openmote-cc2538_armgcc/openstack/02a-MAClow/IEEE802154_security.c ****    frameCnt_Suppression = (temp8b >> IEEE154_ASH_SCF_FRAME_CNT_MODE)& 0x01;//1b
 1313              		.loc 1 423 0
 1314 09e2 7B7F     		ldrb	r3, [r7, #29]	@ zero_extendqisi2
 1315 09e4 5B09     		lsrs	r3, r3, #5
 1316 09e6 DBB2     		uxtb	r3, r3
 1317 09e8 03F00103 		and	r3, r3, #1
 1318 09ec 3B77     		strb	r3, [r7, #28]
 424:build/openmote-cc2538_armgcc/openstack/02a-MAClow/IEEE802154_security.c ****    frameCnt_Size = (temp8b >> IEEE154_ASH_SCF_FRAME_CNT_SIZE)& 0x01;//1b
 1319              		.loc 1 424 0
 1320 09ee 7B7F     		ldrb	r3, [r7, #29]	@ zero_extendqisi2
 1321 09f0 9B09     		lsrs	r3, r3, #6
 1322 09f2 DBB2     		uxtb	r3, r3
 1323 09f4 03F00103 		and	r3, r3, #1
 1324 09f8 FB77     		strb	r3, [r7, #31]
 425:build/openmote-cc2538_armgcc/openstack/02a-MAClow/IEEE802154_security.c **** 
 426:build/openmote-cc2538_armgcc/openstack/02a-MAClow/IEEE802154_security.c ****    //if the frame counter is zero, it is 4-bytes long, 5 otherwise
 427:build/openmote-cc2538_armgcc/openstack/02a-MAClow/IEEE802154_security.c ****    if (frameCnt_Size == IEEE154_ASH_FRAMECOUNTER_COUNTER) {
 1325              		.loc 1 427 0
 1326 09fa FB7F     		ldrb	r3, [r7, #31]	@ zero_extendqisi2
 1327 09fc 002B     		cmp	r3, #0
 1328 09fe 02D1     		bne	.L47
 428:build/openmote-cc2538_armgcc/openstack/02a-MAClow/IEEE802154_security.c ****       frameCnt_Size = 4;
 1329              		.loc 1 428 0
 1330 0a00 0423     		movs	r3, #4
 1331 0a02 FB77     		strb	r3, [r7, #31]
 1332 0a04 01E0     		b	.L48
 1333              	.L47:
 429:build/openmote-cc2538_armgcc/openstack/02a-MAClow/IEEE802154_security.c ****    } else {
 430:build/openmote-cc2538_armgcc/openstack/02a-MAClow/IEEE802154_security.c ****       frameCnt_Size = 5;
 1334              		.loc 1 430 0
 1335 0a06 0523     		movs	r3, #5
 1336 0a08 FB77     		strb	r3, [r7, #31]
 1337              	.L48:
 431:build/openmote-cc2538_armgcc/openstack/02a-MAClow/IEEE802154_security.c ****    }
 432:build/openmote-cc2538_armgcc/openstack/02a-MAClow/IEEE802154_security.c **** 
 433:build/openmote-cc2538_armgcc/openstack/02a-MAClow/IEEE802154_security.c ****    tempheader->headerLength++;
 1338              		.loc 1 433 0
 1339 0a0a 3B68     		ldr	r3, [r7]
 1340 0a0c 5B78     		ldrb	r3, [r3, #1]	@ zero_extendqisi2
 1341 0a0e 0133     		adds	r3, r3, #1
 1342 0a10 DAB2     		uxtb	r2, r3
 1343 0a12 3B68     		ldr	r3, [r7]
 1344 0a14 5A70     		strb	r2, [r3, #1]
 434:build/openmote-cc2538_armgcc/openstack/02a-MAClow/IEEE802154_security.c **** 
 435:build/openmote-cc2538_armgcc/openstack/02a-MAClow/IEEE802154_security.c ****    //Frame Counter field
 436:build/openmote-cc2538_armgcc/openstack/02a-MAClow/IEEE802154_security.c ****    macFrameCounter_t l2_frameCounter;
 437:build/openmote-cc2538_armgcc/openstack/02a-MAClow/IEEE802154_security.c ****    if (frameCnt_Suppression == IEEE154_ASH_FRAMECOUNTER_PRESENT){//the frame counter is here
 1345              		.loc 1 437 0
 1346 0a16 3B7F     		ldrb	r3, [r7, #28]	@ zero_extendqisi2
 1347 0a18 002B     		cmp	r3, #0
 1348 0a1a 3FD1     		bne	.L49
 438:build/openmote-cc2538_armgcc/openstack/02a-MAClow/IEEE802154_security.c ****       //the frame counter size can be 4 or 5 bytes
 439:build/openmote-cc2538_armgcc/openstack/02a-MAClow/IEEE802154_security.c ****       for (i=0;i<frameCnt_Size;i++){
 1349              		.loc 1 439 0
 1350 0a1c 0023     		movs	r3, #0
 1351 0a1e BB77     		strb	r3, [r7, #30]
 1352 0a20 14E0     		b	.L50
 1353              	.L51:
 440:build/openmote-cc2538_armgcc/openstack/02a-MAClow/IEEE802154_security.c ****           receivedASN[i] = *((uint8_t*)(msg->payload)+tempheader->headerLength);
 1354              		.loc 1 440 0 discriminator 2
 1355 0a22 BB7F     		ldrb	r3, [r7, #30]	@ zero_extendqisi2
 1356 0a24 7A68     		ldr	r2, [r7, #4]
 1357 0a26 5168     		ldr	r1, [r2, #4]
 1358 0a28 3A68     		ldr	r2, [r7]
 1359 0a2a 5278     		ldrb	r2, [r2, #1]	@ zero_extendqisi2
 1360 0a2c 0A44     		add	r2, r2, r1
 1361 0a2e 1278     		ldrb	r2, [r2]	@ zero_extendqisi2
 1362 0a30 07F12001 		add	r1, r7, #32
 1363 0a34 0B44     		add	r3, r3, r1
 1364 0a36 03F8102C 		strb	r2, [r3, #-16]
 441:build/openmote-cc2538_armgcc/openstack/02a-MAClow/IEEE802154_security.c ****           tempheader->headerLength++;
 1365              		.loc 1 441 0 discriminator 2
 1366 0a3a 3B68     		ldr	r3, [r7]
 1367 0a3c 5B78     		ldrb	r3, [r3, #1]	@ zero_extendqisi2
 1368 0a3e 0133     		adds	r3, r3, #1
 1369 0a40 DAB2     		uxtb	r2, r3
 1370 0a42 3B68     		ldr	r3, [r7]
 1371 0a44 5A70     		strb	r2, [r3, #1]
 439:build/openmote-cc2538_armgcc/openstack/02a-MAClow/IEEE802154_security.c ****           receivedASN[i] = *((uint8_t*)(msg->payload)+tempheader->headerLength);
 1372              		.loc 1 439 0 discriminator 2
 1373 0a46 BB7F     		ldrb	r3, [r7, #30]	@ zero_extendqisi2
 1374 0a48 0133     		adds	r3, r3, #1
 1375 0a4a BB77     		strb	r3, [r7, #30]
 1376              	.L50:
 439:build/openmote-cc2538_armgcc/openstack/02a-MAClow/IEEE802154_security.c ****           receivedASN[i] = *((uint8_t*)(msg->payload)+tempheader->headerLength);
 1377              		.loc 1 439 0 is_stmt 0 discriminator 1
 1378 0a4c BA7F     		ldrb	r2, [r7, #30]	@ zero_extendqisi2
 1379 0a4e FB7F     		ldrb	r3, [r7, #31]	@ zero_extendqisi2
 1380 0a50 9A42     		cmp	r2, r3
 1381 0a52 E6D3     		bcc	.L51
 442:build/openmote-cc2538_armgcc/openstack/02a-MAClow/IEEE802154_security.c ****       }
 443:build/openmote-cc2538_armgcc/openstack/02a-MAClow/IEEE802154_security.c **** 
 444:build/openmote-cc2538_armgcc/openstack/02a-MAClow/IEEE802154_security.c ****       l2_frameCounter.bytes0and1 = receivedASN[0]+256*receivedASN[1];
 1382              		.loc 1 444 0 is_stmt 1
 1383 0a54 3B7C     		ldrb	r3, [r7, #16]	@ zero_extendqisi2
 1384 0a56 1A46     		mov	r2, r3
 1385 0a58 7B7C     		ldrb	r3, [r7, #17]	@ zero_extendqisi2
 1386 0a5a 1B02     		lsls	r3, r3, #8
 1387 0a5c 9BB2     		uxth	r3, r3
 1388 0a5e 1344     		add	r3, r3, r2
 1389 0a60 9BB2     		uxth	r3, r3
 1390 0a62 A7F80B30 		strh	r3, [r7, #11]	@ unaligned
 445:build/openmote-cc2538_armgcc/openstack/02a-MAClow/IEEE802154_security.c ****       l2_frameCounter.bytes2and3 = receivedASN[2]+256*receivedASN[3];
 1391              		.loc 1 445 0
 1392 0a66 BB7C     		ldrb	r3, [r7, #18]	@ zero_extendqisi2
 1393 0a68 1A46     		mov	r2, r3
 1394 0a6a FB7C     		ldrb	r3, [r7, #19]	@ zero_extendqisi2
 1395 0a6c 1B02     		lsls	r3, r3, #8
 1396 0a6e 9BB2     		uxth	r3, r3
 1397 0a70 1344     		add	r3, r3, r2
 1398 0a72 9BB2     		uxth	r3, r3
 1399 0a74 A7F80930 		strh	r3, [r7, #9]	@ unaligned
 446:build/openmote-cc2538_armgcc/openstack/02a-MAClow/IEEE802154_security.c ****       if (frameCnt_Size == 5){ //we have the ASN as the frame counter
 1400              		.loc 1 446 0
 1401 0a78 FB7F     		ldrb	r3, [r7, #31]	@ zero_extendqisi2
 1402 0a7a 052B     		cmp	r3, #5
 1403 0a7c 01D1     		bne	.L52
 447:build/openmote-cc2538_armgcc/openstack/02a-MAClow/IEEE802154_security.c ****          l2_frameCounter.byte4 = receivedASN[4];
 1404              		.loc 1 447 0
 1405 0a7e 3B7D     		ldrb	r3, [r7, #20]	@ zero_extendqisi2
 1406 0a80 3B72     		strb	r3, [r7, #8]
 1407              	.L52:
 448:build/openmote-cc2538_armgcc/openstack/02a-MAClow/IEEE802154_security.c ****       }
 449:build/openmote-cc2538_armgcc/openstack/02a-MAClow/IEEE802154_security.c **** 
 450:build/openmote-cc2538_armgcc/openstack/02a-MAClow/IEEE802154_security.c ****       if (l2_frameCounter.byte4 == 0xff){ //frame counter overflow
 1408              		.loc 1 450 0
 1409 0a82 3B7A     		ldrb	r3, [r7, #8]	@ zero_extendqisi2
 1410 0a84 FF2B     		cmp	r3, #255
 1411 0a86 09D1     		bne	.L49
 451:build/openmote-cc2538_armgcc/openstack/02a-MAClow/IEEE802154_security.c ****          openserial_printError(COMPONENT_SECURITY,ERR_SECURITY,
 452:build/openmote-cc2538_armgcc/openstack/02a-MAClow/IEEE802154_security.c ****                               (errorparameter_t)msg->l2_frameType,
 1412              		.loc 1 452 0
 1413 0a88 7B68     		ldr	r3, [r7, #4]
 1414 0a8a 93F84930 		ldrb	r3, [r3, #73]	@ zero_extendqisi2
 451:build/openmote-cc2538_armgcc/openstack/02a-MAClow/IEEE802154_security.c ****          openserial_printError(COMPONENT_SECURITY,ERR_SECURITY,
 1415              		.loc 1 451 0
 1416 0a8e 2620     		movs	r0, #38
 1417 0a90 3B21     		movs	r1, #59
 1418 0a92 1A46     		mov	r2, r3
 1419 0a94 0423     		movs	r3, #4
 1420 0a96 FFF7FEFF 		bl	openserial_printError
 453:build/openmote-cc2538_armgcc/openstack/02a-MAClow/IEEE802154_security.c ****                               (errorparameter_t)4);
 454:build/openmote-cc2538_armgcc/openstack/02a-MAClow/IEEE802154_security.c ****          return;
 1421              		.loc 1 454 0
 1422 0a9a 78E0     		b	.L46
 1423              	.L49:
 455:build/openmote-cc2538_armgcc/openstack/02a-MAClow/IEEE802154_security.c ****       }
 456:build/openmote-cc2538_armgcc/openstack/02a-MAClow/IEEE802154_security.c **** 
 457:build/openmote-cc2538_armgcc/openstack/02a-MAClow/IEEE802154_security.c ****    }
 458:build/openmote-cc2538_armgcc/openstack/02a-MAClow/IEEE802154_security.c **** 
 459:build/openmote-cc2538_armgcc/openstack/02a-MAClow/IEEE802154_security.c ****    //retrieve the Key Identifier field
 460:build/openmote-cc2538_armgcc/openstack/02a-MAClow/IEEE802154_security.c ****    switch (msg->l2_keyIdMode){
 1424              		.loc 1 460 0
 1425 0a9c 7B68     		ldr	r3, [r7, #4]
 1426 0a9e 93F86D30 		ldrb	r3, [r3, #109]	@ zero_extendqisi2
 1427 0aa2 032B     		cmp	r3, #3
 1428 0aa4 4ED8     		bhi	.L54
 1429 0aa6 01A2     		adr	r2, .L56
 1430 0aa8 52F823F0 		ldr	pc, [r2, r3, lsl #2]
 1431              		.p2align 2
 1432              	.L56:
 1433 0aac BD0A0000 		.word	.L55+1
 1434 0ab0 D10A0000 		.word	.L57+1
 1435 0ab4 F50A0000 		.word	.L58+1
 1436 0ab8 1D0B0000 		.word	.L59+1
 1437              	.L55:
 461:build/openmote-cc2538_armgcc/openstack/02a-MAClow/IEEE802154_security.c ****       case IEEE154_ASH_KEYIDMODE_IMPLICIT:
 462:build/openmote-cc2538_armgcc/openstack/02a-MAClow/IEEE802154_security.c ****          //key is derived implicitly
 463:build/openmote-cc2538_armgcc/openstack/02a-MAClow/IEEE802154_security.c ****          temp_addr = &ieee802154_security_vars.m_macDefaultKeySource;
 1438              		.loc 1 463 0
 1439 0abc 354B     		ldr	r3, .L64
 1440 0abe BB61     		str	r3, [r7, #24]
 464:build/openmote-cc2538_armgcc/openstack/02a-MAClow/IEEE802154_security.c ****          memcpy(&(msg->l2_keySource), temp_addr, sizeof(open_addr_t));
 1441              		.loc 1 464 0
 1442 0ac0 7B68     		ldr	r3, [r7, #4]
 1443 0ac2 6F33     		adds	r3, r3, #111
 1444 0ac4 1846     		mov	r0, r3
 1445 0ac6 B969     		ldr	r1, [r7, #24]
 1446 0ac8 1122     		movs	r2, #17
 1447 0aca FFF7FEFF 		bl	memcpy
 465:build/openmote-cc2538_armgcc/openstack/02a-MAClow/IEEE802154_security.c ****          break;
 1448              		.loc 1 465 0
 1449 0ace 43E0     		b	.L60
 1450              	.L57:
 466:build/openmote-cc2538_armgcc/openstack/02a-MAClow/IEEE802154_security.c ****       case IEEE154_ASH_KEYIDMODE_DEFAULTKEYSOURCE:
 467:build/openmote-cc2538_armgcc/openstack/02a-MAClow/IEEE802154_security.c ****          msg->l2_keySource = ieee802154_security_vars.m_macDefaultKeySource;
 1451              		.loc 1 467 0
 1452 0ad0 7B68     		ldr	r3, [r7, #4]
 1453 0ad2 40F20002 		movw	r2, #:lower16:ieee802154_security_vars
 1454 0ad6 C0F20002 		movt	r2, #:upper16:ieee802154_security_vars
 1455 0ada 6F33     		adds	r3, r3, #111
 1456 0adc 0932     		adds	r2, r2, #9
 1457 0ade 1568     		ldr	r5, [r2]	@ unaligned
 1458 0ae0 5468     		ldr	r4, [r2, #4]	@ unaligned
 1459 0ae2 9068     		ldr	r0, [r2, #8]	@ unaligned
 1460 0ae4 D168     		ldr	r1, [r2, #12]	@ unaligned
 1461 0ae6 1D60     		str	r5, [r3]	@ unaligned
 1462 0ae8 5C60     		str	r4, [r3, #4]	@ unaligned
 1463 0aea 9860     		str	r0, [r3, #8]	@ unaligned
 1464 0aec D960     		str	r1, [r3, #12]	@ unaligned
 1465 0aee 127C     		ldrb	r2, [r2, #16]
 1466 0af0 1A74     		strb	r2, [r3, #16]
 468:build/openmote-cc2538_armgcc/openstack/02a-MAClow/IEEE802154_security.c ****          break;
 1467              		.loc 1 468 0
 1468 0af2 31E0     		b	.L60
 1469              	.L58:
 469:build/openmote-cc2538_armgcc/openstack/02a-MAClow/IEEE802154_security.c ****       case IEEE154_ASH_KEYIDMODE_EXPLICIT_16:
 470:build/openmote-cc2538_armgcc/openstack/02a-MAClow/IEEE802154_security.c ****          packetfunctions_readAddress(((uint8_t*)(msg->payload)+tempheader->headerLength),
 1470              		.loc 1 470 0
 1471 0af4 7B68     		ldr	r3, [r7, #4]
 1472 0af6 5A68     		ldr	r2, [r3, #4]
 1473 0af8 3B68     		ldr	r3, [r7]
 1474 0afa 5B78     		ldrb	r3, [r3, #1]	@ zero_extendqisi2
 1475 0afc 1A44     		add	r2, r2, r3
 1476 0afe 7B68     		ldr	r3, [r7, #4]
 1477 0b00 6F33     		adds	r3, r3, #111
 1478 0b02 1046     		mov	r0, r2
 1479 0b04 0121     		movs	r1, #1
 1480 0b06 1A46     		mov	r2, r3
 1481 0b08 0123     		movs	r3, #1
 1482 0b0a FFF7FEFF 		bl	packetfunctions_readAddress
 471:build/openmote-cc2538_armgcc/openstack/02a-MAClow/IEEE802154_security.c ****                                      ADDR_16B,
 472:build/openmote-cc2538_armgcc/openstack/02a-MAClow/IEEE802154_security.c ****                                      &msg->l2_keySource,
 473:build/openmote-cc2538_armgcc/openstack/02a-MAClow/IEEE802154_security.c ****                                      OW_LITTLE_ENDIAN);
 474:build/openmote-cc2538_armgcc/openstack/02a-MAClow/IEEE802154_security.c ****          tempheader->headerLength+=2;
 1483              		.loc 1 474 0
 1484 0b0e 3B68     		ldr	r3, [r7]
 1485 0b10 5B78     		ldrb	r3, [r3, #1]	@ zero_extendqisi2
 1486 0b12 0233     		adds	r3, r3, #2
 1487 0b14 DAB2     		uxtb	r2, r3
 1488 0b16 3B68     		ldr	r3, [r7]
 1489 0b18 5A70     		strb	r2, [r3, #1]
 475:build/openmote-cc2538_armgcc/openstack/02a-MAClow/IEEE802154_security.c ****          break;
 1490              		.loc 1 475 0
 1491 0b1a 1DE0     		b	.L60
 1492              	.L59:
 476:build/openmote-cc2538_armgcc/openstack/02a-MAClow/IEEE802154_security.c ****       case IEEE154_ASH_KEYIDMODE_EXPLICIT_64:
 477:build/openmote-cc2538_armgcc/openstack/02a-MAClow/IEEE802154_security.c ****          packetfunctions_readAddress(((uint8_t*)(msg->payload)+tempheader->headerLength),
 1493              		.loc 1 477 0
 1494 0b1c 7B68     		ldr	r3, [r7, #4]
 1495 0b1e 5A68     		ldr	r2, [r3, #4]
 1496 0b20 3B68     		ldr	r3, [r7]
 1497 0b22 5B78     		ldrb	r3, [r3, #1]	@ zero_extendqisi2
 1498 0b24 1A44     		add	r2, r2, r3
 1499 0b26 7B68     		ldr	r3, [r7, #4]
 1500 0b28 6F33     		adds	r3, r3, #111
 1501 0b2a 1046     		mov	r0, r2
 1502 0b2c 0221     		movs	r1, #2
 1503 0b2e 1A46     		mov	r2, r3
 1504 0b30 0123     		movs	r3, #1
 1505 0b32 FFF7FEFF 		bl	packetfunctions_readAddress
 478:build/openmote-cc2538_armgcc/openstack/02a-MAClow/IEEE802154_security.c ****                                      ADDR_64B,
 479:build/openmote-cc2538_armgcc/openstack/02a-MAClow/IEEE802154_security.c ****                                      &msg->l2_keySource,
 480:build/openmote-cc2538_armgcc/openstack/02a-MAClow/IEEE802154_security.c ****                                      OW_LITTLE_ENDIAN);
 481:build/openmote-cc2538_armgcc/openstack/02a-MAClow/IEEE802154_security.c ****          tempheader->headerLength+=8;
 1506              		.loc 1 481 0
 1507 0b36 3B68     		ldr	r3, [r7]
 1508 0b38 5B78     		ldrb	r3, [r3, #1]	@ zero_extendqisi2
 1509 0b3a 0833     		adds	r3, r3, #8
 1510 0b3c DAB2     		uxtb	r2, r3
 1511 0b3e 3B68     		ldr	r3, [r7]
 1512 0b40 5A70     		strb	r2, [r3, #1]
 482:build/openmote-cc2538_armgcc/openstack/02a-MAClow/IEEE802154_security.c ****          break;
 1513              		.loc 1 482 0
 1514 0b42 09E0     		b	.L60
 1515              	.L54:
 483:build/openmote-cc2538_armgcc/openstack/02a-MAClow/IEEE802154_security.c ****       default: //error
 484:build/openmote-cc2538_armgcc/openstack/02a-MAClow/IEEE802154_security.c ****          openserial_printError(COMPONENT_SECURITY,ERR_SECURITY,
 485:build/openmote-cc2538_armgcc/openstack/02a-MAClow/IEEE802154_security.c ****                               (errorparameter_t)msg->l2_frameType,
 1516              		.loc 1 485 0
 1517 0b44 7B68     		ldr	r3, [r7, #4]
 1518 0b46 93F84930 		ldrb	r3, [r3, #73]	@ zero_extendqisi2
 484:build/openmote-cc2538_armgcc/openstack/02a-MAClow/IEEE802154_security.c ****                               (errorparameter_t)msg->l2_frameType,
 1519              		.loc 1 484 0
 1520 0b4a 2620     		movs	r0, #38
 1521 0b4c 3B21     		movs	r1, #59
 1522 0b4e 1A46     		mov	r2, r3
 1523 0b50 0523     		movs	r3, #5
 1524 0b52 FFF7FEFF 		bl	openserial_printError
 486:build/openmote-cc2538_armgcc/openstack/02a-MAClow/IEEE802154_security.c ****                               (errorparameter_t)5);
 487:build/openmote-cc2538_armgcc/openstack/02a-MAClow/IEEE802154_security.c ****          return;
 1525              		.loc 1 487 0
 1526 0b56 1AE0     		b	.L46
 1527              	.L60:
 488:build/openmote-cc2538_armgcc/openstack/02a-MAClow/IEEE802154_security.c ****       }
 489:build/openmote-cc2538_armgcc/openstack/02a-MAClow/IEEE802154_security.c **** 
 490:build/openmote-cc2538_armgcc/openstack/02a-MAClow/IEEE802154_security.c ****    //retrieve the KeyIndex
 491:build/openmote-cc2538_armgcc/openstack/02a-MAClow/IEEE802154_security.c ****    if (msg->l2_keyIdMode != IEEE154_ASH_KEYIDMODE_IMPLICIT){
 1528              		.loc 1 491 0
 1529 0b58 7B68     		ldr	r3, [r7, #4]
 1530 0b5a 93F86D30 		ldrb	r3, [r3, #109]	@ zero_extendqisi2
 1531 0b5e 002B     		cmp	r3, #0
 1532 0b60 11D0     		beq	.L61
 492:build/openmote-cc2538_armgcc/openstack/02a-MAClow/IEEE802154_security.c ****       temp8b = *((uint8_t*)(msg->payload)+tempheader->headerLength);
 1533              		.loc 1 492 0
 1534 0b62 7B68     		ldr	r3, [r7, #4]
 1535 0b64 5A68     		ldr	r2, [r3, #4]
 1536 0b66 3B68     		ldr	r3, [r7]
 1537 0b68 5B78     		ldrb	r3, [r3, #1]	@ zero_extendqisi2
 1538 0b6a 1344     		add	r3, r3, r2
 1539 0b6c 1B78     		ldrb	r3, [r3]
 1540 0b6e 7B77     		strb	r3, [r7, #29]
 493:build/openmote-cc2538_armgcc/openstack/02a-MAClow/IEEE802154_security.c ****       msg->l2_keyIndex = (temp8b);
 1541              		.loc 1 493 0
 1542 0b70 7B68     		ldr	r3, [r7, #4]
 1543 0b72 7A7F     		ldrb	r2, [r7, #29]
 1544 0b74 83F86E20 		strb	r2, [r3, #110]
 494:build/openmote-cc2538_armgcc/openstack/02a-MAClow/IEEE802154_security.c ****       tempheader->headerLength++;
 1545              		.loc 1 494 0
 1546 0b78 3B68     		ldr	r3, [r7]
 1547 0b7a 5B78     		ldrb	r3, [r3, #1]	@ zero_extendqisi2
 1548 0b7c 0133     		adds	r3, r3, #1
 1549 0b7e DAB2     		uxtb	r2, r3
 1550 0b80 3B68     		ldr	r3, [r7]
 1551 0b82 5A70     		strb	r2, [r3, #1]
 1552 0b84 03E0     		b	.L46
 1553              	.L61:
 495:build/openmote-cc2538_armgcc/openstack/02a-MAClow/IEEE802154_security.c ****    } else {
 496:build/openmote-cc2538_armgcc/openstack/02a-MAClow/IEEE802154_security.c ****       //key is derived implicitly
 497:build/openmote-cc2538_armgcc/openstack/02a-MAClow/IEEE802154_security.c ****       msg->l2_keyIndex = 1;
 1554              		.loc 1 497 0
 1555 0b86 7B68     		ldr	r3, [r7, #4]
 1556 0b88 0122     		movs	r2, #1
 1557 0b8a 83F86E20 		strb	r2, [r3, #110]
 1558              	.L46:
 498:build/openmote-cc2538_armgcc/openstack/02a-MAClow/IEEE802154_security.c ****    }
 499:build/openmote-cc2538_armgcc/openstack/02a-MAClow/IEEE802154_security.c **** 
 500:build/openmote-cc2538_armgcc/openstack/02a-MAClow/IEEE802154_security.c **** }
 1559              		.loc 1 500 0
 1560 0b8e 2037     		adds	r7, r7, #32
 1561 0b90 BD46     		mov	sp, r7
 1562              		@ sp needed
 1563 0b92 B0BD     		pop	{r4, r5, r7, pc}
 1564              	.L65:
 1565              		.align	2
 1566              	.L64:
 1567 0b94 09000000 		.word	ieee802154_security_vars+9
 1568              		.cfi_endproc
 1569              	.LFE3:
 1571              		.align	2
 1572              		.global	IEEE802154_security_incomingFrame
 1573              		.thumb
 1574              		.thumb_func
 1576              	IEEE802154_security_incomingFrame:
 1577              	.LFB4:
 501:build/openmote-cc2538_armgcc/openstack/02a-MAClow/IEEE802154_security.c **** 
 502:build/openmote-cc2538_armgcc/openstack/02a-MAClow/IEEE802154_security.c **** /**
 503:build/openmote-cc2538_armgcc/openstack/02a-MAClow/IEEE802154_security.c **** \brief Identification of the key used to protect the frame and unsecuring operations.
 504:build/openmote-cc2538_armgcc/openstack/02a-MAClow/IEEE802154_security.c **** */
 505:build/openmote-cc2538_armgcc/openstack/02a-MAClow/IEEE802154_security.c **** owerror_t IEEE802154_security_incomingFrame(OpenQueueEntry_t* msg){
 1578              		.loc 1 505 0
 1579              		.cfi_startproc
 1580              		@ args = 0, pretend = 0, frame = 56
 1581              		@ frame_needed = 1, uses_anonymous_args = 0
 1582 0b98 2DE9F041 		push	{r4, r5, r6, r7, r8, lr}
 1583              		.cfi_def_cfa_offset 24
 1584              		.cfi_offset 4, -24
 1585              		.cfi_offset 5, -20
 1586              		.cfi_offset 6, -16
 1587              		.cfi_offset 7, -12
 1588              		.cfi_offset 8, -8
 1589              		.cfi_offset 14, -4
 1590 0b9c 92B0     		sub	sp, sp, #72
 1591              		.cfi_def_cfa_offset 96
 1592 0b9e 04AF     		add	r7, sp, #16
 1593              		.cfi_def_cfa 7, 80
 1594 0ba0 7860     		str	r0, [r7, #4]
 506:build/openmote-cc2538_armgcc/openstack/02a-MAClow/IEEE802154_security.c ****    
 507:build/openmote-cc2538_armgcc/openstack/02a-MAClow/IEEE802154_security.c ****    m_deviceDescriptor*        deviceDescriptor;
 508:build/openmote-cc2538_armgcc/openstack/02a-MAClow/IEEE802154_security.c ****    m_keyDescriptor*           keyDescriptor;
 509:build/openmote-cc2538_armgcc/openstack/02a-MAClow/IEEE802154_security.c ****    m_securityLevelDescriptor* securityLevelDescriptor;
 510:build/openmote-cc2538_armgcc/openstack/02a-MAClow/IEEE802154_security.c ****    uint8_t nonce[13];
 511:build/openmote-cc2538_armgcc/openstack/02a-MAClow/IEEE802154_security.c ****    owerror_t outStatus;
 512:build/openmote-cc2538_armgcc/openstack/02a-MAClow/IEEE802154_security.c ****    uint8_t* a;
 513:build/openmote-cc2538_armgcc/openstack/02a-MAClow/IEEE802154_security.c ****    uint8_t len_a;
 514:build/openmote-cc2538_armgcc/openstack/02a-MAClow/IEEE802154_security.c ****    uint8_t* c;
 515:build/openmote-cc2538_armgcc/openstack/02a-MAClow/IEEE802154_security.c ****    uint8_t len_c;
 516:build/openmote-cc2538_armgcc/openstack/02a-MAClow/IEEE802154_security.c ****    uint8_t *key;
 517:build/openmote-cc2538_armgcc/openstack/02a-MAClow/IEEE802154_security.c ****    
 518:build/openmote-cc2538_armgcc/openstack/02a-MAClow/IEEE802154_security.c ****    if (ieee802154_security_vars.minimal == 0) {
 1595              		.loc 1 518 0
 1596 0ba2 40F20003 		movw	r3, #:lower16:ieee802154_security_vars
 1597 0ba6 C0F20003 		movt	r3, #:upper16:ieee802154_security_vars
 1598 0baa 93F88A34 		ldrb	r3, [r3, #1162]	@ zero_extendqisi2
 1599 0bae 002B     		cmp	r3, #0
 1600 0bb0 40F09480 		bne	.L67
 519:build/openmote-cc2538_armgcc/openstack/02a-MAClow/IEEE802154_security.c ****       //key descriptor lookup procedure
 520:build/openmote-cc2538_armgcc/openstack/02a-MAClow/IEEE802154_security.c ****       keyDescriptor = IEEE802154_security_keyDescriptorLookup(msg->l2_keyIdMode,
 1601              		.loc 1 520 0
 1602 0bb4 7B68     		ldr	r3, [r7, #4]
 1603 0bb6 93F86D80 		ldrb	r8, [r3, #109]	@ zero_extendqisi2
 1604 0bba 7B68     		ldr	r3, [r7, #4]
 1605 0bbc 03F16F06 		add	r6, r3, #111
 1606 0bc0 7B68     		ldr	r3, [r7, #4]
 1607 0bc2 93F86E50 		ldrb	r5, [r3, #110]	@ zero_extendqisi2
 1608 0bc6 7B68     		ldr	r3, [r7, #4]
 1609 0bc8 03F16F04 		add	r4, r3, #111
 1610 0bcc 0420     		movs	r0, #4
 1611 0bce FFF7FEFF 		bl	idmanager_getMyID
 1612 0bd2 0246     		mov	r2, r0
 1613 0bd4 7B68     		ldr	r3, [r7, #4]
 1614 0bd6 93F84930 		ldrb	r3, [r3, #73]	@ zero_extendqisi2
 1615 0bda 0092     		str	r2, [sp]
 1616 0bdc 0193     		str	r3, [sp, #4]
 1617 0bde 4046     		mov	r0, r8
 1618 0be0 3146     		mov	r1, r6
 1619 0be2 2A46     		mov	r2, r5
 1620 0be4 2346     		mov	r3, r4
 1621 0be6 FFF7FEFF 		bl	IEEE802154_security_keyDescriptorLookup
 1622 0bea 7862     		str	r0, [r7, #36]
 521:build/openmote-cc2538_armgcc/openstack/02a-MAClow/IEEE802154_security.c ****                                                              &msg->l2_keySource,
 522:build/openmote-cc2538_armgcc/openstack/02a-MAClow/IEEE802154_security.c ****                                                              msg->l2_keyIndex,
 523:build/openmote-cc2538_armgcc/openstack/02a-MAClow/IEEE802154_security.c ****                                                              &msg->l2_keySource,
 524:build/openmote-cc2538_armgcc/openstack/02a-MAClow/IEEE802154_security.c ****                                                              idmanager_getMyID(ADDR_PANID),
 525:build/openmote-cc2538_armgcc/openstack/02a-MAClow/IEEE802154_security.c ****                                                              msg->l2_frameType);
 526:build/openmote-cc2538_armgcc/openstack/02a-MAClow/IEEE802154_security.c **** 
 527:build/openmote-cc2538_armgcc/openstack/02a-MAClow/IEEE802154_security.c ****       if (keyDescriptor==NULL){ // can't find the key
 1623              		.loc 1 527 0
 1624 0bec 7B6A     		ldr	r3, [r7, #36]
 1625 0bee 002B     		cmp	r3, #0
 1626 0bf0 0AD1     		bne	.L68
 528:build/openmote-cc2538_armgcc/openstack/02a-MAClow/IEEE802154_security.c ****          openserial_printError(COMPONENT_SECURITY,ERR_SECURITY,
 529:build/openmote-cc2538_armgcc/openstack/02a-MAClow/IEEE802154_security.c ****                               (errorparameter_t)msg->l2_frameType,
 1627              		.loc 1 529 0
 1628 0bf2 7B68     		ldr	r3, [r7, #4]
 1629 0bf4 93F84930 		ldrb	r3, [r3, #73]	@ zero_extendqisi2
 528:build/openmote-cc2538_armgcc/openstack/02a-MAClow/IEEE802154_security.c ****          openserial_printError(COMPONENT_SECURITY,ERR_SECURITY,
 1630              		.loc 1 528 0
 1631 0bf8 2620     		movs	r0, #38
 1632 0bfa 3B21     		movs	r1, #59
 1633 0bfc 1A46     		mov	r2, r3
 1634 0bfe 0623     		movs	r3, #6
 1635 0c00 FFF7FEFF 		bl	openserial_printError
 530:build/openmote-cc2538_armgcc/openstack/02a-MAClow/IEEE802154_security.c ****                               (errorparameter_t)6);
 531:build/openmote-cc2538_armgcc/openstack/02a-MAClow/IEEE802154_security.c ****          return E_FAIL;
 1636              		.loc 1 531 0
 1637 0c04 0123     		movs	r3, #1
 1638 0c06 05E1     		b	.L85
 1639              	.L68:
 532:build/openmote-cc2538_armgcc/openstack/02a-MAClow/IEEE802154_security.c ****       }
 533:build/openmote-cc2538_armgcc/openstack/02a-MAClow/IEEE802154_security.c **** 
 534:build/openmote-cc2538_armgcc/openstack/02a-MAClow/IEEE802154_security.c ****       // device descriptor lookup
 535:build/openmote-cc2538_armgcc/openstack/02a-MAClow/IEEE802154_security.c ****       deviceDescriptor = IEEE802154_security_deviceDescriptorLookup(&msg->l2_keySource,
 1640              		.loc 1 535 0
 1641 0c08 7B68     		ldr	r3, [r7, #4]
 1642 0c0a 03F16F04 		add	r4, r3, #111
 1643 0c0e 0420     		movs	r0, #4
 1644 0c10 FFF7FEFF 		bl	idmanager_getMyID
 1645 0c14 0346     		mov	r3, r0
 1646 0c16 2046     		mov	r0, r4
 1647 0c18 1946     		mov	r1, r3
 1648 0c1a 7A6A     		ldr	r2, [r7, #36]
 1649 0c1c FFF7FEFF 		bl	IEEE802154_security_deviceDescriptorLookup
 1650 0c20 3862     		str	r0, [r7, #32]
 536:build/openmote-cc2538_armgcc/openstack/02a-MAClow/IEEE802154_security.c ****                                                                    idmanager_getMyID(ADDR_PANID),
 537:build/openmote-cc2538_armgcc/openstack/02a-MAClow/IEEE802154_security.c ****                                                                    keyDescriptor);
 538:build/openmote-cc2538_armgcc/openstack/02a-MAClow/IEEE802154_security.c ****    
 539:build/openmote-cc2538_armgcc/openstack/02a-MAClow/IEEE802154_security.c ****       if (deviceDescriptor==NULL){ // can't find the device in the list of authorized neighbors
 1651              		.loc 1 539 0
 1652 0c22 3B6A     		ldr	r3, [r7, #32]
 1653 0c24 002B     		cmp	r3, #0
 1654 0c26 0AD1     		bne	.L70
 540:build/openmote-cc2538_armgcc/openstack/02a-MAClow/IEEE802154_security.c ****          openserial_printError(COMPONENT_SECURITY,ERR_SECURITY,
 541:build/openmote-cc2538_armgcc/openstack/02a-MAClow/IEEE802154_security.c ****                               (errorparameter_t)msg->l2_frameType,
 1655              		.loc 1 541 0
 1656 0c28 7B68     		ldr	r3, [r7, #4]
 1657 0c2a 93F84930 		ldrb	r3, [r3, #73]	@ zero_extendqisi2
 540:build/openmote-cc2538_armgcc/openstack/02a-MAClow/IEEE802154_security.c ****          openserial_printError(COMPONENT_SECURITY,ERR_SECURITY,
 1658              		.loc 1 540 0
 1659 0c2e 2620     		movs	r0, #38
 1660 0c30 3B21     		movs	r1, #59
 1661 0c32 1A46     		mov	r2, r3
 1662 0c34 0723     		movs	r3, #7
 1663 0c36 FFF7FEFF 		bl	openserial_printError
 542:build/openmote-cc2538_armgcc/openstack/02a-MAClow/IEEE802154_security.c ****                               (errorparameter_t)7);
 543:build/openmote-cc2538_armgcc/openstack/02a-MAClow/IEEE802154_security.c ****          return E_FAIL;
 1664              		.loc 1 543 0
 1665 0c3a 0123     		movs	r3, #1
 1666 0c3c EAE0     		b	.L85
 1667              	.L70:
 544:build/openmote-cc2538_armgcc/openstack/02a-MAClow/IEEE802154_security.c ****       }
 545:build/openmote-cc2538_armgcc/openstack/02a-MAClow/IEEE802154_security.c **** 
 546:build/openmote-cc2538_armgcc/openstack/02a-MAClow/IEEE802154_security.c ****       // Security Level Descriptorlookup
 547:build/openmote-cc2538_armgcc/openstack/02a-MAClow/IEEE802154_security.c ****       securityLevelDescriptor = IEEE802154_security_securityLevelDescriptorLookup(msg->l2_frameType
 1668              		.loc 1 547 0
 1669 0c3e 7B68     		ldr	r3, [r7, #4]
 1670 0c40 93F84920 		ldrb	r2, [r3, #73]	@ zero_extendqisi2
 1671 0c44 7B68     		ldr	r3, [r7, #4]
 1672 0c46 93F88130 		ldrb	r3, [r3, #129]	@ zero_extendqisi2
 1673 0c4a 1046     		mov	r0, r2
 1674 0c4c 1946     		mov	r1, r3
 1675 0c4e FFF7FEFF 		bl	IEEE802154_security_securityLevelDescriptorLookup
 1676 0c52 F861     		str	r0, [r7, #28]
 548:build/openmote-cc2538_armgcc/openstack/02a-MAClow/IEEE802154_security.c ****                                                                                  msg->commandFrameI
 549:build/openmote-cc2538_armgcc/openstack/02a-MAClow/IEEE802154_security.c ****    
 550:build/openmote-cc2538_armgcc/openstack/02a-MAClow/IEEE802154_security.c ****       if (securityLevelDescriptor == NULL){ // can't find the frame type in the list of allowed fra
 1677              		.loc 1 550 0
 1678 0c54 FB69     		ldr	r3, [r7, #28]
 1679 0c56 002B     		cmp	r3, #0
 1680 0c58 0AD1     		bne	.L71
 551:build/openmote-cc2538_armgcc/openstack/02a-MAClow/IEEE802154_security.c ****          openserial_printError(COMPONENT_SECURITY,ERR_SECURITY,
 552:build/openmote-cc2538_armgcc/openstack/02a-MAClow/IEEE802154_security.c ****                               (errorparameter_t)msg->l2_frameType,
 1681              		.loc 1 552 0
 1682 0c5a 7B68     		ldr	r3, [r7, #4]
 1683 0c5c 93F84930 		ldrb	r3, [r3, #73]	@ zero_extendqisi2
 551:build/openmote-cc2538_armgcc/openstack/02a-MAClow/IEEE802154_security.c ****          openserial_printError(COMPONENT_SECURITY,ERR_SECURITY,
 1684              		.loc 1 551 0
 1685 0c60 2620     		movs	r0, #38
 1686 0c62 3B21     		movs	r1, #59
 1687 0c64 1A46     		mov	r2, r3
 1688 0c66 0823     		movs	r3, #8
 1689 0c68 FFF7FEFF 		bl	openserial_printError
 553:build/openmote-cc2538_armgcc/openstack/02a-MAClow/IEEE802154_security.c ****                               (errorparameter_t)8);
 554:build/openmote-cc2538_armgcc/openstack/02a-MAClow/IEEE802154_security.c ****          return E_FAIL;
 1690              		.loc 1 554 0
 1691 0c6c 0123     		movs	r3, #1
 1692 0c6e D1E0     		b	.L85
 1693              	.L71:
 555:build/openmote-cc2538_armgcc/openstack/02a-MAClow/IEEE802154_security.c ****       }
 556:build/openmote-cc2538_armgcc/openstack/02a-MAClow/IEEE802154_security.c **** 
 557:build/openmote-cc2538_armgcc/openstack/02a-MAClow/IEEE802154_security.c ****       // incoming security level checking
 558:build/openmote-cc2538_armgcc/openstack/02a-MAClow/IEEE802154_security.c ****       outStatus = IEEE802154_security_incomingSecurityLevelChecking(securityLevelDescriptor,
 1694              		.loc 1 558 0
 1695 0c70 7B68     		ldr	r3, [r7, #4]
 1696 0c72 93F86C20 		ldrb	r2, [r3, #108]	@ zero_extendqisi2
 1697 0c76 3B6A     		ldr	r3, [r7, #32]
 1698 0c78 9B7D     		ldrb	r3, [r3, #22]	@ zero_extendqisi2
 1699 0c7a F869     		ldr	r0, [r7, #28]
 1700 0c7c 1146     		mov	r1, r2
 1701 0c7e 1A46     		mov	r2, r3
 1702 0c80 FFF7FEFF 		bl	IEEE802154_security_incomingSecurityLevelChecking
 1703 0c84 0346     		mov	r3, r0
 1704 0c86 FB76     		strb	r3, [r7, #27]
 559:build/openmote-cc2538_armgcc/openstack/02a-MAClow/IEEE802154_security.c ****                                                                     msg->l2_securityLevel,
 560:build/openmote-cc2538_armgcc/openstack/02a-MAClow/IEEE802154_security.c ****                                                                     deviceDescriptor->Exempt);
 561:build/openmote-cc2538_armgcc/openstack/02a-MAClow/IEEE802154_security.c **** 
 562:build/openmote-cc2538_armgcc/openstack/02a-MAClow/IEEE802154_security.c ****       if(outStatus == FALSE) { // security level not allowed according to local security policies
 1705              		.loc 1 562 0
 1706 0c88 FB7E     		ldrb	r3, [r7, #27]	@ zero_extendqisi2
 1707 0c8a 002B     		cmp	r3, #0
 1708 0c8c 0AD1     		bne	.L72
 563:build/openmote-cc2538_armgcc/openstack/02a-MAClow/IEEE802154_security.c ****          openserial_printError(COMPONENT_SECURITY,ERR_SECURITY,
 564:build/openmote-cc2538_armgcc/openstack/02a-MAClow/IEEE802154_security.c ****                               (errorparameter_t)msg->l2_frameType,
 1709              		.loc 1 564 0
 1710 0c8e 7B68     		ldr	r3, [r7, #4]
 1711 0c90 93F84930 		ldrb	r3, [r3, #73]	@ zero_extendqisi2
 563:build/openmote-cc2538_armgcc/openstack/02a-MAClow/IEEE802154_security.c ****          openserial_printError(COMPONENT_SECURITY,ERR_SECURITY,
 1712              		.loc 1 563 0
 1713 0c94 2620     		movs	r0, #38
 1714 0c96 3B21     		movs	r1, #59
 1715 0c98 1A46     		mov	r2, r3
 1716 0c9a 0923     		movs	r3, #9
 1717 0c9c FFF7FEFF 		bl	openserial_printError
 565:build/openmote-cc2538_armgcc/openstack/02a-MAClow/IEEE802154_security.c ****                               (errorparameter_t)9);
 566:build/openmote-cc2538_armgcc/openstack/02a-MAClow/IEEE802154_security.c ****          return E_FAIL;
 1718              		.loc 1 566 0
 1719 0ca0 0123     		movs	r3, #1
 1720 0ca2 B7E0     		b	.L85
 1721              	.L72:
 567:build/openmote-cc2538_armgcc/openstack/02a-MAClow/IEEE802154_security.c ****       }
 568:build/openmote-cc2538_armgcc/openstack/02a-MAClow/IEEE802154_security.c **** 
 569:build/openmote-cc2538_armgcc/openstack/02a-MAClow/IEEE802154_security.c ****       // incoming key usage policy checking
 570:build/openmote-cc2538_armgcc/openstack/02a-MAClow/IEEE802154_security.c ****       outStatus = IEEE802154_security_incomingKeyUsagePolicyChecking(keyDescriptor,
 1722              		.loc 1 570 0
 1723 0ca4 7B68     		ldr	r3, [r7, #4]
 1724 0ca6 93F84930 		ldrb	r3, [r3, #73]	@ zero_extendqisi2
 1725 0caa 786A     		ldr	r0, [r7, #36]
 1726 0cac 1946     		mov	r1, r3
 1727 0cae 0022     		movs	r2, #0
 1728 0cb0 FFF7FEFF 		bl	IEEE802154_security_incomingKeyUsagePolicyChecking
 1729 0cb4 0346     		mov	r3, r0
 1730 0cb6 FB76     		strb	r3, [r7, #27]
 571:build/openmote-cc2538_armgcc/openstack/02a-MAClow/IEEE802154_security.c ****                                                                      msg->l2_frameType,
 572:build/openmote-cc2538_armgcc/openstack/02a-MAClow/IEEE802154_security.c ****                                                                      0);
 573:build/openmote-cc2538_armgcc/openstack/02a-MAClow/IEEE802154_security.c ****       if(outStatus == FALSE){ // improper use of the key, according to local security policies
 1731              		.loc 1 573 0
 1732 0cb8 FB7E     		ldrb	r3, [r7, #27]	@ zero_extendqisi2
 1733 0cba 002B     		cmp	r3, #0
 1734 0cbc 0AD1     		bne	.L73
 574:build/openmote-cc2538_armgcc/openstack/02a-MAClow/IEEE802154_security.c ****          openserial_printError(COMPONENT_SECURITY,ERR_SECURITY,
 575:build/openmote-cc2538_armgcc/openstack/02a-MAClow/IEEE802154_security.c ****                              (errorparameter_t)msg->l2_frameType,
 1735              		.loc 1 575 0
 1736 0cbe 7B68     		ldr	r3, [r7, #4]
 1737 0cc0 93F84930 		ldrb	r3, [r3, #73]	@ zero_extendqisi2
 574:build/openmote-cc2538_armgcc/openstack/02a-MAClow/IEEE802154_security.c ****          openserial_printError(COMPONENT_SECURITY,ERR_SECURITY,
 1738              		.loc 1 574 0
 1739 0cc4 2620     		movs	r0, #38
 1740 0cc6 3B21     		movs	r1, #59
 1741 0cc8 1A46     		mov	r2, r3
 1742 0cca 0A23     		movs	r3, #10
 1743 0ccc FFF7FEFF 		bl	openserial_printError
 576:build/openmote-cc2538_armgcc/openstack/02a-MAClow/IEEE802154_security.c ****                              (errorparameter_t)10);
 577:build/openmote-cc2538_armgcc/openstack/02a-MAClow/IEEE802154_security.c ****       return E_FAIL;
 1744              		.loc 1 577 0
 1745 0cd0 0123     		movs	r3, #1
 1746 0cd2 9FE0     		b	.L85
 1747              	.L73:
 578:build/openmote-cc2538_armgcc/openstack/02a-MAClow/IEEE802154_security.c ****       }
 579:build/openmote-cc2538_armgcc/openstack/02a-MAClow/IEEE802154_security.c **** 
 580:build/openmote-cc2538_armgcc/openstack/02a-MAClow/IEEE802154_security.c ****       key = keyDescriptor->key;
 1748              		.loc 1 580 0
 1749 0cd4 7B6A     		ldr	r3, [r7, #36]
 1750 0cd6 4233     		adds	r3, r3, #66
 1751 0cd8 BB62     		str	r3, [r7, #40]
 1752 0cda 08E0     		b	.L74
 1753              	.L67:
 581:build/openmote-cc2538_armgcc/openstack/02a-MAClow/IEEE802154_security.c ****    } else { // minimal processing for efficiency
 582:build/openmote-cc2538_armgcc/openstack/02a-MAClow/IEEE802154_security.c ****       key = msg->l2_frameType == IEEE154_TYPE_BEACON ? ieee802154_security_vars.Key_1 : ieee802154_
 1754              		.loc 1 582 0
 1755 0cdc 7B68     		ldr	r3, [r7, #4]
 1756 0cde 93F84930 		ldrb	r3, [r3, #73]	@ zero_extendqisi2
 1757 0ce2 002B     		cmp	r3, #0
 1758 0ce4 01D1     		bne	.L75
 1759              		.loc 1 582 0 is_stmt 0 discriminator 1
 1760 0ce6 4E4B     		ldr	r3, .L86
 1761 0ce8 00E0     		b	.L76
 1762              	.L75:
 1763              		.loc 1 582 0 discriminator 2
 1764 0cea 4E4B     		ldr	r3, .L86+4
 1765              	.L76:
 1766              		.loc 1 582 0 discriminator 3
 1767 0cec BB62     		str	r3, [r7, #40]
 1768              	.L74:
 583:build/openmote-cc2538_armgcc/openstack/02a-MAClow/IEEE802154_security.c ****    }
 584:build/openmote-cc2538_armgcc/openstack/02a-MAClow/IEEE802154_security.c **** 
 585:build/openmote-cc2538_armgcc/openstack/02a-MAClow/IEEE802154_security.c ****    // First 8 bytes of the nonce are always the source address of the frame
 586:build/openmote-cc2538_armgcc/openstack/02a-MAClow/IEEE802154_security.c ****    memcpy(&nonce[0],msg->l2_nextORpreviousHop.addr_64b, 8);
 1769              		.loc 1 586 0 is_stmt 1
 1770 0cee 7B68     		ldr	r3, [r7, #4]
 1771 0cf0 3933     		adds	r3, r3, #57
 1772 0cf2 07F10C02 		add	r2, r7, #12
 1773 0cf6 1046     		mov	r0, r2
 1774 0cf8 1946     		mov	r1, r3
 1775 0cfa 0822     		movs	r2, #8
 1776 0cfc FFF7FEFF 		bl	memcpy
 587:build/openmote-cc2538_armgcc/openstack/02a-MAClow/IEEE802154_security.c ****    // Fill last 5 bytes with ASN part of the nonce
 588:build/openmote-cc2538_armgcc/openstack/02a-MAClow/IEEE802154_security.c ****    ieee154e_getAsn(&nonce[8]);
 1777              		.loc 1 588 0
 1778 0d00 07F10C03 		add	r3, r7, #12
 1779 0d04 0833     		adds	r3, r3, #8
 1780 0d06 1846     		mov	r0, r3
 1781 0d08 FFF7FEFF 		bl	ieee154e_getAsn
 589:build/openmote-cc2538_armgcc/openstack/02a-MAClow/IEEE802154_security.c **** 
 590:build/openmote-cc2538_armgcc/openstack/02a-MAClow/IEEE802154_security.c ****    //identify data to be authenticated and data to be decrypted
 591:build/openmote-cc2538_armgcc/openstack/02a-MAClow/IEEE802154_security.c ****    switch (msg->l2_securityLevel) {
 1782              		.loc 1 591 0
 1783 0d0c 7B68     		ldr	r3, [r7, #4]
 1784 0d0e 93F86C30 		ldrb	r3, [r3, #108]	@ zero_extendqisi2
 1785 0d12 013B     		subs	r3, r3, #1
 1786 0d14 062B     		cmp	r3, #6
 1787 0d16 3CD8     		bhi	.L77
 1788 0d18 01A2     		adr	r2, .L79
 1789 0d1a 52F823F0 		ldr	pc, [r2, r3, lsl #2]
 1790 0d1e 00BF     		.p2align 2
 1791              	.L79:
 1792 0d20 3D0D0000 		.word	.L78+1
 1793 0d24 3D0D0000 		.word	.L78+1
 1794 0d28 3D0D0000 		.word	.L78+1
 1795 0d2c 8F0D0000 		.word	.L80+1
 1796 0d30 690D0000 		.word	.L81+1
 1797 0d34 690D0000 		.word	.L81+1
 1798 0d38 690D0000 		.word	.L81+1
 1799              	.L78:
 592:build/openmote-cc2538_armgcc/openstack/02a-MAClow/IEEE802154_security.c ****       case IEEE154_ASH_SLF_TYPE_MIC_32:  // authentication only cases
 593:build/openmote-cc2538_armgcc/openstack/02a-MAClow/IEEE802154_security.c ****       case IEEE154_ASH_SLF_TYPE_MIC_64:
 594:build/openmote-cc2538_armgcc/openstack/02a-MAClow/IEEE802154_security.c ****       case IEEE154_ASH_SLF_TYPE_MIC_128: 
 595:build/openmote-cc2538_armgcc/openstack/02a-MAClow/IEEE802154_security.c ****          a = msg->payload;                                           // first byte of the frame
 1800              		.loc 1 595 0
 1801 0d3c 7B68     		ldr	r3, [r7, #4]
 1802 0d3e 5B68     		ldr	r3, [r3, #4]
 1803 0d40 7B63     		str	r3, [r7, #52]
 596:build/openmote-cc2538_armgcc/openstack/02a-MAClow/IEEE802154_security.c ****          len_a = msg->length-msg->l2_authenticationLength;           // whole frame
 1804              		.loc 1 596 0
 1805 0d42 7B68     		ldr	r3, [r7, #4]
 1806 0d44 1A7A     		ldrb	r2, [r3, #8]	@ zero_extendqisi2
 1807 0d46 7B68     		ldr	r3, [r7, #4]
 1808 0d48 93F88030 		ldrb	r3, [r3, #128]	@ zero_extendqisi2
 1809 0d4c D31A     		subs	r3, r2, r3
 1810 0d4e 87F83330 		strb	r3, [r7, #51]
 597:build/openmote-cc2538_armgcc/openstack/02a-MAClow/IEEE802154_security.c ****          c = &msg->payload[len_a];                                   // MIC is at the end of the fr
 1811              		.loc 1 597 0
 1812 0d52 7B68     		ldr	r3, [r7, #4]
 1813 0d54 5A68     		ldr	r2, [r3, #4]
 1814 0d56 97F83330 		ldrb	r3, [r7, #51]	@ zero_extendqisi2
 1815 0d5a 1344     		add	r3, r3, r2
 1816 0d5c FB62     		str	r3, [r7, #44]
 598:build/openmote-cc2538_armgcc/openstack/02a-MAClow/IEEE802154_security.c ****          len_c = msg->l2_authenticationLength;                       // length of the encrypted par
 1817              		.loc 1 598 0
 1818 0d5e 7B68     		ldr	r3, [r7, #4]
 1819 0d60 93F88030 		ldrb	r3, [r3, #128]	@ zero_extendqisi2
 1820 0d64 FB72     		strb	r3, [r7, #11]
 599:build/openmote-cc2538_armgcc/openstack/02a-MAClow/IEEE802154_security.c ****          break;
 1821              		.loc 1 599 0
 1822 0d66 16E0     		b	.L82
 1823              	.L81:
 600:build/openmote-cc2538_armgcc/openstack/02a-MAClow/IEEE802154_security.c ****       case IEEE154_ASH_SLF_TYPE_ENC_MIC_32:  // authentication + encryption cases
 601:build/openmote-cc2538_armgcc/openstack/02a-MAClow/IEEE802154_security.c ****       case IEEE154_ASH_SLF_TYPE_ENC_MIC_64:
 602:build/openmote-cc2538_armgcc/openstack/02a-MAClow/IEEE802154_security.c ****       case IEEE154_ASH_SLF_TYPE_ENC_MIC_128:
 603:build/openmote-cc2538_armgcc/openstack/02a-MAClow/IEEE802154_security.c ****          a = msg->payload;             // first byte of the frame
 1824              		.loc 1 603 0
 1825 0d68 7B68     		ldr	r3, [r7, #4]
 1826 0d6a 5B68     		ldr	r3, [r3, #4]
 1827 0d6c 7B63     		str	r3, [r7, #52]
 604:build/openmote-cc2538_armgcc/openstack/02a-MAClow/IEEE802154_security.c ****          c = msg->l2_payload;          // first byte where we should start decrypting 
 1828              		.loc 1 604 0
 1829 0d6e 7B68     		ldr	r3, [r7, #4]
 1830 0d70 5B6D     		ldr	r3, [r3, #84]
 1831 0d72 FB62     		str	r3, [r7, #44]
 605:build/openmote-cc2538_armgcc/openstack/02a-MAClow/IEEE802154_security.c ****          len_a = c - a;                // part that is only authenticated is the difference of two 
 1832              		.loc 1 605 0
 1833 0d74 FA6A     		ldr	r2, [r7, #44]
 1834 0d76 7B6B     		ldr	r3, [r7, #52]
 1835 0d78 D31A     		subs	r3, r2, r3
 1836 0d7a 87F83330 		strb	r3, [r7, #51]
 606:build/openmote-cc2538_armgcc/openstack/02a-MAClow/IEEE802154_security.c ****          len_c = msg->length - len_a;  // part that is decrypted+authenticated is the rest of the f
 1837              		.loc 1 606 0
 1838 0d7e 7B68     		ldr	r3, [r7, #4]
 1839 0d80 1A7A     		ldrb	r2, [r3, #8]	@ zero_extendqisi2
 1840 0d82 97F83330 		ldrb	r3, [r7, #51]
 1841 0d86 D31A     		subs	r3, r2, r3
 1842 0d88 DBB2     		uxtb	r3, r3
 1843 0d8a FB72     		strb	r3, [r7, #11]
 607:build/openmote-cc2538_armgcc/openstack/02a-MAClow/IEEE802154_security.c ****          break;
 1844              		.loc 1 607 0
 1845 0d8c 03E0     		b	.L82
 1846              	.L80:
 608:build/openmote-cc2538_armgcc/openstack/02a-MAClow/IEEE802154_security.c ****       case IEEE154_ASH_SLF_TYPE_ENC:    // encryption only
 609:build/openmote-cc2538_armgcc/openstack/02a-MAClow/IEEE802154_security.c ****          // unsecure, should not support it
 610:build/openmote-cc2538_armgcc/openstack/02a-MAClow/IEEE802154_security.c ****          return E_FAIL;
 1847              		.loc 1 610 0
 1848 0d8e 0123     		movs	r3, #1
 1849 0d90 40E0     		b	.L85
 1850              	.L77:
 611:build/openmote-cc2538_armgcc/openstack/02a-MAClow/IEEE802154_security.c ****       default:
 612:build/openmote-cc2538_armgcc/openstack/02a-MAClow/IEEE802154_security.c ****          // reject anything else
 613:build/openmote-cc2538_armgcc/openstack/02a-MAClow/IEEE802154_security.c ****          return E_FAIL;
 1851              		.loc 1 613 0
 1852 0d92 0123     		movs	r3, #1
 1853 0d94 3EE0     		b	.L85
 1854              	.L82:
 614:build/openmote-cc2538_armgcc/openstack/02a-MAClow/IEEE802154_security.c ****     }
 615:build/openmote-cc2538_armgcc/openstack/02a-MAClow/IEEE802154_security.c **** 
 616:build/openmote-cc2538_armgcc/openstack/02a-MAClow/IEEE802154_security.c ****    // assert
 617:build/openmote-cc2538_armgcc/openstack/02a-MAClow/IEEE802154_security.c ****    if (len_a + len_c > 125) {
 1855              		.loc 1 617 0
 1856 0d96 97F83320 		ldrb	r2, [r7, #51]	@ zero_extendqisi2
 1857 0d9a FB7A     		ldrb	r3, [r7, #11]	@ zero_extendqisi2
 1858 0d9c 1344     		add	r3, r3, r2
 1859 0d9e 7D2B     		cmp	r3, #125
 1860 0da0 0ADD     		ble	.L83
 618:build/openmote-cc2538_armgcc/openstack/02a-MAClow/IEEE802154_security.c ****       openserial_printError(COMPONENT_SECURITY,ERR_SECURITY,
 619:build/openmote-cc2538_armgcc/openstack/02a-MAClow/IEEE802154_security.c ****                            (errorparameter_t)msg->l2_frameType,
 1861              		.loc 1 619 0
 1862 0da2 7B68     		ldr	r3, [r7, #4]
 1863 0da4 93F84930 		ldrb	r3, [r3, #73]	@ zero_extendqisi2
 618:build/openmote-cc2538_armgcc/openstack/02a-MAClow/IEEE802154_security.c ****       openserial_printError(COMPONENT_SECURITY,ERR_SECURITY,
 1864              		.loc 1 618 0
 1865 0da8 2620     		movs	r0, #38
 1866 0daa 3B21     		movs	r1, #59
 1867 0dac 1A46     		mov	r2, r3
 1868 0dae 0B23     		movs	r3, #11
 1869 0db0 FFF7FEFF 		bl	openserial_printError
 620:build/openmote-cc2538_armgcc/openstack/02a-MAClow/IEEE802154_security.c ****                            (errorparameter_t)11);
 621:build/openmote-cc2538_armgcc/openstack/02a-MAClow/IEEE802154_security.c ****       return E_FAIL;
 1870              		.loc 1 621 0
 1871 0db4 0123     		movs	r3, #1
 1872 0db6 2DE0     		b	.L85
 1873              	.L83:
 622:build/openmote-cc2538_armgcc/openstack/02a-MAClow/IEEE802154_security.c ****    }
 623:build/openmote-cc2538_armgcc/openstack/02a-MAClow/IEEE802154_security.c **** 
 624:build/openmote-cc2538_armgcc/openstack/02a-MAClow/IEEE802154_security.c ****    //decrypt and/or verify authenticity of the frame
 625:build/openmote-cc2538_armgcc/openstack/02a-MAClow/IEEE802154_security.c ****    outStatus = CRYPTO_ENGINE.aes_ccms_dec(a,
 1874              		.loc 1 625 0
 1875 0db8 40F20003 		movw	r3, #:lower16:board_crypto_engine
 1876 0dbc C0F20003 		movt	r3, #:upper16:board_crypto_engine
 1877 0dc0 5C68     		ldr	r4, [r3, #4]
 1878 0dc2 7B68     		ldr	r3, [r7, #4]
 1879 0dc4 93F88010 		ldrb	r1, [r3, #128]	@ zero_extendqisi2
 1880 0dc8 97F83320 		ldrb	r2, [r7, #51]	@ zero_extendqisi2
 1881 0dcc 07F10B03 		add	r3, r7, #11
 1882 0dd0 07F10C00 		add	r0, r7, #12
 1883 0dd4 0090     		str	r0, [sp]
 1884 0dd6 0220     		movs	r0, #2
 1885 0dd8 0190     		str	r0, [sp, #4]
 1886 0dda B86A     		ldr	r0, [r7, #40]
 1887 0ddc 0290     		str	r0, [sp, #8]
 1888 0dde 0391     		str	r1, [sp, #12]
 1889 0de0 786B     		ldr	r0, [r7, #52]
 1890 0de2 1146     		mov	r1, r2
 1891 0de4 FA6A     		ldr	r2, [r7, #44]
 1892 0de6 A047     		blx	r4
 1893 0de8 0346     		mov	r3, r0
 1894 0dea FB76     		strb	r3, [r7, #27]
 626:build/openmote-cc2538_armgcc/openstack/02a-MAClow/IEEE802154_security.c ****                                           len_a,
 627:build/openmote-cc2538_armgcc/openstack/02a-MAClow/IEEE802154_security.c ****                                           c,
 628:build/openmote-cc2538_armgcc/openstack/02a-MAClow/IEEE802154_security.c ****                                           &len_c,
 629:build/openmote-cc2538_armgcc/openstack/02a-MAClow/IEEE802154_security.c ****                                           nonce,
 630:build/openmote-cc2538_armgcc/openstack/02a-MAClow/IEEE802154_security.c ****                                           2,
 631:build/openmote-cc2538_armgcc/openstack/02a-MAClow/IEEE802154_security.c ****                                           key,
 632:build/openmote-cc2538_armgcc/openstack/02a-MAClow/IEEE802154_security.c ****                                           msg->l2_authenticationLength);
 633:build/openmote-cc2538_armgcc/openstack/02a-MAClow/IEEE802154_security.c **** 
 634:build/openmote-cc2538_armgcc/openstack/02a-MAClow/IEEE802154_security.c ****    //verify if any error occurs
 635:build/openmote-cc2538_armgcc/openstack/02a-MAClow/IEEE802154_security.c ****    if (outStatus != E_SUCCESS){
 1895              		.loc 1 635 0
 1896 0dec FB7E     		ldrb	r3, [r7, #27]	@ zero_extendqisi2
 1897 0dee 002B     		cmp	r3, #0
 1898 0df0 08D0     		beq	.L84
 636:build/openmote-cc2538_armgcc/openstack/02a-MAClow/IEEE802154_security.c ****       openserial_printError(COMPONENT_SECURITY,ERR_SECURITY,
 637:build/openmote-cc2538_armgcc/openstack/02a-MAClow/IEEE802154_security.c ****                            (errorparameter_t)msg->l2_frameType,
 1899              		.loc 1 637 0
 1900 0df2 7B68     		ldr	r3, [r7, #4]
 1901 0df4 93F84930 		ldrb	r3, [r3, #73]	@ zero_extendqisi2
 636:build/openmote-cc2538_armgcc/openstack/02a-MAClow/IEEE802154_security.c ****       openserial_printError(COMPONENT_SECURITY,ERR_SECURITY,
 1902              		.loc 1 636 0
 1903 0df8 2620     		movs	r0, #38
 1904 0dfa 3B21     		movs	r1, #59
 1905 0dfc 1A46     		mov	r2, r3
 1906 0dfe 0C23     		movs	r3, #12
 1907 0e00 FFF7FEFF 		bl	openserial_printError
 1908              	.L84:
 638:build/openmote-cc2538_armgcc/openstack/02a-MAClow/IEEE802154_security.c ****                            (errorparameter_t)12);
 639:build/openmote-cc2538_armgcc/openstack/02a-MAClow/IEEE802154_security.c ****    }
 640:build/openmote-cc2538_armgcc/openstack/02a-MAClow/IEEE802154_security.c **** 
 641:build/openmote-cc2538_armgcc/openstack/02a-MAClow/IEEE802154_security.c ****    packetfunctions_tossFooter(msg,msg->l2_authenticationLength);
 1909              		.loc 1 641 0
 1910 0e04 7B68     		ldr	r3, [r7, #4]
 1911 0e06 93F88030 		ldrb	r3, [r3, #128]	@ zero_extendqisi2
 1912 0e0a 7868     		ldr	r0, [r7, #4]
 1913 0e0c 1946     		mov	r1, r3
 1914 0e0e FFF7FEFF 		bl	packetfunctions_tossFooter
 642:build/openmote-cc2538_armgcc/openstack/02a-MAClow/IEEE802154_security.c ****    
 643:build/openmote-cc2538_armgcc/openstack/02a-MAClow/IEEE802154_security.c ****    return outStatus;
 1915              		.loc 1 643 0
 1916 0e12 FB7E     		ldrb	r3, [r7, #27]	@ zero_extendqisi2
 1917              	.L85:
 644:build/openmote-cc2538_armgcc/openstack/02a-MAClow/IEEE802154_security.c **** }
 1918              		.loc 1 644 0
 1919 0e14 1846     		mov	r0, r3
 1920 0e16 3837     		adds	r7, r7, #56
 1921 0e18 BD46     		mov	sp, r7
 1922              		@ sp needed
 1923 0e1a BDE8F081 		pop	{r4, r5, r6, r7, r8, pc}
 1924              	.L87:
 1925 0e1e 00BF     		.align	2
 1926              	.L86:
 1927 0e20 6A040000 		.word	ieee802154_security_vars+1130
 1928 0e24 7A040000 		.word	ieee802154_security_vars+1146
 1929              		.cfi_endproc
 1930              	.LFE4:
 1932              		.align	2
 1933              		.global	IEEE802154_security_authLengthChecking
 1934              		.thumb
 1935              		.thumb_func
 1937              	IEEE802154_security_authLengthChecking:
 1938              	.LFB5:
 645:build/openmote-cc2538_armgcc/openstack/02a-MAClow/IEEE802154_security.c **** 
 646:build/openmote-cc2538_armgcc/openstack/02a-MAClow/IEEE802154_security.c **** //=========================== private =========================================
 647:build/openmote-cc2538_armgcc/openstack/02a-MAClow/IEEE802154_security.c **** 
 648:build/openmote-cc2538_armgcc/openstack/02a-MAClow/IEEE802154_security.c **** /**
 649:build/openmote-cc2538_armgcc/openstack/02a-MAClow/IEEE802154_security.c **** \brief Identification of the length of the MIC based on the security Level in the frame
 650:build/openmote-cc2538_armgcc/openstack/02a-MAClow/IEEE802154_security.c **** */
 651:build/openmote-cc2538_armgcc/openstack/02a-MAClow/IEEE802154_security.c **** uint8_t IEEE802154_security_authLengthChecking(uint8_t securityLevel){
 1939              		.loc 1 651 0
 1940              		.cfi_startproc
 1941              		@ args = 0, pretend = 0, frame = 16
 1942              		@ frame_needed = 1, uses_anonymous_args = 0
 1943              		@ link register save eliminated.
 1944 0e28 80B4     		push	{r7}
 1945              		.cfi_def_cfa_offset 4
 1946              		.cfi_offset 7, -4
 1947 0e2a 85B0     		sub	sp, sp, #20
 1948              		.cfi_def_cfa_offset 24
 1949 0e2c 00AF     		add	r7, sp, #0
 1950              		.cfi_def_cfa_register 7
 1951 0e2e 0346     		mov	r3, r0
 1952 0e30 FB71     		strb	r3, [r7, #7]
 652:build/openmote-cc2538_armgcc/openstack/02a-MAClow/IEEE802154_security.c **** 
 653:build/openmote-cc2538_armgcc/openstack/02a-MAClow/IEEE802154_security.c ****    uint8_t authlen;
 654:build/openmote-cc2538_armgcc/openstack/02a-MAClow/IEEE802154_security.c ****    switch (securityLevel) {
 1953              		.loc 1 654 0
 1954 0e32 FB79     		ldrb	r3, [r7, #7]	@ zero_extendqisi2
 1955 0e34 072B     		cmp	r3, #7
 1956 0e36 1FD8     		bhi	.L89
 1957 0e38 01A2     		adr	r2, .L91
 1958 0e3a 52F823F0 		ldr	pc, [r2, r3, lsl #2]
 1959 0e3e 00BF     		.p2align 2
 1960              	.L91:
 1961 0e40 610E0000 		.word	.L90+1
 1962 0e44 670E0000 		.word	.L92+1
 1963 0e48 6D0E0000 		.word	.L93+1
 1964 0e4c 730E0000 		.word	.L94+1
 1965 0e50 610E0000 		.word	.L90+1
 1966 0e54 670E0000 		.word	.L92+1
 1967 0e58 6D0E0000 		.word	.L93+1
 1968 0e5c 730E0000 		.word	.L94+1
 1969              	.L90:
 655:build/openmote-cc2538_armgcc/openstack/02a-MAClow/IEEE802154_security.c ****       case IEEE154_ASH_SLF_TYPE_NOSEC:
 656:build/openmote-cc2538_armgcc/openstack/02a-MAClow/IEEE802154_security.c ****       case IEEE154_ASH_SLF_TYPE_ENC:
 657:build/openmote-cc2538_armgcc/openstack/02a-MAClow/IEEE802154_security.c ****          authlen = 0;
 1970              		.loc 1 657 0
 1971 0e60 0023     		movs	r3, #0
 1972 0e62 FB73     		strb	r3, [r7, #15]
 658:build/openmote-cc2538_armgcc/openstack/02a-MAClow/IEEE802154_security.c ****          break;
 1973              		.loc 1 658 0
 1974 0e64 08E0     		b	.L89
 1975              	.L92:
 659:build/openmote-cc2538_armgcc/openstack/02a-MAClow/IEEE802154_security.c ****       case IEEE154_ASH_SLF_TYPE_MIC_32:
 660:build/openmote-cc2538_armgcc/openstack/02a-MAClow/IEEE802154_security.c ****       case IEEE154_ASH_SLF_TYPE_ENC_MIC_32:
 661:build/openmote-cc2538_armgcc/openstack/02a-MAClow/IEEE802154_security.c ****          authlen = 4;
 1976              		.loc 1 661 0
 1977 0e66 0423     		movs	r3, #4
 1978 0e68 FB73     		strb	r3, [r7, #15]
 662:build/openmote-cc2538_armgcc/openstack/02a-MAClow/IEEE802154_security.c ****          break;
 1979              		.loc 1 662 0
 1980 0e6a 05E0     		b	.L89
 1981              	.L93:
 663:build/openmote-cc2538_armgcc/openstack/02a-MAClow/IEEE802154_security.c ****       case IEEE154_ASH_SLF_TYPE_MIC_64:
 664:build/openmote-cc2538_armgcc/openstack/02a-MAClow/IEEE802154_security.c ****       case IEEE154_ASH_SLF_TYPE_ENC_MIC_64:
 665:build/openmote-cc2538_armgcc/openstack/02a-MAClow/IEEE802154_security.c ****          authlen = 8;
 1982              		.loc 1 665 0
 1983 0e6c 0823     		movs	r3, #8
 1984 0e6e FB73     		strb	r3, [r7, #15]
 666:build/openmote-cc2538_armgcc/openstack/02a-MAClow/IEEE802154_security.c ****          break;
 1985              		.loc 1 666 0
 1986 0e70 02E0     		b	.L89
 1987              	.L94:
 667:build/openmote-cc2538_armgcc/openstack/02a-MAClow/IEEE802154_security.c ****       case IEEE154_ASH_SLF_TYPE_MIC_128:
 668:build/openmote-cc2538_armgcc/openstack/02a-MAClow/IEEE802154_security.c ****       case IEEE154_ASH_SLF_TYPE_ENC_MIC_128:
 669:build/openmote-cc2538_armgcc/openstack/02a-MAClow/IEEE802154_security.c ****          authlen = 16;
 1988              		.loc 1 669 0
 1989 0e72 1023     		movs	r3, #16
 1990 0e74 FB73     		strb	r3, [r7, #15]
 670:build/openmote-cc2538_armgcc/openstack/02a-MAClow/IEEE802154_security.c ****          break;
 1991              		.loc 1 670 0
 1992 0e76 00BF     		nop
 1993              	.L89:
 671:build/openmote-cc2538_armgcc/openstack/02a-MAClow/IEEE802154_security.c ****       }
 672:build/openmote-cc2538_armgcc/openstack/02a-MAClow/IEEE802154_security.c **** 
 673:build/openmote-cc2538_armgcc/openstack/02a-MAClow/IEEE802154_security.c ****    return authlen;
 1994              		.loc 1 673 0
 1995 0e78 FB7B     		ldrb	r3, [r7, #15]	@ zero_extendqisi2
 674:build/openmote-cc2538_armgcc/openstack/02a-MAClow/IEEE802154_security.c **** }
 1996              		.loc 1 674 0
 1997 0e7a 1846     		mov	r0, r3
 1998 0e7c 1437     		adds	r7, r7, #20
 1999 0e7e BD46     		mov	sp, r7
 2000              		@ sp needed
 2001 0e80 5DF8047B 		ldr	r7, [sp], #4
 2002 0e84 7047     		bx	lr
 2003              		.cfi_endproc
 2004              	.LFE5:
 2006 0e86 00BF     		.align	2
 2007              		.global	IEEE802154_security_auxLengthChecking
 2008              		.thumb
 2009              		.thumb_func
 2011              	IEEE802154_security_auxLengthChecking:
 2012              	.LFB6:
 675:build/openmote-cc2538_armgcc/openstack/02a-MAClow/IEEE802154_security.c **** 
 676:build/openmote-cc2538_armgcc/openstack/02a-MAClow/IEEE802154_security.c **** /**
 677:build/openmote-cc2538_armgcc/openstack/02a-MAClow/IEEE802154_security.c **** \brief Identification of the length of the IEEE802.15.4 Auxiliary Security Header.
 678:build/openmote-cc2538_armgcc/openstack/02a-MAClow/IEEE802154_security.c **** */
 679:build/openmote-cc2538_armgcc/openstack/02a-MAClow/IEEE802154_security.c **** uint8_t IEEE802154_security_auxLengthChecking(uint8_t KeyIdMode, 
 680:build/openmote-cc2538_armgcc/openstack/02a-MAClow/IEEE802154_security.c ****                                              uint8_t frameCounterSuppression, 
 681:build/openmote-cc2538_armgcc/openstack/02a-MAClow/IEEE802154_security.c ****                                              uint8_t frameCounterSize){
 2013              		.loc 1 681 0
 2014              		.cfi_startproc
 2015              		@ args = 0, pretend = 0, frame = 16
 2016              		@ frame_needed = 1, uses_anonymous_args = 0
 2017              		@ link register save eliminated.
 2018 0e88 80B4     		push	{r7}
 2019              		.cfi_def_cfa_offset 4
 2020              		.cfi_offset 7, -4
 2021 0e8a 85B0     		sub	sp, sp, #20
 2022              		.cfi_def_cfa_offset 24
 2023 0e8c 00AF     		add	r7, sp, #0
 2024              		.cfi_def_cfa_register 7
 2025 0e8e 1346     		mov	r3, r2
 2026 0e90 0246     		mov	r2, r0
 2027 0e92 FA71     		strb	r2, [r7, #7]
 2028 0e94 0A46     		mov	r2, r1
 2029 0e96 BA71     		strb	r2, [r7, #6]
 2030 0e98 7B71     		strb	r3, [r7, #5]
 682:build/openmote-cc2538_armgcc/openstack/02a-MAClow/IEEE802154_security.c ****    uint8_t auxilary_len;
 683:build/openmote-cc2538_armgcc/openstack/02a-MAClow/IEEE802154_security.c ****    uint8_t frameCntLength;
 684:build/openmote-cc2538_armgcc/openstack/02a-MAClow/IEEE802154_security.c ****    if (frameCounterSuppression == IEEE154_ASH_FRAMECOUNTER_PRESENT){
 2031              		.loc 1 684 0
 2032 0e9a BB79     		ldrb	r3, [r7, #6]	@ zero_extendqisi2
 2033 0e9c 002B     		cmp	r3, #0
 2034 0e9e 08D1     		bne	.L97
 685:build/openmote-cc2538_armgcc/openstack/02a-MAClow/IEEE802154_security.c ****       if (frameCounterSize == 4){
 2035              		.loc 1 685 0
 2036 0ea0 7B79     		ldrb	r3, [r7, #5]	@ zero_extendqisi2
 2037 0ea2 042B     		cmp	r3, #4
 2038 0ea4 02D1     		bne	.L98
 686:build/openmote-cc2538_armgcc/openstack/02a-MAClow/IEEE802154_security.c ****          frameCntLength = 4;
 2039              		.loc 1 686 0
 2040 0ea6 0423     		movs	r3, #4
 2041 0ea8 BB73     		strb	r3, [r7, #14]
 2042 0eaa 04E0     		b	.L100
 2043              	.L98:
 687:build/openmote-cc2538_armgcc/openstack/02a-MAClow/IEEE802154_security.c ****       } else {
 688:build/openmote-cc2538_armgcc/openstack/02a-MAClow/IEEE802154_security.c ****          frameCntLength = 5;
 2044              		.loc 1 688 0
 2045 0eac 0523     		movs	r3, #5
 2046 0eae BB73     		strb	r3, [r7, #14]
 2047 0eb0 01E0     		b	.L100
 2048              	.L97:
 689:build/openmote-cc2538_armgcc/openstack/02a-MAClow/IEEE802154_security.c ****       }
 690:build/openmote-cc2538_armgcc/openstack/02a-MAClow/IEEE802154_security.c ****    } else {
 691:build/openmote-cc2538_armgcc/openstack/02a-MAClow/IEEE802154_security.c ****       frameCntLength = 0;
 2049              		.loc 1 691 0
 2050 0eb2 0023     		movs	r3, #0
 2051 0eb4 BB73     		strb	r3, [r7, #14]
 2052              	.L100:
 692:build/openmote-cc2538_armgcc/openstack/02a-MAClow/IEEE802154_security.c ****    }
 693:build/openmote-cc2538_armgcc/openstack/02a-MAClow/IEEE802154_security.c **** 
 694:build/openmote-cc2538_armgcc/openstack/02a-MAClow/IEEE802154_security.c ****    switch (KeyIdMode){
 2053              		.loc 1 694 0
 2054 0eb6 FB79     		ldrb	r3, [r7, #7]	@ zero_extendqisi2
 2055 0eb8 032B     		cmp	r3, #3
 2056 0eba 1BD8     		bhi	.L109
 2057 0ebc 01A2     		adr	r2, .L103
 2058 0ebe 52F823F0 		ldr	pc, [r2, r3, lsl #2]
 2059 0ec2 00BF     		.p2align 2
 2060              	.L103:
 2061 0ec4 D50E0000 		.word	.L102+1
 2062 0ec8 DD0E0000 		.word	.L104+1
 2063 0ecc E50E0000 		.word	.L105+1
 2064 0ed0 ED0E0000 		.word	.L106+1
 2065              	.L102:
 695:build/openmote-cc2538_armgcc/openstack/02a-MAClow/IEEE802154_security.c ****       case IEEE154_ASH_KEYIDMODE_IMPLICIT:
 696:build/openmote-cc2538_armgcc/openstack/02a-MAClow/IEEE802154_security.c ****          auxilary_len = frameCntLength + 1; //only SecLev and FrameCnt
 2066              		.loc 1 696 0
 2067 0ed4 BB7B     		ldrb	r3, [r7, #14]
 2068 0ed6 0133     		adds	r3, r3, #1
 2069 0ed8 FB73     		strb	r3, [r7, #15]
 697:build/openmote-cc2538_armgcc/openstack/02a-MAClow/IEEE802154_security.c ****          break;
 2070              		.loc 1 697 0
 2071 0eda 0CE0     		b	.L107
 2072              	.L104:
 698:build/openmote-cc2538_armgcc/openstack/02a-MAClow/IEEE802154_security.c ****       case IEEE154_ASH_KEYIDMODE_DEFAULTKEYSOURCE:
 699:build/openmote-cc2538_armgcc/openstack/02a-MAClow/IEEE802154_security.c ****          auxilary_len = frameCntLength + 1 + 1; //SecLev, FrameCnt, KeyIndex
 2073              		.loc 1 699 0
 2074 0edc BB7B     		ldrb	r3, [r7, #14]
 2075 0ede 0233     		adds	r3, r3, #2
 2076 0ee0 FB73     		strb	r3, [r7, #15]
 700:build/openmote-cc2538_armgcc/openstack/02a-MAClow/IEEE802154_security.c ****          break;
 2077              		.loc 1 700 0
 2078 0ee2 08E0     		b	.L107
 2079              	.L105:
 701:build/openmote-cc2538_armgcc/openstack/02a-MAClow/IEEE802154_security.c ****       case IEEE154_ASH_KEYIDMODE_EXPLICIT_16:
 702:build/openmote-cc2538_armgcc/openstack/02a-MAClow/IEEE802154_security.c ****          auxilary_len = frameCntLength + 1 + 3; //SecLev, FrameCnt, KeyIdMode (2 bytes) and KeyInde
 2080              		.loc 1 702 0
 2081 0ee4 BB7B     		ldrb	r3, [r7, #14]
 2082 0ee6 0433     		adds	r3, r3, #4
 2083 0ee8 FB73     		strb	r3, [r7, #15]
 703:build/openmote-cc2538_armgcc/openstack/02a-MAClow/IEEE802154_security.c ****          break;
 2084              		.loc 1 703 0
 2085 0eea 04E0     		b	.L107
 2086              	.L106:
 704:build/openmote-cc2538_armgcc/openstack/02a-MAClow/IEEE802154_security.c ****       case IEEE154_ASH_KEYIDMODE_EXPLICIT_64:
 705:build/openmote-cc2538_armgcc/openstack/02a-MAClow/IEEE802154_security.c ****          auxilary_len = frameCntLength + 1 + 9; //SecLev, FrameCnt, KeyIdMode (8 bytes) and KeyInde
 2087              		.loc 1 705 0
 2088 0eec BB7B     		ldrb	r3, [r7, #14]
 2089 0eee 0A33     		adds	r3, r3, #10
 2090 0ef0 FB73     		strb	r3, [r7, #15]
 706:build/openmote-cc2538_armgcc/openstack/02a-MAClow/IEEE802154_security.c ****          break;
 2091              		.loc 1 706 0
 2092 0ef2 00E0     		b	.L107
 2093              	.L109:
 707:build/openmote-cc2538_armgcc/openstack/02a-MAClow/IEEE802154_security.c ****       default:
 708:build/openmote-cc2538_armgcc/openstack/02a-MAClow/IEEE802154_security.c ****          break;
 2094              		.loc 1 708 0
 2095 0ef4 00BF     		nop
 2096              	.L107:
 709:build/openmote-cc2538_armgcc/openstack/02a-MAClow/IEEE802154_security.c ****    }
 710:build/openmote-cc2538_armgcc/openstack/02a-MAClow/IEEE802154_security.c **** 
 711:build/openmote-cc2538_armgcc/openstack/02a-MAClow/IEEE802154_security.c ****    return auxilary_len;
 2097              		.loc 1 711 0
 2098 0ef6 FB7B     		ldrb	r3, [r7, #15]	@ zero_extendqisi2
 712:build/openmote-cc2538_armgcc/openstack/02a-MAClow/IEEE802154_security.c **** }
 2099              		.loc 1 712 0
 2100 0ef8 1846     		mov	r0, r3
 2101 0efa 1437     		adds	r7, r7, #20
 2102 0efc BD46     		mov	sp, r7
 2103              		@ sp needed
 2104 0efe 5DF8047B 		ldr	r7, [sp], #4
 2105 0f02 7047     		bx	lr
 2106              		.cfi_endproc
 2107              	.LFE6:
 2109              		.align	2
 2110              		.global	IEEE802154_security_incomingKeyUsagePolicyChecking
 2111              		.thumb
 2112              		.thumb_func
 2114              	IEEE802154_security_incomingKeyUsagePolicyChecking:
 2115              	.LFB7:
 713:build/openmote-cc2538_armgcc/openstack/02a-MAClow/IEEE802154_security.c **** 
 714:build/openmote-cc2538_armgcc/openstack/02a-MAClow/IEEE802154_security.c **** /**
 715:build/openmote-cc2538_armgcc/openstack/02a-MAClow/IEEE802154_security.c **** \brief Verify if the key used to protect the frame has been used properly.
 716:build/openmote-cc2538_armgcc/openstack/02a-MAClow/IEEE802154_security.c ****        Each key can be used to secure a particular frame type, according to
 717:build/openmote-cc2538_armgcc/openstack/02a-MAClow/IEEE802154_security.c ****        security policies defined in the initialization phase and stored in the
 718:build/openmote-cc2538_armgcc/openstack/02a-MAClow/IEEE802154_security.c ****        Mac Key Table.
 719:build/openmote-cc2538_armgcc/openstack/02a-MAClow/IEEE802154_security.c ****        The procedure verifies if the frame type parameter associated to the key
 720:build/openmote-cc2538_armgcc/openstack/02a-MAClow/IEEE802154_security.c ****        is the same than the packet for which the key has been used and returns
 721:build/openmote-cc2538_armgcc/openstack/02a-MAClow/IEEE802154_security.c ****        TRUE if the check is verified, FALSE otherwise.
 722:build/openmote-cc2538_armgcc/openstack/02a-MAClow/IEEE802154_security.c **** */
 723:build/openmote-cc2538_armgcc/openstack/02a-MAClow/IEEE802154_security.c **** bool IEEE802154_security_incomingKeyUsagePolicyChecking(m_keyDescriptor* keyDescriptor,
 724:build/openmote-cc2538_armgcc/openstack/02a-MAClow/IEEE802154_security.c ****                                                        uint8_t          frameType,
 725:build/openmote-cc2538_armgcc/openstack/02a-MAClow/IEEE802154_security.c ****                                                        uint8_t          cfi){
 2116              		.loc 1 725 0
 2117              		.cfi_startproc
 2118              		@ args = 0, pretend = 0, frame = 16
 2119              		@ frame_needed = 1, uses_anonymous_args = 0
 2120 0f04 80B5     		push	{r7, lr}
 2121              		.cfi_def_cfa_offset 8
 2122              		.cfi_offset 7, -8
 2123              		.cfi_offset 14, -4
 2124 0f06 84B0     		sub	sp, sp, #16
 2125              		.cfi_def_cfa_offset 24
 2126 0f08 00AF     		add	r7, sp, #0
 2127              		.cfi_def_cfa_register 7
 2128 0f0a 7860     		str	r0, [r7, #4]
 2129 0f0c 1346     		mov	r3, r2
 2130 0f0e 0A46     		mov	r2, r1
 2131 0f10 FA70     		strb	r2, [r7, #3]
 2132 0f12 BB70     		strb	r3, [r7, #2]
 726:build/openmote-cc2538_armgcc/openstack/02a-MAClow/IEEE802154_security.c ****    uint8_t i;
 727:build/openmote-cc2538_armgcc/openstack/02a-MAClow/IEEE802154_security.c ****    INTERRUPT_DECLARATION();
 728:build/openmote-cc2538_armgcc/openstack/02a-MAClow/IEEE802154_security.c ****    DISABLE_INTERRUPTS();
 2133              		.loc 1 728 0
 2134 0f14 FFF7FEFF 		bl	IntMasterDisable
 729:build/openmote-cc2538_armgcc/openstack/02a-MAClow/IEEE802154_security.c ****    for (i=0; i<MAXNUMNEIGHBORS; i++){
 2135              		.loc 1 729 0
 2136 0f18 0023     		movs	r3, #0
 2137 0f1a FB73     		strb	r3, [r7, #15]
 2138 0f1c 2BE0     		b	.L111
 2139              	.L115:
 730:build/openmote-cc2538_armgcc/openstack/02a-MAClow/IEEE802154_security.c ****       if (frameType != IEEE154_TYPE_CMD && frameType == keyDescriptor->KeyUsageList[i].FrameType){
 2140              		.loc 1 730 0
 2141 0f1e FB78     		ldrb	r3, [r7, #3]	@ zero_extendqisi2
 2142 0f20 032B     		cmp	r3, #3
 2143 0f22 0CD0     		beq	.L112
 2144              		.loc 1 730 0 is_stmt 0 discriminator 1
 2145 0f24 FB7B     		ldrb	r3, [r7, #15]	@ zero_extendqisi2
 2146 0f26 7A68     		ldr	r2, [r7, #4]
 2147 0f28 1C33     		adds	r3, r3, #28
 2148 0f2a 5B00     		lsls	r3, r3, #1
 2149 0f2c 1344     		add	r3, r3, r2
 2150 0f2e 1B79     		ldrb	r3, [r3, #4]	@ zero_extendqisi2
 2151 0f30 FA78     		ldrb	r2, [r7, #3]	@ zero_extendqisi2
 2152 0f32 9A42     		cmp	r2, r3
 2153 0f34 03D1     		bne	.L112
 731:build/openmote-cc2538_armgcc/openstack/02a-MAClow/IEEE802154_security.c ****          ENABLE_INTERRUPTS();
 2154              		.loc 1 731 0 is_stmt 1
 2155 0f36 FFF7FEFF 		bl	IntMasterEnable
 732:build/openmote-cc2538_armgcc/openstack/02a-MAClow/IEEE802154_security.c ****          return TRUE;
 2156              		.loc 1 732 0
 2157 0f3a 0123     		movs	r3, #1
 2158 0f3c 21E0     		b	.L113
 2159              	.L112:
 733:build/openmote-cc2538_armgcc/openstack/02a-MAClow/IEEE802154_security.c ****       }
 734:build/openmote-cc2538_armgcc/openstack/02a-MAClow/IEEE802154_security.c **** 
 735:build/openmote-cc2538_armgcc/openstack/02a-MAClow/IEEE802154_security.c ****       if (frameType == IEEE154_TYPE_CMD && frameType == keyDescriptor->KeyUsageList[i].FrameType &&
 2160              		.loc 1 735 0
 2161 0f3e FB78     		ldrb	r3, [r7, #3]	@ zero_extendqisi2
 2162 0f40 032B     		cmp	r3, #3
 2163 0f42 15D1     		bne	.L114
 2164              		.loc 1 735 0 is_stmt 0 discriminator 1
 2165 0f44 FB7B     		ldrb	r3, [r7, #15]	@ zero_extendqisi2
 2166 0f46 7A68     		ldr	r2, [r7, #4]
 2167 0f48 1C33     		adds	r3, r3, #28
 2168 0f4a 5B00     		lsls	r3, r3, #1
 2169 0f4c 1344     		add	r3, r3, r2
 2170 0f4e 1B79     		ldrb	r3, [r3, #4]	@ zero_extendqisi2
 2171 0f50 FA78     		ldrb	r2, [r7, #3]	@ zero_extendqisi2
 2172 0f52 9A42     		cmp	r2, r3
 2173 0f54 0CD1     		bne	.L114
 736:build/openmote-cc2538_armgcc/openstack/02a-MAClow/IEEE802154_security.c ****          cfi == keyDescriptor->KeyUsageList[i].CommandFrameIdentifier){
 2174              		.loc 1 736 0 is_stmt 1 discriminator 1
 2175 0f56 FB7B     		ldrb	r3, [r7, #15]	@ zero_extendqisi2
 2176 0f58 7A68     		ldr	r2, [r7, #4]
 2177 0f5a 1C33     		adds	r3, r3, #28
 2178 0f5c 5B00     		lsls	r3, r3, #1
 2179 0f5e 1344     		add	r3, r3, r2
 2180 0f60 5B79     		ldrb	r3, [r3, #5]	@ zero_extendqisi2
 735:build/openmote-cc2538_armgcc/openstack/02a-MAClow/IEEE802154_security.c ****          cfi == keyDescriptor->KeyUsageList[i].CommandFrameIdentifier){
 2181              		.loc 1 735 0 discriminator 1
 2182 0f62 BA78     		ldrb	r2, [r7, #2]	@ zero_extendqisi2
 2183 0f64 9A42     		cmp	r2, r3
 2184 0f66 03D1     		bne	.L114
 737:build/openmote-cc2538_armgcc/openstack/02a-MAClow/IEEE802154_security.c ****          ENABLE_INTERRUPTS();
 2185              		.loc 1 737 0
 2186 0f68 FFF7FEFF 		bl	IntMasterEnable
 738:build/openmote-cc2538_armgcc/openstack/02a-MAClow/IEEE802154_security.c ****          return TRUE;
 2187              		.loc 1 738 0
 2188 0f6c 0123     		movs	r3, #1
 2189 0f6e 08E0     		b	.L113
 2190              	.L114:
 729:build/openmote-cc2538_armgcc/openstack/02a-MAClow/IEEE802154_security.c ****       if (frameType != IEEE154_TYPE_CMD && frameType == keyDescriptor->KeyUsageList[i].FrameType){
 2191              		.loc 1 729 0
 2192 0f70 FB7B     		ldrb	r3, [r7, #15]	@ zero_extendqisi2
 2193 0f72 0133     		adds	r3, r3, #1
 2194 0f74 FB73     		strb	r3, [r7, #15]
 2195              	.L111:
 729:build/openmote-cc2538_armgcc/openstack/02a-MAClow/IEEE802154_security.c ****       if (frameType != IEEE154_TYPE_CMD && frameType == keyDescriptor->KeyUsageList[i].FrameType){
 2196              		.loc 1 729 0 is_stmt 0 discriminator 1
 2197 0f76 FB7B     		ldrb	r3, [r7, #15]	@ zero_extendqisi2
 2198 0f78 092B     		cmp	r3, #9
 2199 0f7a D0D9     		bls	.L115
 739:build/openmote-cc2538_armgcc/openstack/02a-MAClow/IEEE802154_security.c ****       }
 740:build/openmote-cc2538_armgcc/openstack/02a-MAClow/IEEE802154_security.c ****    }
 741:build/openmote-cc2538_armgcc/openstack/02a-MAClow/IEEE802154_security.c **** 
 742:build/openmote-cc2538_armgcc/openstack/02a-MAClow/IEEE802154_security.c ****    ENABLE_INTERRUPTS();
 2200              		.loc 1 742 0 is_stmt 1
 2201 0f7c FFF7FEFF 		bl	IntMasterEnable
 743:build/openmote-cc2538_armgcc/openstack/02a-MAClow/IEEE802154_security.c ****    return FALSE;
 2202              		.loc 1 743 0
 2203 0f80 0023     		movs	r3, #0
 2204              	.L113:
 744:build/openmote-cc2538_armgcc/openstack/02a-MAClow/IEEE802154_security.c **** }
 2205              		.loc 1 744 0
 2206 0f82 1846     		mov	r0, r3
 2207 0f84 1037     		adds	r7, r7, #16
 2208 0f86 BD46     		mov	sp, r7
 2209              		@ sp needed
 2210 0f88 80BD     		pop	{r7, pc}
 2211              		.cfi_endproc
 2212              	.LFE7:
 2214 0f8a 00BF     		.align	2
 2215              		.global	IEEE802154_security_incomingSecurityLevelChecking
 2216              		.thumb
 2217              		.thumb_func
 2219              	IEEE802154_security_incomingSecurityLevelChecking:
 2220              	.LFB8:
 745:build/openmote-cc2538_armgcc/openstack/02a-MAClow/IEEE802154_security.c **** 
 746:build/openmote-cc2538_armgcc/openstack/02a-MAClow/IEEE802154_security.c **** /**
 747:build/openmote-cc2538_armgcc/openstack/02a-MAClow/IEEE802154_security.c **** \brief Verify if the Security Level of the incoming Frame conforms to local
 748:build/openmote-cc2538_armgcc/openstack/02a-MAClow/IEEE802154_security.c ****        security policies, i.e., it is between the allowed security levels.
 749:build/openmote-cc2538_armgcc/openstack/02a-MAClow/IEEE802154_security.c **** */
 750:build/openmote-cc2538_armgcc/openstack/02a-MAClow/IEEE802154_security.c **** bool IEEE802154_security_incomingSecurityLevelChecking(m_securityLevelDescriptor* seclevdesc,
 751:build/openmote-cc2538_armgcc/openstack/02a-MAClow/IEEE802154_security.c ****                                                        uint8_t                    seclevel,
 752:build/openmote-cc2538_armgcc/openstack/02a-MAClow/IEEE802154_security.c ****                                                        bool                       exempt){
 2221              		.loc 1 752 0
 2222              		.cfi_startproc
 2223              		@ args = 0, pretend = 0, frame = 16
 2224              		@ frame_needed = 1, uses_anonymous_args = 0
 2225              		@ link register save eliminated.
 2226 0f8c 80B4     		push	{r7}
 2227              		.cfi_def_cfa_offset 4
 2228              		.cfi_offset 7, -4
 2229 0f8e 85B0     		sub	sp, sp, #20
 2230              		.cfi_def_cfa_offset 24
 2231 0f90 00AF     		add	r7, sp, #0
 2232              		.cfi_def_cfa_register 7
 2233 0f92 7860     		str	r0, [r7, #4]
 2234 0f94 1346     		mov	r3, r2
 2235 0f96 0A46     		mov	r2, r1
 2236 0f98 FA70     		strb	r2, [r7, #3]
 2237 0f9a BB70     		strb	r3, [r7, #2]
 753:build/openmote-cc2538_armgcc/openstack/02a-MAClow/IEEE802154_security.c **** 
 754:build/openmote-cc2538_armgcc/openstack/02a-MAClow/IEEE802154_security.c ****    uint8_t i;
 755:build/openmote-cc2538_armgcc/openstack/02a-MAClow/IEEE802154_security.c ****    if (seclevdesc->AllowedSecurityLevels == 0){
 2238              		.loc 1 755 0
 2239 0f9c 7B68     		ldr	r3, [r7, #4]
 2240 0f9e 0433     		adds	r3, r3, #4
 2241 0fa0 002B     		cmp	r3, #0
 2242 0fa2 08D1     		bne	.L117
 756:build/openmote-cc2538_armgcc/openstack/02a-MAClow/IEEE802154_security.c ****       if (seclevel <= seclevdesc->SecurityMinimum){
 2243              		.loc 1 756 0
 2244 0fa4 7B68     		ldr	r3, [r7, #4]
 2245 0fa6 9B78     		ldrb	r3, [r3, #2]	@ zero_extendqisi2
 2246 0fa8 FA78     		ldrb	r2, [r7, #3]	@ zero_extendqisi2
 2247 0faa 9A42     		cmp	r2, r3
 2248 0fac 01D8     		bhi	.L118
 757:build/openmote-cc2538_armgcc/openstack/02a-MAClow/IEEE802154_security.c ****          return TRUE;
 2249              		.loc 1 757 0
 2250 0fae 0123     		movs	r3, #1
 2251 0fb0 25E0     		b	.L119
 2252              	.L118:
 758:build/openmote-cc2538_armgcc/openstack/02a-MAClow/IEEE802154_security.c ****       } else {
 759:build/openmote-cc2538_armgcc/openstack/02a-MAClow/IEEE802154_security.c ****          return FALSE;
 2253              		.loc 1 759 0
 2254 0fb2 0023     		movs	r3, #0
 2255 0fb4 23E0     		b	.L119
 2256              	.L117:
 760:build/openmote-cc2538_armgcc/openstack/02a-MAClow/IEEE802154_security.c ****       }
 761:build/openmote-cc2538_armgcc/openstack/02a-MAClow/IEEE802154_security.c ****    }
 762:build/openmote-cc2538_armgcc/openstack/02a-MAClow/IEEE802154_security.c **** 
 763:build/openmote-cc2538_armgcc/openstack/02a-MAClow/IEEE802154_security.c ****    for (i=0;i<7;i++){
 2257              		.loc 1 763 0
 2258 0fb6 0023     		movs	r3, #0
 2259 0fb8 FB73     		strb	r3, [r7, #15]
 2260 0fba 0BE0     		b	.L120
 2261              	.L122:
 764:build/openmote-cc2538_armgcc/openstack/02a-MAClow/IEEE802154_security.c ****       if (seclevel == seclevdesc->AllowedSecurityLevels[i]){
 2262              		.loc 1 764 0
 2263 0fbc FB7B     		ldrb	r3, [r7, #15]	@ zero_extendqisi2
 2264 0fbe 7A68     		ldr	r2, [r7, #4]
 2265 0fc0 1344     		add	r3, r3, r2
 2266 0fc2 1B79     		ldrb	r3, [r3, #4]	@ zero_extendqisi2
 2267 0fc4 FA78     		ldrb	r2, [r7, #3]	@ zero_extendqisi2
 2268 0fc6 9A42     		cmp	r2, r3
 2269 0fc8 01D1     		bne	.L121
 765:build/openmote-cc2538_armgcc/openstack/02a-MAClow/IEEE802154_security.c ****          return TRUE;
 2270              		.loc 1 765 0
 2271 0fca 0123     		movs	r3, #1
 2272 0fcc 17E0     		b	.L119
 2273              	.L121:
 763:build/openmote-cc2538_armgcc/openstack/02a-MAClow/IEEE802154_security.c ****       if (seclevel == seclevdesc->AllowedSecurityLevels[i]){
 2274              		.loc 1 763 0
 2275 0fce FB7B     		ldrb	r3, [r7, #15]	@ zero_extendqisi2
 2276 0fd0 0133     		adds	r3, r3, #1
 2277 0fd2 FB73     		strb	r3, [r7, #15]
 2278              	.L120:
 763:build/openmote-cc2538_armgcc/openstack/02a-MAClow/IEEE802154_security.c ****       if (seclevel == seclevdesc->AllowedSecurityLevels[i]){
 2279              		.loc 1 763 0 is_stmt 0 discriminator 1
 2280 0fd4 FB7B     		ldrb	r3, [r7, #15]	@ zero_extendqisi2
 2281 0fd6 062B     		cmp	r3, #6
 2282 0fd8 F0D9     		bls	.L122
 766:build/openmote-cc2538_armgcc/openstack/02a-MAClow/IEEE802154_security.c ****       }
 767:build/openmote-cc2538_armgcc/openstack/02a-MAClow/IEEE802154_security.c ****    }
 768:build/openmote-cc2538_armgcc/openstack/02a-MAClow/IEEE802154_security.c **** 
 769:build/openmote-cc2538_armgcc/openstack/02a-MAClow/IEEE802154_security.c ****    if (seclevel == 0 && seclevdesc->DeviceOverrideSecurityMinimum ==TRUE ){
 2283              		.loc 1 769 0 is_stmt 1
 2284 0fda FB78     		ldrb	r3, [r7, #3]	@ zero_extendqisi2
 2285 0fdc 002B     		cmp	r3, #0
 2286 0fde 0DD1     		bne	.L123
 2287              		.loc 1 769 0 is_stmt 0 discriminator 1
 2288 0fe0 7B68     		ldr	r3, [r7, #4]
 2289 0fe2 DB78     		ldrb	r3, [r3, #3]	@ zero_extendqisi2
 2290 0fe4 002B     		cmp	r3, #0
 2291 0fe6 09D0     		beq	.L123
 770:build/openmote-cc2538_armgcc/openstack/02a-MAClow/IEEE802154_security.c ****       if (exempt == FALSE){
 2292              		.loc 1 770 0 is_stmt 1
 2293 0fe8 BB78     		ldrb	r3, [r7, #2]
 2294 0fea 83F00103 		eor	r3, r3, #1
 2295 0fee DBB2     		uxtb	r3, r3
 2296 0ff0 002B     		cmp	r3, #0
 2297 0ff2 01D0     		beq	.L124
 771:build/openmote-cc2538_armgcc/openstack/02a-MAClow/IEEE802154_security.c ****          return FALSE;
 2298              		.loc 1 771 0
 2299 0ff4 0023     		movs	r3, #0
 2300 0ff6 02E0     		b	.L119
 2301              	.L124:
 772:build/openmote-cc2538_armgcc/openstack/02a-MAClow/IEEE802154_security.c ****       }
 773:build/openmote-cc2538_armgcc/openstack/02a-MAClow/IEEE802154_security.c ****       return TRUE;
 2302              		.loc 1 773 0
 2303 0ff8 0123     		movs	r3, #1
 2304 0ffa 00E0     		b	.L119
 2305              	.L123:
 774:build/openmote-cc2538_armgcc/openstack/02a-MAClow/IEEE802154_security.c ****    }
 775:build/openmote-cc2538_armgcc/openstack/02a-MAClow/IEEE802154_security.c **** 
 776:build/openmote-cc2538_armgcc/openstack/02a-MAClow/IEEE802154_security.c ****    return FALSE;
 2306              		.loc 1 776 0
 2307 0ffc 0023     		movs	r3, #0
 2308              	.L119:
 777:build/openmote-cc2538_armgcc/openstack/02a-MAClow/IEEE802154_security.c **** }
 2309              		.loc 1 777 0
 2310 0ffe 1846     		mov	r0, r3
 2311 1000 1437     		adds	r7, r7, #20
 2312 1002 BD46     		mov	sp, r7
 2313              		@ sp needed
 2314 1004 5DF8047B 		ldr	r7, [sp], #4
 2315 1008 7047     		bx	lr
 2316              		.cfi_endproc
 2317              	.LFE8:
 2319 100a 00BF     		.align	2
 2320              		.global	IEEE802154_security_securityLevelDescriptorLookup
 2321              		.thumb
 2322              		.thumb_func
 2324              	IEEE802154_security_securityLevelDescriptorLookup:
 2325              	.LFB9:
 778:build/openmote-cc2538_armgcc/openstack/02a-MAClow/IEEE802154_security.c **** 
 779:build/openmote-cc2538_armgcc/openstack/02a-MAClow/IEEE802154_security.c **** /**
 780:build/openmote-cc2538_armgcc/openstack/02a-MAClow/IEEE802154_security.c **** \brief Searching for the Security Level Descriptor.
 781:build/openmote-cc2538_armgcc/openstack/02a-MAClow/IEEE802154_security.c **** */
 782:build/openmote-cc2538_armgcc/openstack/02a-MAClow/IEEE802154_security.c **** m_securityLevelDescriptor* IEEE802154_security_securityLevelDescriptorLookup(uint8_t frameType,
 783:build/openmote-cc2538_armgcc/openstack/02a-MAClow/IEEE802154_security.c ****                                                                              uint8_t cfi){
 2326              		.loc 1 783 0
 2327              		.cfi_startproc
 2328              		@ args = 0, pretend = 0, frame = 16
 2329              		@ frame_needed = 1, uses_anonymous_args = 0
 2330 100c 80B5     		push	{r7, lr}
 2331              		.cfi_def_cfa_offset 8
 2332              		.cfi_offset 7, -8
 2333              		.cfi_offset 14, -4
 2334 100e 84B0     		sub	sp, sp, #16
 2335              		.cfi_def_cfa_offset 24
 2336 1010 00AF     		add	r7, sp, #0
 2337              		.cfi_def_cfa_register 7
 2338 1012 0246     		mov	r2, r0
 2339 1014 0B46     		mov	r3, r1
 2340 1016 FA71     		strb	r2, [r7, #7]
 2341 1018 BB71     		strb	r3, [r7, #6]
 784:build/openmote-cc2538_armgcc/openstack/02a-MAClow/IEEE802154_security.c ****    uint8_t i;
 785:build/openmote-cc2538_armgcc/openstack/02a-MAClow/IEEE802154_security.c ****    INTERRUPT_DECLARATION();
 786:build/openmote-cc2538_armgcc/openstack/02a-MAClow/IEEE802154_security.c ****    DISABLE_INTERRUPTS();
 2342              		.loc 1 786 0
 2343 101a FFF7FEFF 		bl	IntMasterDisable
 787:build/openmote-cc2538_armgcc/openstack/02a-MAClow/IEEE802154_security.c ****    for (i=0; i<4; i++){
 2344              		.loc 1 787 0
 2345 101e 0023     		movs	r3, #0
 2346 1020 FB73     		strb	r3, [r7, #15]
 2347 1022 77E0     		b	.L126
 2348              	.L130:
 788:build/openmote-cc2538_armgcc/openstack/02a-MAClow/IEEE802154_security.c ****       if (ieee802154_security_vars.MacSecurityLevelTable.SecurityDescriptorEntry[i].FrameType != IE
 2349              		.loc 1 788 0
 2350 1024 F97B     		ldrb	r1, [r7, #15]	@ zero_extendqisi2
 2351 1026 40F20002 		movw	r2, #:lower16:ieee802154_security_vars
 2352 102a C0F20002 		movt	r2, #:upper16:ieee802154_security_vars
 2353 102e 0B46     		mov	r3, r1
 2354 1030 9B00     		lsls	r3, r3, #2
 2355 1032 0B44     		add	r3, r3, r1
 2356 1034 5B00     		lsls	r3, r3, #1
 2357 1036 0B44     		add	r3, r3, r1
 2358 1038 1344     		add	r3, r3, r2
 2359 103a 03F58663 		add	r3, r3, #1072
 2360 103e DB78     		ldrb	r3, [r3, #3]	@ zero_extendqisi2
 2361 1040 032B     		cmp	r3, #3
 2362 1042 21D0     		beq	.L127
 789:build/openmote-cc2538_armgcc/openstack/02a-MAClow/IEEE802154_security.c ****          && frameType == ieee802154_security_vars.MacSecurityLevelTable.SecurityDescriptorEntry[i].
 2363              		.loc 1 789 0
 2364 1044 F97B     		ldrb	r1, [r7, #15]	@ zero_extendqisi2
 2365 1046 40F20002 		movw	r2, #:lower16:ieee802154_security_vars
 2366 104a C0F20002 		movt	r2, #:upper16:ieee802154_security_vars
 2367 104e 0B46     		mov	r3, r1
 2368 1050 9B00     		lsls	r3, r3, #2
 2369 1052 0B44     		add	r3, r3, r1
 2370 1054 5B00     		lsls	r3, r3, #1
 2371 1056 0B44     		add	r3, r3, r1
 2372 1058 1344     		add	r3, r3, r2
 2373 105a 03F58663 		add	r3, r3, #1072
 2374 105e DB78     		ldrb	r3, [r3, #3]	@ zero_extendqisi2
 2375 1060 FA79     		ldrb	r2, [r7, #7]	@ zero_extendqisi2
 2376 1062 9A42     		cmp	r2, r3
 2377 1064 10D1     		bne	.L127
 790:build/openmote-cc2538_armgcc/openstack/02a-MAClow/IEEE802154_security.c **** 
 791:build/openmote-cc2538_armgcc/openstack/02a-MAClow/IEEE802154_security.c ****          ENABLE_INTERRUPTS();
 2378              		.loc 1 791 0
 2379 1066 FFF7FEFF 		bl	IntMasterEnable
 792:build/openmote-cc2538_armgcc/openstack/02a-MAClow/IEEE802154_security.c ****          return &ieee802154_security_vars.MacSecurityLevelTable.SecurityDescriptorEntry[i];
 2380              		.loc 1 792 0
 2381 106a FA7B     		ldrb	r2, [r7, #15]	@ zero_extendqisi2
 2382 106c 1346     		mov	r3, r2
 2383 106e 9B00     		lsls	r3, r3, #2
 2384 1070 1344     		add	r3, r3, r2
 2385 1072 5B00     		lsls	r3, r3, #1
 2386 1074 1344     		add	r3, r3, r2
 2387 1076 03F58662 		add	r2, r3, #1072
 2388 107a 40F20003 		movw	r3, #:lower16:ieee802154_security_vars
 2389 107e C0F20003 		movt	r3, #:upper16:ieee802154_security_vars
 2390 1082 1344     		add	r3, r3, r2
 2391 1084 0333     		adds	r3, r3, #3
 2392 1086 4BE0     		b	.L128
 2393              	.L127:
 793:build/openmote-cc2538_armgcc/openstack/02a-MAClow/IEEE802154_security.c ****       }
 794:build/openmote-cc2538_armgcc/openstack/02a-MAClow/IEEE802154_security.c **** 
 795:build/openmote-cc2538_armgcc/openstack/02a-MAClow/IEEE802154_security.c ****       if (ieee802154_security_vars.MacSecurityLevelTable.SecurityDescriptorEntry[i].FrameType == IE
 2394              		.loc 1 795 0
 2395 1088 F97B     		ldrb	r1, [r7, #15]	@ zero_extendqisi2
 2396 108a 40F20002 		movw	r2, #:lower16:ieee802154_security_vars
 2397 108e C0F20002 		movt	r2, #:upper16:ieee802154_security_vars
 2398 1092 0B46     		mov	r3, r1
 2399 1094 9B00     		lsls	r3, r3, #2
 2400 1096 0B44     		add	r3, r3, r1
 2401 1098 5B00     		lsls	r3, r3, #1
 2402 109a 0B44     		add	r3, r3, r1
 2403 109c 1344     		add	r3, r3, r2
 2404 109e 03F58663 		add	r3, r3, #1072
 2405 10a2 DB78     		ldrb	r3, [r3, #3]	@ zero_extendqisi2
 2406 10a4 032B     		cmp	r3, #3
 2407 10a6 32D1     		bne	.L129
 796:build/openmote-cc2538_armgcc/openstack/02a-MAClow/IEEE802154_security.c ****          && frameType == ieee802154_security_vars.MacSecurityLevelTable.SecurityDescriptorEntry[i].
 2408              		.loc 1 796 0
 2409 10a8 F97B     		ldrb	r1, [r7, #15]	@ zero_extendqisi2
 2410 10aa 40F20002 		movw	r2, #:lower16:ieee802154_security_vars
 2411 10ae C0F20002 		movt	r2, #:upper16:ieee802154_security_vars
 2412 10b2 0B46     		mov	r3, r1
 2413 10b4 9B00     		lsls	r3, r3, #2
 2414 10b6 0B44     		add	r3, r3, r1
 2415 10b8 5B00     		lsls	r3, r3, #1
 2416 10ba 0B44     		add	r3, r3, r1
 2417 10bc 1344     		add	r3, r3, r2
 2418 10be 03F58663 		add	r3, r3, #1072
 2419 10c2 DB78     		ldrb	r3, [r3, #3]	@ zero_extendqisi2
 2420 10c4 FA79     		ldrb	r2, [r7, #7]	@ zero_extendqisi2
 2421 10c6 9A42     		cmp	r2, r3
 2422 10c8 21D1     		bne	.L129
 797:build/openmote-cc2538_armgcc/openstack/02a-MAClow/IEEE802154_security.c ****          && cfi == ieee802154_security_vars.MacSecurityLevelTable.SecurityDescriptorEntry[i].Comman
 2423              		.loc 1 797 0
 2424 10ca F97B     		ldrb	r1, [r7, #15]	@ zero_extendqisi2
 2425 10cc 40F20002 		movw	r2, #:lower16:ieee802154_security_vars
 2426 10d0 C0F20002 		movt	r2, #:upper16:ieee802154_security_vars
 2427 10d4 0B46     		mov	r3, r1
 2428 10d6 9B00     		lsls	r3, r3, #2
 2429 10d8 0B44     		add	r3, r3, r1
 2430 10da 5B00     		lsls	r3, r3, #1
 2431 10dc 0B44     		add	r3, r3, r1
 2432 10de 1344     		add	r3, r3, r2
 2433 10e0 03F58663 		add	r3, r3, #1072
 2434 10e4 1B79     		ldrb	r3, [r3, #4]	@ zero_extendqisi2
 2435 10e6 BA79     		ldrb	r2, [r7, #6]	@ zero_extendqisi2
 2436 10e8 9A42     		cmp	r2, r3
 2437 10ea 10D1     		bne	.L129
 798:build/openmote-cc2538_armgcc/openstack/02a-MAClow/IEEE802154_security.c **** 
 799:build/openmote-cc2538_armgcc/openstack/02a-MAClow/IEEE802154_security.c ****          ENABLE_INTERRUPTS();
 2438              		.loc 1 799 0
 2439 10ec FFF7FEFF 		bl	IntMasterEnable
 800:build/openmote-cc2538_armgcc/openstack/02a-MAClow/IEEE802154_security.c ****          return &ieee802154_security_vars.MacSecurityLevelTable.SecurityDescriptorEntry[i];
 2440              		.loc 1 800 0
 2441 10f0 FA7B     		ldrb	r2, [r7, #15]	@ zero_extendqisi2
 2442 10f2 1346     		mov	r3, r2
 2443 10f4 9B00     		lsls	r3, r3, #2
 2444 10f6 1344     		add	r3, r3, r2
 2445 10f8 5B00     		lsls	r3, r3, #1
 2446 10fa 1344     		add	r3, r3, r2
 2447 10fc 03F58662 		add	r2, r3, #1072
 2448 1100 40F20003 		movw	r3, #:lower16:ieee802154_security_vars
 2449 1104 C0F20003 		movt	r3, #:upper16:ieee802154_security_vars
 2450 1108 1344     		add	r3, r3, r2
 2451 110a 0333     		adds	r3, r3, #3
 2452 110c 08E0     		b	.L128
 2453              	.L129:
 787:build/openmote-cc2538_armgcc/openstack/02a-MAClow/IEEE802154_security.c ****       if (ieee802154_security_vars.MacSecurityLevelTable.SecurityDescriptorEntry[i].FrameType != IE
 2454              		.loc 1 787 0
 2455 110e FB7B     		ldrb	r3, [r7, #15]	@ zero_extendqisi2
 2456 1110 0133     		adds	r3, r3, #1
 2457 1112 FB73     		strb	r3, [r7, #15]
 2458              	.L126:
 787:build/openmote-cc2538_armgcc/openstack/02a-MAClow/IEEE802154_security.c ****       if (ieee802154_security_vars.MacSecurityLevelTable.SecurityDescriptorEntry[i].FrameType != IE
 2459              		.loc 1 787 0 is_stmt 0 discriminator 1
 2460 1114 FB7B     		ldrb	r3, [r7, #15]	@ zero_extendqisi2
 2461 1116 032B     		cmp	r3, #3
 2462 1118 84D9     		bls	.L130
 801:build/openmote-cc2538_armgcc/openstack/02a-MAClow/IEEE802154_security.c ****       }
 802:build/openmote-cc2538_armgcc/openstack/02a-MAClow/IEEE802154_security.c ****    }
 803:build/openmote-cc2538_armgcc/openstack/02a-MAClow/IEEE802154_security.c **** 
 804:build/openmote-cc2538_armgcc/openstack/02a-MAClow/IEEE802154_security.c ****    ENABLE_INTERRUPTS();
 2463              		.loc 1 804 0 is_stmt 1
 2464 111a FFF7FEFF 		bl	IntMasterEnable
 805:build/openmote-cc2538_armgcc/openstack/02a-MAClow/IEEE802154_security.c ****    return NULL;
 2465              		.loc 1 805 0
 2466 111e 0023     		movs	r3, #0
 2467              	.L128:
 806:build/openmote-cc2538_armgcc/openstack/02a-MAClow/IEEE802154_security.c **** }
 2468              		.loc 1 806 0
 2469 1120 1846     		mov	r0, r3
 2470 1122 1037     		adds	r7, r7, #16
 2471 1124 BD46     		mov	sp, r7
 2472              		@ sp needed
 2473 1126 80BD     		pop	{r7, pc}
 2474              		.cfi_endproc
 2475              	.LFE9:
 2477              		.align	2
 2478              		.global	IEEE802154_security_deviceDescriptorLookup
 2479              		.thumb
 2480              		.thumb_func
 2482              	IEEE802154_security_deviceDescriptorLookup:
 2483              	.LFB10:
 807:build/openmote-cc2538_armgcc/openstack/02a-MAClow/IEEE802154_security.c **** 
 808:build/openmote-cc2538_armgcc/openstack/02a-MAClow/IEEE802154_security.c **** /**
 809:build/openmote-cc2538_armgcc/openstack/02a-MAClow/IEEE802154_security.c **** \brief Searching for the Device Descriptor.
 810:build/openmote-cc2538_armgcc/openstack/02a-MAClow/IEEE802154_security.c **** */
 811:build/openmote-cc2538_armgcc/openstack/02a-MAClow/IEEE802154_security.c **** m_deviceDescriptor* IEEE802154_security_deviceDescriptorLookup(open_addr_t* Address,
 812:build/openmote-cc2538_armgcc/openstack/02a-MAClow/IEEE802154_security.c ****                                                                open_addr_t* PANId,
 813:build/openmote-cc2538_armgcc/openstack/02a-MAClow/IEEE802154_security.c ****                                                                m_keyDescriptor* keyDescriptor){
 2484              		.loc 1 813 0
 2485              		.cfi_startproc
 2486              		@ args = 0, pretend = 0, frame = 24
 2487              		@ frame_needed = 1, uses_anonymous_args = 0
 2488 1128 80B5     		push	{r7, lr}
 2489              		.cfi_def_cfa_offset 8
 2490              		.cfi_offset 7, -8
 2491              		.cfi_offset 14, -4
 2492 112a 86B0     		sub	sp, sp, #24
 2493              		.cfi_def_cfa_offset 32
 2494 112c 00AF     		add	r7, sp, #0
 2495              		.cfi_def_cfa_register 7
 2496 112e F860     		str	r0, [r7, #12]
 2497 1130 B960     		str	r1, [r7, #8]
 2498 1132 7A60     		str	r2, [r7, #4]
 814:build/openmote-cc2538_armgcc/openstack/02a-MAClow/IEEE802154_security.c ****    uint8_t i;
 815:build/openmote-cc2538_armgcc/openstack/02a-MAClow/IEEE802154_security.c ****    INTERRUPT_DECLARATION();
 816:build/openmote-cc2538_armgcc/openstack/02a-MAClow/IEEE802154_security.c ****    DISABLE_INTERRUPTS();
 2499              		.loc 1 816 0
 2500 1134 FFF7FEFF 		bl	IntMasterDisable
 817:build/openmote-cc2538_armgcc/openstack/02a-MAClow/IEEE802154_security.c **** 
 818:build/openmote-cc2538_armgcc/openstack/02a-MAClow/IEEE802154_security.c ****    for (i=0; i<MAXNUMNEIGHBORS; i++){
 2501              		.loc 1 818 0
 2502 1138 0023     		movs	r3, #0
 2503 113a FB75     		strb	r3, [r7, #23]
 2504 113c 31E0     		b	.L132
 2505              	.L135:
 819:build/openmote-cc2538_armgcc/openstack/02a-MAClow/IEEE802154_security.c ****       if ((packetfunctions_sameAddress(Address,
 820:build/openmote-cc2538_armgcc/openstack/02a-MAClow/IEEE802154_security.c ****          &keyDescriptor->DeviceTable->DeviceDescriptorEntry[i].deviceAddress)== TRUE)
 2506              		.loc 1 820 0
 2507 113e 7B68     		ldr	r3, [r7, #4]
 2508 1140 996B     		ldr	r1, [r3, #56]
 2509 1142 FA7D     		ldrb	r2, [r7, #23]	@ zero_extendqisi2
 819:build/openmote-cc2538_armgcc/openstack/02a-MAClow/IEEE802154_security.c ****       if ((packetfunctions_sameAddress(Address,
 2510              		.loc 1 819 0
 2511 1144 1346     		mov	r3, r2
 2512 1146 5B00     		lsls	r3, r3, #1
 2513 1148 1344     		add	r3, r3, r2
 2514 114a DB00     		lsls	r3, r3, #3
 2515 114c 9B1A     		subs	r3, r3, r2
 2516 114e 0B44     		add	r3, r3, r1
 2517 1150 F868     		ldr	r0, [r7, #12]
 2518 1152 1946     		mov	r1, r3
 2519 1154 FFF7FEFF 		bl	packetfunctions_sameAddress
 2520 1158 0346     		mov	r3, r0
 2521 115a 002B     		cmp	r3, #0
 2522 115c 1ED0     		beq	.L133
 821:build/openmote-cc2538_armgcc/openstack/02a-MAClow/IEEE802154_security.c ****          &&(packetfunctions_sameAddress(PANId,
 822:build/openmote-cc2538_armgcc/openstack/02a-MAClow/IEEE802154_security.c ****          &ieee802154_security_vars.MacKeyTable.KeyDescriptorElement[i].KeyIdLookupList.PANId))
 2523              		.loc 1 822 0
 2524 115e FB7D     		ldrb	r3, [r7, #23]	@ zero_extendqisi2
 821:build/openmote-cc2538_armgcc/openstack/02a-MAClow/IEEE802154_security.c ****          &&(packetfunctions_sameAddress(PANId,
 2525              		.loc 1 821 0
 2526 1160 5422     		movs	r2, #84
 2527 1162 02FB03F3 		mul	r3, r2, r3
 2528 1166 03F12802 		add	r2, r3, #40
 2529 116a 40F20003 		movw	r3, #:lower16:ieee802154_security_vars
 2530 116e C0F20003 		movt	r3, #:upper16:ieee802154_security_vars
 2531 1172 1344     		add	r3, r3, r2
 2532 1174 0733     		adds	r3, r3, #7
 2533 1176 B868     		ldr	r0, [r7, #8]
 2534 1178 1946     		mov	r1, r3
 2535 117a FFF7FEFF 		bl	packetfunctions_sameAddress
 2536 117e 0346     		mov	r3, r0
 2537 1180 002B     		cmp	r3, #0
 2538 1182 0BD0     		beq	.L133
 823:build/openmote-cc2538_armgcc/openstack/02a-MAClow/IEEE802154_security.c ****          ){
 824:build/openmote-cc2538_armgcc/openstack/02a-MAClow/IEEE802154_security.c ****             ENABLE_INTERRUPTS();
 2539              		.loc 1 824 0
 2540 1184 FFF7FEFF 		bl	IntMasterEnable
 825:build/openmote-cc2538_armgcc/openstack/02a-MAClow/IEEE802154_security.c ****             return &keyDescriptor->DeviceTable->DeviceDescriptorEntry[i];
 2541              		.loc 1 825 0
 2542 1188 7B68     		ldr	r3, [r7, #4]
 2543 118a 996B     		ldr	r1, [r3, #56]
 2544 118c FA7D     		ldrb	r2, [r7, #23]	@ zero_extendqisi2
 2545 118e 1346     		mov	r3, r2
 2546 1190 5B00     		lsls	r3, r3, #1
 2547 1192 1344     		add	r3, r3, r2
 2548 1194 DB00     		lsls	r3, r3, #3
 2549 1196 9B1A     		subs	r3, r3, r2
 2550 1198 0B44     		add	r3, r3, r1
 2551 119a 08E0     		b	.L134
 2552              	.L133:
 818:build/openmote-cc2538_armgcc/openstack/02a-MAClow/IEEE802154_security.c ****       if ((packetfunctions_sameAddress(Address,
 2553              		.loc 1 818 0
 2554 119c FB7D     		ldrb	r3, [r7, #23]	@ zero_extendqisi2
 2555 119e 0133     		adds	r3, r3, #1
 2556 11a0 FB75     		strb	r3, [r7, #23]
 2557              	.L132:
 818:build/openmote-cc2538_armgcc/openstack/02a-MAClow/IEEE802154_security.c ****       if ((packetfunctions_sameAddress(Address,
 2558              		.loc 1 818 0 is_stmt 0 discriminator 1
 2559 11a2 FB7D     		ldrb	r3, [r7, #23]	@ zero_extendqisi2
 2560 11a4 092B     		cmp	r3, #9
 2561 11a6 CAD9     		bls	.L135
 826:build/openmote-cc2538_armgcc/openstack/02a-MAClow/IEEE802154_security.c ****          }
 827:build/openmote-cc2538_armgcc/openstack/02a-MAClow/IEEE802154_security.c ****    }
 828:build/openmote-cc2538_armgcc/openstack/02a-MAClow/IEEE802154_security.c **** 
 829:build/openmote-cc2538_armgcc/openstack/02a-MAClow/IEEE802154_security.c ****    ENABLE_INTERRUPTS();
 2562              		.loc 1 829 0 is_stmt 1
 2563 11a8 FFF7FEFF 		bl	IntMasterEnable
 830:build/openmote-cc2538_armgcc/openstack/02a-MAClow/IEEE802154_security.c ****    return NULL;
 2564              		.loc 1 830 0
 2565 11ac 0023     		movs	r3, #0
 2566              	.L134:
 831:build/openmote-cc2538_armgcc/openstack/02a-MAClow/IEEE802154_security.c **** }
 2567              		.loc 1 831 0
 2568 11ae 1846     		mov	r0, r3
 2569 11b0 1837     		adds	r7, r7, #24
 2570 11b2 BD46     		mov	sp, r7
 2571              		@ sp needed
 2572 11b4 80BD     		pop	{r7, pc}
 2573              		.cfi_endproc
 2574              	.LFE10:
 2576 11b6 00BF     		.align	2
 2577              		.global	IEEE802154_security_keyDescriptorLookup
 2578              		.thumb
 2579              		.thumb_func
 2581              	IEEE802154_security_keyDescriptorLookup:
 2582              	.LFB11:
 832:build/openmote-cc2538_armgcc/openstack/02a-MAClow/IEEE802154_security.c **** 
 833:build/openmote-cc2538_armgcc/openstack/02a-MAClow/IEEE802154_security.c **** /**
 834:build/openmote-cc2538_armgcc/openstack/02a-MAClow/IEEE802154_security.c **** \brief Searching for the Key Descriptor.
 835:build/openmote-cc2538_armgcc/openstack/02a-MAClow/IEEE802154_security.c **** */
 836:build/openmote-cc2538_armgcc/openstack/02a-MAClow/IEEE802154_security.c **** m_keyDescriptor* IEEE802154_security_keyDescriptorLookup(uint8_t      KeyIdMode,
 837:build/openmote-cc2538_armgcc/openstack/02a-MAClow/IEEE802154_security.c ****                                                          open_addr_t* keySource,
 838:build/openmote-cc2538_armgcc/openstack/02a-MAClow/IEEE802154_security.c ****                                                          uint8_t      KeyIndex,
 839:build/openmote-cc2538_armgcc/openstack/02a-MAClow/IEEE802154_security.c ****                                                          open_addr_t* DeviceAddress,
 840:build/openmote-cc2538_armgcc/openstack/02a-MAClow/IEEE802154_security.c ****                                                          open_addr_t* panID,
 841:build/openmote-cc2538_armgcc/openstack/02a-MAClow/IEEE802154_security.c ****                                                          uint8_t      frameType){
 2583              		.loc 1 841 0
 2584              		.cfi_startproc
 2585              		@ args = 8, pretend = 0, frame = 24
 2586              		@ frame_needed = 1, uses_anonymous_args = 0
 2587 11b8 80B5     		push	{r7, lr}
 2588              		.cfi_def_cfa_offset 8
 2589              		.cfi_offset 7, -8
 2590              		.cfi_offset 14, -4
 2591 11ba 86B0     		sub	sp, sp, #24
 2592              		.cfi_def_cfa_offset 32
 2593 11bc 00AF     		add	r7, sp, #0
 2594              		.cfi_def_cfa_register 7
 2595 11be B960     		str	r1, [r7, #8]
 2596 11c0 7B60     		str	r3, [r7, #4]
 2597 11c2 0346     		mov	r3, r0
 2598 11c4 FB73     		strb	r3, [r7, #15]
 2599 11c6 1346     		mov	r3, r2
 2600 11c8 BB73     		strb	r3, [r7, #14]
 842:build/openmote-cc2538_armgcc/openstack/02a-MAClow/IEEE802154_security.c ****    uint8_t i;
 843:build/openmote-cc2538_armgcc/openstack/02a-MAClow/IEEE802154_security.c ****    INTERRUPT_DECLARATION();
 844:build/openmote-cc2538_armgcc/openstack/02a-MAClow/IEEE802154_security.c ****    DISABLE_INTERRUPTS();
 2601              		.loc 1 844 0
 2602 11ca FFF7FEFF 		bl	IntMasterDisable
 845:build/openmote-cc2538_armgcc/openstack/02a-MAClow/IEEE802154_security.c **** 
 846:build/openmote-cc2538_armgcc/openstack/02a-MAClow/IEEE802154_security.c ****    if (KeyIdMode == IEEE154_ASH_KEYIDMODE_IMPLICIT){
 2603              		.loc 1 846 0
 2604 11ce FB7B     		ldrb	r3, [r7, #15]	@ zero_extendqisi2
 2605 11d0 002B     		cmp	r3, #0
 2606 11d2 4AD1     		bne	.L137
 847:build/openmote-cc2538_armgcc/openstack/02a-MAClow/IEEE802154_security.c ****       for (i=0; i<MAXNUMKEYS; i++ ){
 2607              		.loc 1 847 0
 2608 11d4 0023     		movs	r3, #0
 2609 11d6 FB75     		strb	r3, [r7, #23]
 2610 11d8 44E0     		b	.L138
 2611              	.L141:
 848:build/openmote-cc2538_armgcc/openstack/02a-MAClow/IEEE802154_security.c ****          if (ieee802154_security_vars.MacKeyTable.KeyDescriptorElement[i].KeyIdLookupList.Address.t
 2612              		.loc 1 848 0
 2613 11da FA7D     		ldrb	r2, [r7, #23]	@ zero_extendqisi2
 2614 11dc 40F20003 		movw	r3, #:lower16:ieee802154_security_vars
 2615 11e0 C0F20003 		movt	r3, #:upper16:ieee802154_security_vars
 2616 11e4 5421     		movs	r1, #84
 2617 11e6 01FB02F2 		mul	r2, r1, r2
 2618 11ea 1344     		add	r3, r3, r2
 2619 11ec 3833     		adds	r3, r3, #56
 2620 11ee 1B7A     		ldrb	r3, [r3, #8]	@ zero_extendqisi2
 2621 11f0 022B     		cmp	r3, #2
 2622 11f2 34D1     		bne	.L139
 849:build/openmote-cc2538_armgcc/openstack/02a-MAClow/IEEE802154_security.c ****             if (packetfunctions_sameAddress(DeviceAddress,&ieee802154_security_vars.MacKeyTable.Key
 2623              		.loc 1 849 0
 2624 11f4 FB7D     		ldrb	r3, [r7, #23]	@ zero_extendqisi2
 2625 11f6 5422     		movs	r2, #84
 2626 11f8 02FB03F3 		mul	r3, r2, r3
 2627 11fc 03F13802 		add	r2, r3, #56
 2628 1200 40F20003 		movw	r3, #:lower16:ieee802154_security_vars
 2629 1204 C0F20003 		movt	r3, #:upper16:ieee802154_security_vars
 2630 1208 1344     		add	r3, r3, r2
 2631 120a 0833     		adds	r3, r3, #8
 2632 120c 7868     		ldr	r0, [r7, #4]
 2633 120e 1946     		mov	r1, r3
 2634 1210 FFF7FEFF 		bl	packetfunctions_sameAddress
 2635 1214 0346     		mov	r3, r0
 2636 1216 002B     		cmp	r3, #0
 2637 1218 21D0     		beq	.L139
 850:build/openmote-cc2538_armgcc/openstack/02a-MAClow/IEEE802154_security.c ****                                            &&packetfunctions_sameAddress(panID,
 851:build/openmote-cc2538_armgcc/openstack/02a-MAClow/IEEE802154_security.c ****                                            &ieee802154_security_vars.MacKeyTable.KeyDescriptorEleme
 2638              		.loc 1 851 0
 2639 121a FB7D     		ldrb	r3, [r7, #23]	@ zero_extendqisi2
 850:build/openmote-cc2538_armgcc/openstack/02a-MAClow/IEEE802154_security.c ****                                            &&packetfunctions_sameAddress(panID,
 2640              		.loc 1 850 0
 2641 121c 5422     		movs	r2, #84
 2642 121e 02FB03F3 		mul	r3, r2, r3
 2643 1222 03F12802 		add	r2, r3, #40
 2644 1226 40F20003 		movw	r3, #:lower16:ieee802154_security_vars
 2645 122a C0F20003 		movt	r3, #:upper16:ieee802154_security_vars
 2646 122e 1344     		add	r3, r3, r2
 2647 1230 0733     		adds	r3, r3, #7
 2648 1232 386A     		ldr	r0, [r7, #32]
 2649 1234 1946     		mov	r1, r3
 2650 1236 FFF7FEFF 		bl	packetfunctions_sameAddress
 2651 123a 0346     		mov	r3, r0
 2652 123c 002B     		cmp	r3, #0
 2653 123e 0ED0     		beq	.L139
 852:build/openmote-cc2538_armgcc/openstack/02a-MAClow/IEEE802154_security.c ****                ENABLE_INTERRUPTS();
 2654              		.loc 1 852 0
 2655 1240 FFF7FEFF 		bl	IntMasterEnable
 853:build/openmote-cc2538_armgcc/openstack/02a-MAClow/IEEE802154_security.c ****                return &ieee802154_security_vars.MacKeyTable.KeyDescriptorElement[i];
 2656              		.loc 1 853 0
 2657 1244 FB7D     		ldrb	r3, [r7, #23]	@ zero_extendqisi2
 2658 1246 5422     		movs	r2, #84
 2659 1248 02FB03F3 		mul	r3, r2, r3
 2660 124c 03F11802 		add	r2, r3, #24
 2661 1250 40F20003 		movw	r3, #:lower16:ieee802154_security_vars
 2662 1254 C0F20003 		movt	r3, #:upper16:ieee802154_security_vars
 2663 1258 1344     		add	r3, r3, r2
 2664 125a 0433     		adds	r3, r3, #4
 2665 125c E1E0     		b	.L140
 2666              	.L139:
 847:build/openmote-cc2538_armgcc/openstack/02a-MAClow/IEEE802154_security.c ****          if (ieee802154_security_vars.MacKeyTable.KeyDescriptorElement[i].KeyIdLookupList.Address.t
 2667              		.loc 1 847 0
 2668 125e FB7D     		ldrb	r3, [r7, #23]	@ zero_extendqisi2
 2669 1260 0133     		adds	r3, r3, #1
 2670 1262 FB75     		strb	r3, [r7, #23]
 2671              	.L138:
 847:build/openmote-cc2538_armgcc/openstack/02a-MAClow/IEEE802154_security.c ****          if (ieee802154_security_vars.MacKeyTable.KeyDescriptorElement[i].KeyIdLookupList.Address.t
 2672              		.loc 1 847 0 is_stmt 0 discriminator 1
 2673 1264 FB7D     		ldrb	r3, [r7, #23]	@ zero_extendqisi2
 2674 1266 0A2B     		cmp	r3, #10
 2675 1268 B7D9     		bls	.L141
 2676              	.L137:
 854:build/openmote-cc2538_armgcc/openstack/02a-MAClow/IEEE802154_security.c ****              }
 855:build/openmote-cc2538_armgcc/openstack/02a-MAClow/IEEE802154_security.c ****          }
 856:build/openmote-cc2538_armgcc/openstack/02a-MAClow/IEEE802154_security.c ****       }
 857:build/openmote-cc2538_armgcc/openstack/02a-MAClow/IEEE802154_security.c ****    }
 858:build/openmote-cc2538_armgcc/openstack/02a-MAClow/IEEE802154_security.c **** 
 859:build/openmote-cc2538_armgcc/openstack/02a-MAClow/IEEE802154_security.c ****    if (KeyIdMode == IEEE154_ASH_KEYIDMODE_DEFAULTKEYSOURCE){
 2677              		.loc 1 859 0 is_stmt 1
 2678 126a FB7B     		ldrb	r3, [r7, #15]	@ zero_extendqisi2
 2679 126c 012B     		cmp	r3, #1
 2680 126e 2CD1     		bne	.L142
 860:build/openmote-cc2538_armgcc/openstack/02a-MAClow/IEEE802154_security.c ****       for (i=0; i<MAXNUMKEYS; i++ ){
 2681              		.loc 1 860 0
 2682 1270 0023     		movs	r3, #0
 2683 1272 FB75     		strb	r3, [r7, #23]
 2684 1274 26E0     		b	.L143
 2685              	.L145:
 861:build/openmote-cc2538_armgcc/openstack/02a-MAClow/IEEE802154_security.c ****          if (KeyIndex == ieee802154_security_vars.MacKeyTable.KeyDescriptorElement[i].KeyIdLookupLi
 2686              		.loc 1 861 0
 2687 1276 FA7D     		ldrb	r2, [r7, #23]	@ zero_extendqisi2
 2688 1278 40F20003 		movw	r3, #:lower16:ieee802154_security_vars
 2689 127c C0F20003 		movt	r3, #:upper16:ieee802154_security_vars
 2690 1280 5421     		movs	r1, #84
 2691 1282 01FB02F2 		mul	r2, r1, r2
 2692 1286 1344     		add	r3, r3, r2
 2693 1288 1833     		adds	r3, r3, #24
 2694 128a 5B79     		ldrb	r3, [r3, #5]	@ zero_extendqisi2
 2695 128c BA7B     		ldrb	r2, [r7, #14]	@ zero_extendqisi2
 2696 128e 9A42     		cmp	r2, r3
 2697 1290 15D1     		bne	.L144
 862:build/openmote-cc2538_armgcc/openstack/02a-MAClow/IEEE802154_security.c ****              && packetfunctions_sameAddress(keySource,&ieee802154_security_vars.m_macDefaultKeySour
 2698              		.loc 1 862 0
 2699 1292 B868     		ldr	r0, [r7, #8]
 2700 1294 6549     		ldr	r1, .L154
 2701 1296 FFF7FEFF 		bl	packetfunctions_sameAddress
 2702 129a 0346     		mov	r3, r0
 2703 129c 002B     		cmp	r3, #0
 2704 129e 0ED0     		beq	.L144
 863:build/openmote-cc2538_armgcc/openstack/02a-MAClow/IEEE802154_security.c ****             ENABLE_INTERRUPTS();
 2705              		.loc 1 863 0
 2706 12a0 FFF7FEFF 		bl	IntMasterEnable
 864:build/openmote-cc2538_armgcc/openstack/02a-MAClow/IEEE802154_security.c ****             return &ieee802154_security_vars.MacKeyTable.KeyDescriptorElement[i];
 2707              		.loc 1 864 0
 2708 12a4 FB7D     		ldrb	r3, [r7, #23]	@ zero_extendqisi2
 2709 12a6 5422     		movs	r2, #84
 2710 12a8 02FB03F3 		mul	r3, r2, r3
 2711 12ac 03F11802 		add	r2, r3, #24
 2712 12b0 40F20003 		movw	r3, #:lower16:ieee802154_security_vars
 2713 12b4 C0F20003 		movt	r3, #:upper16:ieee802154_security_vars
 2714 12b8 1344     		add	r3, r3, r2
 2715 12ba 0433     		adds	r3, r3, #4
 2716 12bc B1E0     		b	.L140
 2717              	.L144:
 860:build/openmote-cc2538_armgcc/openstack/02a-MAClow/IEEE802154_security.c ****          if (KeyIndex == ieee802154_security_vars.MacKeyTable.KeyDescriptorElement[i].KeyIdLookupLi
 2718              		.loc 1 860 0
 2719 12be FB7D     		ldrb	r3, [r7, #23]	@ zero_extendqisi2
 2720 12c0 0133     		adds	r3, r3, #1
 2721 12c2 FB75     		strb	r3, [r7, #23]
 2722              	.L143:
 860:build/openmote-cc2538_armgcc/openstack/02a-MAClow/IEEE802154_security.c ****          if (KeyIndex == ieee802154_security_vars.MacKeyTable.KeyDescriptorElement[i].KeyIdLookupLi
 2723              		.loc 1 860 0 is_stmt 0 discriminator 1
 2724 12c4 FB7D     		ldrb	r3, [r7, #23]	@ zero_extendqisi2
 2725 12c6 0A2B     		cmp	r3, #10
 2726 12c8 D5D9     		bls	.L145
 2727              	.L142:
 865:build/openmote-cc2538_armgcc/openstack/02a-MAClow/IEEE802154_security.c ****          }
 866:build/openmote-cc2538_armgcc/openstack/02a-MAClow/IEEE802154_security.c ****       }
 867:build/openmote-cc2538_armgcc/openstack/02a-MAClow/IEEE802154_security.c ****    }
 868:build/openmote-cc2538_armgcc/openstack/02a-MAClow/IEEE802154_security.c **** 
 869:build/openmote-cc2538_armgcc/openstack/02a-MAClow/IEEE802154_security.c ****    if (KeyIdMode == IEEE154_ASH_KEYIDMODE_EXPLICIT_16){
 2728              		.loc 1 869 0 is_stmt 1
 2729 12ca FB7B     		ldrb	r3, [r7, #15]	@ zero_extendqisi2
 2730 12cc 022B     		cmp	r3, #2
 2731 12ce 56D1     		bne	.L146
 870:build/openmote-cc2538_armgcc/openstack/02a-MAClow/IEEE802154_security.c ****       for (i=0; i<MAXNUMKEYS; i++ ){
 2732              		.loc 1 870 0
 2733 12d0 0023     		movs	r3, #0
 2734 12d2 FB75     		strb	r3, [r7, #23]
 2735 12d4 50E0     		b	.L147
 2736              	.L149:
 871:build/openmote-cc2538_armgcc/openstack/02a-MAClow/IEEE802154_security.c ****          if (KeyIndex == ieee802154_security_vars.MacKeyTable.KeyDescriptorElement[i].KeyIdLookupLi
 2737              		.loc 1 871 0
 2738 12d6 FA7D     		ldrb	r2, [r7, #23]	@ zero_extendqisi2
 2739 12d8 40F20003 		movw	r3, #:lower16:ieee802154_security_vars
 2740 12dc C0F20003 		movt	r3, #:upper16:ieee802154_security_vars
 2741 12e0 5421     		movs	r1, #84
 2742 12e2 01FB02F2 		mul	r2, r1, r2
 2743 12e6 1344     		add	r3, r3, r2
 2744 12e8 1833     		adds	r3, r3, #24
 2745 12ea 5B79     		ldrb	r3, [r3, #5]	@ zero_extendqisi2
 2746 12ec BA7B     		ldrb	r2, [r7, #14]	@ zero_extendqisi2
 2747 12ee 9A42     		cmp	r2, r3
 2748 12f0 3FD1     		bne	.L148
 872:build/openmote-cc2538_armgcc/openstack/02a-MAClow/IEEE802154_security.c ****             if (keySource->addr_16b[0] == ieee802154_security_vars.MacKeyTable.KeyDescriptorElement
 2749              		.loc 1 872 0
 2750 12f2 BB68     		ldr	r3, [r7, #8]
 2751 12f4 5A78     		ldrb	r2, [r3, #1]	@ zero_extendqisi2
 2752 12f6 F97D     		ldrb	r1, [r7, #23]	@ zero_extendqisi2
 2753 12f8 40F20003 		movw	r3, #:lower16:ieee802154_security_vars
 2754 12fc C0F20003 		movt	r3, #:upper16:ieee802154_security_vars
 2755 1300 5420     		movs	r0, #84
 2756 1302 00FB01F1 		mul	r1, r0, r1
 2757 1306 0B44     		add	r3, r3, r1
 2758 1308 1833     		adds	r3, r3, #24
 2759 130a DB79     		ldrb	r3, [r3, #7]	@ zero_extendqisi2
 2760 130c 9A42     		cmp	r2, r3
 2761 130e 30D1     		bne	.L148
 873:build/openmote-cc2538_armgcc/openstack/02a-MAClow/IEEE802154_security.c ****                keySource->addr_16b[1] == ieee802154_security_vars.MacKeyTable.KeyDescriptorElement[
 2762              		.loc 1 873 0 discriminator 1
 2763 1310 BB68     		ldr	r3, [r7, #8]
 2764 1312 9A78     		ldrb	r2, [r3, #2]	@ zero_extendqisi2
 2765 1314 F97D     		ldrb	r1, [r7, #23]	@ zero_extendqisi2
 2766 1316 40F20003 		movw	r3, #:lower16:ieee802154_security_vars
 2767 131a C0F20003 		movt	r3, #:upper16:ieee802154_security_vars
 2768 131e 5420     		movs	r0, #84
 2769 1320 00FB01F1 		mul	r1, r0, r1
 2770 1324 0B44     		add	r3, r3, r1
 2771 1326 1933     		adds	r3, r3, #25
 2772 1328 DB79     		ldrb	r3, [r3, #7]	@ zero_extendqisi2
 872:build/openmote-cc2538_armgcc/openstack/02a-MAClow/IEEE802154_security.c ****             if (keySource->addr_16b[0] == ieee802154_security_vars.MacKeyTable.KeyDescriptorElement
 2773              		.loc 1 872 0 discriminator 1
 2774 132a 9A42     		cmp	r2, r3
 2775 132c 21D1     		bne	.L148
 874:build/openmote-cc2538_armgcc/openstack/02a-MAClow/IEEE802154_security.c ****                && packetfunctions_sameAddress(panID, &ieee802154_security_vars.MacKeyTable.KeyDescr
 2776              		.loc 1 874 0
 2777 132e FB7D     		ldrb	r3, [r7, #23]	@ zero_extendqisi2
 2778 1330 5422     		movs	r2, #84
 2779 1332 02FB03F3 		mul	r3, r2, r3
 2780 1336 03F12802 		add	r2, r3, #40
 2781 133a 40F20003 		movw	r3, #:lower16:ieee802154_security_vars
 2782 133e C0F20003 		movt	r3, #:upper16:ieee802154_security_vars
 2783 1342 1344     		add	r3, r3, r2
 2784 1344 0733     		adds	r3, r3, #7
 2785 1346 386A     		ldr	r0, [r7, #32]
 2786 1348 1946     		mov	r1, r3
 2787 134a FFF7FEFF 		bl	packetfunctions_sameAddress
 2788 134e 0346     		mov	r3, r0
 2789 1350 002B     		cmp	r3, #0
 2790 1352 0ED0     		beq	.L148
 875:build/openmote-cc2538_armgcc/openstack/02a-MAClow/IEEE802154_security.c ****                ){
 876:build/openmote-cc2538_armgcc/openstack/02a-MAClow/IEEE802154_security.c ****                ENABLE_INTERRUPTS();
 2791              		.loc 1 876 0
 2792 1354 FFF7FEFF 		bl	IntMasterEnable
 877:build/openmote-cc2538_armgcc/openstack/02a-MAClow/IEEE802154_security.c ****                return &ieee802154_security_vars.MacKeyTable.KeyDescriptorElement[i];
 2793              		.loc 1 877 0
 2794 1358 FB7D     		ldrb	r3, [r7, #23]	@ zero_extendqisi2
 2795 135a 5422     		movs	r2, #84
 2796 135c 02FB03F3 		mul	r3, r2, r3
 2797 1360 03F11802 		add	r2, r3, #24
 2798 1364 40F20003 		movw	r3, #:lower16:ieee802154_security_vars
 2799 1368 C0F20003 		movt	r3, #:upper16:ieee802154_security_vars
 2800 136c 1344     		add	r3, r3, r2
 2801 136e 0433     		adds	r3, r3, #4
 2802 1370 57E0     		b	.L140
 2803              	.L148:
 870:build/openmote-cc2538_armgcc/openstack/02a-MAClow/IEEE802154_security.c ****          if (KeyIndex == ieee802154_security_vars.MacKeyTable.KeyDescriptorElement[i].KeyIdLookupLi
 2804              		.loc 1 870 0
 2805 1372 FB7D     		ldrb	r3, [r7, #23]	@ zero_extendqisi2
 2806 1374 0133     		adds	r3, r3, #1
 2807 1376 FB75     		strb	r3, [r7, #23]
 2808              	.L147:
 870:build/openmote-cc2538_armgcc/openstack/02a-MAClow/IEEE802154_security.c ****          if (KeyIndex == ieee802154_security_vars.MacKeyTable.KeyDescriptorElement[i].KeyIdLookupLi
 2809              		.loc 1 870 0 is_stmt 0 discriminator 1
 2810 1378 FB7D     		ldrb	r3, [r7, #23]	@ zero_extendqisi2
 2811 137a 0A2B     		cmp	r3, #10
 2812 137c ABD9     		bls	.L149
 2813              	.L146:
 878:build/openmote-cc2538_armgcc/openstack/02a-MAClow/IEEE802154_security.c ****             }
 879:build/openmote-cc2538_armgcc/openstack/02a-MAClow/IEEE802154_security.c ****          }
 880:build/openmote-cc2538_armgcc/openstack/02a-MAClow/IEEE802154_security.c ****       }
 881:build/openmote-cc2538_armgcc/openstack/02a-MAClow/IEEE802154_security.c ****    }
 882:build/openmote-cc2538_armgcc/openstack/02a-MAClow/IEEE802154_security.c **** 
 883:build/openmote-cc2538_armgcc/openstack/02a-MAClow/IEEE802154_security.c ****    if (KeyIdMode == IEEE154_ASH_KEYIDMODE_EXPLICIT_64){
 2814              		.loc 1 883 0 is_stmt 1
 2815 137e FB7B     		ldrb	r3, [r7, #15]	@ zero_extendqisi2
 2816 1380 032B     		cmp	r3, #3
 2817 1382 4BD1     		bne	.L150
 884:build/openmote-cc2538_armgcc/openstack/02a-MAClow/IEEE802154_security.c ****       for (i=0; i<MAXNUMKEYS; i++ ){
 2818              		.loc 1 884 0
 2819 1384 0023     		movs	r3, #0
 2820 1386 FB75     		strb	r3, [r7, #23]
 2821 1388 45E0     		b	.L151
 2822              	.L153:
 885:build/openmote-cc2538_armgcc/openstack/02a-MAClow/IEEE802154_security.c ****          if (KeyIndex == ieee802154_security_vars.MacKeyTable.KeyDescriptorElement[i].KeyIdLookupLi
 2823              		.loc 1 885 0
 2824 138a FA7D     		ldrb	r2, [r7, #23]	@ zero_extendqisi2
 2825 138c 40F20003 		movw	r3, #:lower16:ieee802154_security_vars
 2826 1390 C0F20003 		movt	r3, #:upper16:ieee802154_security_vars
 2827 1394 5421     		movs	r1, #84
 2828 1396 01FB02F2 		mul	r2, r1, r2
 2829 139a 1344     		add	r3, r3, r2
 2830 139c 1833     		adds	r3, r3, #24
 2831 139e 5B79     		ldrb	r3, [r3, #5]	@ zero_extendqisi2
 2832 13a0 BA7B     		ldrb	r2, [r7, #14]	@ zero_extendqisi2
 2833 13a2 9A42     		cmp	r2, r3
 2834 13a4 34D1     		bne	.L152
 886:build/openmote-cc2538_armgcc/openstack/02a-MAClow/IEEE802154_security.c ****             if (packetfunctions_sameAddress(keySource,&ieee802154_security_vars.MacKeyTable.KeyDesc
 2835              		.loc 1 886 0
 2836 13a6 FB7D     		ldrb	r3, [r7, #23]	@ zero_extendqisi2
 2837 13a8 5422     		movs	r2, #84
 2838 13aa 02FB03F3 		mul	r3, r2, r3
 2839 13ae 03F11802 		add	r2, r3, #24
 2840 13b2 40F20003 		movw	r3, #:lower16:ieee802154_security_vars
 2841 13b6 C0F20003 		movt	r3, #:upper16:ieee802154_security_vars
 2842 13ba 1344     		add	r3, r3, r2
 2843 13bc 0633     		adds	r3, r3, #6
 2844 13be B868     		ldr	r0, [r7, #8]
 2845 13c0 1946     		mov	r1, r3
 2846 13c2 FFF7FEFF 		bl	packetfunctions_sameAddress
 2847 13c6 0346     		mov	r3, r0
 2848 13c8 002B     		cmp	r3, #0
 2849 13ca 21D0     		beq	.L152
 887:build/openmote-cc2538_armgcc/openstack/02a-MAClow/IEEE802154_security.c ****                 && packetfunctions_sameAddress(panID, &ieee802154_security_vars.MacKeyTable.KeyDesc
 2850              		.loc 1 887 0
 2851 13cc FB7D     		ldrb	r3, [r7, #23]	@ zero_extendqisi2
 2852 13ce 5422     		movs	r2, #84
 2853 13d0 02FB03F3 		mul	r3, r2, r3
 2854 13d4 03F12802 		add	r2, r3, #40
 2855 13d8 40F20003 		movw	r3, #:lower16:ieee802154_security_vars
 2856 13dc C0F20003 		movt	r3, #:upper16:ieee802154_security_vars
 2857 13e0 1344     		add	r3, r3, r2
 2858 13e2 0733     		adds	r3, r3, #7
 2859 13e4 386A     		ldr	r0, [r7, #32]
 2860 13e6 1946     		mov	r1, r3
 2861 13e8 FFF7FEFF 		bl	packetfunctions_sameAddress
 2862 13ec 0346     		mov	r3, r0
 2863 13ee 002B     		cmp	r3, #0
 2864 13f0 0ED0     		beq	.L152
 888:build/openmote-cc2538_armgcc/openstack/02a-MAClow/IEEE802154_security.c ****                ){
 889:build/openmote-cc2538_armgcc/openstack/02a-MAClow/IEEE802154_security.c ****                ENABLE_INTERRUPTS();
 2865              		.loc 1 889 0
 2866 13f2 FFF7FEFF 		bl	IntMasterEnable
 890:build/openmote-cc2538_armgcc/openstack/02a-MAClow/IEEE802154_security.c ****                return &ieee802154_security_vars.MacKeyTable.KeyDescriptorElement[i];
 2867              		.loc 1 890 0
 2868 13f6 FB7D     		ldrb	r3, [r7, #23]	@ zero_extendqisi2
 2869 13f8 5422     		movs	r2, #84
 2870 13fa 02FB03F3 		mul	r3, r2, r3
 2871 13fe 03F11802 		add	r2, r3, #24
 2872 1402 40F20003 		movw	r3, #:lower16:ieee802154_security_vars
 2873 1406 C0F20003 		movt	r3, #:upper16:ieee802154_security_vars
 2874 140a 1344     		add	r3, r3, r2
 2875 140c 0433     		adds	r3, r3, #4
 2876 140e 08E0     		b	.L140
 2877              	.L152:
 884:build/openmote-cc2538_armgcc/openstack/02a-MAClow/IEEE802154_security.c ****          if (KeyIndex == ieee802154_security_vars.MacKeyTable.KeyDescriptorElement[i].KeyIdLookupLi
 2878              		.loc 1 884 0
 2879 1410 FB7D     		ldrb	r3, [r7, #23]	@ zero_extendqisi2
 2880 1412 0133     		adds	r3, r3, #1
 2881 1414 FB75     		strb	r3, [r7, #23]
 2882              	.L151:
 884:build/openmote-cc2538_armgcc/openstack/02a-MAClow/IEEE802154_security.c ****          if (KeyIndex == ieee802154_security_vars.MacKeyTable.KeyDescriptorElement[i].KeyIdLookupLi
 2883              		.loc 1 884 0 is_stmt 0 discriminator 1
 2884 1416 FB7D     		ldrb	r3, [r7, #23]	@ zero_extendqisi2
 2885 1418 0A2B     		cmp	r3, #10
 2886 141a B6D9     		bls	.L153
 2887              	.L150:
 891:build/openmote-cc2538_armgcc/openstack/02a-MAClow/IEEE802154_security.c ****             }
 892:build/openmote-cc2538_armgcc/openstack/02a-MAClow/IEEE802154_security.c ****          }
 893:build/openmote-cc2538_armgcc/openstack/02a-MAClow/IEEE802154_security.c ****       }
 894:build/openmote-cc2538_armgcc/openstack/02a-MAClow/IEEE802154_security.c ****    }
 895:build/openmote-cc2538_armgcc/openstack/02a-MAClow/IEEE802154_security.c **** 
 896:build/openmote-cc2538_armgcc/openstack/02a-MAClow/IEEE802154_security.c ****    //no matches
 897:build/openmote-cc2538_armgcc/openstack/02a-MAClow/IEEE802154_security.c ****    ENABLE_INTERRUPTS();
 2888              		.loc 1 897 0 is_stmt 1
 2889 141c FFF7FEFF 		bl	IntMasterEnable
 898:build/openmote-cc2538_armgcc/openstack/02a-MAClow/IEEE802154_security.c ****    return NULL;
 2890              		.loc 1 898 0
 2891 1420 0023     		movs	r3, #0
 2892              	.L140:
 899:build/openmote-cc2538_armgcc/openstack/02a-MAClow/IEEE802154_security.c **** }
 2893              		.loc 1 899 0
 2894 1422 1846     		mov	r0, r3
 2895 1424 1837     		adds	r7, r7, #24
 2896 1426 BD46     		mov	sp, r7
 2897              		@ sp needed
 2898 1428 80BD     		pop	{r7, pc}
 2899              	.L155:
 2900 142a 00BF     		.align	2
 2901              	.L154:
 2902 142c 09000000 		.word	ieee802154_security_vars+9
 2903              		.cfi_endproc
 2904              	.LFE11:
 2906              		.align	2
 2907              		.global	IEEE802154_security_getFrameCounter
 2908              		.thumb
 2909              		.thumb_func
 2911              	IEEE802154_security_getFrameCounter:
 2912              	.LFB12:
 900:build/openmote-cc2538_armgcc/openstack/02a-MAClow/IEEE802154_security.c **** 
 901:build/openmote-cc2538_armgcc/openstack/02a-MAClow/IEEE802154_security.c **** /*
 902:build/openmote-cc2538_armgcc/openstack/02a-MAClow/IEEE802154_security.c ****  * Store in the array the reference value 
 903:build/openmote-cc2538_armgcc/openstack/02a-MAClow/IEEE802154_security.c ****  */
 904:build/openmote-cc2538_armgcc/openstack/02a-MAClow/IEEE802154_security.c **** void IEEE802154_security_getFrameCounter(macFrameCounter_t reference,
 905:build/openmote-cc2538_armgcc/openstack/02a-MAClow/IEEE802154_security.c ****                                         uint8_t*          array) {
 2913              		.loc 1 905 0
 2914              		.cfi_startproc
 2915              		@ args = 0, pretend = 0, frame = 16
 2916              		@ frame_needed = 1, uses_anonymous_args = 0
 2917              		@ link register save eliminated.
 2918 1430 80B4     		push	{r7}
 2919              		.cfi_def_cfa_offset 4
 2920              		.cfi_offset 7, -4
 2921 1432 85B0     		sub	sp, sp, #20
 2922              		.cfi_def_cfa_offset 24
 2923 1434 00AF     		add	r7, sp, #0
 2924              		.cfi_def_cfa_register 7
 2925 1436 07F10803 		add	r3, r7, #8
 2926 143a 83E80300 		stmia	r3, {r0, r1}
 2927 143e 7A60     		str	r2, [r7, #4]
 906:build/openmote-cc2538_armgcc/openstack/02a-MAClow/IEEE802154_security.c **** 
 907:build/openmote-cc2538_armgcc/openstack/02a-MAClow/IEEE802154_security.c ****    array[0] = (reference.bytes0and1     & 0xff);
 2928              		.loc 1 907 0
 2929 1440 B7F80B30 		ldrh	r3, [r7, #11]	@ unaligned
 2930 1444 9BB2     		uxth	r3, r3
 2931 1446 DAB2     		uxtb	r2, r3
 2932 1448 7B68     		ldr	r3, [r7, #4]
 2933 144a 1A70     		strb	r2, [r3]
 908:build/openmote-cc2538_armgcc/openstack/02a-MAClow/IEEE802154_security.c ****    array[1] = (reference.bytes0and1/256 & 0xff);
 2934              		.loc 1 908 0
 2935 144c 7B68     		ldr	r3, [r7, #4]
 2936 144e 0133     		adds	r3, r3, #1
 2937 1450 B7F80B20 		ldrh	r2, [r7, #11]	@ unaligned
 2938 1454 92B2     		uxth	r2, r2
 2939 1456 120A     		lsrs	r2, r2, #8
 2940 1458 92B2     		uxth	r2, r2
 2941 145a D2B2     		uxtb	r2, r2
 2942 145c 1A70     		strb	r2, [r3]
 909:build/openmote-cc2538_armgcc/openstack/02a-MAClow/IEEE802154_security.c ****    array[2] = (reference.bytes2and3     & 0xff);
 2943              		.loc 1 909 0
 2944 145e 7B68     		ldr	r3, [r7, #4]
 2945 1460 0233     		adds	r3, r3, #2
 2946 1462 B7F80920 		ldrh	r2, [r7, #9]	@ unaligned
 2947 1466 92B2     		uxth	r2, r2
 2948 1468 D2B2     		uxtb	r2, r2
 2949 146a 1A70     		strb	r2, [r3]
 910:build/openmote-cc2538_armgcc/openstack/02a-MAClow/IEEE802154_security.c ****    array[3] = (reference.bytes2and3/256 & 0xff);
 2950              		.loc 1 910 0
 2951 146c 7B68     		ldr	r3, [r7, #4]
 2952 146e 0333     		adds	r3, r3, #3
 2953 1470 B7F80920 		ldrh	r2, [r7, #9]	@ unaligned
 2954 1474 92B2     		uxth	r2, r2
 2955 1476 120A     		lsrs	r2, r2, #8
 2956 1478 92B2     		uxth	r2, r2
 2957 147a D2B2     		uxtb	r2, r2
 2958 147c 1A70     		strb	r2, [r3]
 911:build/openmote-cc2538_armgcc/openstack/02a-MAClow/IEEE802154_security.c ****    array[4] =  reference.byte4;
 2959              		.loc 1 911 0
 2960 147e 7B68     		ldr	r3, [r7, #4]
 2961 1480 0433     		adds	r3, r3, #4
 2962 1482 3A7A     		ldrb	r2, [r7, #8]	@ zero_extendqisi2
 2963 1484 1A70     		strb	r2, [r3]
 912:build/openmote-cc2538_armgcc/openstack/02a-MAClow/IEEE802154_security.c **** }
 2964              		.loc 1 912 0
 2965 1486 1437     		adds	r7, r7, #20
 2966 1488 BD46     		mov	sp, r7
 2967              		@ sp needed
 2968 148a 5DF8047B 		ldr	r7, [sp], #4
 2969 148e 7047     		bx	lr
 2970              		.cfi_endproc
 2971              	.LFE12:
 2973              		.global	IEEE802154_security
 2974              		.section	.rodata
 2975              		.align	2
 2978              	IEEE802154_security:
 2979 0050 00000000 		.word	IEEE802154_security_init
 2980 0054 00000000 		.word	IEEE802154_security_prependAuxiliarySecurityHeader
 2981 0058 00000000 		.word	IEEE802154_security_retrieveAuxiliarySecurityHeader
 2982 005c 00000000 		.word	IEEE802154_security_outgoingFrameSecurity
 2983 0060 00000000 		.word	IEEE802154_security_incomingFrame
 2984 0064 00000000 		.word	IEEE802154_security_authLengthChecking
 2985 0068 00000000 		.word	IEEE802154_security_auxLengthChecking
 2986              		.text
 2987              	.Letext0:
 2988              		.file 2 "/usr/include/newlib/machine/_default_types.h"
 2989              		.file 3 "/usr/include/newlib/stdint.h"
 2990              		.file 4 "inc/opendefs.h"
 2991              		.file 5 "bsp/boards/crypto_engine.h"
 2992              		.file 6 "build/openmote-cc2538_armgcc/openstack/02a-MAClow/IEEE802154.h"
 2993              		.file 7 "build/openmote-cc2538_armgcc/openstack/02a-MAClow/ieee802154_security_driver.h"
 2994              		.file 8 "build/openmote-cc2538_armgcc/openstack/02a-MAClow/IEEE802154_security.h"
 2995              		.file 9 "bsp/boards/openmote-cc2538/board_info.h"
 2996              		.file 10 "build/openmote-cc2538_armgcc/openstack/02a-MAClow/IEEE802154E.h"
 2997              		.file 11 "openstack/03b-IPv6/icmpv6rpl.h"