   1              		.syntax unified
   2              		.cpu cortex-m3
   3              		.fpu softvfp
   4              		.eabi_attribute 20, 1
   5              		.eabi_attribute 21, 1
   6              		.eabi_attribute 23, 3
   7              		.eabi_attribute 24, 1
   8              		.eabi_attribute 25, 1
   9              		.eabi_attribute 26, 1
  10              		.eabi_attribute 30, 6
  11              		.eabi_attribute 34, 1
  12              		.eabi_attribute 18, 4
  13              		.thumb
  14              		.file	"iphc.c"
  15              		.text
  16              	.Ltext0:
  17              		.cfi_sections	.debug_frame
  18              		.section	.rodata
  19              		.align	2
  22              	rreg_uriquery:
  23 0000 683D7563 		.ascii	"h=ucb\000"
  23      6200
  24 0006 0000     		.align	2
  27              	infoBoardname:
  28 0008 43433235 		.ascii	"CC2538\000"
  28      333800
  29 000f 00       		.align	2
  32              	infouCName:
  33 0010 43433235 		.ascii	"CC2538\000"
  33      333800
  34 0017 00       		.align	2
  37              	infoRadioName:
  38 0018 43433235 		.ascii	"CC2538 SoC\000"
  38      33382053 
  38      6F4300
  39 0023 00       		.align	2
  42              	infoStackName:
  43 0024 4F70656E 		.ascii	"OpenWSN \000"
  43      57534E20 
  43      00
  44 002d 000000   		.align	2
  47              	all_routers_multicast:
  48 0030 FF       		.byte	-1
  49 0031 02       		.byte	2
  50 0032 00       		.byte	0
  51 0033 00       		.byte	0
  52 0034 00       		.byte	0
  53 0035 00       		.byte	0
  54 0036 00       		.byte	0
  55 0037 00       		.byte	0
  56 0038 00       		.byte	0
  57 0039 00       		.byte	0
  58 003a 00       		.byte	0
  59 003b 00       		.byte	0
  60 003c 00       		.byte	0
  61 003d 00       		.byte	0
  62 003e 00       		.byte	0
  63 003f 1A       		.byte	26
  64              		.align	2
  67              	dagroot_mac64b:
  68 0040 02       		.byte	2
  69 0041 00       		.byte	0
  70 0042 00       		.byte	0
  71 0043 00       		.byte	0
  72 0044 00       		.byte	0
  73 0045 00       		.byte	0
  74 0046 00       		.byte	0
  75 0047 00       		.byte	0
  76 0048 01       		.byte	1
  77 0049 000000   		.text
  78              		.align	2
  79              		.global	iphc_init
  80              		.thumb
  81              		.thumb_func
  83              	iphc_init:
  84              	.LFB0:
  85              		.file 1 "build/openmote-cc2538_armgcc/openstack/03a-IPHC/iphc.c"
   1:build/openmote-cc2538_armgcc/openstack/03a-IPHC/iphc.c **** #include "opendefs.h"
   2:build/openmote-cc2538_armgcc/openstack/03a-IPHC/iphc.c **** #include "iphc.h"
   3:build/openmote-cc2538_armgcc/openstack/03a-IPHC/iphc.c **** #include "packetfunctions.h"
   4:build/openmote-cc2538_armgcc/openstack/03a-IPHC/iphc.c **** #include "idmanager.h"
   5:build/openmote-cc2538_armgcc/openstack/03a-IPHC/iphc.c **** #include "openserial.h"
   6:build/openmote-cc2538_armgcc/openstack/03a-IPHC/iphc.c **** #include "sixtop.h"
   7:build/openmote-cc2538_armgcc/openstack/03a-IPHC/iphc.c **** #include "forwarding.h"
   8:build/openmote-cc2538_armgcc/openstack/03a-IPHC/iphc.c **** #include "neighbors.h"
   9:build/openmote-cc2538_armgcc/openstack/03a-IPHC/iphc.c **** #include "openbridge.h"
  10:build/openmote-cc2538_armgcc/openstack/03a-IPHC/iphc.c **** #include "icmpv6rpl.h"
  11:build/openmote-cc2538_armgcc/openstack/03a-IPHC/iphc.c **** 
  12:build/openmote-cc2538_armgcc/openstack/03a-IPHC/iphc.c **** //=========================== variables =======================================
  13:build/openmote-cc2538_armgcc/openstack/03a-IPHC/iphc.c **** 
  14:build/openmote-cc2538_armgcc/openstack/03a-IPHC/iphc.c **** static const uint8_t dagroot_mac64b[]   = {0x02,
  15:build/openmote-cc2538_armgcc/openstack/03a-IPHC/iphc.c ****    0x00, 0x00, 0x00, 0x00, 0x00, 0x00, 0x00, 0x01
  16:build/openmote-cc2538_armgcc/openstack/03a-IPHC/iphc.c **** }; 
  17:build/openmote-cc2538_armgcc/openstack/03a-IPHC/iphc.c **** 
  18:build/openmote-cc2538_armgcc/openstack/03a-IPHC/iphc.c **** //=========================== prototypes ======================================
  19:build/openmote-cc2538_armgcc/openstack/03a-IPHC/iphc.c **** 
  20:build/openmote-cc2538_armgcc/openstack/03a-IPHC/iphc.c **** //===== IPv6 header
  21:build/openmote-cc2538_armgcc/openstack/03a-IPHC/iphc.c **** void iphc_retrieveIPv6Header(
  22:build/openmote-cc2538_armgcc/openstack/03a-IPHC/iphc.c ****    OpenQueueEntry_t* msg, 
  23:build/openmote-cc2538_armgcc/openstack/03a-IPHC/iphc.c ****    ipv6_header_iht* ipv6_outer_header,
  24:build/openmote-cc2538_armgcc/openstack/03a-IPHC/iphc.c ****    ipv6_header_iht* ipv6_inner_header,
  25:build/openmote-cc2538_armgcc/openstack/03a-IPHC/iphc.c ****    uint8_t*         page_length
  26:build/openmote-cc2538_armgcc/openstack/03a-IPHC/iphc.c **** );
  27:build/openmote-cc2538_armgcc/openstack/03a-IPHC/iphc.c **** uint8_t iphc_retrieveIphcHeader(open_addr_t* temp_addr_16b,
  28:build/openmote-cc2538_armgcc/openstack/03a-IPHC/iphc.c ****    open_addr_t*         temp_addr_64b,
  29:build/openmote-cc2538_armgcc/openstack/03a-IPHC/iphc.c ****    uint8_t*             dispatch,
  30:build/openmote-cc2538_armgcc/openstack/03a-IPHC/iphc.c ****    uint8_t*             tf,
  31:build/openmote-cc2538_armgcc/openstack/03a-IPHC/iphc.c ****    uint8_t*             nh,
  32:build/openmote-cc2538_armgcc/openstack/03a-IPHC/iphc.c ****    uint8_t*             hlim,
  33:build/openmote-cc2538_armgcc/openstack/03a-IPHC/iphc.c ****    uint8_t*             sam,
  34:build/openmote-cc2538_armgcc/openstack/03a-IPHC/iphc.c ****    uint8_t*             m,
  35:build/openmote-cc2538_armgcc/openstack/03a-IPHC/iphc.c ****    uint8_t*             dam,
  36:build/openmote-cc2538_armgcc/openstack/03a-IPHC/iphc.c ****    OpenQueueEntry_t*    msg,
  37:build/openmote-cc2538_armgcc/openstack/03a-IPHC/iphc.c ****    ipv6_header_iht*     ipv6_header,
  38:build/openmote-cc2538_armgcc/openstack/03a-IPHC/iphc.c ****    uint8_t              previousLen);
  39:build/openmote-cc2538_armgcc/openstack/03a-IPHC/iphc.c **** 
  40:build/openmote-cc2538_armgcc/openstack/03a-IPHC/iphc.c **** //===== IPv6 hop-by-hop header
  41:build/openmote-cc2538_armgcc/openstack/03a-IPHC/iphc.c **** void iphc_prependIPv6HopByHopHeader(
  42:build/openmote-cc2538_armgcc/openstack/03a-IPHC/iphc.c ****    OpenQueueEntry_t*    msg,
  43:build/openmote-cc2538_armgcc/openstack/03a-IPHC/iphc.c ****    uint8_t              nextheader,
  44:build/openmote-cc2538_armgcc/openstack/03a-IPHC/iphc.c ****    rpl_option_ht*       rpl_option
  45:build/openmote-cc2538_armgcc/openstack/03a-IPHC/iphc.c **** );
  46:build/openmote-cc2538_armgcc/openstack/03a-IPHC/iphc.c **** 
  47:build/openmote-cc2538_armgcc/openstack/03a-IPHC/iphc.c **** //=========================== public ==========================================
  48:build/openmote-cc2538_armgcc/openstack/03a-IPHC/iphc.c **** 
  49:build/openmote-cc2538_armgcc/openstack/03a-IPHC/iphc.c **** void      iphc_init() {
  86              		.loc 1 49 0
  87              		.cfi_startproc
  88              		@ args = 0, pretend = 0, frame = 0
  89              		@ frame_needed = 1, uses_anonymous_args = 0
  90              		@ link register save eliminated.
  91 0000 80B4     		push	{r7}
  92              		.cfi_def_cfa_offset 4
  93              		.cfi_offset 7, -4
  94 0002 00AF     		add	r7, sp, #0
  95              		.cfi_def_cfa_register 7
  50:build/openmote-cc2538_armgcc/openstack/03a-IPHC/iphc.c **** }
  96              		.loc 1 50 0
  97 0004 BD46     		mov	sp, r7
  98              		@ sp needed
  99 0006 5DF8047B 		ldr	r7, [sp], #4
 100 000a 7047     		bx	lr
 101              		.cfi_endproc
 102              	.LFE0:
 104              		.align	2
 105              		.global	iphc_sendFromForwarding
 106              		.thumb
 107              		.thumb_func
 109              	iphc_sendFromForwarding:
 110              	.LFB1:
  51:build/openmote-cc2538_armgcc/openstack/03a-IPHC/iphc.c **** 
  52:build/openmote-cc2538_armgcc/openstack/03a-IPHC/iphc.c **** // send from upper layer: I need to add 6LoWPAN header
  53:build/openmote-cc2538_armgcc/openstack/03a-IPHC/iphc.c **** owerror_t iphc_sendFromForwarding(
  54:build/openmote-cc2538_armgcc/openstack/03a-IPHC/iphc.c ****     OpenQueueEntry_t* msg,
  55:build/openmote-cc2538_armgcc/openstack/03a-IPHC/iphc.c ****     ipv6_header_iht*  ipv6_outer_header,
  56:build/openmote-cc2538_armgcc/openstack/03a-IPHC/iphc.c ****     ipv6_header_iht*  ipv6_inner_header,
  57:build/openmote-cc2538_armgcc/openstack/03a-IPHC/iphc.c ****     rpl_option_ht*    rpl_option,
  58:build/openmote-cc2538_armgcc/openstack/03a-IPHC/iphc.c ****     uint32_t*         flow_label,
  59:build/openmote-cc2538_armgcc/openstack/03a-IPHC/iphc.c ****     uint8_t*          rh3_copy,
  60:build/openmote-cc2538_armgcc/openstack/03a-IPHC/iphc.c ****     uint8_t           rh3_length,
  61:build/openmote-cc2538_armgcc/openstack/03a-IPHC/iphc.c ****     uint8_t           fw_SendOrfw_Rcv
  62:build/openmote-cc2538_armgcc/openstack/03a-IPHC/iphc.c ****     ) {
 111              		.loc 1 62 0
 112              		.cfi_startproc
 113              		@ args = 16, pretend = 0, frame = 120
 114              		@ frame_needed = 1, uses_anonymous_args = 0
 115 000c 80B5     		push	{r7, lr}
 116              		.cfi_def_cfa_offset 8
 117              		.cfi_offset 7, -8
 118              		.cfi_offset 14, -4
 119 000e 9EB0     		sub	sp, sp, #120
 120              		.cfi_def_cfa_offset 128
 121 0010 00AF     		add	r7, sp, #0
 122              		.cfi_def_cfa_register 7
 123 0012 F860     		str	r0, [r7, #12]
 124 0014 B960     		str	r1, [r7, #8]
 125 0016 7A60     		str	r2, [r7, #4]
 126 0018 3B60     		str	r3, [r7]
  63:build/openmote-cc2538_armgcc/openstack/03a-IPHC/iphc.c ****     open_addr_t  temp_dest_prefix;
  64:build/openmote-cc2538_armgcc/openstack/03a-IPHC/iphc.c ****     open_addr_t  temp_dest_mac64b; 
  65:build/openmote-cc2538_armgcc/openstack/03a-IPHC/iphc.c ****     open_addr_t  temp_src_prefix;
  66:build/openmote-cc2538_armgcc/openstack/03a-IPHC/iphc.c ****     open_addr_t  temp_src_mac64b;
  67:build/openmote-cc2538_armgcc/openstack/03a-IPHC/iphc.c ****     open_addr_t  temp_dagroot_ip128b;
  68:build/openmote-cc2538_armgcc/openstack/03a-IPHC/iphc.c ****     uint8_t      sam;
  69:build/openmote-cc2538_armgcc/openstack/03a-IPHC/iphc.c ****     // take ownership over the packet
  70:build/openmote-cc2538_armgcc/openstack/03a-IPHC/iphc.c ****     msg->owner = COMPONENT_IPHC;
 127              		.loc 1 70 0
 128 001a FB68     		ldr	r3, [r7, #12]
 129 001c 1122     		movs	r2, #17
 130 001e 5A70     		strb	r2, [r3, #1]
  71:build/openmote-cc2538_armgcc/openstack/03a-IPHC/iphc.c ****    
  72:build/openmote-cc2538_armgcc/openstack/03a-IPHC/iphc.c ****     // error checking
  73:build/openmote-cc2538_armgcc/openstack/03a-IPHC/iphc.c ****     if (idmanager_getIsDAGroot()==TRUE &&
 131              		.loc 1 73 0
 132 0020 FFF7FEFF 		bl	idmanager_getIsDAGroot
 133 0024 0346     		mov	r3, r0
 134 0026 002B     		cmp	r3, #0
 135 0028 12D0     		beq	.L3
  74:build/openmote-cc2538_armgcc/openstack/03a-IPHC/iphc.c ****         packetfunctions_isAllRoutersMulticast(&(msg->l3_destinationAdd))==FALSE) {
 136              		.loc 1 74 0 discriminator 1
 137 002a FB68     		ldr	r3, [r7, #12]
 138 002c 1533     		adds	r3, r3, #21
 139 002e 1846     		mov	r0, r3
 140 0030 FFF7FEFF 		bl	packetfunctions_isAllRoutersMulticast
 141 0034 0346     		mov	r3, r0
 142 0036 83F00103 		eor	r3, r3, #1
 143 003a DBB2     		uxtb	r3, r3
  73:build/openmote-cc2538_armgcc/openstack/03a-IPHC/iphc.c ****         packetfunctions_isAllRoutersMulticast(&(msg->l3_destinationAdd))==FALSE) {
 144              		.loc 1 73 0 discriminator 1
 145 003c 002B     		cmp	r3, #0
 146 003e 07D0     		beq	.L3
  75:build/openmote-cc2538_armgcc/openstack/03a-IPHC/iphc.c ****         openserial_printCritical(COMPONENT_IPHC,ERR_BRIDGE_MISMATCH,
 147              		.loc 1 75 0
 148 0040 1120     		movs	r0, #17
 149 0042 3221     		movs	r1, #50
 150 0044 0022     		movs	r2, #0
 151 0046 0023     		movs	r3, #0
 152 0048 FFF7FEFF 		bl	openserial_printCritical
  76:build/openmote-cc2538_armgcc/openstack/03a-IPHC/iphc.c ****                             (errorparameter_t)0,
  77:build/openmote-cc2538_armgcc/openstack/03a-IPHC/iphc.c ****                             (errorparameter_t)0);
  78:build/openmote-cc2538_armgcc/openstack/03a-IPHC/iphc.c ****         return E_FAIL;
 153              		.loc 1 78 0
 154 004c 0123     		movs	r3, #1
 155 004e 2EE1     		b	.L21
 156              	.L3:
  79:build/openmote-cc2538_armgcc/openstack/03a-IPHC/iphc.c ****     }
  80:build/openmote-cc2538_armgcc/openstack/03a-IPHC/iphc.c ****    
  81:build/openmote-cc2538_armgcc/openstack/03a-IPHC/iphc.c ****     //discard the packet.. hop limit reached.
  82:build/openmote-cc2538_armgcc/openstack/03a-IPHC/iphc.c ****     if (ipv6_outer_header->src.type != ADDR_NONE){
 157              		.loc 1 82 0
 158 0050 BB68     		ldr	r3, [r7, #8]
 159 0052 9B7F     		ldrb	r3, [r3, #30]	@ zero_extendqisi2
 160 0054 002B     		cmp	r3, #0
 161 0056 12D0     		beq	.L5
  83:build/openmote-cc2538_armgcc/openstack/03a-IPHC/iphc.c ****         // there is IPinIP check hop limit in ip in ip encapsulation
  84:build/openmote-cc2538_armgcc/openstack/03a-IPHC/iphc.c ****         if (ipv6_outer_header->hop_limit==0){
 162              		.loc 1 84 0
 163 0058 BB68     		ldr	r3, [r7, #8]
 164 005a 1B7F     		ldrb	r3, [r3, #28]	@ zero_extendqisi2
 165 005c 002B     		cmp	r3, #0
 166 005e 07D1     		bne	.L6
  85:build/openmote-cc2538_armgcc/openstack/03a-IPHC/iphc.c ****             openserial_printError(COMPONENT_IPHC,ERR_HOP_LIMIT_REACHED,
 167              		.loc 1 85 0
 168 0060 1120     		movs	r0, #17
 169 0062 1121     		movs	r1, #17
 170 0064 0022     		movs	r2, #0
 171 0066 0023     		movs	r3, #0
 172 0068 FFF7FEFF 		bl	openserial_printError
  86:build/openmote-cc2538_armgcc/openstack/03a-IPHC/iphc.c ****                                 (errorparameter_t)0,
  87:build/openmote-cc2538_armgcc/openstack/03a-IPHC/iphc.c ****                                 (errorparameter_t)0);
  88:build/openmote-cc2538_armgcc/openstack/03a-IPHC/iphc.c ****             return E_FAIL;
 173              		.loc 1 88 0
 174 006c 0123     		movs	r3, #1
 175 006e 1EE1     		b	.L21
 176              	.L6:
  89:build/openmote-cc2538_armgcc/openstack/03a-IPHC/iphc.c ****         } else {
  90:build/openmote-cc2538_armgcc/openstack/03a-IPHC/iphc.c ****             // decrement the packet's hop limit
  91:build/openmote-cc2538_armgcc/openstack/03a-IPHC/iphc.c ****             ipv6_outer_header->hop_limit--;
 177              		.loc 1 91 0
 178 0070 BB68     		ldr	r3, [r7, #8]
 179 0072 1B7F     		ldrb	r3, [r3, #28]	@ zero_extendqisi2
 180 0074 013B     		subs	r3, r3, #1
 181 0076 DAB2     		uxtb	r2, r3
 182 0078 BB68     		ldr	r3, [r7, #8]
 183 007a 1A77     		strb	r2, [r3, #28]
 184 007c 11E0     		b	.L7
 185              	.L5:
  92:build/openmote-cc2538_armgcc/openstack/03a-IPHC/iphc.c ****         }
  93:build/openmote-cc2538_armgcc/openstack/03a-IPHC/iphc.c ****     } else {
  94:build/openmote-cc2538_armgcc/openstack/03a-IPHC/iphc.c ****         if (ipv6_inner_header->hop_limit==0) {
 186              		.loc 1 94 0
 187 007e 7B68     		ldr	r3, [r7, #4]
 188 0080 1B7F     		ldrb	r3, [r3, #28]	@ zero_extendqisi2
 189 0082 002B     		cmp	r3, #0
 190 0084 07D1     		bne	.L8
  95:build/openmote-cc2538_armgcc/openstack/03a-IPHC/iphc.c ****             openserial_printError(COMPONENT_IPHC,ERR_HOP_LIMIT_REACHED,
 191              		.loc 1 95 0
 192 0086 1120     		movs	r0, #17
 193 0088 1121     		movs	r1, #17
 194 008a 0022     		movs	r2, #0
 195 008c 0023     		movs	r3, #0
 196 008e FFF7FEFF 		bl	openserial_printError
  96:build/openmote-cc2538_armgcc/openstack/03a-IPHC/iphc.c ****                                 (errorparameter_t)0,
  97:build/openmote-cc2538_armgcc/openstack/03a-IPHC/iphc.c ****                                 (errorparameter_t)0);
  98:build/openmote-cc2538_armgcc/openstack/03a-IPHC/iphc.c ****             return E_FAIL;
 197              		.loc 1 98 0
 198 0092 0123     		movs	r3, #1
 199 0094 0BE1     		b	.L21
 200              	.L8:
  99:build/openmote-cc2538_armgcc/openstack/03a-IPHC/iphc.c ****         } else {
 100:build/openmote-cc2538_armgcc/openstack/03a-IPHC/iphc.c ****             // decrement the packet's hop limit
 101:build/openmote-cc2538_armgcc/openstack/03a-IPHC/iphc.c ****             ipv6_inner_header->hop_limit--;
 201              		.loc 1 101 0
 202 0096 7B68     		ldr	r3, [r7, #4]
 203 0098 1B7F     		ldrb	r3, [r3, #28]	@ zero_extendqisi2
 204 009a 013B     		subs	r3, r3, #1
 205 009c DAB2     		uxtb	r2, r3
 206 009e 7B68     		ldr	r3, [r7, #4]
 207 00a0 1A77     		strb	r2, [r3, #28]
 208              	.L7:
 102:build/openmote-cc2538_armgcc/openstack/03a-IPHC/iphc.c ****         }
 103:build/openmote-cc2538_armgcc/openstack/03a-IPHC/iphc.c ****     }
 104:build/openmote-cc2538_armgcc/openstack/03a-IPHC/iphc.c ****    
 105:build/openmote-cc2538_armgcc/openstack/03a-IPHC/iphc.c ****     packetfunctions_ip128bToMac64b(&(msg->l3_destinationAdd),&temp_dest_prefix,&temp_dest_mac64b);
 209              		.loc 1 105 0
 210 00a2 FB68     		ldr	r3, [r7, #12]
 211 00a4 03F11501 		add	r1, r3, #21
 212 00a8 07F16402 		add	r2, r7, #100
 213 00ac 07F15003 		add	r3, r7, #80
 214 00b0 0846     		mov	r0, r1
 215 00b2 1146     		mov	r1, r2
 216 00b4 1A46     		mov	r2, r3
 217 00b6 FFF7FEFF 		bl	packetfunctions_ip128bToMac64b
 106:build/openmote-cc2538_armgcc/openstack/03a-IPHC/iphc.c ****     //xv poipoi -- get the src prefix as well
 107:build/openmote-cc2538_armgcc/openstack/03a-IPHC/iphc.c ****     packetfunctions_ip128bToMac64b(&(msg->l3_sourceAdd),&temp_src_prefix,&temp_src_mac64b);
 218              		.loc 1 107 0
 219 00ba FB68     		ldr	r3, [r7, #12]
 220 00bc 03F12601 		add	r1, r3, #38
 221 00c0 07F13C02 		add	r2, r7, #60
 222 00c4 07F12803 		add	r3, r7, #40
 223 00c8 0846     		mov	r0, r1
 224 00ca 1146     		mov	r1, r2
 225 00cc 1A46     		mov	r2, r3
 226 00ce FFF7FEFF 		bl	packetfunctions_ip128bToMac64b
 108:build/openmote-cc2538_armgcc/openstack/03a-IPHC/iphc.c ****     //XV -poipoi we want to check if the source address prefix is the same as destination prefix
 109:build/openmote-cc2538_armgcc/openstack/03a-IPHC/iphc.c ****     if (packetfunctions_sameAddress(&temp_dest_prefix,&temp_src_prefix)) {
 227              		.loc 1 109 0
 228 00d2 07F16402 		add	r2, r7, #100
 229 00d6 07F13C03 		add	r3, r7, #60
 230 00da 1046     		mov	r0, r2
 231 00dc 1946     		mov	r1, r3
 232 00de FFF7FEFF 		bl	packetfunctions_sameAddress
 233 00e2 0346     		mov	r3, r0
 234 00e4 002B     		cmp	r3, #0
 235 00e6 03D0     		beq	.L9
 110:build/openmote-cc2538_armgcc/openstack/03a-IPHC/iphc.c ****         sam = IPHC_SAM_64B;    // no ipinip 6loRH if in the same prefix
 236              		.loc 1 110 0
 237 00e8 0123     		movs	r3, #1
 238 00ea 87F87730 		strb	r3, [r7, #119]
 239 00ee 11E0     		b	.L10
 240              	.L9:
 111:build/openmote-cc2538_armgcc/openstack/03a-IPHC/iphc.c ****     } else {
 112:build/openmote-cc2538_armgcc/openstack/03a-IPHC/iphc.c ****         //not the same prefix. so the packet travels to another network
 113:build/openmote-cc2538_armgcc/openstack/03a-IPHC/iphc.c ****         //check if this is a source routing pkt. in case it is then the DAM is elided as it is in t
 114:build/openmote-cc2538_armgcc/openstack/03a-IPHC/iphc.c ****         if (packetfunctions_isBroadcastMulticast(&(msg->l3_destinationAdd))==FALSE){
 241              		.loc 1 114 0
 242 00f0 FB68     		ldr	r3, [r7, #12]
 243 00f2 1533     		adds	r3, r3, #21
 244 00f4 1846     		mov	r0, r3
 245 00f6 FFF7FEFF 		bl	packetfunctions_isBroadcastMulticast
 246 00fa 0346     		mov	r3, r0
 247 00fc 83F00103 		eor	r3, r3, #1
 248 0100 DBB2     		uxtb	r3, r3
 249 0102 002B     		cmp	r3, #0
 250 0104 03D0     		beq	.L11
 115:build/openmote-cc2538_armgcc/openstack/03a-IPHC/iphc.c ****             // ip in ip will be presented
 116:build/openmote-cc2538_armgcc/openstack/03a-IPHC/iphc.c ****             sam = IPHC_SAM_128B;
 251              		.loc 1 116 0
 252 0106 0023     		movs	r3, #0
 253 0108 87F87730 		strb	r3, [r7, #119]
 254 010c 02E0     		b	.L10
 255              	.L11:
 117:build/openmote-cc2538_armgcc/openstack/03a-IPHC/iphc.c ****         } else {
 118:build/openmote-cc2538_armgcc/openstack/03a-IPHC/iphc.c ****             // this is DIO, source address elided, multicast bit is set
 119:build/openmote-cc2538_armgcc/openstack/03a-IPHC/iphc.c ****             sam = IPHC_SAM_ELIDED;
 256              		.loc 1 119 0
 257 010e 0323     		movs	r3, #3
 258 0110 87F87730 		strb	r3, [r7, #119]
 259              	.L10:
 120:build/openmote-cc2538_armgcc/openstack/03a-IPHC/iphc.c ****         }
 121:build/openmote-cc2538_armgcc/openstack/03a-IPHC/iphc.c ****     }
 122:build/openmote-cc2538_armgcc/openstack/03a-IPHC/iphc.c **** 
 123:build/openmote-cc2538_armgcc/openstack/03a-IPHC/iphc.c ****     //IPinIP 6LoRH will be added at here if necessary.
 124:build/openmote-cc2538_armgcc/openstack/03a-IPHC/iphc.c ****     if (packetfunctions_sameAddress(&temp_dest_prefix,&temp_src_prefix)){
 260              		.loc 1 124 0
 261 0114 07F16402 		add	r2, r7, #100
 262 0118 07F13C03 		add	r3, r7, #60
 263 011c 1046     		mov	r0, r2
 264 011e 1946     		mov	r1, r3
 265 0120 FFF7FEFF 		bl	packetfunctions_sameAddress
 266 0124 0346     		mov	r3, r0
 267 0126 002B     		cmp	r3, #0
 268 0128 7DD1     		bne	.L12
 125:build/openmote-cc2538_armgcc/openstack/03a-IPHC/iphc.c ****         // same network, IPinIP is elided
 126:build/openmote-cc2538_armgcc/openstack/03a-IPHC/iphc.c ****     } else {
 127:build/openmote-cc2538_armgcc/openstack/03a-IPHC/iphc.c ****         if (packetfunctions_isBroadcastMulticast(&(msg->l3_destinationAdd))==FALSE){
 269              		.loc 1 127 0
 270 012a FB68     		ldr	r3, [r7, #12]
 271 012c 1533     		adds	r3, r3, #21
 272 012e 1846     		mov	r0, r3
 273 0130 FFF7FEFF 		bl	packetfunctions_isBroadcastMulticast
 274 0134 0346     		mov	r3, r0
 275 0136 83F00103 		eor	r3, r3, #1
 276 013a DBB2     		uxtb	r3, r3
 277 013c 002B     		cmp	r3, #0
 278 013e 72D0     		beq	.L12
 128:build/openmote-cc2538_armgcc/openstack/03a-IPHC/iphc.c ****           memset(&(temp_dagroot_ip128b),0,sizeof(open_addr_t));
 279              		.loc 1 128 0
 280 0140 07F11403 		add	r3, r7, #20
 281 0144 1846     		mov	r0, r3
 282 0146 0021     		movs	r1, #0
 283 0148 1122     		movs	r2, #17
 284 014a FFF7FEFF 		bl	memset
 129:build/openmote-cc2538_armgcc/openstack/03a-IPHC/iphc.c ****           packetfunctions_mac64bToIp128b(idmanager_getMyID(ADDR_PREFIX),(open_addr_t*)dagroot_mac64
 285              		.loc 1 129 0
 286 014e 0520     		movs	r0, #5
 287 0150 FFF7FEFF 		bl	idmanager_getMyID
 288 0154 0246     		mov	r2, r0
 289 0156 07F11403 		add	r3, r7, #20
 290 015a 1046     		mov	r0, r2
 291 015c 40F20001 		movw	r1, #:lower16:dagroot_mac64b
 292 0160 C0F20001 		movt	r1, #:upper16:dagroot_mac64b
 293 0164 1A46     		mov	r2, r3
 294 0166 FFF7FEFF 		bl	packetfunctions_mac64bToIp128b
 130:build/openmote-cc2538_armgcc/openstack/03a-IPHC/iphc.c ****             if (
 131:build/openmote-cc2538_armgcc/openstack/03a-IPHC/iphc.c ****                 (
 132:build/openmote-cc2538_armgcc/openstack/03a-IPHC/iphc.c ****                   ipv6_outer_header->src.type == ADDR_NONE &&
 295              		.loc 1 132 0
 296 016a BB68     		ldr	r3, [r7, #8]
 297 016c 9B7F     		ldrb	r3, [r3, #30]	@ zero_extendqisi2
 130:build/openmote-cc2538_armgcc/openstack/03a-IPHC/iphc.c ****             if (
 298              		.loc 1 130 0
 299 016e 002B     		cmp	r3, #0
 300 0170 0BD1     		bne	.L13
 133:build/openmote-cc2538_armgcc/openstack/03a-IPHC/iphc.c ****                   packetfunctions_sameAddress(&(msg->l3_sourceAdd),&(temp_dagroot_ip128b))
 301              		.loc 1 133 0
 302 0172 FB68     		ldr	r3, [r7, #12]
 303 0174 03F12602 		add	r2, r3, #38
 304 0178 07F11403 		add	r3, r7, #20
 305 017c 1046     		mov	r0, r2
 306 017e 1946     		mov	r1, r3
 307 0180 FFF7FEFF 		bl	packetfunctions_sameAddress
 308 0184 0346     		mov	r3, r0
 132:build/openmote-cc2538_armgcc/openstack/03a-IPHC/iphc.c ****                   packetfunctions_sameAddress(&(msg->l3_sourceAdd),&(temp_dagroot_ip128b))
 309              		.loc 1 132 0
 310 0186 002B     		cmp	r3, #0
 311 0188 0FD1     		bne	.L14
 312              	.L13:
 134:build/openmote-cc2538_armgcc/openstack/03a-IPHC/iphc.c ****                 ) || 
 135:build/openmote-cc2538_armgcc/openstack/03a-IPHC/iphc.c ****                 (
 136:build/openmote-cc2538_armgcc/openstack/03a-IPHC/iphc.c ****                   ipv6_outer_header->src.type != ADDR_NONE &&
 313              		.loc 1 136 0
 314 018a BB68     		ldr	r3, [r7, #8]
 315 018c 9B7F     		ldrb	r3, [r3, #30]	@ zero_extendqisi2
 134:build/openmote-cc2538_armgcc/openstack/03a-IPHC/iphc.c ****                 ) || 
 316              		.loc 1 134 0
 317 018e 002B     		cmp	r3, #0
 318 0190 25D0     		beq	.L15
 137:build/openmote-cc2538_armgcc/openstack/03a-IPHC/iphc.c ****                   packetfunctions_sameAddress(&(ipv6_outer_header->src),&(temp_dagroot_ip128b))
 319              		.loc 1 137 0
 320 0192 BB68     		ldr	r3, [r7, #8]
 321 0194 03F11E02 		add	r2, r3, #30
 322 0198 07F11403 		add	r3, r7, #20
 323 019c 1046     		mov	r0, r2
 324 019e 1946     		mov	r1, r3
 325 01a0 FFF7FEFF 		bl	packetfunctions_sameAddress
 326 01a4 0346     		mov	r3, r0
 136:build/openmote-cc2538_armgcc/openstack/03a-IPHC/iphc.c ****                   packetfunctions_sameAddress(&(ipv6_outer_header->src),&(temp_dagroot_ip128b))
 327              		.loc 1 136 0
 328 01a6 002B     		cmp	r3, #0
 329 01a8 19D0     		beq	.L15
 330              	.L14:
 138:build/openmote-cc2538_armgcc/openstack/03a-IPHC/iphc.c ****                  )
 139:build/openmote-cc2538_armgcc/openstack/03a-IPHC/iphc.c ****             ){
 140:build/openmote-cc2538_armgcc/openstack/03a-IPHC/iphc.c ****                 // hop limit
 141:build/openmote-cc2538_armgcc/openstack/03a-IPHC/iphc.c ****                 packetfunctions_reserveHeaderSize(msg,sizeof(uint8_t));
 331              		.loc 1 141 0
 332 01aa F868     		ldr	r0, [r7, #12]
 333 01ac 0121     		movs	r1, #1
 334 01ae FFF7FEFF 		bl	packetfunctions_reserveHeaderSize
 142:build/openmote-cc2538_armgcc/openstack/03a-IPHC/iphc.c ****                 *((uint8_t*)(msg->payload)) = ipv6_outer_header->hop_limit;
 335              		.loc 1 142 0
 336 01b2 FB68     		ldr	r3, [r7, #12]
 337 01b4 5B68     		ldr	r3, [r3, #4]
 338 01b6 BA68     		ldr	r2, [r7, #8]
 339 01b8 127F     		ldrb	r2, [r2, #28]	@ zero_extendqisi2
 340 01ba 1A70     		strb	r2, [r3]
 143:build/openmote-cc2538_armgcc/openstack/03a-IPHC/iphc.c ****                 // type
 144:build/openmote-cc2538_armgcc/openstack/03a-IPHC/iphc.c ****                 packetfunctions_reserveHeaderSize(msg,sizeof(uint8_t));
 341              		.loc 1 144 0
 342 01bc F868     		ldr	r0, [r7, #12]
 343 01be 0121     		movs	r1, #1
 344 01c0 FFF7FEFF 		bl	packetfunctions_reserveHeaderSize
 145:build/openmote-cc2538_armgcc/openstack/03a-IPHC/iphc.c ****                 *((uint8_t*)(msg->payload)) = IPECAP_6LOTH_TYPE;
 345              		.loc 1 145 0
 346 01c4 FB68     		ldr	r3, [r7, #12]
 347 01c6 5B68     		ldr	r3, [r3, #4]
 348 01c8 0622     		movs	r2, #6
 349 01ca 1A70     		strb	r2, [r3]
 146:build/openmote-cc2538_armgcc/openstack/03a-IPHC/iphc.c ****                 // length 
 147:build/openmote-cc2538_armgcc/openstack/03a-IPHC/iphc.c ****                 packetfunctions_reserveHeaderSize(msg,sizeof(uint8_t));
 350              		.loc 1 147 0
 351 01cc F868     		ldr	r0, [r7, #12]
 352 01ce 0121     		movs	r1, #1
 353 01d0 FFF7FEFF 		bl	packetfunctions_reserveHeaderSize
 148:build/openmote-cc2538_armgcc/openstack/03a-IPHC/iphc.c ****                 *((uint8_t*)(msg->payload)) = ELECTIVE_6LoRH | 1;
 354              		.loc 1 148 0
 355 01d4 FB68     		ldr	r3, [r7, #12]
 356 01d6 5B68     		ldr	r3, [r3, #4]
 357 01d8 A122     		movs	r2, #161
 358 01da 1A70     		strb	r2, [r3]
 359 01dc 23E0     		b	.L12
 360              	.L15:
 149:build/openmote-cc2538_armgcc/openstack/03a-IPHC/iphc.c ****             }
 150:build/openmote-cc2538_armgcc/openstack/03a-IPHC/iphc.c ****             else {
 151:build/openmote-cc2538_armgcc/openstack/03a-IPHC/iphc.c ****                 if (sam == IPHC_SAM_128B){
 361              		.loc 1 151 0
 362 01de 97F87730 		ldrb	r3, [r7, #119]	@ zero_extendqisi2
 363 01e2 002B     		cmp	r3, #0
 364 01e4 1FD1     		bne	.L12
 152:build/openmote-cc2538_armgcc/openstack/03a-IPHC/iphc.c ****                     // encapsulate address
 153:build/openmote-cc2538_armgcc/openstack/03a-IPHC/iphc.c ****                     packetfunctions_writeAddress(msg, &(msg->l3_sourceAdd),OW_BIG_ENDIAN);
 365              		.loc 1 153 0
 366 01e6 FB68     		ldr	r3, [r7, #12]
 367 01e8 2633     		adds	r3, r3, #38
 368 01ea F868     		ldr	r0, [r7, #12]
 369 01ec 1946     		mov	r1, r3
 370 01ee 0022     		movs	r2, #0
 371 01f0 FFF7FEFF 		bl	packetfunctions_writeAddress
 154:build/openmote-cc2538_armgcc/openstack/03a-IPHC/iphc.c ****                     // hoplim
 155:build/openmote-cc2538_armgcc/openstack/03a-IPHC/iphc.c ****                     packetfunctions_reserveHeaderSize(msg,sizeof(uint8_t));
 372              		.loc 1 155 0
 373 01f4 F868     		ldr	r0, [r7, #12]
 374 01f6 0121     		movs	r1, #1
 375 01f8 FFF7FEFF 		bl	packetfunctions_reserveHeaderSize
 156:build/openmote-cc2538_armgcc/openstack/03a-IPHC/iphc.c ****                     *((uint8_t*)(msg->payload)) = ipv6_outer_header->hop_limit;
 376              		.loc 1 156 0
 377 01fc FB68     		ldr	r3, [r7, #12]
 378 01fe 5B68     		ldr	r3, [r3, #4]
 379 0200 BA68     		ldr	r2, [r7, #8]
 380 0202 127F     		ldrb	r2, [r2, #28]	@ zero_extendqisi2
 381 0204 1A70     		strb	r2, [r3]
 157:build/openmote-cc2538_armgcc/openstack/03a-IPHC/iphc.c ****                     // type
 158:build/openmote-cc2538_armgcc/openstack/03a-IPHC/iphc.c ****                     packetfunctions_reserveHeaderSize(msg,sizeof(uint8_t));
 382              		.loc 1 158 0
 383 0206 F868     		ldr	r0, [r7, #12]
 384 0208 0121     		movs	r1, #1
 385 020a FFF7FEFF 		bl	packetfunctions_reserveHeaderSize
 159:build/openmote-cc2538_armgcc/openstack/03a-IPHC/iphc.c ****                     *((uint8_t*)(msg->payload)) = IPECAP_6LOTH_TYPE;
 386              		.loc 1 159 0
 387 020e FB68     		ldr	r3, [r7, #12]
 388 0210 5B68     		ldr	r3, [r3, #4]
 389 0212 0622     		movs	r2, #6
 390 0214 1A70     		strb	r2, [r3]
 160:build/openmote-cc2538_armgcc/openstack/03a-IPHC/iphc.c ****                     // length
 161:build/openmote-cc2538_armgcc/openstack/03a-IPHC/iphc.c ****                     packetfunctions_reserveHeaderSize(msg,sizeof(uint8_t));
 391              		.loc 1 161 0
 392 0216 F868     		ldr	r0, [r7, #12]
 393 0218 0121     		movs	r1, #1
 394 021a FFF7FEFF 		bl	packetfunctions_reserveHeaderSize
 162:build/openmote-cc2538_armgcc/openstack/03a-IPHC/iphc.c ****                     *((uint8_t*)(msg->payload)) = ELECTIVE_6LoRH | 17;
 395              		.loc 1 162 0
 396 021e FB68     		ldr	r3, [r7, #12]
 397 0220 5B68     		ldr	r3, [r3, #4]
 398 0222 B122     		movs	r2, #177
 399 0224 1A70     		strb	r2, [r3]
 400              	.L12:
 163:build/openmote-cc2538_armgcc/openstack/03a-IPHC/iphc.c ****                 }
 164:build/openmote-cc2538_armgcc/openstack/03a-IPHC/iphc.c ****             }
 165:build/openmote-cc2538_armgcc/openstack/03a-IPHC/iphc.c ****         } else {
 166:build/openmote-cc2538_armgcc/openstack/03a-IPHC/iphc.c ****             // this is DIO, no IPinIP either
 167:build/openmote-cc2538_armgcc/openstack/03a-IPHC/iphc.c ****         }
 168:build/openmote-cc2538_armgcc/openstack/03a-IPHC/iphc.c ****     }
 169:build/openmote-cc2538_armgcc/openstack/03a-IPHC/iphc.c ****     
 170:build/openmote-cc2538_armgcc/openstack/03a-IPHC/iphc.c ****     //prepend Option hop by hop header except when src routing and dst is not 0xffff
 171:build/openmote-cc2538_armgcc/openstack/03a-IPHC/iphc.c ****     //-- this is a little trick as src routing is using an option header set to 0x00
 172:build/openmote-cc2538_armgcc/openstack/03a-IPHC/iphc.c ****     if (
 173:build/openmote-cc2538_armgcc/openstack/03a-IPHC/iphc.c ****         rpl_option->optionType==RPL_HOPBYHOP_HEADER_OPTION_TYPE && 
 401              		.loc 1 173 0
 402 0226 3B68     		ldr	r3, [r7]
 403 0228 1B78     		ldrb	r3, [r3]	@ zero_extendqisi2
 172:build/openmote-cc2538_armgcc/openstack/03a-IPHC/iphc.c ****         rpl_option->optionType==RPL_HOPBYHOP_HEADER_OPTION_TYPE && 
 404              		.loc 1 172 0
 405 022a 632B     		cmp	r3, #99
 406 022c 11D1     		bne	.L17
 174:build/openmote-cc2538_armgcc/openstack/03a-IPHC/iphc.c ****         packetfunctions_isBroadcastMulticast(&(msg->l3_destinationAdd))==FALSE
 407              		.loc 1 174 0
 408 022e FB68     		ldr	r3, [r7, #12]
 409 0230 1533     		adds	r3, r3, #21
 410 0232 1846     		mov	r0, r3
 411 0234 FFF7FEFF 		bl	packetfunctions_isBroadcastMulticast
 412 0238 0346     		mov	r3, r0
 413 023a 83F00103 		eor	r3, r3, #1
 414 023e DBB2     		uxtb	r3, r3
 173:build/openmote-cc2538_armgcc/openstack/03a-IPHC/iphc.c ****         packetfunctions_isBroadcastMulticast(&(msg->l3_destinationAdd))==FALSE
 415              		.loc 1 173 0
 416 0240 002B     		cmp	r3, #0
 417 0242 06D0     		beq	.L17
 175:build/openmote-cc2538_armgcc/openstack/03a-IPHC/iphc.c ****     ){
 176:build/openmote-cc2538_armgcc/openstack/03a-IPHC/iphc.c ****         iphc_prependIPv6HopByHopHeader(msg, msg->l4_protocol, rpl_option);
 418              		.loc 1 176 0
 419 0244 FB68     		ldr	r3, [r7, #12]
 420 0246 5B7A     		ldrb	r3, [r3, #9]	@ zero_extendqisi2
 421 0248 F868     		ldr	r0, [r7, #12]
 422 024a 1946     		mov	r1, r3
 423 024c 3A68     		ldr	r2, [r7]
 424 024e FFF7FEFF 		bl	iphc_prependIPv6HopByHopHeader
 425              	.L17:
 177:build/openmote-cc2538_armgcc/openstack/03a-IPHC/iphc.c ****     }
 178:build/openmote-cc2538_armgcc/openstack/03a-IPHC/iphc.c ****     
 179:build/openmote-cc2538_armgcc/openstack/03a-IPHC/iphc.c ****     // copy RH3s back if length > 0
 180:build/openmote-cc2538_armgcc/openstack/03a-IPHC/iphc.c ****     if (rh3_length > 0){
 426              		.loc 1 180 0
 427 0252 97F88830 		ldrb	r3, [r7, #136]	@ zero_extendqisi2
 428 0256 002B     		cmp	r3, #0
 429 0258 0FD0     		beq	.L18
 181:build/openmote-cc2538_armgcc/openstack/03a-IPHC/iphc.c ****         packetfunctions_reserveHeaderSize(msg,rh3_length);
 430              		.loc 1 181 0
 431 025a 97F88830 		ldrb	r3, [r7, #136]	@ zero_extendqisi2
 432 025e F868     		ldr	r0, [r7, #12]
 433 0260 1946     		mov	r1, r3
 434 0262 FFF7FEFF 		bl	packetfunctions_reserveHeaderSize
 182:build/openmote-cc2538_armgcc/openstack/03a-IPHC/iphc.c ****         memcpy(&msg->payload[0],&rh3_copy[0],rh3_length);
 435              		.loc 1 182 0
 436 0266 FB68     		ldr	r3, [r7, #12]
 437 0268 5A68     		ldr	r2, [r3, #4]
 438 026a 97F88830 		ldrb	r3, [r7, #136]	@ zero_extendqisi2
 439 026e 1046     		mov	r0, r2
 440 0270 D7F88410 		ldr	r1, [r7, #132]
 441 0274 1A46     		mov	r2, r3
 442 0276 FFF7FEFF 		bl	memcpy
 443              	.L18:
 183:build/openmote-cc2538_armgcc/openstack/03a-IPHC/iphc.c ****     }
 184:build/openmote-cc2538_armgcc/openstack/03a-IPHC/iphc.c ****     
 185:build/openmote-cc2538_armgcc/openstack/03a-IPHC/iphc.c ****     // if there are 6LoRH in the packet, add page dispatch no.1
 186:build/openmote-cc2538_armgcc/openstack/03a-IPHC/iphc.c ****     if (
 187:build/openmote-cc2538_armgcc/openstack/03a-IPHC/iphc.c ****         (*((uint8_t*)(msg->payload)) & FORMAT_6LORH_MASK) == CRITICAL_6LORH ||
 444              		.loc 1 187 0
 445 027a FB68     		ldr	r3, [r7, #12]
 446 027c 5B68     		ldr	r3, [r3, #4]
 447 027e 1B78     		ldrb	r3, [r3]	@ zero_extendqisi2
 448 0280 03F0E003 		and	r3, r3, #224
 186:build/openmote-cc2538_armgcc/openstack/03a-IPHC/iphc.c ****         (*((uint8_t*)(msg->payload)) & FORMAT_6LORH_MASK) == CRITICAL_6LORH ||
 449              		.loc 1 186 0
 450 0284 802B     		cmp	r3, #128
 451 0286 06D0     		beq	.L19
 188:build/openmote-cc2538_armgcc/openstack/03a-IPHC/iphc.c ****         (*((uint8_t*)(msg->payload)) & FORMAT_6LORH_MASK) == ELECTIVE_6LoRH
 452              		.loc 1 188 0
 453 0288 FB68     		ldr	r3, [r7, #12]
 454 028a 5B68     		ldr	r3, [r3, #4]
 455 028c 1B78     		ldrb	r3, [r3]	@ zero_extendqisi2
 456 028e 03F0E003 		and	r3, r3, #224
 187:build/openmote-cc2538_armgcc/openstack/03a-IPHC/iphc.c ****         (*((uint8_t*)(msg->payload)) & FORMAT_6LORH_MASK) == ELECTIVE_6LoRH
 457              		.loc 1 187 0
 458 0292 A02B     		cmp	r3, #160
 459 0294 07D1     		bne	.L20
 460              	.L19:
 189:build/openmote-cc2538_armgcc/openstack/03a-IPHC/iphc.c ****     ){
 190:build/openmote-cc2538_armgcc/openstack/03a-IPHC/iphc.c ****         packetfunctions_reserveHeaderSize(msg,sizeof(uint8_t));
 461              		.loc 1 190 0
 462 0296 F868     		ldr	r0, [r7, #12]
 463 0298 0121     		movs	r1, #1
 464 029a FFF7FEFF 		bl	packetfunctions_reserveHeaderSize
 191:build/openmote-cc2538_armgcc/openstack/03a-IPHC/iphc.c ****         *((uint8_t*)(msg->payload)) = PAGE_DISPATCH_NO_1;
 465              		.loc 1 191 0
 466 029e FB68     		ldr	r3, [r7, #12]
 467 02a0 5B68     		ldr	r3, [r3, #4]
 468 02a2 F122     		movs	r2, #241
 469 02a4 1A70     		strb	r2, [r3]
 470              	.L20:
 192:build/openmote-cc2538_armgcc/openstack/03a-IPHC/iphc.c ****     }
 193:build/openmote-cc2538_armgcc/openstack/03a-IPHC/iphc.c ****     
 194:build/openmote-cc2538_armgcc/openstack/03a-IPHC/iphc.c ****     return sixtop_send(msg);
 471              		.loc 1 194 0
 472 02a6 F868     		ldr	r0, [r7, #12]
 473 02a8 FFF7FEFF 		bl	sixtop_send
 474 02ac 0346     		mov	r3, r0
 475              	.L21:
 195:build/openmote-cc2538_armgcc/openstack/03a-IPHC/iphc.c **** }
 476              		.loc 1 195 0
 477 02ae 1846     		mov	r0, r3
 478 02b0 7837     		adds	r7, r7, #120
 479 02b2 BD46     		mov	sp, r7
 480              		@ sp needed
 481 02b4 80BD     		pop	{r7, pc}
 482              		.cfi_endproc
 483              	.LFE1:
 485 02b6 00BF     		.align	2
 486              		.global	iphc_sendFromBridge
 487              		.thumb
 488              		.thumb_func
 490              	iphc_sendFromBridge:
 491              	.LFB2:
 196:build/openmote-cc2538_armgcc/openstack/03a-IPHC/iphc.c **** 
 197:build/openmote-cc2538_armgcc/openstack/03a-IPHC/iphc.c **** //send from bridge: 6LoWPAN header already added by OpenLBR, send as is
 198:build/openmote-cc2538_armgcc/openstack/03a-IPHC/iphc.c **** owerror_t iphc_sendFromBridge(OpenQueueEntry_t *msg) {
 492              		.loc 1 198 0
 493              		.cfi_startproc
 494              		@ args = 0, pretend = 0, frame = 8
 495              		@ frame_needed = 1, uses_anonymous_args = 0
 496 02b8 80B5     		push	{r7, lr}
 497              		.cfi_def_cfa_offset 8
 498              		.cfi_offset 7, -8
 499              		.cfi_offset 14, -4
 500 02ba 82B0     		sub	sp, sp, #8
 501              		.cfi_def_cfa_offset 16
 502 02bc 00AF     		add	r7, sp, #0
 503              		.cfi_def_cfa_register 7
 504 02be 7860     		str	r0, [r7, #4]
 199:build/openmote-cc2538_armgcc/openstack/03a-IPHC/iphc.c ****    msg->owner = COMPONENT_IPHC;
 505              		.loc 1 199 0
 506 02c0 7B68     		ldr	r3, [r7, #4]
 507 02c2 1122     		movs	r2, #17
 508 02c4 5A70     		strb	r2, [r3, #1]
 200:build/openmote-cc2538_armgcc/openstack/03a-IPHC/iphc.c ****    // error checking
 201:build/openmote-cc2538_armgcc/openstack/03a-IPHC/iphc.c ****    if (idmanager_getIsDAGroot()==FALSE) {
 509              		.loc 1 201 0
 510 02c6 FFF7FEFF 		bl	idmanager_getIsDAGroot
 511 02ca 0346     		mov	r3, r0
 512 02cc 83F00103 		eor	r3, r3, #1
 513 02d0 DBB2     		uxtb	r3, r3
 514 02d2 002B     		cmp	r3, #0
 515 02d4 07D0     		beq	.L23
 202:build/openmote-cc2538_armgcc/openstack/03a-IPHC/iphc.c ****       openserial_printCritical(COMPONENT_IPHC,ERR_BRIDGE_MISMATCH,
 516              		.loc 1 202 0
 517 02d6 1120     		movs	r0, #17
 518 02d8 3221     		movs	r1, #50
 519 02da 0122     		movs	r2, #1
 520 02dc 0023     		movs	r3, #0
 521 02de FFF7FEFF 		bl	openserial_printCritical
 203:build/openmote-cc2538_armgcc/openstack/03a-IPHC/iphc.c ****                             (errorparameter_t)1,
 204:build/openmote-cc2538_armgcc/openstack/03a-IPHC/iphc.c ****                             (errorparameter_t)0);
 205:build/openmote-cc2538_armgcc/openstack/03a-IPHC/iphc.c ****       return E_FAIL;
 522              		.loc 1 205 0
 523 02e2 0123     		movs	r3, #1
 524 02e4 03E0     		b	.L24
 525              	.L23:
 206:build/openmote-cc2538_armgcc/openstack/03a-IPHC/iphc.c ****    }
 207:build/openmote-cc2538_armgcc/openstack/03a-IPHC/iphc.c ****    return sixtop_send(msg);
 526              		.loc 1 207 0
 527 02e6 7868     		ldr	r0, [r7, #4]
 528 02e8 FFF7FEFF 		bl	sixtop_send
 529 02ec 0346     		mov	r3, r0
 530              	.L24:
 208:build/openmote-cc2538_armgcc/openstack/03a-IPHC/iphc.c **** }
 531              		.loc 1 208 0
 532 02ee 1846     		mov	r0, r3
 533 02f0 0837     		adds	r7, r7, #8
 534 02f2 BD46     		mov	sp, r7
 535              		@ sp needed
 536 02f4 80BD     		pop	{r7, pc}
 537              		.cfi_endproc
 538              	.LFE2:
 540 02f6 00BF     		.align	2
 541              		.global	iphc_sendDone
 542              		.thumb
 543              		.thumb_func
 545              	iphc_sendDone:
 546              	.LFB3:
 209:build/openmote-cc2538_armgcc/openstack/03a-IPHC/iphc.c **** 
 210:build/openmote-cc2538_armgcc/openstack/03a-IPHC/iphc.c **** void iphc_sendDone(OpenQueueEntry_t* msg, owerror_t error) {
 547              		.loc 1 210 0
 548              		.cfi_startproc
 549              		@ args = 0, pretend = 0, frame = 8
 550              		@ frame_needed = 1, uses_anonymous_args = 0
 551 02f8 80B5     		push	{r7, lr}
 552              		.cfi_def_cfa_offset 8
 553              		.cfi_offset 7, -8
 554              		.cfi_offset 14, -4
 555 02fa 82B0     		sub	sp, sp, #8
 556              		.cfi_def_cfa_offset 16
 557 02fc 00AF     		add	r7, sp, #0
 558              		.cfi_def_cfa_register 7
 559 02fe 7860     		str	r0, [r7, #4]
 560 0300 0B46     		mov	r3, r1
 561 0302 FB70     		strb	r3, [r7, #3]
 211:build/openmote-cc2538_armgcc/openstack/03a-IPHC/iphc.c ****    msg->owner = COMPONENT_IPHC;
 562              		.loc 1 211 0
 563 0304 7B68     		ldr	r3, [r7, #4]
 564 0306 1122     		movs	r2, #17
 565 0308 5A70     		strb	r2, [r3, #1]
 212:build/openmote-cc2538_armgcc/openstack/03a-IPHC/iphc.c ****    if (msg->creator==COMPONENT_OPENBRIDGE) {
 566              		.loc 1 212 0
 567 030a 7B68     		ldr	r3, [r7, #4]
 568 030c 1B78     		ldrb	r3, [r3]	@ zero_extendqisi2
 569 030e 102B     		cmp	r3, #16
 570 0310 05D1     		bne	.L26
 213:build/openmote-cc2538_armgcc/openstack/03a-IPHC/iphc.c ****       openbridge_sendDone(msg,error);
 571              		.loc 1 213 0
 572 0312 FB78     		ldrb	r3, [r7, #3]	@ zero_extendqisi2
 573 0314 7868     		ldr	r0, [r7, #4]
 574 0316 1946     		mov	r1, r3
 575 0318 FFF7FEFF 		bl	openbridge_sendDone
 576 031c 04E0     		b	.L25
 577              	.L26:
 214:build/openmote-cc2538_armgcc/openstack/03a-IPHC/iphc.c ****    } else {
 215:build/openmote-cc2538_armgcc/openstack/03a-IPHC/iphc.c ****       forwarding_sendDone(msg,error);
 578              		.loc 1 215 0
 579 031e FB78     		ldrb	r3, [r7, #3]	@ zero_extendqisi2
 580 0320 7868     		ldr	r0, [r7, #4]
 581 0322 1946     		mov	r1, r3
 582 0324 FFF7FEFF 		bl	forwarding_sendDone
 583              	.L25:
 216:build/openmote-cc2538_armgcc/openstack/03a-IPHC/iphc.c ****    }
 217:build/openmote-cc2538_armgcc/openstack/03a-IPHC/iphc.c **** }
 584              		.loc 1 217 0
 585 0328 0837     		adds	r7, r7, #8
 586 032a BD46     		mov	sp, r7
 587              		@ sp needed
 588 032c 80BD     		pop	{r7, pc}
 589              		.cfi_endproc
 590              	.LFE3:
 592 032e 00BF     		.align	2
 593              		.global	iphc_receive
 594              		.thumb
 595              		.thumb_func
 597              	iphc_receive:
 598              	.LFB4:
 218:build/openmote-cc2538_armgcc/openstack/03a-IPHC/iphc.c **** 
 219:build/openmote-cc2538_armgcc/openstack/03a-IPHC/iphc.c **** void iphc_receive(OpenQueueEntry_t* msg) {
 599              		.loc 1 219 0
 600              		.cfi_startproc
 601              		@ args = 0, pretend = 0, frame = 160
 602              		@ frame_needed = 1, uses_anonymous_args = 0
 603 0330 80B5     		push	{r7, lr}
 604              		.cfi_def_cfa_offset 8
 605              		.cfi_offset 7, -8
 606              		.cfi_offset 14, -4
 607 0332 A8B0     		sub	sp, sp, #160
 608              		.cfi_def_cfa_offset 168
 609 0334 00AF     		add	r7, sp, #0
 610              		.cfi_def_cfa_register 7
 611 0336 7860     		str	r0, [r7, #4]
 220:build/openmote-cc2538_armgcc/openstack/03a-IPHC/iphc.c ****     ipv6_header_iht      ipv6_outer_header;
 221:build/openmote-cc2538_armgcc/openstack/03a-IPHC/iphc.c ****     ipv6_header_iht      ipv6_inner_header;
 222:build/openmote-cc2538_armgcc/openstack/03a-IPHC/iphc.c ****     uint8_t              page_length;
 223:build/openmote-cc2538_armgcc/openstack/03a-IPHC/iphc.c ****     rpl_option_ht        rpl_option;
 224:build/openmote-cc2538_armgcc/openstack/03a-IPHC/iphc.c ****     uint8_t              rpi_length;
 225:build/openmote-cc2538_armgcc/openstack/03a-IPHC/iphc.c ****    
 226:build/openmote-cc2538_armgcc/openstack/03a-IPHC/iphc.c ****     msg->owner      = COMPONENT_IPHC;
 612              		.loc 1 226 0
 613 0338 7B68     		ldr	r3, [r7, #4]
 614 033a 1122     		movs	r2, #17
 615 033c 5A70     		strb	r2, [r3, #1]
 227:build/openmote-cc2538_armgcc/openstack/03a-IPHC/iphc.c ****    
 228:build/openmote-cc2538_armgcc/openstack/03a-IPHC/iphc.c ****     memset(&ipv6_outer_header,0,sizeof(ipv6_header_iht));
 616              		.loc 1 228 0
 617 033e 07F15803 		add	r3, r7, #88
 618 0342 1846     		mov	r0, r3
 619 0344 0021     		movs	r1, #0
 620 0346 4422     		movs	r2, #68
 621 0348 FFF7FEFF 		bl	memset
 229:build/openmote-cc2538_armgcc/openstack/03a-IPHC/iphc.c ****     memset(&ipv6_inner_header,0,sizeof(ipv6_header_iht));
 622              		.loc 1 229 0
 623 034c 07F11403 		add	r3, r7, #20
 624 0350 1846     		mov	r0, r3
 625 0352 0021     		movs	r1, #0
 626 0354 4422     		movs	r2, #68
 627 0356 FFF7FEFF 		bl	memset
 230:build/openmote-cc2538_armgcc/openstack/03a-IPHC/iphc.c ****     memset(&rpl_option,0,sizeof(rpl_option_ht));
 628              		.loc 1 230 0
 629 035a 07F10C03 		add	r3, r7, #12
 630 035e 1846     		mov	r0, r3
 631 0360 0021     		movs	r1, #0
 632 0362 0522     		movs	r2, #5
 633 0364 FFF7FEFF 		bl	memset
 231:build/openmote-cc2538_armgcc/openstack/03a-IPHC/iphc.c ****     
 232:build/openmote-cc2538_armgcc/openstack/03a-IPHC/iphc.c ****     // then regular header
 233:build/openmote-cc2538_armgcc/openstack/03a-IPHC/iphc.c ****     iphc_retrieveIPv6Header(msg,&ipv6_outer_header,&ipv6_inner_header,&page_length);
 634              		.loc 1 233 0
 635 0368 07F15801 		add	r1, r7, #88
 636 036c 07F11402 		add	r2, r7, #20
 637 0370 07F11303 		add	r3, r7, #19
 638 0374 7868     		ldr	r0, [r7, #4]
 639 0376 FFF7FEFF 		bl	iphc_retrieveIPv6Header
 234:build/openmote-cc2538_armgcc/openstack/03a-IPHC/iphc.c ****     
 235:build/openmote-cc2538_armgcc/openstack/03a-IPHC/iphc.c ****     // if the address is broadcast address, the ipv6 header is the inner header
 236:build/openmote-cc2538_armgcc/openstack/03a-IPHC/iphc.c ****     if (
 237:build/openmote-cc2538_armgcc/openstack/03a-IPHC/iphc.c ****         idmanager_getIsDAGroot()==FALSE ||
 640              		.loc 1 237 0
 641 037a FFF7FEFF 		bl	idmanager_getIsDAGroot
 642 037e 0346     		mov	r3, r0
 643 0380 83F00103 		eor	r3, r3, #1
 644 0384 DBB2     		uxtb	r3, r3
 236:build/openmote-cc2538_armgcc/openstack/03a-IPHC/iphc.c ****         idmanager_getIsDAGroot()==FALSE ||
 645              		.loc 1 236 0
 646 0386 002B     		cmp	r3, #0
 647 0388 08D1     		bne	.L29
 238:build/openmote-cc2538_armgcc/openstack/03a-IPHC/iphc.c ****         packetfunctions_isBroadcastMulticast(&(ipv6_inner_header.dest))
 648              		.loc 1 238 0
 649 038a 07F11403 		add	r3, r7, #20
 650 038e 2F33     		adds	r3, r3, #47
 651 0390 1846     		mov	r0, r3
 652 0392 FFF7FEFF 		bl	packetfunctions_isBroadcastMulticast
 653 0396 0346     		mov	r3, r0
 237:build/openmote-cc2538_armgcc/openstack/03a-IPHC/iphc.c ****         packetfunctions_isBroadcastMulticast(&(ipv6_inner_header.dest))
 654              		.loc 1 237 0
 655 0398 002B     		cmp	r3, #0
 656 039a 24D0     		beq	.L30
 657              	.L29:
 239:build/openmote-cc2538_armgcc/openstack/03a-IPHC/iphc.c ****     ) {
 240:build/openmote-cc2538_armgcc/openstack/03a-IPHC/iphc.c ****         packetfunctions_tossHeader(msg,page_length);
 658              		.loc 1 240 0
 659 039c FB7C     		ldrb	r3, [r7, #19]	@ zero_extendqisi2
 660 039e 7868     		ldr	r0, [r7, #4]
 661 03a0 1946     		mov	r1, r3
 662 03a2 FFF7FEFF 		bl	packetfunctions_tossHeader
 241:build/openmote-cc2538_armgcc/openstack/03a-IPHC/iphc.c ****         if (
 242:build/openmote-cc2538_armgcc/openstack/03a-IPHC/iphc.c ****             ipv6_outer_header.next_header==IANA_IPv6HOPOPT &&
 663              		.loc 1 242 0
 664 03a6 97F86130 		ldrb	r3, [r7, #97]	@ zero_extendqisi2
 241:build/openmote-cc2538_armgcc/openstack/03a-IPHC/iphc.c ****         if (
 665              		.loc 1 241 0
 666 03aa 002B     		cmp	r3, #0
 667 03ac 11D1     		bne	.L31
 243:build/openmote-cc2538_armgcc/openstack/03a-IPHC/iphc.c ****             ipv6_outer_header.hopByhop_option != NULL
 668              		.loc 1 243 0
 669 03ae 3B6F     		ldr	r3, [r7, #112]
 242:build/openmote-cc2538_armgcc/openstack/03a-IPHC/iphc.c ****             ipv6_outer_header.hopByhop_option != NULL
 670              		.loc 1 242 0
 671 03b0 002B     		cmp	r3, #0
 672 03b2 0ED0     		beq	.L31
 244:build/openmote-cc2538_armgcc/openstack/03a-IPHC/iphc.c ****         ) {
 245:build/openmote-cc2538_armgcc/openstack/03a-IPHC/iphc.c ****             // retrieve hop-by-hop header (includes RPL option)
 246:build/openmote-cc2538_armgcc/openstack/03a-IPHC/iphc.c ****             rpi_length = iphc_retrieveIPv6HopByHopHeader(
 673              		.loc 1 246 0
 674 03b4 07F10C03 		add	r3, r7, #12
 675 03b8 7868     		ldr	r0, [r7, #4]
 676 03ba 1946     		mov	r1, r3
 677 03bc FFF7FEFF 		bl	iphc_retrieveIPv6HopByHopHeader
 678 03c0 0346     		mov	r3, r0
 679 03c2 87F89F30 		strb	r3, [r7, #159]
 247:build/openmote-cc2538_armgcc/openstack/03a-IPHC/iphc.c ****                               msg,
 248:build/openmote-cc2538_armgcc/openstack/03a-IPHC/iphc.c ****                               &rpl_option
 249:build/openmote-cc2538_armgcc/openstack/03a-IPHC/iphc.c ****                          );
 250:build/openmote-cc2538_armgcc/openstack/03a-IPHC/iphc.c ****          
 251:build/openmote-cc2538_armgcc/openstack/03a-IPHC/iphc.c ****             // toss the headers
 252:build/openmote-cc2538_armgcc/openstack/03a-IPHC/iphc.c ****             packetfunctions_tossHeader(
 680              		.loc 1 252 0
 681 03c6 97F89F30 		ldrb	r3, [r7, #159]	@ zero_extendqisi2
 682 03ca 7868     		ldr	r0, [r7, #4]
 683 03cc 1946     		mov	r1, r3
 684 03ce FFF7FEFF 		bl	packetfunctions_tossHeader
 685              	.L31:
 253:build/openmote-cc2538_armgcc/openstack/03a-IPHC/iphc.c ****                 msg,
 254:build/openmote-cc2538_armgcc/openstack/03a-IPHC/iphc.c ****                 rpi_length
 255:build/openmote-cc2538_armgcc/openstack/03a-IPHC/iphc.c ****             );
 256:build/openmote-cc2538_armgcc/openstack/03a-IPHC/iphc.c ****         }
 257:build/openmote-cc2538_armgcc/openstack/03a-IPHC/iphc.c ****       
 258:build/openmote-cc2538_armgcc/openstack/03a-IPHC/iphc.c ****         // send up the stack
 259:build/openmote-cc2538_armgcc/openstack/03a-IPHC/iphc.c ****         forwarding_receive(
 686              		.loc 1 259 0
 687 03d2 07F15801 		add	r1, r7, #88
 688 03d6 07F11402 		add	r2, r7, #20
 689 03da 07F10C03 		add	r3, r7, #12
 690 03de 7868     		ldr	r0, [r7, #4]
 691 03e0 FFF7FEFF 		bl	forwarding_receive
 692 03e4 02E0     		b	.L28
 693              	.L30:
 260:build/openmote-cc2538_armgcc/openstack/03a-IPHC/iphc.c ****             msg,
 261:build/openmote-cc2538_armgcc/openstack/03a-IPHC/iphc.c ****             &ipv6_outer_header,
 262:build/openmote-cc2538_armgcc/openstack/03a-IPHC/iphc.c ****             &ipv6_inner_header,
 263:build/openmote-cc2538_armgcc/openstack/03a-IPHC/iphc.c ****             &rpl_option
 264:build/openmote-cc2538_armgcc/openstack/03a-IPHC/iphc.c ****         );
 265:build/openmote-cc2538_armgcc/openstack/03a-IPHC/iphc.c ****    } else {
 266:build/openmote-cc2538_armgcc/openstack/03a-IPHC/iphc.c ****       openbridge_receive(msg);                   //out to the OpenVisualizer
 694              		.loc 1 266 0
 695 03e6 7868     		ldr	r0, [r7, #4]
 696 03e8 FFF7FEFF 		bl	openbridge_receive
 697              	.L28:
 267:build/openmote-cc2538_armgcc/openstack/03a-IPHC/iphc.c ****    }
 268:build/openmote-cc2538_armgcc/openstack/03a-IPHC/iphc.c **** }
 698              		.loc 1 268 0
 699 03ec A037     		adds	r7, r7, #160
 700 03ee BD46     		mov	sp, r7
 701              		@ sp needed
 702 03f0 80BD     		pop	{r7, pc}
 703              		.cfi_endproc
 704              	.LFE4:
 706 03f2 00BF     		.align	2
 707              		.global	iphc_prependIPv6Header
 708              		.thumb
 709              		.thumb_func
 711              	iphc_prependIPv6Header:
 712              	.LFB5:
 269:build/openmote-cc2538_armgcc/openstack/03a-IPHC/iphc.c **** 
 270:build/openmote-cc2538_armgcc/openstack/03a-IPHC/iphc.c **** //=========================== private =========================================
 271:build/openmote-cc2538_armgcc/openstack/03a-IPHC/iphc.c **** 
 272:build/openmote-cc2538_armgcc/openstack/03a-IPHC/iphc.c **** //===== IPv6 header
 273:build/openmote-cc2538_armgcc/openstack/03a-IPHC/iphc.c **** 
 274:build/openmote-cc2538_armgcc/openstack/03a-IPHC/iphc.c **** /**
 275:build/openmote-cc2538_armgcc/openstack/03a-IPHC/iphc.c **** \brief Prepend an IPv6 header to a message.
 276:build/openmote-cc2538_armgcc/openstack/03a-IPHC/iphc.c **** */
 277:build/openmote-cc2538_armgcc/openstack/03a-IPHC/iphc.c **** owerror_t iphc_prependIPv6Header(
 278:build/openmote-cc2538_armgcc/openstack/03a-IPHC/iphc.c ****       OpenQueueEntry_t* msg,
 279:build/openmote-cc2538_armgcc/openstack/03a-IPHC/iphc.c ****       uint8_t           tf,
 280:build/openmote-cc2538_armgcc/openstack/03a-IPHC/iphc.c ****       uint32_t          value_flowLabel,
 281:build/openmote-cc2538_armgcc/openstack/03a-IPHC/iphc.c ****       uint8_t           nh,
 282:build/openmote-cc2538_armgcc/openstack/03a-IPHC/iphc.c ****       uint8_t           value_nextHeader,
 283:build/openmote-cc2538_armgcc/openstack/03a-IPHC/iphc.c ****       uint8_t           hlim,
 284:build/openmote-cc2538_armgcc/openstack/03a-IPHC/iphc.c ****       uint8_t           value_hopLimit,
 285:build/openmote-cc2538_armgcc/openstack/03a-IPHC/iphc.c ****       bool              cid,
 286:build/openmote-cc2538_armgcc/openstack/03a-IPHC/iphc.c ****       bool              sac,
 287:build/openmote-cc2538_armgcc/openstack/03a-IPHC/iphc.c ****       uint8_t           sam,
 288:build/openmote-cc2538_armgcc/openstack/03a-IPHC/iphc.c ****       bool              m,
 289:build/openmote-cc2538_armgcc/openstack/03a-IPHC/iphc.c ****       bool              dac,
 290:build/openmote-cc2538_armgcc/openstack/03a-IPHC/iphc.c ****       uint8_t           dam,
 291:build/openmote-cc2538_armgcc/openstack/03a-IPHC/iphc.c ****       open_addr_t*      value_dest,
 292:build/openmote-cc2538_armgcc/openstack/03a-IPHC/iphc.c ****       open_addr_t*      value_src,
 293:build/openmote-cc2538_armgcc/openstack/03a-IPHC/iphc.c ****       uint8_t           fw_SendOrfw_Rcv
 294:build/openmote-cc2538_armgcc/openstack/03a-IPHC/iphc.c ****    ) {
 713              		.loc 1 294 0
 714              		.cfi_startproc
 715              		@ args = 48, pretend = 0, frame = 24
 716              		@ frame_needed = 1, uses_anonymous_args = 0
 717 03f4 80B5     		push	{r7, lr}
 718              		.cfi_def_cfa_offset 8
 719              		.cfi_offset 7, -8
 720              		.cfi_offset 14, -4
 721 03f6 86B0     		sub	sp, sp, #24
 722              		.cfi_def_cfa_offset 32
 723 03f8 00AF     		add	r7, sp, #0
 724              		.cfi_def_cfa_register 7
 725 03fa F860     		str	r0, [r7, #12]
 726 03fc 7A60     		str	r2, [r7, #4]
 727 03fe 0A46     		mov	r2, r1
 728 0400 FA72     		strb	r2, [r7, #11]
 729 0402 BB72     		strb	r3, [r7, #10]
 295:build/openmote-cc2538_armgcc/openstack/03a-IPHC/iphc.c ****    
 296:build/openmote-cc2538_armgcc/openstack/03a-IPHC/iphc.c ****    uint8_t temp_8b;
 297:build/openmote-cc2538_armgcc/openstack/03a-IPHC/iphc.c ****    
 298:build/openmote-cc2538_armgcc/openstack/03a-IPHC/iphc.c ****    // destination address
 299:build/openmote-cc2538_armgcc/openstack/03a-IPHC/iphc.c ****    switch (dam) {
 730              		.loc 1 299 0
 731 0404 97F84030 		ldrb	r3, [r7, #64]	@ zero_extendqisi2
 732 0408 032B     		cmp	r3, #3
 733 040a 64D8     		bhi	.L34
 734 040c 01A2     		adr	r2, .L36
 735 040e 52F823F0 		ldr	pc, [r2, r3, lsl #2]
 736 0412 00BF     		.p2align 2
 737              	.L36:
 738 0414 A5040000 		.word	.L35+1
 739 0418 73040000 		.word	.L37+1
 740 041c 41040000 		.word	.L38+1
 741 0420 25040000 		.word	.L39+1
 742              	.L39:
 300:build/openmote-cc2538_armgcc/openstack/03a-IPHC/iphc.c ****       case IPHC_DAM_ELIDED:
 301:build/openmote-cc2538_armgcc/openstack/03a-IPHC/iphc.c ****          if (m == IPHC_M_YES){
 743              		.loc 1 301 0
 744 0424 97F83830 		ldrb	r3, [r7, #56]	@ zero_extendqisi2
 745 0428 002B     		cmp	r3, #0
 746 042a 08D0     		beq	.L40
 302:build/openmote-cc2538_armgcc/openstack/03a-IPHC/iphc.c ****             packetfunctions_reserveHeaderSize(msg,sizeof(uint8_t));
 747              		.loc 1 302 0
 748 042c F868     		ldr	r0, [r7, #12]
 749 042e 0121     		movs	r1, #1
 750 0430 FFF7FEFF 		bl	packetfunctions_reserveHeaderSize
 303:build/openmote-cc2538_armgcc/openstack/03a-IPHC/iphc.c ****             *((uint8_t*)(msg->payload)) = value_dest->addr_128b[15];
 751              		.loc 1 303 0
 752 0434 FB68     		ldr	r3, [r7, #12]
 753 0436 5B68     		ldr	r3, [r3, #4]
 754 0438 7A6C     		ldr	r2, [r7, #68]
 755 043a 127C     		ldrb	r2, [r2, #16]	@ zero_extendqisi2
 756 043c 1A70     		strb	r2, [r3]
 757              	.L40:
 304:build/openmote-cc2538_armgcc/openstack/03a-IPHC/iphc.c ****          } else {
 305:build/openmote-cc2538_armgcc/openstack/03a-IPHC/iphc.c ****              //nothing
 306:build/openmote-cc2538_armgcc/openstack/03a-IPHC/iphc.c ****          }
 307:build/openmote-cc2538_armgcc/openstack/03a-IPHC/iphc.c ****          break;
 758              		.loc 1 307 0
 759 043e 54E0     		b	.L41
 760              	.L38:
 308:build/openmote-cc2538_armgcc/openstack/03a-IPHC/iphc.c ****       case IPHC_DAM_16B:
 309:build/openmote-cc2538_armgcc/openstack/03a-IPHC/iphc.c ****          if (m == IPHC_M_YES){
 761              		.loc 1 309 0
 762 0440 97F83830 		ldrb	r3, [r7, #56]	@ zero_extendqisi2
 763 0444 002B     		cmp	r3, #0
 764 0446 13D1     		bne	.L42
 310:build/openmote-cc2538_armgcc/openstack/03a-IPHC/iphc.c ****              // tengfei: to do
 311:build/openmote-cc2538_armgcc/openstack/03a-IPHC/iphc.c ****          } else {
 312:build/openmote-cc2538_armgcc/openstack/03a-IPHC/iphc.c ****              if (value_dest->type!=ADDR_16B) {
 765              		.loc 1 312 0
 766 0448 7B6C     		ldr	r3, [r7, #68]
 767 044a 1B78     		ldrb	r3, [r3]	@ zero_extendqisi2
 768 044c 012B     		cmp	r3, #1
 769 044e 09D0     		beq	.L43
 313:build/openmote-cc2538_armgcc/openstack/03a-IPHC/iphc.c ****                 openserial_printCritical(
 314:build/openmote-cc2538_armgcc/openstack/03a-IPHC/iphc.c ****                    COMPONENT_IPHC,
 315:build/openmote-cc2538_armgcc/openstack/03a-IPHC/iphc.c ****                    ERR_WRONG_ADDR_TYPE,
 316:build/openmote-cc2538_armgcc/openstack/03a-IPHC/iphc.c ****                    (errorparameter_t)value_dest->type,
 770              		.loc 1 316 0
 771 0450 7B6C     		ldr	r3, [r7, #68]
 772 0452 1B78     		ldrb	r3, [r3]	@ zero_extendqisi2
 313:build/openmote-cc2538_armgcc/openstack/03a-IPHC/iphc.c ****                 openserial_printCritical(
 773              		.loc 1 313 0
 774 0454 1120     		movs	r0, #17
 775 0456 3121     		movs	r1, #49
 776 0458 1A46     		mov	r2, r3
 777 045a 0023     		movs	r3, #0
 778 045c FFF7FEFF 		bl	openserial_printCritical
 317:build/openmote-cc2538_armgcc/openstack/03a-IPHC/iphc.c ****                    (errorparameter_t)0
 318:build/openmote-cc2538_armgcc/openstack/03a-IPHC/iphc.c ****                 );
 319:build/openmote-cc2538_armgcc/openstack/03a-IPHC/iphc.c ****                 return E_FAIL;
 779              		.loc 1 319 0
 780 0460 0123     		movs	r3, #1
 781 0462 9BE1     		b	.L44
 782              	.L43:
 320:build/openmote-cc2538_armgcc/openstack/03a-IPHC/iphc.c ****              };
 321:build/openmote-cc2538_armgcc/openstack/03a-IPHC/iphc.c ****              packetfunctions_writeAddress(msg,value_dest,OW_BIG_ENDIAN);
 783              		.loc 1 321 0
 784 0464 F868     		ldr	r0, [r7, #12]
 785 0466 796C     		ldr	r1, [r7, #68]
 786 0468 0022     		movs	r2, #0
 787 046a FFF7FEFF 		bl	packetfunctions_writeAddress
 322:build/openmote-cc2538_armgcc/openstack/03a-IPHC/iphc.c ****          }
 323:build/openmote-cc2538_armgcc/openstack/03a-IPHC/iphc.c ****          break;
 788              		.loc 1 323 0
 789 046e 3CE0     		b	.L41
 790              	.L42:
 791 0470 3BE0     		b	.L41
 792              	.L37:
 324:build/openmote-cc2538_armgcc/openstack/03a-IPHC/iphc.c ****       case IPHC_DAM_64B:
 325:build/openmote-cc2538_armgcc/openstack/03a-IPHC/iphc.c ****          if (m == IPHC_M_YES){
 793              		.loc 1 325 0
 794 0472 97F83830 		ldrb	r3, [r7, #56]	@ zero_extendqisi2
 795 0476 002B     		cmp	r3, #0
 796 0478 13D1     		bne	.L45
 326:build/openmote-cc2538_armgcc/openstack/03a-IPHC/iphc.c ****              // tengfei: to do
 327:build/openmote-cc2538_armgcc/openstack/03a-IPHC/iphc.c ****          } else {
 328:build/openmote-cc2538_armgcc/openstack/03a-IPHC/iphc.c ****              if (value_dest->type!=ADDR_64B) {
 797              		.loc 1 328 0
 798 047a 7B6C     		ldr	r3, [r7, #68]
 799 047c 1B78     		ldrb	r3, [r3]	@ zero_extendqisi2
 800 047e 022B     		cmp	r3, #2
 801 0480 09D0     		beq	.L46
 329:build/openmote-cc2538_armgcc/openstack/03a-IPHC/iphc.c ****                 openserial_printCritical(
 330:build/openmote-cc2538_armgcc/openstack/03a-IPHC/iphc.c ****                    COMPONENT_IPHC,
 331:build/openmote-cc2538_armgcc/openstack/03a-IPHC/iphc.c ****                    ERR_WRONG_ADDR_TYPE,
 332:build/openmote-cc2538_armgcc/openstack/03a-IPHC/iphc.c ****                    (errorparameter_t)value_dest->type,
 802              		.loc 1 332 0
 803 0482 7B6C     		ldr	r3, [r7, #68]
 804 0484 1B78     		ldrb	r3, [r3]	@ zero_extendqisi2
 329:build/openmote-cc2538_armgcc/openstack/03a-IPHC/iphc.c ****                 openserial_printCritical(
 805              		.loc 1 329 0
 806 0486 1120     		movs	r0, #17
 807 0488 3121     		movs	r1, #49
 808 048a 1A46     		mov	r2, r3
 809 048c 0123     		movs	r3, #1
 810 048e FFF7FEFF 		bl	openserial_printCritical
 333:build/openmote-cc2538_armgcc/openstack/03a-IPHC/iphc.c ****                    (errorparameter_t)1
 334:build/openmote-cc2538_armgcc/openstack/03a-IPHC/iphc.c ****                 );
 335:build/openmote-cc2538_armgcc/openstack/03a-IPHC/iphc.c ****                 return E_FAIL;
 811              		.loc 1 335 0
 812 0492 0123     		movs	r3, #1
 813 0494 82E1     		b	.L44
 814              	.L46:
 336:build/openmote-cc2538_armgcc/openstack/03a-IPHC/iphc.c ****              };
 337:build/openmote-cc2538_armgcc/openstack/03a-IPHC/iphc.c ****              packetfunctions_writeAddress(msg,value_dest,OW_BIG_ENDIAN);
 815              		.loc 1 337 0
 816 0496 F868     		ldr	r0, [r7, #12]
 817 0498 796C     		ldr	r1, [r7, #68]
 818 049a 0022     		movs	r2, #0
 819 049c FFF7FEFF 		bl	packetfunctions_writeAddress
 338:build/openmote-cc2538_armgcc/openstack/03a-IPHC/iphc.c ****          }
 339:build/openmote-cc2538_armgcc/openstack/03a-IPHC/iphc.c ****          break;
 820              		.loc 1 339 0
 821 04a0 23E0     		b	.L41
 822              	.L45:
 823 04a2 22E0     		b	.L41
 824              	.L35:
 340:build/openmote-cc2538_armgcc/openstack/03a-IPHC/iphc.c ****       case IPHC_DAM_128B:
 341:build/openmote-cc2538_armgcc/openstack/03a-IPHC/iphc.c ****          if (m == IPHC_M_YES){
 825              		.loc 1 341 0
 826 04a4 97F83830 		ldrb	r3, [r7, #56]	@ zero_extendqisi2
 827 04a8 002B     		cmp	r3, #0
 828 04aa 13D1     		bne	.L47
 342:build/openmote-cc2538_armgcc/openstack/03a-IPHC/iphc.c ****              // tengfei: to do
 343:build/openmote-cc2538_armgcc/openstack/03a-IPHC/iphc.c ****          } else {
 344:build/openmote-cc2538_armgcc/openstack/03a-IPHC/iphc.c ****              if (value_dest->type!=ADDR_128B) {
 829              		.loc 1 344 0
 830 04ac 7B6C     		ldr	r3, [r7, #68]
 831 04ae 1B78     		ldrb	r3, [r3]	@ zero_extendqisi2
 832 04b0 032B     		cmp	r3, #3
 833 04b2 09D0     		beq	.L48
 345:build/openmote-cc2538_armgcc/openstack/03a-IPHC/iphc.c ****                 openserial_printCritical(
 346:build/openmote-cc2538_armgcc/openstack/03a-IPHC/iphc.c ****                    COMPONENT_IPHC,
 347:build/openmote-cc2538_armgcc/openstack/03a-IPHC/iphc.c ****                    ERR_WRONG_ADDR_TYPE,
 348:build/openmote-cc2538_armgcc/openstack/03a-IPHC/iphc.c ****                    (errorparameter_t)value_dest->type,
 834              		.loc 1 348 0
 835 04b4 7B6C     		ldr	r3, [r7, #68]
 836 04b6 1B78     		ldrb	r3, [r3]	@ zero_extendqisi2
 345:build/openmote-cc2538_armgcc/openstack/03a-IPHC/iphc.c ****                 openserial_printCritical(
 837              		.loc 1 345 0
 838 04b8 1120     		movs	r0, #17
 839 04ba 3121     		movs	r1, #49
 840 04bc 1A46     		mov	r2, r3
 841 04be 0223     		movs	r3, #2
 842 04c0 FFF7FEFF 		bl	openserial_printCritical
 349:build/openmote-cc2538_armgcc/openstack/03a-IPHC/iphc.c ****                    (errorparameter_t)2
 350:build/openmote-cc2538_armgcc/openstack/03a-IPHC/iphc.c ****                 );
 351:build/openmote-cc2538_armgcc/openstack/03a-IPHC/iphc.c ****                 return E_FAIL;
 843              		.loc 1 351 0
 844 04c4 0123     		movs	r3, #1
 845 04c6 69E1     		b	.L44
 846              	.L48:
 352:build/openmote-cc2538_armgcc/openstack/03a-IPHC/iphc.c ****              };
 353:build/openmote-cc2538_armgcc/openstack/03a-IPHC/iphc.c ****              packetfunctions_writeAddress(msg,value_dest,OW_BIG_ENDIAN);
 847              		.loc 1 353 0
 848 04c8 F868     		ldr	r0, [r7, #12]
 849 04ca 796C     		ldr	r1, [r7, #68]
 850 04cc 0022     		movs	r2, #0
 851 04ce FFF7FEFF 		bl	packetfunctions_writeAddress
 354:build/openmote-cc2538_armgcc/openstack/03a-IPHC/iphc.c ****          }
 355:build/openmote-cc2538_armgcc/openstack/03a-IPHC/iphc.c ****          break;
 852              		.loc 1 355 0
 853 04d2 0AE0     		b	.L41
 854              	.L47:
 855 04d4 09E0     		b	.L41
 856              	.L34:
 356:build/openmote-cc2538_armgcc/openstack/03a-IPHC/iphc.c ****       default:
 357:build/openmote-cc2538_armgcc/openstack/03a-IPHC/iphc.c ****          openserial_printCritical(
 857              		.loc 1 357 0
 858 04d6 97F84030 		ldrb	r3, [r7, #64]	@ zero_extendqisi2
 859 04da 9BB2     		uxth	r3, r3
 860 04dc 1120     		movs	r0, #17
 861 04de 0C21     		movs	r1, #12
 862 04e0 0022     		movs	r2, #0
 863 04e2 FFF7FEFF 		bl	openserial_printCritical
 358:build/openmote-cc2538_armgcc/openstack/03a-IPHC/iphc.c ****             COMPONENT_IPHC,
 359:build/openmote-cc2538_armgcc/openstack/03a-IPHC/iphc.c ****             ERR_6LOWPAN_UNSUPPORTED,
 360:build/openmote-cc2538_armgcc/openstack/03a-IPHC/iphc.c ****             (errorparameter_t)0,
 361:build/openmote-cc2538_armgcc/openstack/03a-IPHC/iphc.c ****             (errorparameter_t)dam
 362:build/openmote-cc2538_armgcc/openstack/03a-IPHC/iphc.c ****          );
 363:build/openmote-cc2538_armgcc/openstack/03a-IPHC/iphc.c ****          return E_FAIL;
 864              		.loc 1 363 0
 865 04e6 0123     		movs	r3, #1
 866 04e8 58E1     		b	.L44
 867              	.L41:
 364:build/openmote-cc2538_armgcc/openstack/03a-IPHC/iphc.c ****    }
 365:build/openmote-cc2538_armgcc/openstack/03a-IPHC/iphc.c ****    
 366:build/openmote-cc2538_armgcc/openstack/03a-IPHC/iphc.c ****    // source address
 367:build/openmote-cc2538_armgcc/openstack/03a-IPHC/iphc.c ****    switch (sam) {
 868              		.loc 1 367 0
 869 04ea 97F83430 		ldrb	r3, [r7, #52]	@ zero_extendqisi2
 870 04ee 032B     		cmp	r3, #3
 871 04f0 00F28780 		bhi	.L49
 872 04f4 01A2     		adr	r2, .L51
 873 04f6 52F823F0 		ldr	pc, [r2, r3, lsl #2]
 874 04fa 00BF     		.p2align 2
 875              	.L51:
 876 04fc A5050000 		.word	.L50+1
 877 0500 59050000 		.word	.L52+1
 878 0504 0D050000 		.word	.L53+1
 879 0508 17060000 		.word	.L79+1
 880              	.L53:
 368:build/openmote-cc2538_armgcc/openstack/03a-IPHC/iphc.c ****       case IPHC_SAM_ELIDED:
 369:build/openmote-cc2538_armgcc/openstack/03a-IPHC/iphc.c ****          break;
 370:build/openmote-cc2538_armgcc/openstack/03a-IPHC/iphc.c ****       case IPHC_SAM_16B:
 371:build/openmote-cc2538_armgcc/openstack/03a-IPHC/iphc.c ****          if(fw_SendOrfw_Rcv==PCKTSEND) {
 881              		.loc 1 371 0
 882 050c 97F84C30 		ldrb	r3, [r7, #76]	@ zero_extendqisi2
 883 0510 022B     		cmp	r3, #2
 884 0512 08D1     		bne	.L56
 372:build/openmote-cc2538_armgcc/openstack/03a-IPHC/iphc.c ****             packetfunctions_writeAddress(msg, (idmanager_getMyID(ADDR_16B)),OW_BIG_ENDIAN);
 885              		.loc 1 372 0
 886 0514 0120     		movs	r0, #1
 887 0516 FFF7FEFF 		bl	idmanager_getMyID
 888 051a 0346     		mov	r3, r0
 889 051c F868     		ldr	r0, [r7, #12]
 890 051e 1946     		mov	r1, r3
 891 0520 0022     		movs	r2, #0
 892 0522 FFF7FEFF 		bl	packetfunctions_writeAddress
 893              	.L56:
 373:build/openmote-cc2538_armgcc/openstack/03a-IPHC/iphc.c ****          }
 374:build/openmote-cc2538_armgcc/openstack/03a-IPHC/iphc.c ****          if(fw_SendOrfw_Rcv==PCKTFORWARD) {
 894              		.loc 1 374 0
 895 0526 97F84C30 		ldrb	r3, [r7, #76]	@ zero_extendqisi2
 896 052a 012B     		cmp	r3, #1
 897 052c 13D1     		bne	.L57
 375:build/openmote-cc2538_armgcc/openstack/03a-IPHC/iphc.c ****             if (value_src->type!=ADDR_16B) {
 898              		.loc 1 375 0
 899 052e BB6C     		ldr	r3, [r7, #72]
 900 0530 1B78     		ldrb	r3, [r3]	@ zero_extendqisi2
 901 0532 012B     		cmp	r3, #1
 902 0534 09D0     		beq	.L58
 376:build/openmote-cc2538_armgcc/openstack/03a-IPHC/iphc.c ****                openserial_printCritical(
 377:build/openmote-cc2538_armgcc/openstack/03a-IPHC/iphc.c ****                   COMPONENT_IPHC,
 378:build/openmote-cc2538_armgcc/openstack/03a-IPHC/iphc.c ****                   ERR_WRONG_ADDR_TYPE,
 379:build/openmote-cc2538_armgcc/openstack/03a-IPHC/iphc.c ****                   (errorparameter_t)value_src->type,
 903              		.loc 1 379 0
 904 0536 BB6C     		ldr	r3, [r7, #72]
 905 0538 1B78     		ldrb	r3, [r3]	@ zero_extendqisi2
 376:build/openmote-cc2538_armgcc/openstack/03a-IPHC/iphc.c ****                openserial_printCritical(
 906              		.loc 1 376 0
 907 053a 1120     		movs	r0, #17
 908 053c 3121     		movs	r1, #49
 909 053e 1A46     		mov	r2, r3
 910 0540 0023     		movs	r3, #0
 911 0542 FFF7FEFF 		bl	openserial_printCritical
 380:build/openmote-cc2538_armgcc/openstack/03a-IPHC/iphc.c ****                   (errorparameter_t)0
 381:build/openmote-cc2538_armgcc/openstack/03a-IPHC/iphc.c ****                );
 382:build/openmote-cc2538_armgcc/openstack/03a-IPHC/iphc.c ****                return E_FAIL;
 912              		.loc 1 382 0
 913 0546 0123     		movs	r3, #1
 914 0548 28E1     		b	.L44
 915              	.L58:
 383:build/openmote-cc2538_armgcc/openstack/03a-IPHC/iphc.c ****             } 
 384:build/openmote-cc2538_armgcc/openstack/03a-IPHC/iphc.c ****             packetfunctions_writeAddress(msg,value_src,OW_BIG_ENDIAN);
 916              		.loc 1 384 0
 917 054a F868     		ldr	r0, [r7, #12]
 918 054c B96C     		ldr	r1, [r7, #72]
 919 054e 0022     		movs	r2, #0
 920 0550 FFF7FEFF 		bl	packetfunctions_writeAddress
 385:build/openmote-cc2538_armgcc/openstack/03a-IPHC/iphc.c ****          }
 386:build/openmote-cc2538_armgcc/openstack/03a-IPHC/iphc.c ****          break;
 921              		.loc 1 386 0
 922 0554 60E0     		b	.L55
 923              	.L57:
 924 0556 5FE0     		b	.L55
 925              	.L52:
 387:build/openmote-cc2538_armgcc/openstack/03a-IPHC/iphc.c ****       case IPHC_SAM_64B:
 388:build/openmote-cc2538_armgcc/openstack/03a-IPHC/iphc.c ****          if(fw_SendOrfw_Rcv==PCKTSEND) {
 926              		.loc 1 388 0
 927 0558 97F84C30 		ldrb	r3, [r7, #76]	@ zero_extendqisi2
 928 055c 022B     		cmp	r3, #2
 929 055e 08D1     		bne	.L59
 389:build/openmote-cc2538_armgcc/openstack/03a-IPHC/iphc.c ****             packetfunctions_writeAddress(msg, (idmanager_getMyID(ADDR_64B)),OW_BIG_ENDIAN);
 930              		.loc 1 389 0
 931 0560 0220     		movs	r0, #2
 932 0562 FFF7FEFF 		bl	idmanager_getMyID
 933 0566 0346     		mov	r3, r0
 934 0568 F868     		ldr	r0, [r7, #12]
 935 056a 1946     		mov	r1, r3
 936 056c 0022     		movs	r2, #0
 937 056e FFF7FEFF 		bl	packetfunctions_writeAddress
 938              	.L59:
 390:build/openmote-cc2538_armgcc/openstack/03a-IPHC/iphc.c ****          }
 391:build/openmote-cc2538_armgcc/openstack/03a-IPHC/iphc.c ****          if(fw_SendOrfw_Rcv==PCKTFORWARD) {
 939              		.loc 1 391 0
 940 0572 97F84C30 		ldrb	r3, [r7, #76]	@ zero_extendqisi2
 941 0576 012B     		cmp	r3, #1
 942 0578 13D1     		bne	.L60
 392:build/openmote-cc2538_armgcc/openstack/03a-IPHC/iphc.c ****             if (value_src->type!=ADDR_64B) {
 943              		.loc 1 392 0
 944 057a BB6C     		ldr	r3, [r7, #72]
 945 057c 1B78     		ldrb	r3, [r3]	@ zero_extendqisi2
 946 057e 022B     		cmp	r3, #2
 947 0580 09D0     		beq	.L61
 393:build/openmote-cc2538_armgcc/openstack/03a-IPHC/iphc.c ****                openserial_printCritical(
 394:build/openmote-cc2538_armgcc/openstack/03a-IPHC/iphc.c ****                   COMPONENT_IPHC,
 395:build/openmote-cc2538_armgcc/openstack/03a-IPHC/iphc.c ****                   ERR_WRONG_ADDR_TYPE,
 396:build/openmote-cc2538_armgcc/openstack/03a-IPHC/iphc.c ****                   (errorparameter_t)value_src->type,
 948              		.loc 1 396 0
 949 0582 BB6C     		ldr	r3, [r7, #72]
 950 0584 1B78     		ldrb	r3, [r3]	@ zero_extendqisi2
 393:build/openmote-cc2538_armgcc/openstack/03a-IPHC/iphc.c ****                openserial_printCritical(
 951              		.loc 1 393 0
 952 0586 1120     		movs	r0, #17
 953 0588 3121     		movs	r1, #49
 954 058a 1A46     		mov	r2, r3
 955 058c 0123     		movs	r3, #1
 956 058e FFF7FEFF 		bl	openserial_printCritical
 397:build/openmote-cc2538_armgcc/openstack/03a-IPHC/iphc.c ****                   (errorparameter_t)1
 398:build/openmote-cc2538_armgcc/openstack/03a-IPHC/iphc.c ****                );
 399:build/openmote-cc2538_armgcc/openstack/03a-IPHC/iphc.c ****                return E_FAIL;
 957              		.loc 1 399 0
 958 0592 0123     		movs	r3, #1
 959 0594 02E1     		b	.L44
 960              	.L61:
 400:build/openmote-cc2538_armgcc/openstack/03a-IPHC/iphc.c ****             }      
 401:build/openmote-cc2538_armgcc/openstack/03a-IPHC/iphc.c ****             packetfunctions_writeAddress(msg, value_src,OW_BIG_ENDIAN);
 961              		.loc 1 401 0
 962 0596 F868     		ldr	r0, [r7, #12]
 963 0598 B96C     		ldr	r1, [r7, #72]
 964 059a 0022     		movs	r2, #0
 965 059c FFF7FEFF 		bl	packetfunctions_writeAddress
 402:build/openmote-cc2538_armgcc/openstack/03a-IPHC/iphc.c ****          }
 403:build/openmote-cc2538_armgcc/openstack/03a-IPHC/iphc.c ****          break;
 966              		.loc 1 403 0
 967 05a0 3AE0     		b	.L55
 968              	.L60:
 969 05a2 39E0     		b	.L55
 970              	.L50:
 404:build/openmote-cc2538_armgcc/openstack/03a-IPHC/iphc.c ****       case IPHC_SAM_128B:
 405:build/openmote-cc2538_armgcc/openstack/03a-IPHC/iphc.c ****          if(fw_SendOrfw_Rcv==PCKTSEND) {
 971              		.loc 1 405 0
 972 05a4 97F84C30 		ldrb	r3, [r7, #76]	@ zero_extendqisi2
 973 05a8 022B     		cmp	r3, #2
 974 05aa 11D1     		bne	.L62
 406:build/openmote-cc2538_armgcc/openstack/03a-IPHC/iphc.c ****             packetfunctions_writeAddress(msg, (idmanager_getMyID(ADDR_64B)),OW_BIG_ENDIAN);
 975              		.loc 1 406 0
 976 05ac 0220     		movs	r0, #2
 977 05ae FFF7FEFF 		bl	idmanager_getMyID
 978 05b2 0346     		mov	r3, r0
 979 05b4 F868     		ldr	r0, [r7, #12]
 980 05b6 1946     		mov	r1, r3
 981 05b8 0022     		movs	r2, #0
 982 05ba FFF7FEFF 		bl	packetfunctions_writeAddress
 407:build/openmote-cc2538_armgcc/openstack/03a-IPHC/iphc.c ****             packetfunctions_writeAddress(msg, (idmanager_getMyID(ADDR_PREFIX)),OW_BIG_ENDIAN);
 983              		.loc 1 407 0
 984 05be 0520     		movs	r0, #5
 985 05c0 FFF7FEFF 		bl	idmanager_getMyID
 986 05c4 0346     		mov	r3, r0
 987 05c6 F868     		ldr	r0, [r7, #12]
 988 05c8 1946     		mov	r1, r3
 989 05ca 0022     		movs	r2, #0
 990 05cc FFF7FEFF 		bl	packetfunctions_writeAddress
 991              	.L62:
 408:build/openmote-cc2538_armgcc/openstack/03a-IPHC/iphc.c ****          }
 409:build/openmote-cc2538_armgcc/openstack/03a-IPHC/iphc.c ****          if(fw_SendOrfw_Rcv==PCKTFORWARD) {
 992              		.loc 1 409 0
 993 05d0 97F84C30 		ldrb	r3, [r7, #76]	@ zero_extendqisi2
 994 05d4 012B     		cmp	r3, #1
 995 05d6 13D1     		bne	.L63
 410:build/openmote-cc2538_armgcc/openstack/03a-IPHC/iphc.c ****             if (value_src->type!=ADDR_128B) {
 996              		.loc 1 410 0
 997 05d8 BB6C     		ldr	r3, [r7, #72]
 998 05da 1B78     		ldrb	r3, [r3]	@ zero_extendqisi2
 999 05dc 032B     		cmp	r3, #3
 1000 05de 09D0     		beq	.L64
 411:build/openmote-cc2538_armgcc/openstack/03a-IPHC/iphc.c ****                openserial_printCritical(
 412:build/openmote-cc2538_armgcc/openstack/03a-IPHC/iphc.c ****                   COMPONENT_IPHC,
 413:build/openmote-cc2538_armgcc/openstack/03a-IPHC/iphc.c ****                   ERR_WRONG_ADDR_TYPE,
 414:build/openmote-cc2538_armgcc/openstack/03a-IPHC/iphc.c ****                   (errorparameter_t)value_src->type,
 1001              		.loc 1 414 0
 1002 05e0 BB6C     		ldr	r3, [r7, #72]
 1003 05e2 1B78     		ldrb	r3, [r3]	@ zero_extendqisi2
 411:build/openmote-cc2538_armgcc/openstack/03a-IPHC/iphc.c ****                openserial_printCritical(
 1004              		.loc 1 411 0
 1005 05e4 1120     		movs	r0, #17
 1006 05e6 3121     		movs	r1, #49
 1007 05e8 1A46     		mov	r2, r3
 1008 05ea 0223     		movs	r3, #2
 1009 05ec FFF7FEFF 		bl	openserial_printCritical
 415:build/openmote-cc2538_armgcc/openstack/03a-IPHC/iphc.c ****                   (errorparameter_t)2
 416:build/openmote-cc2538_armgcc/openstack/03a-IPHC/iphc.c ****                );
 417:build/openmote-cc2538_armgcc/openstack/03a-IPHC/iphc.c ****                return E_FAIL;
 1010              		.loc 1 417 0
 1011 05f0 0123     		movs	r3, #1
 1012 05f2 D3E0     		b	.L44
 1013              	.L64:
 418:build/openmote-cc2538_armgcc/openstack/03a-IPHC/iphc.c ****             }
 419:build/openmote-cc2538_armgcc/openstack/03a-IPHC/iphc.c ****             packetfunctions_writeAddress(msg,value_src,OW_BIG_ENDIAN);
 1014              		.loc 1 419 0
 1015 05f4 F868     		ldr	r0, [r7, #12]
 1016 05f6 B96C     		ldr	r1, [r7, #72]
 1017 05f8 0022     		movs	r2, #0
 1018 05fa FFF7FEFF 		bl	packetfunctions_writeAddress
 420:build/openmote-cc2538_armgcc/openstack/03a-IPHC/iphc.c ****          }
 421:build/openmote-cc2538_armgcc/openstack/03a-IPHC/iphc.c ****          break;
 1019              		.loc 1 421 0
 1020 05fe 0BE0     		b	.L55
 1021              	.L63:
 1022 0600 0AE0     		b	.L55
 1023              	.L49:
 422:build/openmote-cc2538_armgcc/openstack/03a-IPHC/iphc.c ****       default:
 423:build/openmote-cc2538_armgcc/openstack/03a-IPHC/iphc.c ****          openserial_printCritical(
 1024              		.loc 1 423 0
 1025 0602 97F83430 		ldrb	r3, [r7, #52]	@ zero_extendqisi2
 1026 0606 9BB2     		uxth	r3, r3
 1027 0608 1120     		movs	r0, #17
 1028 060a 0C21     		movs	r1, #12
 1029 060c 0122     		movs	r2, #1
 1030 060e FFF7FEFF 		bl	openserial_printCritical
 424:build/openmote-cc2538_armgcc/openstack/03a-IPHC/iphc.c ****             COMPONENT_IPHC,
 425:build/openmote-cc2538_armgcc/openstack/03a-IPHC/iphc.c ****             ERR_6LOWPAN_UNSUPPORTED,
 426:build/openmote-cc2538_armgcc/openstack/03a-IPHC/iphc.c ****             (errorparameter_t)1,
 427:build/openmote-cc2538_armgcc/openstack/03a-IPHC/iphc.c ****             (errorparameter_t)sam
 428:build/openmote-cc2538_armgcc/openstack/03a-IPHC/iphc.c ****          );
 429:build/openmote-cc2538_armgcc/openstack/03a-IPHC/iphc.c ****          return E_FAIL;
 1031              		.loc 1 429 0
 1032 0612 0123     		movs	r3, #1
 1033 0614 C2E0     		b	.L44
 1034              	.L79:
 369:build/openmote-cc2538_armgcc/openstack/03a-IPHC/iphc.c ****       case IPHC_SAM_16B:
 1035              		.loc 1 369 0
 1036 0616 00BF     		nop
 1037              	.L55:
 430:build/openmote-cc2538_armgcc/openstack/03a-IPHC/iphc.c ****    }
 431:build/openmote-cc2538_armgcc/openstack/03a-IPHC/iphc.c ****    
 432:build/openmote-cc2538_armgcc/openstack/03a-IPHC/iphc.c ****    // hop limit
 433:build/openmote-cc2538_armgcc/openstack/03a-IPHC/iphc.c ****    switch (hlim) {
 1038              		.loc 1 433 0
 1039 0618 97F82430 		ldrb	r3, [r7, #36]	@ zero_extendqisi2
 1040 061c 002B     		cmp	r3, #0
 1041 061e 04D0     		beq	.L66
 1042 0620 002B     		cmp	r3, #0
 1043 0622 0CDB     		blt	.L65
 1044 0624 032B     		cmp	r3, #3
 1045 0626 0ADC     		bgt	.L65
 434:build/openmote-cc2538_armgcc/openstack/03a-IPHC/iphc.c ****       case IPHC_HLIM_INLINE:
 435:build/openmote-cc2538_armgcc/openstack/03a-IPHC/iphc.c ****          packetfunctions_reserveHeaderSize(msg,sizeof(uint8_t));
 436:build/openmote-cc2538_armgcc/openstack/03a-IPHC/iphc.c ****          *((uint8_t*)(msg->payload)) = value_hopLimit;
 437:build/openmote-cc2538_armgcc/openstack/03a-IPHC/iphc.c ****          break;
 438:build/openmote-cc2538_armgcc/openstack/03a-IPHC/iphc.c ****       case IPHC_HLIM_1:
 439:build/openmote-cc2538_armgcc/openstack/03a-IPHC/iphc.c ****       case IPHC_HLIM_64:
 440:build/openmote-cc2538_armgcc/openstack/03a-IPHC/iphc.c ****       case IPHC_HLIM_255:
 441:build/openmote-cc2538_armgcc/openstack/03a-IPHC/iphc.c ****          break;
 1046              		.loc 1 441 0
 1047 0628 13E0     		b	.L68
 1048              	.L66:
 435:build/openmote-cc2538_armgcc/openstack/03a-IPHC/iphc.c ****          *((uint8_t*)(msg->payload)) = value_hopLimit;
 1049              		.loc 1 435 0
 1050 062a F868     		ldr	r0, [r7, #12]
 1051 062c 0121     		movs	r1, #1
 1052 062e FFF7FEFF 		bl	packetfunctions_reserveHeaderSize
 436:build/openmote-cc2538_armgcc/openstack/03a-IPHC/iphc.c ****          break;
 1053              		.loc 1 436 0
 1054 0632 FB68     		ldr	r3, [r7, #12]
 1055 0634 5B68     		ldr	r3, [r3, #4]
 1056 0636 97F82820 		ldrb	r2, [r7, #40]
 1057 063a 1A70     		strb	r2, [r3]
 437:build/openmote-cc2538_armgcc/openstack/03a-IPHC/iphc.c ****       case IPHC_HLIM_1:
 1058              		.loc 1 437 0
 1059 063c 09E0     		b	.L68
 1060              	.L65:
 442:build/openmote-cc2538_armgcc/openstack/03a-IPHC/iphc.c ****       default:
 443:build/openmote-cc2538_armgcc/openstack/03a-IPHC/iphc.c ****          openserial_printCritical(
 1061              		.loc 1 443 0
 1062 063e 97F82430 		ldrb	r3, [r7, #36]	@ zero_extendqisi2
 1063 0642 9BB2     		uxth	r3, r3
 1064 0644 1120     		movs	r0, #17
 1065 0646 0C21     		movs	r1, #12
 1066 0648 0222     		movs	r2, #2
 1067 064a FFF7FEFF 		bl	openserial_printCritical
 444:build/openmote-cc2538_armgcc/openstack/03a-IPHC/iphc.c ****             COMPONENT_IPHC,
 445:build/openmote-cc2538_armgcc/openstack/03a-IPHC/iphc.c ****             ERR_6LOWPAN_UNSUPPORTED,
 446:build/openmote-cc2538_armgcc/openstack/03a-IPHC/iphc.c ****             (errorparameter_t)2,
 447:build/openmote-cc2538_armgcc/openstack/03a-IPHC/iphc.c ****             (errorparameter_t)hlim
 448:build/openmote-cc2538_armgcc/openstack/03a-IPHC/iphc.c ****          );
 449:build/openmote-cc2538_armgcc/openstack/03a-IPHC/iphc.c ****          return E_FAIL;
 1068              		.loc 1 449 0
 1069 064e 0123     		movs	r3, #1
 1070 0650 A4E0     		b	.L44
 1071              	.L68:
 450:build/openmote-cc2538_armgcc/openstack/03a-IPHC/iphc.c ****    }
 451:build/openmote-cc2538_armgcc/openstack/03a-IPHC/iphc.c ****    
 452:build/openmote-cc2538_armgcc/openstack/03a-IPHC/iphc.c ****    // next header
 453:build/openmote-cc2538_armgcc/openstack/03a-IPHC/iphc.c ****    switch (nh) {
 1072              		.loc 1 453 0
 1073 0652 BB7A     		ldrb	r3, [r7, #10]	@ zero_extendqisi2
 1074 0654 002B     		cmp	r3, #0
 1075 0656 02D0     		beq	.L70
 1076 0658 012B     		cmp	r3, #1
 1077 065a 13D0     		beq	.L80
 1078 065c 09E0     		b	.L77
 1079              	.L70:
 454:build/openmote-cc2538_armgcc/openstack/03a-IPHC/iphc.c ****       case IPHC_NH_INLINE:
 455:build/openmote-cc2538_armgcc/openstack/03a-IPHC/iphc.c ****          packetfunctions_reserveHeaderSize(msg,sizeof(uint8_t));
 1080              		.loc 1 455 0
 1081 065e F868     		ldr	r0, [r7, #12]
 1082 0660 0121     		movs	r1, #1
 1083 0662 FFF7FEFF 		bl	packetfunctions_reserveHeaderSize
 456:build/openmote-cc2538_armgcc/openstack/03a-IPHC/iphc.c ****          *((uint8_t*)(msg->payload)) = value_nextHeader;
 1084              		.loc 1 456 0
 1085 0666 FB68     		ldr	r3, [r7, #12]
 1086 0668 5B68     		ldr	r3, [r3, #4]
 1087 066a 97F82020 		ldrb	r2, [r7, #32]
 1088 066e 1A70     		strb	r2, [r3]
 457:build/openmote-cc2538_armgcc/openstack/03a-IPHC/iphc.c ****          break;
 1089              		.loc 1 457 0
 1090 0670 09E0     		b	.L72
 1091              	.L77:
 458:build/openmote-cc2538_armgcc/openstack/03a-IPHC/iphc.c ****       case IPHC_NH_COMPRESSED:
 459:build/openmote-cc2538_armgcc/openstack/03a-IPHC/iphc.c ****          //do nothing, the next header will be there
 460:build/openmote-cc2538_armgcc/openstack/03a-IPHC/iphc.c ****         break;
 461:build/openmote-cc2538_armgcc/openstack/03a-IPHC/iphc.c ****       default:
 462:build/openmote-cc2538_armgcc/openstack/03a-IPHC/iphc.c ****          openserial_printCritical(
 1092              		.loc 1 462 0
 1093 0672 BB7A     		ldrb	r3, [r7, #10]	@ zero_extendqisi2
 1094 0674 9BB2     		uxth	r3, r3
 1095 0676 1120     		movs	r0, #17
 1096 0678 0C21     		movs	r1, #12
 1097 067a 0322     		movs	r2, #3
 1098 067c FFF7FEFF 		bl	openserial_printCritical
 463:build/openmote-cc2538_armgcc/openstack/03a-IPHC/iphc.c ****             COMPONENT_IPHC,
 464:build/openmote-cc2538_armgcc/openstack/03a-IPHC/iphc.c ****             ERR_6LOWPAN_UNSUPPORTED,
 465:build/openmote-cc2538_armgcc/openstack/03a-IPHC/iphc.c ****             (errorparameter_t)3,
 466:build/openmote-cc2538_armgcc/openstack/03a-IPHC/iphc.c ****             (errorparameter_t)nh
 467:build/openmote-cc2538_armgcc/openstack/03a-IPHC/iphc.c ****          );
 468:build/openmote-cc2538_armgcc/openstack/03a-IPHC/iphc.c ****          return E_FAIL;
 1099              		.loc 1 468 0
 1100 0680 0123     		movs	r3, #1
 1101 0682 8BE0     		b	.L44
 1102              	.L80:
 460:build/openmote-cc2538_armgcc/openstack/03a-IPHC/iphc.c ****       default:
 1103              		.loc 1 460 0
 1104 0684 00BF     		nop
 1105              	.L72:
 469:build/openmote-cc2538_armgcc/openstack/03a-IPHC/iphc.c ****    }
 470:build/openmote-cc2538_armgcc/openstack/03a-IPHC/iphc.c ****    
 471:build/openmote-cc2538_armgcc/openstack/03a-IPHC/iphc.c ****    // flowlabel
 472:build/openmote-cc2538_armgcc/openstack/03a-IPHC/iphc.c ****    switch (tf) {
 1106              		.loc 1 472 0
 1107 0686 FB7A     		ldrb	r3, [r7, #11]	@ zero_extendqisi2
 1108 0688 012B     		cmp	r3, #1
 1109 068a 02D0     		beq	.L74
 1110 068c 032B     		cmp	r3, #3
 1111 068e 2BD0     		beq	.L81
 1112 0690 21E0     		b	.L78
 1113              	.L74:
 473:build/openmote-cc2538_armgcc/openstack/03a-IPHC/iphc.c ****       case IPHC_TF_3B:
 474:build/openmote-cc2538_armgcc/openstack/03a-IPHC/iphc.c ****              packetfunctions_reserveHeaderSize(msg,sizeof(uint8_t));
 1114              		.loc 1 474 0
 1115 0692 F868     		ldr	r0, [r7, #12]
 1116 0694 0121     		movs	r1, #1
 1117 0696 FFF7FEFF 		bl	packetfunctions_reserveHeaderSize
 475:build/openmote-cc2538_armgcc/openstack/03a-IPHC/iphc.c **** 			 *((uint8_t*)(msg->payload)) = ((uint32_t)(value_flowLabel & 0x000000ff) >> 0);
 1118              		.loc 1 475 0
 1119 069a FB68     		ldr	r3, [r7, #12]
 1120 069c 5B68     		ldr	r3, [r3, #4]
 1121 069e 7A68     		ldr	r2, [r7, #4]
 1122 06a0 D2B2     		uxtb	r2, r2
 1123 06a2 1A70     		strb	r2, [r3]
 476:build/openmote-cc2538_armgcc/openstack/03a-IPHC/iphc.c **** 			 packetfunctions_reserveHeaderSize(msg,sizeof(uint8_t));
 1124              		.loc 1 476 0
 1125 06a4 F868     		ldr	r0, [r7, #12]
 1126 06a6 0121     		movs	r1, #1
 1127 06a8 FFF7FEFF 		bl	packetfunctions_reserveHeaderSize
 477:build/openmote-cc2538_armgcc/openstack/03a-IPHC/iphc.c **** 			 *((uint8_t*)(msg->payload)) = ((uint32_t)(value_flowLabel & 0x0000ff00) >> 8);
 1128              		.loc 1 477 0
 1129 06ac FB68     		ldr	r3, [r7, #12]
 1130 06ae 5B68     		ldr	r3, [r3, #4]
 1131 06b0 7A68     		ldr	r2, [r7, #4]
 1132 06b2 02F47F42 		and	r2, r2, #65280
 1133 06b6 120A     		lsrs	r2, r2, #8
 1134 06b8 D2B2     		uxtb	r2, r2
 1135 06ba 1A70     		strb	r2, [r3]
 478:build/openmote-cc2538_armgcc/openstack/03a-IPHC/iphc.c **** 			 packetfunctions_reserveHeaderSize(msg,sizeof(uint8_t));
 1136              		.loc 1 478 0
 1137 06bc F868     		ldr	r0, [r7, #12]
 1138 06be 0121     		movs	r1, #1
 1139 06c0 FFF7FEFF 		bl	packetfunctions_reserveHeaderSize
 479:build/openmote-cc2538_armgcc/openstack/03a-IPHC/iphc.c **** 			 *((uint8_t*)(msg->payload)) = ((uint32_t)(value_flowLabel & 0x00ff0000) >> 16);
 1140              		.loc 1 479 0
 1141 06c4 FB68     		ldr	r3, [r7, #12]
 1142 06c6 5B68     		ldr	r3, [r3, #4]
 1143 06c8 7A68     		ldr	r2, [r7, #4]
 1144 06ca 02F47F02 		and	r2, r2, #16711680
 1145 06ce 120C     		lsrs	r2, r2, #16
 1146 06d0 D2B2     		uxtb	r2, r2
 1147 06d2 1A70     		strb	r2, [r3]
 480:build/openmote-cc2538_armgcc/openstack/03a-IPHC/iphc.c ****          break;            
 1148              		.loc 1 480 0
 1149 06d4 09E0     		b	.L76
 1150              	.L78:
 481:build/openmote-cc2538_armgcc/openstack/03a-IPHC/iphc.c ****       case IPHC_TF_ELIDED:
 482:build/openmote-cc2538_armgcc/openstack/03a-IPHC/iphc.c ****          break;
 483:build/openmote-cc2538_armgcc/openstack/03a-IPHC/iphc.c ****       case IPHC_TF_4B:
 484:build/openmote-cc2538_armgcc/openstack/03a-IPHC/iphc.c ****          //unsupported
 485:build/openmote-cc2538_armgcc/openstack/03a-IPHC/iphc.c ****       case IPHC_TF_1B:
 486:build/openmote-cc2538_armgcc/openstack/03a-IPHC/iphc.c ****          //unsupported
 487:build/openmote-cc2538_armgcc/openstack/03a-IPHC/iphc.c ****       default:
 488:build/openmote-cc2538_armgcc/openstack/03a-IPHC/iphc.c ****          openserial_printCritical(
 1151              		.loc 1 488 0
 1152 06d6 FB7A     		ldrb	r3, [r7, #11]	@ zero_extendqisi2
 1153 06d8 9BB2     		uxth	r3, r3
 1154 06da 1120     		movs	r0, #17
 1155 06dc 0C21     		movs	r1, #12
 1156 06de 0422     		movs	r2, #4
 1157 06e0 FFF7FEFF 		bl	openserial_printCritical
 489:build/openmote-cc2538_armgcc/openstack/03a-IPHC/iphc.c ****             COMPONENT_IPHC,
 490:build/openmote-cc2538_armgcc/openstack/03a-IPHC/iphc.c ****             ERR_6LOWPAN_UNSUPPORTED,
 491:build/openmote-cc2538_armgcc/openstack/03a-IPHC/iphc.c ****             (errorparameter_t)4,
 492:build/openmote-cc2538_armgcc/openstack/03a-IPHC/iphc.c ****             (errorparameter_t)tf
 493:build/openmote-cc2538_armgcc/openstack/03a-IPHC/iphc.c ****          );
 494:build/openmote-cc2538_armgcc/openstack/03a-IPHC/iphc.c ****          return E_FAIL;
 1158              		.loc 1 494 0
 1159 06e4 0123     		movs	r3, #1
 1160 06e6 59E0     		b	.L44
 1161              	.L81:
 482:build/openmote-cc2538_armgcc/openstack/03a-IPHC/iphc.c ****       case IPHC_TF_4B:
 1162              		.loc 1 482 0
 1163 06e8 00BF     		nop
 1164              	.L76:
 495:build/openmote-cc2538_armgcc/openstack/03a-IPHC/iphc.c ****    }
 496:build/openmote-cc2538_armgcc/openstack/03a-IPHC/iphc.c ****    
 497:build/openmote-cc2538_armgcc/openstack/03a-IPHC/iphc.c ****    // header
 498:build/openmote-cc2538_armgcc/openstack/03a-IPHC/iphc.c ****    temp_8b    = 0;
 1165              		.loc 1 498 0
 1166 06ea 0023     		movs	r3, #0
 1167 06ec FB75     		strb	r3, [r7, #23]
 499:build/openmote-cc2538_armgcc/openstack/03a-IPHC/iphc.c ****    temp_8b   |= cid                    << IPHC_CID;
 1168              		.loc 1 499 0
 1169 06ee 97F82C30 		ldrb	r3, [r7, #44]	@ zero_extendqisi2
 1170 06f2 DB01     		lsls	r3, r3, #7
 1171 06f4 DAB2     		uxtb	r2, r3
 1172 06f6 FB7D     		ldrb	r3, [r7, #23]	@ zero_extendqisi2
 1173 06f8 1343     		orrs	r3, r3, r2
 1174 06fa DBB2     		uxtb	r3, r3
 1175 06fc FB75     		strb	r3, [r7, #23]
 500:build/openmote-cc2538_armgcc/openstack/03a-IPHC/iphc.c ****    temp_8b   |= sac                    << IPHC_SAC;
 1176              		.loc 1 500 0
 1177 06fe 97F83030 		ldrb	r3, [r7, #48]	@ zero_extendqisi2
 1178 0702 9B01     		lsls	r3, r3, #6
 1179 0704 DAB2     		uxtb	r2, r3
 1180 0706 FB7D     		ldrb	r3, [r7, #23]	@ zero_extendqisi2
 1181 0708 1343     		orrs	r3, r3, r2
 1182 070a DBB2     		uxtb	r3, r3
 1183 070c FB75     		strb	r3, [r7, #23]
 501:build/openmote-cc2538_armgcc/openstack/03a-IPHC/iphc.c ****    temp_8b   |= sam                    << IPHC_SAM;
 1184              		.loc 1 501 0
 1185 070e 97F83430 		ldrb	r3, [r7, #52]	@ zero_extendqisi2
 1186 0712 1B01     		lsls	r3, r3, #4
 1187 0714 DAB2     		uxtb	r2, r3
 1188 0716 FB7D     		ldrb	r3, [r7, #23]	@ zero_extendqisi2
 1189 0718 1343     		orrs	r3, r3, r2
 1190 071a DBB2     		uxtb	r3, r3
 1191 071c FB75     		strb	r3, [r7, #23]
 502:build/openmote-cc2538_armgcc/openstack/03a-IPHC/iphc.c ****    temp_8b   |= m                      << IPHC_M;
 1192              		.loc 1 502 0
 1193 071e 97F83830 		ldrb	r3, [r7, #56]	@ zero_extendqisi2
 1194 0722 DB00     		lsls	r3, r3, #3
 1195 0724 DAB2     		uxtb	r2, r3
 1196 0726 FB7D     		ldrb	r3, [r7, #23]	@ zero_extendqisi2
 1197 0728 1343     		orrs	r3, r3, r2
 1198 072a DBB2     		uxtb	r3, r3
 1199 072c FB75     		strb	r3, [r7, #23]
 503:build/openmote-cc2538_armgcc/openstack/03a-IPHC/iphc.c ****    temp_8b   |= dac                    << IPHC_DAC;
 1200              		.loc 1 503 0
 1201 072e 97F83C30 		ldrb	r3, [r7, #60]	@ zero_extendqisi2
 1202 0732 9B00     		lsls	r3, r3, #2
 1203 0734 DAB2     		uxtb	r2, r3
 1204 0736 FB7D     		ldrb	r3, [r7, #23]	@ zero_extendqisi2
 1205 0738 1343     		orrs	r3, r3, r2
 1206 073a DBB2     		uxtb	r3, r3
 1207 073c FB75     		strb	r3, [r7, #23]
 504:build/openmote-cc2538_armgcc/openstack/03a-IPHC/iphc.c ****    temp_8b   |= dam                    << IPHC_DAM;
 1208              		.loc 1 504 0
 1209 073e FA7D     		ldrb	r2, [r7, #23]
 1210 0740 97F84030 		ldrb	r3, [r7, #64]
 1211 0744 1343     		orrs	r3, r3, r2
 1212 0746 FB75     		strb	r3, [r7, #23]
 505:build/openmote-cc2538_armgcc/openstack/03a-IPHC/iphc.c ****    packetfunctions_reserveHeaderSize(msg,sizeof(uint8_t));
 1213              		.loc 1 505 0
 1214 0748 F868     		ldr	r0, [r7, #12]
 1215 074a 0121     		movs	r1, #1
 1216 074c FFF7FEFF 		bl	packetfunctions_reserveHeaderSize
 506:build/openmote-cc2538_armgcc/openstack/03a-IPHC/iphc.c ****    *((uint8_t*)(msg->payload)) = temp_8b;
 1217              		.loc 1 506 0
 1218 0750 FB68     		ldr	r3, [r7, #12]
 1219 0752 5B68     		ldr	r3, [r3, #4]
 1220 0754 FA7D     		ldrb	r2, [r7, #23]
 1221 0756 1A70     		strb	r2, [r3]
 507:build/openmote-cc2538_armgcc/openstack/03a-IPHC/iphc.c ****    temp_8b    = 0;
 1222              		.loc 1 507 0
 1223 0758 0023     		movs	r3, #0
 1224 075a FB75     		strb	r3, [r7, #23]
 508:build/openmote-cc2538_armgcc/openstack/03a-IPHC/iphc.c ****    temp_8b   |= IPHC_DISPATCH_IPHC     << IPHC_DISPATCH;
 1225              		.loc 1 508 0
 1226 075c FB7D     		ldrb	r3, [r7, #23]
 1227 075e 43F06003 		orr	r3, r3, #96
 1228 0762 FB75     		strb	r3, [r7, #23]
 509:build/openmote-cc2538_armgcc/openstack/03a-IPHC/iphc.c ****    temp_8b   |= tf                     << IPHC_TF;
 1229              		.loc 1 509 0
 1230 0764 FB7A     		ldrb	r3, [r7, #11]	@ zero_extendqisi2
 1231 0766 DB00     		lsls	r3, r3, #3
 1232 0768 DAB2     		uxtb	r2, r3
 1233 076a FB7D     		ldrb	r3, [r7, #23]	@ zero_extendqisi2
 1234 076c 1343     		orrs	r3, r3, r2
 1235 076e DBB2     		uxtb	r3, r3
 1236 0770 FB75     		strb	r3, [r7, #23]
 510:build/openmote-cc2538_armgcc/openstack/03a-IPHC/iphc.c ****    temp_8b   |= nh                     << IPHC_NH;
 1237              		.loc 1 510 0
 1238 0772 BB7A     		ldrb	r3, [r7, #10]	@ zero_extendqisi2
 1239 0774 9B00     		lsls	r3, r3, #2
 1240 0776 DAB2     		uxtb	r2, r3
 1241 0778 FB7D     		ldrb	r3, [r7, #23]	@ zero_extendqisi2
 1242 077a 1343     		orrs	r3, r3, r2
 1243 077c DBB2     		uxtb	r3, r3
 1244 077e FB75     		strb	r3, [r7, #23]
 511:build/openmote-cc2538_armgcc/openstack/03a-IPHC/iphc.c ****    temp_8b   |= hlim                   << IPHC_HLIM;
 1245              		.loc 1 511 0
 1246 0780 FA7D     		ldrb	r2, [r7, #23]
 1247 0782 97F82430 		ldrb	r3, [r7, #36]
 1248 0786 1343     		orrs	r3, r3, r2
 1249 0788 FB75     		strb	r3, [r7, #23]
 512:build/openmote-cc2538_armgcc/openstack/03a-IPHC/iphc.c ****    packetfunctions_reserveHeaderSize(msg,sizeof(uint8_t));
 1250              		.loc 1 512 0
 1251 078a F868     		ldr	r0, [r7, #12]
 1252 078c 0121     		movs	r1, #1
 1253 078e FFF7FEFF 		bl	packetfunctions_reserveHeaderSize
 513:build/openmote-cc2538_armgcc/openstack/03a-IPHC/iphc.c ****    *((uint8_t*)(msg->payload)) = temp_8b;
 1254              		.loc 1 513 0
 1255 0792 FB68     		ldr	r3, [r7, #12]
 1256 0794 5B68     		ldr	r3, [r3, #4]
 1257 0796 FA7D     		ldrb	r2, [r7, #23]
 1258 0798 1A70     		strb	r2, [r3]
 514:build/openmote-cc2538_armgcc/openstack/03a-IPHC/iphc.c ****    
 515:build/openmote-cc2538_armgcc/openstack/03a-IPHC/iphc.c ****    return E_SUCCESS;
 1259              		.loc 1 515 0
 1260 079a 0023     		movs	r3, #0
 1261              	.L44:
 516:build/openmote-cc2538_armgcc/openstack/03a-IPHC/iphc.c **** }
 1262              		.loc 1 516 0
 1263 079c 1846     		mov	r0, r3
 1264 079e 1837     		adds	r7, r7, #24
 1265 07a0 BD46     		mov	sp, r7
 1266              		@ sp needed
 1267 07a2 80BD     		pop	{r7, pc}
 1268              		.cfi_endproc
 1269              	.LFE5:
 1271              		.align	2
 1272              		.global	iphc_retrieveIPv6Header
 1273              		.thumb
 1274              		.thumb_func
 1276              	iphc_retrieveIPv6Header:
 1277              	.LFB6:
 517:build/openmote-cc2538_armgcc/openstack/03a-IPHC/iphc.c **** 
 518:build/openmote-cc2538_armgcc/openstack/03a-IPHC/iphc.c **** /**
 519:build/openmote-cc2538_armgcc/openstack/03a-IPHC/iphc.c **** \brief Retrieve an IPv6 header from a message.
 520:build/openmote-cc2538_armgcc/openstack/03a-IPHC/iphc.c **** */
 521:build/openmote-cc2538_armgcc/openstack/03a-IPHC/iphc.c **** void iphc_retrieveIPv6Header(OpenQueueEntry_t* msg, ipv6_header_iht* ipv6_outer_header, ipv6_header
 1278              		.loc 1 521 0
 1279              		.cfi_startproc
 1280              		@ args = 0, pretend = 0, frame = 72
 1281              		@ frame_needed = 1, uses_anonymous_args = 0
 1282 07a4 B0B5     		push	{r4, r5, r7, lr}
 1283              		.cfi_def_cfa_offset 16
 1284              		.cfi_offset 4, -16
 1285              		.cfi_offset 5, -12
 1286              		.cfi_offset 7, -8
 1287              		.cfi_offset 14, -4
 1288 07a6 9AB0     		sub	sp, sp, #104
 1289              		.cfi_def_cfa_offset 120
 1290 07a8 08AF     		add	r7, sp, #32
 1291              		.cfi_def_cfa 7, 88
 1292 07aa F860     		str	r0, [r7, #12]
 1293 07ac B960     		str	r1, [r7, #8]
 1294 07ae 7A60     		str	r2, [r7, #4]
 1295 07b0 3B60     		str	r3, [r7]
 522:build/openmote-cc2538_armgcc/openstack/03a-IPHC/iphc.c ****     uint8_t         temp_8b;
 523:build/openmote-cc2538_armgcc/openstack/03a-IPHC/iphc.c ****     open_addr_t     temp_addr_16b;
 524:build/openmote-cc2538_armgcc/openstack/03a-IPHC/iphc.c ****     open_addr_t     temp_addr_64b;
 525:build/openmote-cc2538_armgcc/openstack/03a-IPHC/iphc.c ****     uint8_t         dispatch;
 526:build/openmote-cc2538_armgcc/openstack/03a-IPHC/iphc.c ****     uint8_t         tf;
 527:build/openmote-cc2538_armgcc/openstack/03a-IPHC/iphc.c ****     uint8_t         nh;
 528:build/openmote-cc2538_armgcc/openstack/03a-IPHC/iphc.c ****     uint8_t         hlim;
 529:build/openmote-cc2538_armgcc/openstack/03a-IPHC/iphc.c ****     uint8_t         sam;
 530:build/openmote-cc2538_armgcc/openstack/03a-IPHC/iphc.c ****     uint8_t         m;
 531:build/openmote-cc2538_armgcc/openstack/03a-IPHC/iphc.c ****     uint8_t         dam;
 532:build/openmote-cc2538_armgcc/openstack/03a-IPHC/iphc.c ****     uint8_t         size;
 533:build/openmote-cc2538_armgcc/openstack/03a-IPHC/iphc.c ****     uint8_t         lorh_type;
 534:build/openmote-cc2538_armgcc/openstack/03a-IPHC/iphc.c ****     uint8_t         rh3_index;
 535:build/openmote-cc2538_armgcc/openstack/03a-IPHC/iphc.c ****     uint8_t         page;
 536:build/openmote-cc2538_armgcc/openstack/03a-IPHC/iphc.c ****     uint8_t         lorh_length;
 537:build/openmote-cc2538_armgcc/openstack/03a-IPHC/iphc.c ****     
 538:build/openmote-cc2538_armgcc/openstack/03a-IPHC/iphc.c ****     uint8_t         extention_header_length;
 539:build/openmote-cc2538_armgcc/openstack/03a-IPHC/iphc.c ****     
 540:build/openmote-cc2538_armgcc/openstack/03a-IPHC/iphc.c ****     *page_length                      = 0;
 1296              		.loc 1 540 0
 1297 07b2 3B68     		ldr	r3, [r7]
 1298 07b4 0022     		movs	r2, #0
 1299 07b6 1A70     		strb	r2, [r3]
 541:build/openmote-cc2538_armgcc/openstack/03a-IPHC/iphc.c ****     extention_header_length          = 0;
 1300              		.loc 1 541 0
 1301 07b8 0023     		movs	r3, #0
 1302 07ba 87F84530 		strb	r3, [r7, #69]
 542:build/openmote-cc2538_armgcc/openstack/03a-IPHC/iphc.c ****     rh3_index                        = 0;
 1303              		.loc 1 542 0
 1304 07be 0023     		movs	r3, #0
 1305 07c0 87F84430 		strb	r3, [r7, #68]
 543:build/openmote-cc2538_armgcc/openstack/03a-IPHC/iphc.c ****     ipv6_outer_header->header_length = 0;
 1306              		.loc 1 543 0
 1307 07c4 BB68     		ldr	r3, [r7, #8]
 1308 07c6 0022     		movs	r2, #0
 1309 07c8 83F84020 		strb	r2, [r3, #64]
 544:build/openmote-cc2538_armgcc/openstack/03a-IPHC/iphc.c ****     ipv6_inner_header->header_length = 0;
 1310              		.loc 1 544 0
 1311 07cc 7B68     		ldr	r3, [r7, #4]
 1312 07ce 0022     		movs	r2, #0
 1313 07d0 83F84020 		strb	r2, [r3, #64]
 545:build/openmote-cc2538_armgcc/openstack/03a-IPHC/iphc.c ****     ipv6_outer_header->rhe_length	 = 0;
 1314              		.loc 1 545 0
 1315 07d4 BB68     		ldr	r3, [r7, #8]
 1316 07d6 0022     		movs	r2, #0
 1317 07d8 5A77     		strb	r2, [r3, #29]
 546:build/openmote-cc2538_armgcc/openstack/03a-IPHC/iphc.c **** 
 547:build/openmote-cc2538_armgcc/openstack/03a-IPHC/iphc.c **** 
 548:build/openmote-cc2538_armgcc/openstack/03a-IPHC/iphc.c ****     // four steps to retrieve:
 549:build/openmote-cc2538_armgcc/openstack/03a-IPHC/iphc.c ****     // step 1. Paging number
 550:build/openmote-cc2538_armgcc/openstack/03a-IPHC/iphc.c ****     // step 2. IP in IP 6LoRH
 551:build/openmote-cc2538_armgcc/openstack/03a-IPHC/iphc.c ****     // step 3. IPv6 extention header
 552:build/openmote-cc2538_armgcc/openstack/03a-IPHC/iphc.c ****     // step 4. IPv6 inner header
 553:build/openmote-cc2538_armgcc/openstack/03a-IPHC/iphc.c ****     // ====================== 1. paging number =================================
 554:build/openmote-cc2538_armgcc/openstack/03a-IPHC/iphc.c ****     temp_8b = *((uint8_t*)(msg->payload)+ipv6_outer_header->header_length);
 1318              		.loc 1 554 0
 1319 07da FB68     		ldr	r3, [r7, #12]
 1320 07dc 5A68     		ldr	r2, [r3, #4]
 1321 07de BB68     		ldr	r3, [r7, #8]
 1322 07e0 93F84030 		ldrb	r3, [r3, #64]	@ zero_extendqisi2
 1323 07e4 1344     		add	r3, r3, r2
 1324 07e6 1B78     		ldrb	r3, [r3]
 1325 07e8 87F84730 		strb	r3, [r7, #71]
 555:build/openmote-cc2538_armgcc/openstack/03a-IPHC/iphc.c ****     if ((temp_8b&PAGE_DISPATCH_TAG) == PAGE_DISPATCH_TAG){
 1326              		.loc 1 555 0
 1327 07ec 97F84730 		ldrb	r3, [r7, #71]	@ zero_extendqisi2
 1328 07f0 03F0F003 		and	r3, r3, #240
 1329 07f4 F02B     		cmp	r3, #240
 1330 07f6 09D1     		bne	.L83
 556:build/openmote-cc2538_armgcc/openstack/03a-IPHC/iphc.c ****         page = temp_8b&PAGE_DISPATCH_NUM; 
 1331              		.loc 1 556 0
 1332 07f8 97F84730 		ldrb	r3, [r7, #71]
 1333 07fc 03F00F03 		and	r3, r3, #15
 1334 0800 87F84630 		strb	r3, [r7, #70]
 557:build/openmote-cc2538_armgcc/openstack/03a-IPHC/iphc.c ****         *page_length = 1;
 1335              		.loc 1 557 0
 1336 0804 3B68     		ldr	r3, [r7]
 1337 0806 0122     		movs	r2, #1
 1338 0808 1A70     		strb	r2, [r3]
 1339 080a 02E0     		b	.L84
 1340              	.L83:
 558:build/openmote-cc2538_armgcc/openstack/03a-IPHC/iphc.c ****     } else {
 559:build/openmote-cc2538_armgcc/openstack/03a-IPHC/iphc.c ****         page = 0;
 1341              		.loc 1 559 0
 1342 080c 0023     		movs	r3, #0
 1343 080e 87F84630 		strb	r3, [r7, #70]
 1344              	.L84:
 560:build/openmote-cc2538_armgcc/openstack/03a-IPHC/iphc.c ****     }
 561:build/openmote-cc2538_armgcc/openstack/03a-IPHC/iphc.c ****     //======================= 2. and 3. IPv6 extention header and IPv6 inner header ===============
 562:build/openmote-cc2538_armgcc/openstack/03a-IPHC/iphc.c ****     if(page==1){
 1345              		.loc 1 562 0
 1346 0812 97F84630 		ldrb	r3, [r7, #70]	@ zero_extendqisi2
 1347 0816 012B     		cmp	r3, #1
 1348 0818 40F00E82 		bne	.L85
 563:build/openmote-cc2538_armgcc/openstack/03a-IPHC/iphc.c ****     	extention_header_length = 0;
 1349              		.loc 1 563 0
 1350 081c 0023     		movs	r3, #0
 1351 081e 87F84530 		strb	r3, [r7, #69]
 564:build/openmote-cc2538_armgcc/openstack/03a-IPHC/iphc.c ****     	temp_8b = *((uint8_t*)(msg->payload)+*page_length+extention_header_length);
 1352              		.loc 1 564 0
 1353 0822 FB68     		ldr	r3, [r7, #12]
 1354 0824 5A68     		ldr	r2, [r3, #4]
 1355 0826 3B68     		ldr	r3, [r7]
 1356 0828 1B78     		ldrb	r3, [r3]	@ zero_extendqisi2
 1357 082a 1946     		mov	r1, r3
 1358 082c 97F84530 		ldrb	r3, [r7, #69]	@ zero_extendqisi2
 1359 0830 0B44     		add	r3, r3, r1
 1360 0832 1344     		add	r3, r3, r2
 1361 0834 1B78     		ldrb	r3, [r3]
 1362 0836 87F84730 		strb	r3, [r7, #71]
 565:build/openmote-cc2538_armgcc/openstack/03a-IPHC/iphc.c ****     	while ((temp_8b&FORMAT_6LORH_MASK) == CRITICAL_6LORH || (temp_8b&FORMAT_6LORH_MASK) == ELECTIV
 1363              		.loc 1 565 0
 1364 083a EFE1     		b	.L86
 1365              	.L116:
 566:build/openmote-cc2538_armgcc/openstack/03a-IPHC/iphc.c ****     		switch (temp_8b&FORMAT_6LORH_MASK) {
 1366              		.loc 1 566 0
 1367 083c 97F84730 		ldrb	r3, [r7, #71]	@ zero_extendqisi2
 1368 0840 03F0E003 		and	r3, r3, #224
 1369 0844 802B     		cmp	r3, #128
 1370 0846 03D0     		beq	.L87
 1371 0848 A02B     		cmp	r3, #160
 1372 084a 00F0F680 		beq	.L88
 1373 084e E5E1     		b	.L86
 1374              	.L87:
 567:build/openmote-cc2538_armgcc/openstack/03a-IPHC/iphc.c ****     		case CRITICAL_6LORH :
 568:build/openmote-cc2538_armgcc/openstack/03a-IPHC/iphc.c ****     			lorh_type = *((uint8_t*)(msg->payload)+*page_length+extention_header_length+1);
 1375              		.loc 1 568 0
 1376 0850 FB68     		ldr	r3, [r7, #12]
 1377 0852 5A68     		ldr	r2, [r3, #4]
 1378 0854 3B68     		ldr	r3, [r7]
 1379 0856 1B78     		ldrb	r3, [r3]	@ zero_extendqisi2
 1380 0858 1946     		mov	r1, r3
 1381 085a 97F84530 		ldrb	r3, [r7, #69]	@ zero_extendqisi2
 1382 085e 0B44     		add	r3, r3, r1
 1383 0860 0133     		adds	r3, r3, #1
 1384 0862 1344     		add	r3, r3, r2
 1385 0864 1B78     		ldrb	r3, [r3]
 1386 0866 87F84330 		strb	r3, [r7, #67]
 569:build/openmote-cc2538_armgcc/openstack/03a-IPHC/iphc.c ****     			if(lorh_type<=RH3_6LOTH_TYPE_4){
 1387              		.loc 1 569 0
 1388 086a 97F84330 		ldrb	r3, [r7, #67]	@ zero_extendqisi2
 1389 086e 042B     		cmp	r3, #4
 1390 0870 00F28F80 		bhi	.L89
 570:build/openmote-cc2538_armgcc/openstack/03a-IPHC/iphc.c ****     				if (rh3_index == MAXNUM_RH3){
 1391              		.loc 1 570 0
 1392 0874 97F84430 		ldrb	r3, [r7, #68]	@ zero_extendqisi2
 1393 0878 032B     		cmp	r3, #3
 1394 087a 08D1     		bne	.L90
 571:build/openmote-cc2538_armgcc/openstack/03a-IPHC/iphc.c ****     					openserial_printError(
 1395              		.loc 1 571 0
 1396 087c 97F84430 		ldrb	r3, [r7, #68]	@ zero_extendqisi2
 1397 0880 9BB2     		uxth	r3, r3
 1398 0882 1120     		movs	r0, #17
 1399 0884 0C21     		movs	r1, #12
 1400 0886 0D22     		movs	r2, #13
 1401 0888 FFF7FEFF 		bl	openserial_printError
 1402 088c FDE1     		b	.L82
 1403              	.L90:
 572:build/openmote-cc2538_armgcc/openstack/03a-IPHC/iphc.c ****     							COMPONENT_IPHC,
 573:build/openmote-cc2538_armgcc/openstack/03a-IPHC/iphc.c **** 								ERR_6LOWPAN_UNSUPPORTED,
 574:build/openmote-cc2538_armgcc/openstack/03a-IPHC/iphc.c **** 								(errorparameter_t)13,
 575:build/openmote-cc2538_armgcc/openstack/03a-IPHC/iphc.c **** 								(errorparameter_t)(rh3_index)
 576:build/openmote-cc2538_armgcc/openstack/03a-IPHC/iphc.c ****     					);
 577:build/openmote-cc2538_armgcc/openstack/03a-IPHC/iphc.c ****     					return;
 578:build/openmote-cc2538_armgcc/openstack/03a-IPHC/iphc.c ****     				}
 579:build/openmote-cc2538_armgcc/openstack/03a-IPHC/iphc.c ****     				if (rh3_index==0){
 1404              		.loc 1 579 0
 1405 088e 97F84430 		ldrb	r3, [r7, #68]	@ zero_extendqisi2
 1406 0892 002B     		cmp	r3, #0
 1407 0894 16D1     		bne	.L92
 580:build/openmote-cc2538_armgcc/openstack/03a-IPHC/iphc.c ****     					if (ipv6_outer_header->hopByhop_option == NULL){
 1408              		.loc 1 580 0
 1409 0896 BB68     		ldr	r3, [r7, #8]
 1410 0898 9B69     		ldr	r3, [r3, #24]
 1411 089a 002B     		cmp	r3, #0
 1412 089c 02D1     		bne	.L93
 581:build/openmote-cc2538_armgcc/openstack/03a-IPHC/iphc.c ****     						ipv6_outer_header->next_header = IANA_IPv6ROUTE;
 1413              		.loc 1 581 0
 1414 089e BB68     		ldr	r3, [r7, #8]
 1415 08a0 2B22     		movs	r2, #43
 1416 08a2 5A72     		strb	r2, [r3, #9]
 1417              	.L93:
 582:build/openmote-cc2538_armgcc/openstack/03a-IPHC/iphc.c ****     					}
 583:build/openmote-cc2538_armgcc/openstack/03a-IPHC/iphc.c ****     					ipv6_outer_header->routing_header[rh3_index] = (uint8_t*)(msg->payload) + \
 1418              		.loc 1 583 0
 1419 08a4 97F84430 		ldrb	r3, [r7, #68]	@ zero_extendqisi2
 1420 08a8 FA68     		ldr	r2, [r7, #12]
 1421 08aa 5168     		ldr	r1, [r2, #4]
 584:build/openmote-cc2538_armgcc/openstack/03a-IPHC/iphc.c ****     							*page_length + \
 1422              		.loc 1 584 0
 1423 08ac 3A68     		ldr	r2, [r7]
 1424 08ae 1278     		ldrb	r2, [r2]	@ zero_extendqisi2
 1425 08b0 1046     		mov	r0, r2
 1426 08b2 97F84520 		ldrb	r2, [r7, #69]	@ zero_extendqisi2
 1427 08b6 0244     		add	r2, r2, r0
 1428 08b8 0A44     		add	r2, r2, r1
 583:build/openmote-cc2538_armgcc/openstack/03a-IPHC/iphc.c ****     							*page_length + \
 1429              		.loc 1 583 0
 1430 08ba B968     		ldr	r1, [r7, #8]
 1431 08bc 0233     		adds	r3, r3, #2
 1432 08be 9B00     		lsls	r3, r3, #2
 1433 08c0 0B44     		add	r3, r3, r1
 1434 08c2 5A60     		str	r2, [r3, #4]
 1435              	.L92:
 585:build/openmote-cc2538_armgcc/openstack/03a-IPHC/iphc.c **** 								extention_header_length;
 586:build/openmote-cc2538_armgcc/openstack/03a-IPHC/iphc.c ****     				}
 587:build/openmote-cc2538_armgcc/openstack/03a-IPHC/iphc.c ****     				size = temp_8b & RH3_6LOTH_SIZE_MASK;
 1436              		.loc 1 587 0
 1437 08c4 97F84730 		ldrb	r3, [r7, #71]
 1438 08c8 03F01F03 		and	r3, r3, #31
 1439 08cc 87F84230 		strb	r3, [r7, #66]
 588:build/openmote-cc2538_armgcc/openstack/03a-IPHC/iphc.c ****     				size += 1;
 1440              		.loc 1 588 0
 1441 08d0 97F84230 		ldrb	r3, [r7, #66]
 1442 08d4 0133     		adds	r3, r3, #1
 1443 08d6 87F84230 		strb	r3, [r7, #66]
 589:build/openmote-cc2538_armgcc/openstack/03a-IPHC/iphc.c ****     				switch(lorh_type){
 1444              		.loc 1 589 0
 1445 08da 97F84330 		ldrb	r3, [r7, #67]	@ zero_extendqisi2
 1446 08de 042B     		cmp	r3, #4
 1447 08e0 46D8     		bhi	.L94
 1448 08e2 01A2     		adr	r2, .L96
 1449 08e4 52F823F0 		ldr	pc, [r2, r3, lsl #2]
 1450              		.p2align 2
 1451              	.L96:
 1452 08e8 FD080000 		.word	.L95+1
 1453 08ec 11090000 		.word	.L97+1
 1454 08f0 29090000 		.word	.L98+1
 1455 08f4 41090000 		.word	.L99+1
 1456 08f8 59090000 		.word	.L100+1
 1457              	.L95:
 590:build/openmote-cc2538_armgcc/openstack/03a-IPHC/iphc.c ****     				case 0:
 591:build/openmote-cc2538_armgcc/openstack/03a-IPHC/iphc.c ****     					extention_header_length += 2+ 1*size;
 1458              		.loc 1 591 0
 1459 08fc 97F84220 		ldrb	r2, [r7, #66]
 1460 0900 97F84530 		ldrb	r3, [r7, #69]
 1461 0904 1344     		add	r3, r3, r2
 1462 0906 DBB2     		uxtb	r3, r3
 1463 0908 0233     		adds	r3, r3, #2
 1464 090a 87F84530 		strb	r3, [r7, #69]
 592:build/openmote-cc2538_armgcc/openstack/03a-IPHC/iphc.c ****     					break;
 1465              		.loc 1 592 0
 1466 090e 2FE0     		b	.L94
 1467              	.L97:
 593:build/openmote-cc2538_armgcc/openstack/03a-IPHC/iphc.c ****     				case 1:
 594:build/openmote-cc2538_armgcc/openstack/03a-IPHC/iphc.c ****     					extention_header_length += 2+ 2*size;
 1468              		.loc 1 594 0
 1469 0910 97F84230 		ldrb	r3, [r7, #66]	@ zero_extendqisi2
 1470 0914 0133     		adds	r3, r3, #1
 1471 0916 DBB2     		uxtb	r3, r3
 1472 0918 5B00     		lsls	r3, r3, #1
 1473 091a DAB2     		uxtb	r2, r3
 1474 091c 97F84530 		ldrb	r3, [r7, #69]
 1475 0920 1344     		add	r3, r3, r2
 1476 0922 87F84530 		strb	r3, [r7, #69]
 595:build/openmote-cc2538_armgcc/openstack/03a-IPHC/iphc.c ****     					break;
 1477              		.loc 1 595 0
 1478 0926 23E0     		b	.L94
 1479              	.L98:
 596:build/openmote-cc2538_armgcc/openstack/03a-IPHC/iphc.c ****     				case 2:
 597:build/openmote-cc2538_armgcc/openstack/03a-IPHC/iphc.c ****     					extention_header_length += 2+ 4*size;
 1480              		.loc 1 597 0
 1481 0928 97F84230 		ldrb	r3, [r7, #66]
 1482 092c 9B00     		lsls	r3, r3, #2
 1483 092e DAB2     		uxtb	r2, r3
 1484 0930 97F84530 		ldrb	r3, [r7, #69]
 1485 0934 1344     		add	r3, r3, r2
 1486 0936 DBB2     		uxtb	r3, r3
 1487 0938 0233     		adds	r3, r3, #2
 1488 093a 87F84530 		strb	r3, [r7, #69]
 598:build/openmote-cc2538_armgcc/openstack/03a-IPHC/iphc.c ****     					break;
 1489              		.loc 1 598 0
 1490 093e 17E0     		b	.L94
 1491              	.L99:
 599:build/openmote-cc2538_armgcc/openstack/03a-IPHC/iphc.c ****     				case 3:
 600:build/openmote-cc2538_armgcc/openstack/03a-IPHC/iphc.c ****     					extention_header_length += 2+ 8*size;
 1492              		.loc 1 600 0
 1493 0940 97F84230 		ldrb	r3, [r7, #66]
 1494 0944 DB00     		lsls	r3, r3, #3
 1495 0946 DAB2     		uxtb	r2, r3
 1496 0948 97F84530 		ldrb	r3, [r7, #69]
 1497 094c 1344     		add	r3, r3, r2
 1498 094e DBB2     		uxtb	r3, r3
 1499 0950 0233     		adds	r3, r3, #2
 1500 0952 87F84530 		strb	r3, [r7, #69]
 601:build/openmote-cc2538_armgcc/openstack/03a-IPHC/iphc.c ****     					break;
 1501              		.loc 1 601 0
 1502 0956 0BE0     		b	.L94
 1503              	.L100:
 602:build/openmote-cc2538_armgcc/openstack/03a-IPHC/iphc.c ****     				case 4:
 603:build/openmote-cc2538_armgcc/openstack/03a-IPHC/iphc.c ****     					extention_header_length += 2+ 16*size;
 1504              		.loc 1 603 0
 1505 0958 97F84230 		ldrb	r3, [r7, #66]
 1506 095c 1B01     		lsls	r3, r3, #4
 1507 095e DAB2     		uxtb	r2, r3
 1508 0960 97F84530 		ldrb	r3, [r7, #69]
 1509 0964 1344     		add	r3, r3, r2
 1510 0966 DBB2     		uxtb	r3, r3
 1511 0968 0233     		adds	r3, r3, #2
 1512 096a 87F84530 		strb	r3, [r7, #69]
 604:build/openmote-cc2538_armgcc/openstack/03a-IPHC/iphc.c ****     					break;
 1513              		.loc 1 604 0
 1514 096e 00BF     		nop
 1515              	.L94:
 605:build/openmote-cc2538_armgcc/openstack/03a-IPHC/iphc.c ****     				}
 606:build/openmote-cc2538_armgcc/openstack/03a-IPHC/iphc.c ****     				temp_8b = *(uint8_t*)((msg->payload) + \
 1516              		.loc 1 606 0
 1517 0970 FB68     		ldr	r3, [r7, #12]
 1518 0972 5A68     		ldr	r2, [r3, #4]
 607:build/openmote-cc2538_armgcc/openstack/03a-IPHC/iphc.c ****     					*page_length + \
 1519              		.loc 1 607 0
 1520 0974 3B68     		ldr	r3, [r7]
 1521 0976 1B78     		ldrb	r3, [r3]	@ zero_extendqisi2
 1522 0978 1946     		mov	r1, r3
 1523 097a 97F84530 		ldrb	r3, [r7, #69]	@ zero_extendqisi2
 1524 097e 1944     		add	r1, r1, r3
 608:build/openmote-cc2538_armgcc/openstack/03a-IPHC/iphc.c ****     				    extention_header_length +\
 609:build/openmote-cc2538_armgcc/openstack/03a-IPHC/iphc.c ****     					ipv6_outer_header->header_length);
 1525              		.loc 1 609 0
 1526 0980 BB68     		ldr	r3, [r7, #8]
 1527 0982 93F84030 		ldrb	r3, [r3, #64]	@ zero_extendqisi2
 608:build/openmote-cc2538_armgcc/openstack/03a-IPHC/iphc.c ****     				    extention_header_length +\
 1528              		.loc 1 608 0
 1529 0986 0B44     		add	r3, r3, r1
 606:build/openmote-cc2538_armgcc/openstack/03a-IPHC/iphc.c ****     					*page_length + \
 1530              		.loc 1 606 0
 1531 0988 1344     		add	r3, r3, r2
 1532 098a 1B78     		ldrb	r3, [r3]
 1533 098c 87F84730 		strb	r3, [r7, #71]
 1534 0990 52E0     		b	.L101
 1535              	.L89:
 610:build/openmote-cc2538_armgcc/openstack/03a-IPHC/iphc.c ****     			} else {
 611:build/openmote-cc2538_armgcc/openstack/03a-IPHC/iphc.c ****     				if (lorh_type==5){
 1536              		.loc 1 611 0
 1537 0992 97F84330 		ldrb	r3, [r7, #67]	@ zero_extendqisi2
 1538 0996 052B     		cmp	r3, #5
 1539 0998 45D1     		bne	.L102
 612:build/openmote-cc2538_armgcc/openstack/03a-IPHC/iphc.c ****     					if (ipv6_outer_header->routing_header[0] == NULL){
 1540              		.loc 1 612 0
 1541 099a BB68     		ldr	r3, [r7, #8]
 1542 099c DB68     		ldr	r3, [r3, #12]
 1543 099e 002B     		cmp	r3, #0
 1544 09a0 02D1     		bne	.L103
 613:build/openmote-cc2538_armgcc/openstack/03a-IPHC/iphc.c ****     						ipv6_outer_header->next_header = IANA_IPv6HOPOPT;
 1545              		.loc 1 613 0
 1546 09a2 BB68     		ldr	r3, [r7, #8]
 1547 09a4 0022     		movs	r2, #0
 1548 09a6 5A72     		strb	r2, [r3, #9]
 1549              	.L103:
 614:build/openmote-cc2538_armgcc/openstack/03a-IPHC/iphc.c ****     					}
 615:build/openmote-cc2538_armgcc/openstack/03a-IPHC/iphc.c ****     					ipv6_outer_header->hopByhop_option = (uint8_t*)(msg->payload) + \
 1550              		.loc 1 615 0
 1551 09a8 FB68     		ldr	r3, [r7, #12]
 1552 09aa 5A68     		ldr	r2, [r3, #4]
 616:build/openmote-cc2538_armgcc/openstack/03a-IPHC/iphc.c ****     							*page_length + \
 1553              		.loc 1 616 0
 1554 09ac 3B68     		ldr	r3, [r7]
 1555 09ae 1B78     		ldrb	r3, [r3]	@ zero_extendqisi2
 1556 09b0 1946     		mov	r1, r3
 1557 09b2 97F84530 		ldrb	r3, [r7, #69]	@ zero_extendqisi2
 1558 09b6 0B44     		add	r3, r3, r1
 1559 09b8 1A44     		add	r2, r2, r3
 615:build/openmote-cc2538_armgcc/openstack/03a-IPHC/iphc.c ****     							*page_length + \
 1560              		.loc 1 615 0
 1561 09ba BB68     		ldr	r3, [r7, #8]
 1562 09bc 9A61     		str	r2, [r3, #24]
 617:build/openmote-cc2538_armgcc/openstack/03a-IPHC/iphc.c **** 								extention_header_length;
 618:build/openmote-cc2538_armgcc/openstack/03a-IPHC/iphc.c ****     					switch(temp_8b & (I_FLAG | K_FLAG)){
 1563              		.loc 1 618 0
 1564 09be 97F84730 		ldrb	r3, [r7, #71]	@ zero_extendqisi2
 1565 09c2 03F00303 		and	r3, r3, #3
 1566 09c6 032B     		cmp	r3, #3
 1567 09c8 1CD8     		bhi	.L104
 1568 09ca 01A2     		adr	r2, .L106
 1569 09cc 52F823F0 		ldr	pc, [r2, r3, lsl #2]
 1570              		.p2align 2
 1571              	.L106:
 1572 09d0 E1090000 		.word	.L105+1
 1573 09d4 ED090000 		.word	.L107+1
 1574 09d8 ED090000 		.word	.L107+1
 1575 09dc F9090000 		.word	.L108+1
 1576              	.L105:
 619:build/openmote-cc2538_armgcc/openstack/03a-IPHC/iphc.c ****     					case 0:
 620:build/openmote-cc2538_armgcc/openstack/03a-IPHC/iphc.c ****     						extention_header_length += 2+3;
 1577              		.loc 1 620 0
 1578 09e0 97F84530 		ldrb	r3, [r7, #69]
 1579 09e4 0533     		adds	r3, r3, #5
 1580 09e6 87F84530 		strb	r3, [r7, #69]
 621:build/openmote-cc2538_armgcc/openstack/03a-IPHC/iphc.c ****     						break;
 1581              		.loc 1 621 0
 1582 09ea 0BE0     		b	.L104
 1583              	.L107:
 622:build/openmote-cc2538_armgcc/openstack/03a-IPHC/iphc.c ****     					case 1:
 623:build/openmote-cc2538_armgcc/openstack/03a-IPHC/iphc.c ****     					case 2:
 624:build/openmote-cc2538_armgcc/openstack/03a-IPHC/iphc.c ****     						extention_header_length += 2+2;
 1584              		.loc 1 624 0
 1585 09ec 97F84530 		ldrb	r3, [r7, #69]
 1586 09f0 0433     		adds	r3, r3, #4
 1587 09f2 87F84530 		strb	r3, [r7, #69]
 625:build/openmote-cc2538_armgcc/openstack/03a-IPHC/iphc.c ****     						break;
 1588              		.loc 1 625 0
 1589 09f6 05E0     		b	.L104
 1590              	.L108:
 626:build/openmote-cc2538_armgcc/openstack/03a-IPHC/iphc.c ****     					case 3:
 627:build/openmote-cc2538_armgcc/openstack/03a-IPHC/iphc.c ****     						extention_header_length += 2+1;
 1591              		.loc 1 627 0
 1592 09f8 97F84530 		ldrb	r3, [r7, #69]
 1593 09fc 0333     		adds	r3, r3, #3
 1594 09fe 87F84530 		strb	r3, [r7, #69]
 628:build/openmote-cc2538_armgcc/openstack/03a-IPHC/iphc.c ****     						break;
 1595              		.loc 1 628 0
 1596 0a02 00BF     		nop
 1597              	.L104:
 629:build/openmote-cc2538_armgcc/openstack/03a-IPHC/iphc.c ****     					}
 630:build/openmote-cc2538_armgcc/openstack/03a-IPHC/iphc.c ****     					temp_8b = *(uint8_t*)((msg->payload) + \
 1598              		.loc 1 630 0
 1599 0a04 FB68     		ldr	r3, [r7, #12]
 1600 0a06 5A68     		ldr	r2, [r3, #4]
 631:build/openmote-cc2538_armgcc/openstack/03a-IPHC/iphc.c ****     					    *page_length + \
 1601              		.loc 1 631 0
 1602 0a08 3B68     		ldr	r3, [r7]
 1603 0a0a 1B78     		ldrb	r3, [r3]	@ zero_extendqisi2
 1604 0a0c 1946     		mov	r1, r3
 1605 0a0e 97F84530 		ldrb	r3, [r7, #69]	@ zero_extendqisi2
 1606 0a12 1944     		add	r1, r1, r3
 632:build/openmote-cc2538_armgcc/openstack/03a-IPHC/iphc.c ****     					    extention_header_length +\
 633:build/openmote-cc2538_armgcc/openstack/03a-IPHC/iphc.c ****     						ipv6_outer_header->header_length);
 1607              		.loc 1 633 0
 1608 0a14 BB68     		ldr	r3, [r7, #8]
 1609 0a16 93F84030 		ldrb	r3, [r3, #64]	@ zero_extendqisi2
 632:build/openmote-cc2538_armgcc/openstack/03a-IPHC/iphc.c ****     					    extention_header_length +\
 1610              		.loc 1 632 0
 1611 0a1a 0B44     		add	r3, r3, r1
 630:build/openmote-cc2538_armgcc/openstack/03a-IPHC/iphc.c ****     					    *page_length + \
 1612              		.loc 1 630 0
 1613 0a1c 1344     		add	r3, r3, r2
 1614 0a1e 1B78     		ldrb	r3, [r3]
 1615 0a20 87F84730 		strb	r3, [r7, #71]
 1616 0a24 08E0     		b	.L101
 1617              	.L102:
 634:build/openmote-cc2538_armgcc/openstack/03a-IPHC/iphc.c ****     				} else{
 635:build/openmote-cc2538_armgcc/openstack/03a-IPHC/iphc.c ****     					//log wrong inf
 636:build/openmote-cc2538_armgcc/openstack/03a-IPHC/iphc.c **** 						openserial_printError(
 1618              		.loc 1 636 0
 1619 0a26 97F84330 		ldrb	r3, [r7, #67]	@ zero_extendqisi2
 1620 0a2a 9BB2     		uxth	r3, r3
 1621 0a2c 1120     		movs	r0, #17
 1622 0a2e 0C21     		movs	r1, #12
 1623 0a30 0E22     		movs	r2, #14
 1624 0a32 FFF7FEFF 		bl	openserial_printError
 637:build/openmote-cc2538_armgcc/openstack/03a-IPHC/iphc.c **** 								COMPONENT_IPHC,
 638:build/openmote-cc2538_armgcc/openstack/03a-IPHC/iphc.c **** 								ERR_6LOWPAN_UNSUPPORTED,
 639:build/openmote-cc2538_armgcc/openstack/03a-IPHC/iphc.c **** 								(errorparameter_t)14,
 640:build/openmote-cc2538_armgcc/openstack/03a-IPHC/iphc.c **** 								(errorparameter_t)(lorh_type)
 641:build/openmote-cc2538_armgcc/openstack/03a-IPHC/iphc.c **** 						);
 642:build/openmote-cc2538_armgcc/openstack/03a-IPHC/iphc.c ****     				}
 643:build/openmote-cc2538_armgcc/openstack/03a-IPHC/iphc.c ****     			}
 644:build/openmote-cc2538_armgcc/openstack/03a-IPHC/iphc.c ****     			break;
 1625              		.loc 1 644 0
 1626 0a36 F1E0     		b	.L86
 1627              	.L101:
 1628 0a38 F0E0     		b	.L86
 1629              	.L88:
 645:build/openmote-cc2538_armgcc/openstack/03a-IPHC/iphc.c ****     		case ELECTIVE_6LoRH :
 646:build/openmote-cc2538_armgcc/openstack/03a-IPHC/iphc.c ****     			// this is an elective 6LoRH
 647:build/openmote-cc2538_armgcc/openstack/03a-IPHC/iphc.c ****     			lorh_length = temp_8b & IPINIP_LEN_6LORH_MASK;
 1630              		.loc 1 647 0
 1631 0a3a 97F84730 		ldrb	r3, [r7, #71]
 1632 0a3e 03F01F03 		and	r3, r3, #31
 1633 0a42 87F84130 		strb	r3, [r7, #65]
 648:build/openmote-cc2538_armgcc/openstack/03a-IPHC/iphc.c ****     			lorh_type = *(uint8_t*)(msg->payload+ipv6_outer_header->header_length+*page_length+extention
 1634              		.loc 1 648 0
 1635 0a46 FB68     		ldr	r3, [r7, #12]
 1636 0a48 5A68     		ldr	r2, [r3, #4]
 1637 0a4a BB68     		ldr	r3, [r7, #8]
 1638 0a4c 93F84030 		ldrb	r3, [r3, #64]	@ zero_extendqisi2
 1639 0a50 1946     		mov	r1, r3
 1640 0a52 3B68     		ldr	r3, [r7]
 1641 0a54 1B78     		ldrb	r3, [r3]	@ zero_extendqisi2
 1642 0a56 1944     		add	r1, r1, r3
 1643 0a58 97F84530 		ldrb	r3, [r7, #69]	@ zero_extendqisi2
 1644 0a5c 0B44     		add	r3, r3, r1
 1645 0a5e 0133     		adds	r3, r3, #1
 1646 0a60 1344     		add	r3, r3, r2
 1647 0a62 1B78     		ldrb	r3, [r3]
 1648 0a64 87F84330 		strb	r3, [r7, #67]
 649:build/openmote-cc2538_armgcc/openstack/03a-IPHC/iphc.c ****     			if (lorh_type == IPINIP_TYPE_6LORH){
 1649              		.loc 1 649 0
 1650 0a68 97F84330 		ldrb	r3, [r7, #67]	@ zero_extendqisi2
 1651 0a6c 062B     		cmp	r3, #6
 1652 0a6e 40F0A980 		bne	.L109
 650:build/openmote-cc2538_armgcc/openstack/03a-IPHC/iphc.c ****         			ipv6_outer_header->header_length += 1;
 1653              		.loc 1 650 0
 1654 0a72 BB68     		ldr	r3, [r7, #8]
 1655 0a74 93F84030 		ldrb	r3, [r3, #64]	@ zero_extendqisi2
 1656 0a78 0133     		adds	r3, r3, #1
 1657 0a7a DAB2     		uxtb	r2, r3
 1658 0a7c BB68     		ldr	r3, [r7, #8]
 1659 0a7e 83F84020 		strb	r2, [r3, #64]
 651:build/openmote-cc2538_armgcc/openstack/03a-IPHC/iphc.c ****     				// this is IpinIP 6LoRH
 652:build/openmote-cc2538_armgcc/openstack/03a-IPHC/iphc.c ****     				ipv6_outer_header->header_length += 1;
 1660              		.loc 1 652 0
 1661 0a82 BB68     		ldr	r3, [r7, #8]
 1662 0a84 93F84030 		ldrb	r3, [r3, #64]	@ zero_extendqisi2
 1663 0a88 0133     		adds	r3, r3, #1
 1664 0a8a DAB2     		uxtb	r2, r3
 1665 0a8c BB68     		ldr	r3, [r7, #8]
 1666 0a8e 83F84020 		strb	r2, [r3, #64]
 653:build/openmote-cc2538_armgcc/openstack/03a-IPHC/iphc.c ****     				ipv6_outer_header->hop_limit = *(uint8_t*)(msg->payload+ipv6_outer_header->header_length+*p
 1667              		.loc 1 653 0
 1668 0a92 FB68     		ldr	r3, [r7, #12]
 1669 0a94 5A68     		ldr	r2, [r3, #4]
 1670 0a96 BB68     		ldr	r3, [r7, #8]
 1671 0a98 93F84030 		ldrb	r3, [r3, #64]	@ zero_extendqisi2
 1672 0a9c 1946     		mov	r1, r3
 1673 0a9e 3B68     		ldr	r3, [r7]
 1674 0aa0 1B78     		ldrb	r3, [r3]	@ zero_extendqisi2
 1675 0aa2 1944     		add	r1, r1, r3
 1676 0aa4 97F84530 		ldrb	r3, [r7, #69]	@ zero_extendqisi2
 1677 0aa8 0B44     		add	r3, r3, r1
 1678 0aaa 1344     		add	r3, r3, r2
 1679 0aac 1A78     		ldrb	r2, [r3]	@ zero_extendqisi2
 1680 0aae BB68     		ldr	r3, [r7, #8]
 1681 0ab0 1A77     		strb	r2, [r3, #28]
 654:build/openmote-cc2538_armgcc/openstack/03a-IPHC/iphc.c ****     				ipv6_outer_header->header_length += 1;
 1682              		.loc 1 654 0
 1683 0ab2 BB68     		ldr	r3, [r7, #8]
 1684 0ab4 93F84030 		ldrb	r3, [r3, #64]	@ zero_extendqisi2
 1685 0ab8 0133     		adds	r3, r3, #1
 1686 0aba DAB2     		uxtb	r2, r3
 1687 0abc BB68     		ldr	r3, [r7, #8]
 1688 0abe 83F84020 		strb	r2, [r3, #64]
 655:build/openmote-cc2538_armgcc/openstack/03a-IPHC/iphc.c ****     				// destination address maybe is the first address in RH3 6LoRH OR dest adress in IPHC, rese
 656:build/openmote-cc2538_armgcc/openstack/03a-IPHC/iphc.c ****     				// update destination address if necessary after the processing
 657:build/openmote-cc2538_armgcc/openstack/03a-IPHC/iphc.c ****     				ipv6_outer_header->dest.type = ADDR_NONE;
 1689              		.loc 1 657 0
 1690 0ac2 BB68     		ldr	r3, [r7, #8]
 1691 0ac4 0022     		movs	r2, #0
 1692 0ac6 83F82F20 		strb	r2, [r3, #47]
 658:build/openmote-cc2538_armgcc/openstack/03a-IPHC/iphc.c ****     				memset(&(ipv6_outer_header->dest.addr_128b[0]),0,16);
 1693              		.loc 1 658 0
 1694 0aca BB68     		ldr	r3, [r7, #8]
 1695 0acc 3033     		adds	r3, r3, #48
 1696 0ace 1846     		mov	r0, r3
 1697 0ad0 0021     		movs	r1, #0
 1698 0ad2 1022     		movs	r2, #16
 1699 0ad4 FFF7FEFF 		bl	memset
 659:build/openmote-cc2538_armgcc/openstack/03a-IPHC/iphc.c ****     				if (lorh_length == 1){
 1700              		.loc 1 659 0
 1701 0ad8 97F84130 		ldrb	r3, [r7, #65]	@ zero_extendqisi2
 1702 0adc 012B     		cmp	r3, #1
 1703 0ade 15D1     		bne	.L110
 660:build/openmote-cc2538_armgcc/openstack/03a-IPHC/iphc.c ****     					// source address is root
 661:build/openmote-cc2538_armgcc/openstack/03a-IPHC/iphc.c ****     					memset(&(ipv6_outer_header->src),0,sizeof(open_addr_t));
 1704              		.loc 1 661 0
 1705 0ae0 BB68     		ldr	r3, [r7, #8]
 1706 0ae2 1E33     		adds	r3, r3, #30
 1707 0ae4 1846     		mov	r0, r3
 1708 0ae6 0021     		movs	r1, #0
 1709 0ae8 1122     		movs	r2, #17
 1710 0aea FFF7FEFF 		bl	memset
 662:build/openmote-cc2538_armgcc/openstack/03a-IPHC/iphc.c ****     					packetfunctions_mac64bToIp128b(idmanager_getMyID(ADDR_PREFIX),(open_addr_t*)dagroot_mac64b
 1711              		.loc 1 662 0
 1712 0aee 0520     		movs	r0, #5
 1713 0af0 FFF7FEFF 		bl	idmanager_getMyID
 1714 0af4 0246     		mov	r2, r0
 1715 0af6 BB68     		ldr	r3, [r7, #8]
 1716 0af8 1E33     		adds	r3, r3, #30
 1717 0afa 1046     		mov	r0, r2
 1718 0afc 40F20001 		movw	r1, #:lower16:dagroot_mac64b
 1719 0b00 C0F20001 		movt	r1, #:upper16:dagroot_mac64b
 1720 0b04 1A46     		mov	r2, r3
 1721 0b06 FFF7FEFF 		bl	packetfunctions_mac64bToIp128b
 1722 0b0a 76E0     		b	.L115
 1723              	.L110:
 663:build/openmote-cc2538_armgcc/openstack/03a-IPHC/iphc.c ****     					// destination address is the first address in RH3 6LoRH OR dest adress in IPHC
 664:build/openmote-cc2538_armgcc/openstack/03a-IPHC/iphc.c ****     				} else{
 665:build/openmote-cc2538_armgcc/openstack/03a-IPHC/iphc.c ****     					switch(lorh_length-1){
 1724              		.loc 1 665 0
 1725 0b0c 97F84130 		ldrb	r3, [r7, #65]	@ zero_extendqisi2
 1726 0b10 013B     		subs	r3, r3, #1
 1727 0b12 082B     		cmp	r3, #8
 1728 0b14 1FD0     		beq	.L113
 1729 0b16 102B     		cmp	r3, #16
 1730 0b18 48D1     		bne	.L117
 666:build/openmote-cc2538_armgcc/openstack/03a-IPHC/iphc.c ****     					case 16:
 667:build/openmote-cc2538_armgcc/openstack/03a-IPHC/iphc.c ****     						// this is source address
 668:build/openmote-cc2538_armgcc/openstack/03a-IPHC/iphc.c ****     						packetfunctions_readAddress(((uint8_t*)(msg->payload+ipv6_outer_header->header_length+*pa
 1731              		.loc 1 668 0
 1732 0b1a FB68     		ldr	r3, [r7, #12]
 1733 0b1c 5A68     		ldr	r2, [r3, #4]
 1734 0b1e BB68     		ldr	r3, [r7, #8]
 1735 0b20 93F84030 		ldrb	r3, [r3, #64]	@ zero_extendqisi2
 1736 0b24 1946     		mov	r1, r3
 1737 0b26 3B68     		ldr	r3, [r7]
 1738 0b28 1B78     		ldrb	r3, [r3]	@ zero_extendqisi2
 1739 0b2a 1944     		add	r1, r1, r3
 1740 0b2c 97F84530 		ldrb	r3, [r7, #69]	@ zero_extendqisi2
 1741 0b30 0B44     		add	r3, r3, r1
 1742 0b32 1A44     		add	r2, r2, r3
 1743 0b34 BB68     		ldr	r3, [r7, #8]
 1744 0b36 1E33     		adds	r3, r3, #30
 1745 0b38 1046     		mov	r0, r2
 1746 0b3a 0321     		movs	r1, #3
 1747 0b3c 1A46     		mov	r2, r3
 1748 0b3e 0023     		movs	r3, #0
 1749 0b40 FFF7FEFF 		bl	packetfunctions_readAddress
 669:build/openmote-cc2538_armgcc/openstack/03a-IPHC/iphc.c ****     						ipv6_outer_header->header_length += 16*sizeof(uint8_t);
 1750              		.loc 1 669 0
 1751 0b44 BB68     		ldr	r3, [r7, #8]
 1752 0b46 93F84030 		ldrb	r3, [r3, #64]	@ zero_extendqisi2
 1753 0b4a 1033     		adds	r3, r3, #16
 1754 0b4c DAB2     		uxtb	r2, r3
 1755 0b4e BB68     		ldr	r3, [r7, #8]
 1756 0b50 83F84020 		strb	r2, [r3, #64]
 670:build/openmote-cc2538_armgcc/openstack/03a-IPHC/iphc.c ****     						break;
 1757              		.loc 1 670 0
 1758 0b54 35E0     		b	.L111
 1759              	.L113:
 671:build/openmote-cc2538_armgcc/openstack/03a-IPHC/iphc.c ****     					case 8:
 672:build/openmote-cc2538_armgcc/openstack/03a-IPHC/iphc.c ****     						// this is source address
 673:build/openmote-cc2538_armgcc/openstack/03a-IPHC/iphc.c ****     						packetfunctions_readAddress(((uint8_t*)(msg->payload+ipv6_outer_header->header_length+*pa
 1760              		.loc 1 673 0
 1761 0b56 FB68     		ldr	r3, [r7, #12]
 1762 0b58 5A68     		ldr	r2, [r3, #4]
 1763 0b5a BB68     		ldr	r3, [r7, #8]
 1764 0b5c 93F84030 		ldrb	r3, [r3, #64]	@ zero_extendqisi2
 1765 0b60 1946     		mov	r1, r3
 1766 0b62 3B68     		ldr	r3, [r7]
 1767 0b64 1B78     		ldrb	r3, [r3]	@ zero_extendqisi2
 1768 0b66 1944     		add	r1, r1, r3
 1769 0b68 97F84530 		ldrb	r3, [r7, #69]	@ zero_extendqisi2
 1770 0b6c 0B44     		add	r3, r3, r1
 1771 0b6e 1A44     		add	r2, r2, r3
 1772 0b70 07F11C03 		add	r3, r7, #28
 1773 0b74 1046     		mov	r0, r2
 1774 0b76 0221     		movs	r1, #2
 1775 0b78 1A46     		mov	r2, r3
 1776 0b7a 0023     		movs	r3, #0
 1777 0b7c FFF7FEFF 		bl	packetfunctions_readAddress
 674:build/openmote-cc2538_armgcc/openstack/03a-IPHC/iphc.c ****     						ipv6_outer_header->header_length += 8*sizeof(uint8_t);
 1778              		.loc 1 674 0
 1779 0b80 BB68     		ldr	r3, [r7, #8]
 1780 0b82 93F84030 		ldrb	r3, [r3, #64]	@ zero_extendqisi2
 1781 0b86 0833     		adds	r3, r3, #8
 1782 0b88 DAB2     		uxtb	r2, r3
 1783 0b8a BB68     		ldr	r3, [r7, #8]
 1784 0b8c 83F84020 		strb	r2, [r3, #64]
 675:build/openmote-cc2538_armgcc/openstack/03a-IPHC/iphc.c ****     						packetfunctions_mac64bToIp128b(idmanager_getMyID(ADDR_PREFIX),&temp_addr_64b,&ipv6_outer_
 1785              		.loc 1 675 0
 1786 0b90 0520     		movs	r0, #5
 1787 0b92 FFF7FEFF 		bl	idmanager_getMyID
 1788 0b96 0146     		mov	r1, r0
 1789 0b98 BB68     		ldr	r3, [r7, #8]
 1790 0b9a 1E33     		adds	r3, r3, #30
 1791 0b9c 07F11C02 		add	r2, r7, #28
 1792 0ba0 0846     		mov	r0, r1
 1793 0ba2 1146     		mov	r1, r2
 1794 0ba4 1A46     		mov	r2, r3
 1795 0ba6 FFF7FEFF 		bl	packetfunctions_mac64bToIp128b
 676:build/openmote-cc2538_armgcc/openstack/03a-IPHC/iphc.c ****     						break;
 1796              		.loc 1 676 0
 1797 0baa 0AE0     		b	.L111
 1798              	.L117:
 677:build/openmote-cc2538_armgcc/openstack/03a-IPHC/iphc.c ****     					default:
 678:build/openmote-cc2538_armgcc/openstack/03a-IPHC/iphc.c ****     						// do not support other length yet and destination address will be in RH3 or IPHC
 679:build/openmote-cc2538_armgcc/openstack/03a-IPHC/iphc.c ****     						openserial_printError(
 1799              		.loc 1 679 0
 1800 0bac 97F84130 		ldrb	r3, [r7, #65]	@ zero_extendqisi2
 1801 0bb0 9BB2     		uxth	r3, r3
 1802 0bb2 013B     		subs	r3, r3, #1
 1803 0bb4 9BB2     		uxth	r3, r3
 1804 0bb6 1120     		movs	r0, #17
 1805 0bb8 0C21     		movs	r1, #12
 1806 0bba 0C22     		movs	r2, #12
 1807 0bbc FFF7FEFF 		bl	openserial_printError
 1808 0bc0 1BE0     		b	.L115
 1809              	.L111:
 1810 0bc2 1AE0     		b	.L115
 1811              	.L109:
 680:build/openmote-cc2538_armgcc/openstack/03a-IPHC/iphc.c ****     								COMPONENT_IPHC,
 681:build/openmote-cc2538_armgcc/openstack/03a-IPHC/iphc.c **** 									ERR_6LOWPAN_UNSUPPORTED,
 682:build/openmote-cc2538_armgcc/openstack/03a-IPHC/iphc.c **** 									(errorparameter_t)12,
 683:build/openmote-cc2538_armgcc/openstack/03a-IPHC/iphc.c **** 									(errorparameter_t)(lorh_length-1)
 684:build/openmote-cc2538_armgcc/openstack/03a-IPHC/iphc.c ****     						);
 685:build/openmote-cc2538_armgcc/openstack/03a-IPHC/iphc.c ****     					}
 686:build/openmote-cc2538_armgcc/openstack/03a-IPHC/iphc.c ****     				}
 687:build/openmote-cc2538_armgcc/openstack/03a-IPHC/iphc.c ****     			} else {
 688:build/openmote-cc2538_armgcc/openstack/03a-IPHC/iphc.c ****     				//unknown elective packet, print error and skip it
 689:build/openmote-cc2538_armgcc/openstack/03a-IPHC/iphc.c ****     				openserial_printError(
 1812              		.loc 1 689 0
 1813 0bc4 97F84430 		ldrb	r3, [r7, #68]	@ zero_extendqisi2
 1814 0bc8 9BB2     		uxth	r3, r3
 1815 0bca 1120     		movs	r0, #17
 1816 0bcc 0C21     		movs	r1, #12
 1817 0bce 0D22     		movs	r2, #13
 1818 0bd0 FFF7FEFF 		bl	openserial_printError
 690:build/openmote-cc2538_armgcc/openstack/03a-IPHC/iphc.c ****     						COMPONENT_IPHC,
 691:build/openmote-cc2538_armgcc/openstack/03a-IPHC/iphc.c ****     				        ERR_6LOWPAN_UNSUPPORTED,
 692:build/openmote-cc2538_armgcc/openstack/03a-IPHC/iphc.c ****     				        (errorparameter_t)13,
 693:build/openmote-cc2538_armgcc/openstack/03a-IPHC/iphc.c ****     				        (errorparameter_t)(rh3_index)
 694:build/openmote-cc2538_armgcc/openstack/03a-IPHC/iphc.c ****     				);
 695:build/openmote-cc2538_armgcc/openstack/03a-IPHC/iphc.c ****     				extention_header_length += 2 + lorh_length;
 1819              		.loc 1 695 0
 1820 0bd4 97F84120 		ldrb	r2, [r7, #65]
 1821 0bd8 97F84530 		ldrb	r3, [r7, #69]
 1822 0bdc 1344     		add	r3, r3, r2
 1823 0bde DBB2     		uxtb	r3, r3
 1824 0be0 0233     		adds	r3, r3, #2
 1825 0be2 87F84530 		strb	r3, [r7, #69]
 696:build/openmote-cc2538_armgcc/openstack/03a-IPHC/iphc.c ****     				ipv6_outer_header->rhe_length += 2 + lorh_length;
 1826              		.loc 1 696 0
 1827 0be6 BB68     		ldr	r3, [r7, #8]
 1828 0be8 5A7F     		ldrb	r2, [r3, #29]	@ zero_extendqisi2
 1829 0bea 97F84130 		ldrb	r3, [r7, #65]
 1830 0bee 1344     		add	r3, r3, r2
 1831 0bf0 DBB2     		uxtb	r3, r3
 1832 0bf2 0233     		adds	r3, r3, #2
 1833 0bf4 DAB2     		uxtb	r2, r3
 1834 0bf6 BB68     		ldr	r3, [r7, #8]
 1835 0bf8 5A77     		strb	r2, [r3, #29]
 1836              	.L115:
 697:build/openmote-cc2538_armgcc/openstack/03a-IPHC/iphc.c ****     			}
 698:build/openmote-cc2538_armgcc/openstack/03a-IPHC/iphc.c ****    				temp_8b = *(uint8_t*)((msg->payload) + \
 1837              		.loc 1 698 0
 1838 0bfa FB68     		ldr	r3, [r7, #12]
 1839 0bfc 5A68     		ldr	r2, [r3, #4]
 699:build/openmote-cc2538_armgcc/openstack/03a-IPHC/iphc.c ****     				    *page_length + \
 1840              		.loc 1 699 0
 1841 0bfe 3B68     		ldr	r3, [r7]
 1842 0c00 1B78     		ldrb	r3, [r3]	@ zero_extendqisi2
 1843 0c02 1946     		mov	r1, r3
 1844 0c04 97F84530 		ldrb	r3, [r7, #69]	@ zero_extendqisi2
 1845 0c08 1944     		add	r1, r1, r3
 700:build/openmote-cc2538_armgcc/openstack/03a-IPHC/iphc.c ****     					extention_header_length +\
 701:build/openmote-cc2538_armgcc/openstack/03a-IPHC/iphc.c **** 						ipv6_outer_header->header_length);
 1846              		.loc 1 701 0
 1847 0c0a BB68     		ldr	r3, [r7, #8]
 1848 0c0c 93F84030 		ldrb	r3, [r3, #64]	@ zero_extendqisi2
 700:build/openmote-cc2538_armgcc/openstack/03a-IPHC/iphc.c ****     					extention_header_length +\
 1849              		.loc 1 700 0
 1850 0c10 0B44     		add	r3, r3, r1
 698:build/openmote-cc2538_armgcc/openstack/03a-IPHC/iphc.c ****     				    *page_length + \
 1851              		.loc 1 698 0
 1852 0c12 1344     		add	r3, r3, r2
 1853 0c14 1B78     		ldrb	r3, [r3]
 1854 0c16 87F84730 		strb	r3, [r7, #71]
 702:build/openmote-cc2538_armgcc/openstack/03a-IPHC/iphc.c ****     			break;
 1855              		.loc 1 702 0
 1856 0c1a 00BF     		nop
 1857              	.L86:
 565:build/openmote-cc2538_armgcc/openstack/03a-IPHC/iphc.c ****     		switch (temp_8b&FORMAT_6LORH_MASK) {
 1858              		.loc 1 565 0 discriminator 1
 1859 0c1c 97F84730 		ldrb	r3, [r7, #71]	@ zero_extendqisi2
 1860 0c20 03F0E003 		and	r3, r3, #224
 1861 0c24 802B     		cmp	r3, #128
 1862 0c26 3FF409AE 		beq	.L116
 565:build/openmote-cc2538_armgcc/openstack/03a-IPHC/iphc.c ****     		switch (temp_8b&FORMAT_6LORH_MASK) {
 1863              		.loc 1 565 0 is_stmt 0 discriminator 2
 1864 0c2a 97F84730 		ldrb	r3, [r7, #71]	@ zero_extendqisi2
 1865 0c2e 03F0E003 		and	r3, r3, #224
 1866 0c32 A02B     		cmp	r3, #160
 1867 0c34 3FF402AE 		beq	.L116
 1868              	.L85:
 703:build/openmote-cc2538_armgcc/openstack/03a-IPHC/iphc.c ****     		}
 704:build/openmote-cc2538_armgcc/openstack/03a-IPHC/iphc.c ****     	}
 705:build/openmote-cc2538_armgcc/openstack/03a-IPHC/iphc.c ****     }
 706:build/openmote-cc2538_armgcc/openstack/03a-IPHC/iphc.c **** 
 707:build/openmote-cc2538_armgcc/openstack/03a-IPHC/iphc.c ****     //======================= 4. IPHC inner header =============================
 708:build/openmote-cc2538_armgcc/openstack/03a-IPHC/iphc.c ****     iphc_retrieveIphcHeader(
 709:build/openmote-cc2538_armgcc/openstack/03a-IPHC/iphc.c ****         &temp_addr_16b, 
 710:build/openmote-cc2538_armgcc/openstack/03a-IPHC/iphc.c ****         &temp_addr_64b,
 711:build/openmote-cc2538_armgcc/openstack/03a-IPHC/iphc.c ****         &dispatch,
 712:build/openmote-cc2538_armgcc/openstack/03a-IPHC/iphc.c ****         &tf,
 713:build/openmote-cc2538_armgcc/openstack/03a-IPHC/iphc.c ****         &nh,
 714:build/openmote-cc2538_armgcc/openstack/03a-IPHC/iphc.c ****         &hlim,
 715:build/openmote-cc2538_armgcc/openstack/03a-IPHC/iphc.c ****         &sam,
 716:build/openmote-cc2538_armgcc/openstack/03a-IPHC/iphc.c ****         &m,
 717:build/openmote-cc2538_armgcc/openstack/03a-IPHC/iphc.c ****         &dam,
 718:build/openmote-cc2538_armgcc/openstack/03a-IPHC/iphc.c ****         msg,
 719:build/openmote-cc2538_armgcc/openstack/03a-IPHC/iphc.c ****         ipv6_inner_header,
 720:build/openmote-cc2538_armgcc/openstack/03a-IPHC/iphc.c ****         extention_header_length + ipv6_outer_header->header_length + *page_length
 1869              		.loc 1 720 0 is_stmt 1
 1870 0c38 BB68     		ldr	r3, [r7, #8]
 1871 0c3a 93F84020 		ldrb	r2, [r3, #64]	@ zero_extendqisi2
 708:build/openmote-cc2538_armgcc/openstack/03a-IPHC/iphc.c ****         &temp_addr_16b, 
 1872              		.loc 1 708 0
 1873 0c3e 97F84530 		ldrb	r3, [r7, #69]
 1874 0c42 1344     		add	r3, r3, r2
 1875 0c44 DAB2     		uxtb	r2, r3
 1876              		.loc 1 720 0
 1877 0c46 3B68     		ldr	r3, [r7]
 1878 0c48 1B78     		ldrb	r3, [r3]	@ zero_extendqisi2
 708:build/openmote-cc2538_armgcc/openstack/03a-IPHC/iphc.c ****         &temp_addr_16b, 
 1879              		.loc 1 708 0
 1880 0c4a 1344     		add	r3, r3, r2
 1881 0c4c DCB2     		uxtb	r4, r3
 1882 0c4e 07F13000 		add	r0, r7, #48
 1883 0c52 07F11C01 		add	r1, r7, #28
 1884 0c56 07F11B02 		add	r2, r7, #27
 1885 0c5a 07F11A03 		add	r3, r7, #26
 1886 0c5e 07F11905 		add	r5, r7, #25
 1887 0c62 0095     		str	r5, [sp]
 1888 0c64 07F11805 		add	r5, r7, #24
 1889 0c68 0195     		str	r5, [sp, #4]
 1890 0c6a 07F11705 		add	r5, r7, #23
 1891 0c6e 0295     		str	r5, [sp, #8]
 1892 0c70 07F11605 		add	r5, r7, #22
 1893 0c74 0395     		str	r5, [sp, #12]
 1894 0c76 07F11505 		add	r5, r7, #21
 1895 0c7a 0495     		str	r5, [sp, #16]
 1896 0c7c FD68     		ldr	r5, [r7, #12]
 1897 0c7e 0595     		str	r5, [sp, #20]
 1898 0c80 7D68     		ldr	r5, [r7, #4]
 1899 0c82 0695     		str	r5, [sp, #24]
 1900 0c84 0794     		str	r4, [sp, #28]
 1901 0c86 FFF7FEFF 		bl	iphc_retrieveIphcHeader
 1902              	.L82:
 721:build/openmote-cc2538_armgcc/openstack/03a-IPHC/iphc.c ****     );
 722:build/openmote-cc2538_armgcc/openstack/03a-IPHC/iphc.c **** }
 1903              		.loc 1 722 0
 1904 0c8a 4837     		adds	r7, r7, #72
 1905 0c8c BD46     		mov	sp, r7
 1906              		@ sp needed
 1907 0c8e B0BD     		pop	{r4, r5, r7, pc}
 1908              		.cfi_endproc
 1909              	.LFE6:
 1911              		.align	2
 1912              		.global	iphc_retrieveIphcHeader
 1913              		.thumb
 1914              		.thumb_func
 1916              	iphc_retrieveIphcHeader:
 1917              	.LFB7:
 723:build/openmote-cc2538_armgcc/openstack/03a-IPHC/iphc.c **** 
 724:build/openmote-cc2538_armgcc/openstack/03a-IPHC/iphc.c **** uint8_t iphc_retrieveIphcHeader(open_addr_t* temp_addr_16b,
 725:build/openmote-cc2538_armgcc/openstack/03a-IPHC/iphc.c ****     open_addr_t*         temp_addr_64b,
 726:build/openmote-cc2538_armgcc/openstack/03a-IPHC/iphc.c ****     uint8_t*             dispatch,
 727:build/openmote-cc2538_armgcc/openstack/03a-IPHC/iphc.c ****     uint8_t*             tf,
 728:build/openmote-cc2538_armgcc/openstack/03a-IPHC/iphc.c ****     uint8_t*             nh,
 729:build/openmote-cc2538_armgcc/openstack/03a-IPHC/iphc.c ****     uint8_t*             hlim,
 730:build/openmote-cc2538_armgcc/openstack/03a-IPHC/iphc.c ****     uint8_t*             sam,
 731:build/openmote-cc2538_armgcc/openstack/03a-IPHC/iphc.c ****     uint8_t*             m,
 732:build/openmote-cc2538_armgcc/openstack/03a-IPHC/iphc.c ****     uint8_t*             dam,
 733:build/openmote-cc2538_armgcc/openstack/03a-IPHC/iphc.c ****     OpenQueueEntry_t*    msg,
 734:build/openmote-cc2538_armgcc/openstack/03a-IPHC/iphc.c ****     ipv6_header_iht*     ipv6_header,
 735:build/openmote-cc2538_armgcc/openstack/03a-IPHC/iphc.c ****     uint8_t              previousLen){
 1918              		.loc 1 735 0
 1919              		.cfi_startproc
 1920              		@ args = 32, pretend = 0, frame = 24
 1921              		@ frame_needed = 1, uses_anonymous_args = 0
 1922 0c90 B0B5     		push	{r4, r5, r7, lr}
 1923              		.cfi_def_cfa_offset 16
 1924              		.cfi_offset 4, -16
 1925              		.cfi_offset 5, -12
 1926              		.cfi_offset 7, -8
 1927              		.cfi_offset 14, -4
 1928 0c92 86B0     		sub	sp, sp, #24
 1929              		.cfi_def_cfa_offset 40
 1930 0c94 00AF     		add	r7, sp, #0
 1931              		.cfi_def_cfa_register 7
 1932 0c96 F860     		str	r0, [r7, #12]
 1933 0c98 B960     		str	r1, [r7, #8]
 1934 0c9a 7A60     		str	r2, [r7, #4]
 1935 0c9c 3B60     		str	r3, [r7]
 736:build/openmote-cc2538_armgcc/openstack/03a-IPHC/iphc.c ****        
 737:build/openmote-cc2538_armgcc/openstack/03a-IPHC/iphc.c ****     uint8_t page;
 738:build/openmote-cc2538_armgcc/openstack/03a-IPHC/iphc.c ****     uint8_t temp_8b;
 739:build/openmote-cc2538_armgcc/openstack/03a-IPHC/iphc.c ****     uint8_t ipinip_length;
 740:build/openmote-cc2538_armgcc/openstack/03a-IPHC/iphc.c ****     uint8_t lowpan_nhc;
 741:build/openmote-cc2538_armgcc/openstack/03a-IPHC/iphc.c **** 
 742:build/openmote-cc2538_armgcc/openstack/03a-IPHC/iphc.c ****     temp_8b = *((uint8_t*)(msg->payload)+ipv6_header->header_length+previousLen);
 1936              		.loc 1 742 0
 1937 0c9e FB6B     		ldr	r3, [r7, #60]
 1938 0ca0 5A68     		ldr	r2, [r3, #4]
 1939 0ca2 3B6C     		ldr	r3, [r7, #64]
 1940 0ca4 93F84030 		ldrb	r3, [r3, #64]	@ zero_extendqisi2
 1941 0ca8 1946     		mov	r1, r3
 1942 0caa 97F84430 		ldrb	r3, [r7, #68]	@ zero_extendqisi2
 1943 0cae 0B44     		add	r3, r3, r1
 1944 0cb0 1344     		add	r3, r3, r2
 1945 0cb2 1B78     		ldrb	r3, [r3]
 1946 0cb4 BB75     		strb	r3, [r7, #22]
 743:build/openmote-cc2538_armgcc/openstack/03a-IPHC/iphc.c ****     
 744:build/openmote-cc2538_armgcc/openstack/03a-IPHC/iphc.c ****     if ((temp_8b&PAGE_DISPATCH_TAG) == PAGE_DISPATCH_TAG){
 1947              		.loc 1 744 0
 1948 0cb6 BB7D     		ldrb	r3, [r7, #22]	@ zero_extendqisi2
 1949 0cb8 03F0F003 		and	r3, r3, #240
 1950 0cbc F02B     		cmp	r3, #240
 1951 0cbe 0CD1     		bne	.L119
 745:build/openmote-cc2538_armgcc/openstack/03a-IPHC/iphc.c ****         page = temp_8b&PAGE_DISPATCH_NUM; 
 1952              		.loc 1 745 0
 1953 0cc0 BB7D     		ldrb	r3, [r7, #22]
 1954 0cc2 03F00F03 		and	r3, r3, #15
 1955 0cc6 FB75     		strb	r3, [r7, #23]
 746:build/openmote-cc2538_armgcc/openstack/03a-IPHC/iphc.c ****         ipv6_header->header_length += sizeof(uint8_t);
 1956              		.loc 1 746 0
 1957 0cc8 3B6C     		ldr	r3, [r7, #64]
 1958 0cca 93F84030 		ldrb	r3, [r3, #64]	@ zero_extendqisi2
 1959 0cce 0133     		adds	r3, r3, #1
 1960 0cd0 DAB2     		uxtb	r2, r3
 1961 0cd2 3B6C     		ldr	r3, [r7, #64]
 1962 0cd4 83F84020 		strb	r2, [r3, #64]
 1963 0cd8 01E0     		b	.L120
 1964              	.L119:
 747:build/openmote-cc2538_armgcc/openstack/03a-IPHC/iphc.c ****     } else {
 748:build/openmote-cc2538_armgcc/openstack/03a-IPHC/iphc.c ****         page = 0;
 1965              		.loc 1 748 0
 1966 0cda 0023     		movs	r3, #0
 1967 0cdc FB75     		strb	r3, [r7, #23]
 1968              	.L120:
 749:build/openmote-cc2538_armgcc/openstack/03a-IPHC/iphc.c ****     }
 750:build/openmote-cc2538_armgcc/openstack/03a-IPHC/iphc.c ****     
 751:build/openmote-cc2538_armgcc/openstack/03a-IPHC/iphc.c ****     if (
 1969              		.loc 1 751 0
 1970 0cde FB7D     		ldrb	r3, [r7, #23]	@ zero_extendqisi2
 1971 0ce0 002B     		cmp	r3, #0
 1972 0ce2 13D0     		beq	.L121
 752:build/openmote-cc2538_armgcc/openstack/03a-IPHC/iphc.c ****         page==0 ||
 1973              		.loc 1 752 0
 1974 0ce4 FB7D     		ldrb	r3, [r7, #23]	@ zero_extendqisi2
 1975 0ce6 012B     		cmp	r3, #1
 1976 0ce8 40F0BA82 		bne	.L122
 753:build/openmote-cc2538_armgcc/openstack/03a-IPHC/iphc.c ****         (page==1 && (*((uint8_t*)(msg->payload)+ipv6_header->header_length+previousLen) & 0xC0) != 
 1977              		.loc 1 753 0
 1978 0cec FB6B     		ldr	r3, [r7, #60]
 1979 0cee 5A68     		ldr	r2, [r3, #4]
 1980 0cf0 3B6C     		ldr	r3, [r7, #64]
 1981 0cf2 93F84030 		ldrb	r3, [r3, #64]	@ zero_extendqisi2
 1982 0cf6 1946     		mov	r1, r3
 1983 0cf8 97F84430 		ldrb	r3, [r7, #68]	@ zero_extendqisi2
 1984 0cfc 0B44     		add	r3, r3, r1
 1985 0cfe 1344     		add	r3, r3, r2
 1986 0d00 1B78     		ldrb	r3, [r3]	@ zero_extendqisi2
 1987 0d02 03F0C003 		and	r3, r3, #192
 1988 0d06 802B     		cmp	r3, #128
 1989 0d08 00F0AA82 		beq	.L122
 1990              	.L121:
 754:build/openmote-cc2538_armgcc/openstack/03a-IPHC/iphc.c ****     ){
 755:build/openmote-cc2538_armgcc/openstack/03a-IPHC/iphc.c ****         // header
 756:build/openmote-cc2538_armgcc/openstack/03a-IPHC/iphc.c ****         temp_8b    = *((uint8_t*)(msg->payload)+ipv6_header->header_length+previousLen);
 1991              		.loc 1 756 0
 1992 0d0c FB6B     		ldr	r3, [r7, #60]
 1993 0d0e 5A68     		ldr	r2, [r3, #4]
 1994 0d10 3B6C     		ldr	r3, [r7, #64]
 1995 0d12 93F84030 		ldrb	r3, [r3, #64]	@ zero_extendqisi2
 1996 0d16 1946     		mov	r1, r3
 1997 0d18 97F84430 		ldrb	r3, [r7, #68]	@ zero_extendqisi2
 1998 0d1c 0B44     		add	r3, r3, r1
 1999 0d1e 1344     		add	r3, r3, r2
 2000 0d20 1B78     		ldrb	r3, [r3]
 2001 0d22 BB75     		strb	r3, [r7, #22]
 757:build/openmote-cc2538_armgcc/openstack/03a-IPHC/iphc.c ****         *dispatch  = (temp_8b >> IPHC_DISPATCH)  & 0x07;   // 3b
 2002              		.loc 1 757 0
 2003 0d24 BB7D     		ldrb	r3, [r7, #22]	@ zero_extendqisi2
 2004 0d26 5B09     		lsrs	r3, r3, #5
 2005 0d28 DAB2     		uxtb	r2, r3
 2006 0d2a 7B68     		ldr	r3, [r7, #4]
 2007 0d2c 1A70     		strb	r2, [r3]
 758:build/openmote-cc2538_armgcc/openstack/03a-IPHC/iphc.c ****         *tf        = (temp_8b >> IPHC_TF)        & 0x03;   // 2b
 2008              		.loc 1 758 0
 2009 0d2e BB7D     		ldrb	r3, [r7, #22]	@ zero_extendqisi2
 2010 0d30 DB08     		lsrs	r3, r3, #3
 2011 0d32 DBB2     		uxtb	r3, r3
 2012 0d34 03F00303 		and	r3, r3, #3
 2013 0d38 DAB2     		uxtb	r2, r3
 2014 0d3a 3B68     		ldr	r3, [r7]
 2015 0d3c 1A70     		strb	r2, [r3]
 759:build/openmote-cc2538_armgcc/openstack/03a-IPHC/iphc.c ****         *nh        = (temp_8b >> IPHC_NH)        & 0x01;   // 1b
 2016              		.loc 1 759 0
 2017 0d3e BB7D     		ldrb	r3, [r7, #22]	@ zero_extendqisi2
 2018 0d40 9B08     		lsrs	r3, r3, #2
 2019 0d42 DBB2     		uxtb	r3, r3
 2020 0d44 03F00103 		and	r3, r3, #1
 2021 0d48 DAB2     		uxtb	r2, r3
 2022 0d4a BB6A     		ldr	r3, [r7, #40]
 2023 0d4c 1A70     		strb	r2, [r3]
 760:build/openmote-cc2538_armgcc/openstack/03a-IPHC/iphc.c ****         *hlim      = (temp_8b >> IPHC_HLIM)      & 0x03;   // 2b
 2024              		.loc 1 760 0
 2025 0d4e BB7D     		ldrb	r3, [r7, #22]
 2026 0d50 03F00303 		and	r3, r3, #3
 2027 0d54 DAB2     		uxtb	r2, r3
 2028 0d56 FB6A     		ldr	r3, [r7, #44]
 2029 0d58 1A70     		strb	r2, [r3]
 761:build/openmote-cc2538_armgcc/openstack/03a-IPHC/iphc.c ****         ipv6_header->header_length += sizeof(uint8_t);
 2030              		.loc 1 761 0
 2031 0d5a 3B6C     		ldr	r3, [r7, #64]
 2032 0d5c 93F84030 		ldrb	r3, [r3, #64]	@ zero_extendqisi2
 2033 0d60 0133     		adds	r3, r3, #1
 2034 0d62 DAB2     		uxtb	r2, r3
 2035 0d64 3B6C     		ldr	r3, [r7, #64]
 2036 0d66 83F84020 		strb	r2, [r3, #64]
 762:build/openmote-cc2538_armgcc/openstack/03a-IPHC/iphc.c ****         temp_8b    = *((uint8_t*)(msg->payload)+ipv6_header->header_length+previousLen);
 2037              		.loc 1 762 0
 2038 0d6a FB6B     		ldr	r3, [r7, #60]
 2039 0d6c 5A68     		ldr	r2, [r3, #4]
 2040 0d6e 3B6C     		ldr	r3, [r7, #64]
 2041 0d70 93F84030 		ldrb	r3, [r3, #64]	@ zero_extendqisi2
 2042 0d74 1946     		mov	r1, r3
 2043 0d76 97F84430 		ldrb	r3, [r7, #68]	@ zero_extendqisi2
 2044 0d7a 0B44     		add	r3, r3, r1
 2045 0d7c 1344     		add	r3, r3, r2
 2046 0d7e 1B78     		ldrb	r3, [r3]
 2047 0d80 BB75     		strb	r3, [r7, #22]
 763:build/openmote-cc2538_armgcc/openstack/03a-IPHC/iphc.c ****        // cid unused
 764:build/openmote-cc2538_armgcc/openstack/03a-IPHC/iphc.c ****        // sac unused
 765:build/openmote-cc2538_armgcc/openstack/03a-IPHC/iphc.c ****        *sam       = (temp_8b >> IPHC_SAM)       & 0x03;   // 2b
 2048              		.loc 1 765 0
 2049 0d82 BB7D     		ldrb	r3, [r7, #22]	@ zero_extendqisi2
 2050 0d84 1B09     		lsrs	r3, r3, #4
 2051 0d86 DBB2     		uxtb	r3, r3
 2052 0d88 03F00303 		and	r3, r3, #3
 2053 0d8c DAB2     		uxtb	r2, r3
 2054 0d8e 3B6B     		ldr	r3, [r7, #48]
 2055 0d90 1A70     		strb	r2, [r3]
 766:build/openmote-cc2538_armgcc/openstack/03a-IPHC/iphc.c ****        // m unused
 767:build/openmote-cc2538_armgcc/openstack/03a-IPHC/iphc.c ****        *m         = (temp_8b >> IPHC_M)         & 0x01;   // 1b
 2056              		.loc 1 767 0
 2057 0d92 BB7D     		ldrb	r3, [r7, #22]	@ zero_extendqisi2
 2058 0d94 DB08     		lsrs	r3, r3, #3
 2059 0d96 DBB2     		uxtb	r3, r3
 2060 0d98 03F00103 		and	r3, r3, #1
 2061 0d9c DAB2     		uxtb	r2, r3
 2062 0d9e 7B6B     		ldr	r3, [r7, #52]
 2063 0da0 1A70     		strb	r2, [r3]
 768:build/openmote-cc2538_armgcc/openstack/03a-IPHC/iphc.c ****        // dac unused
 769:build/openmote-cc2538_armgcc/openstack/03a-IPHC/iphc.c ****        *dam       = (temp_8b >> IPHC_DAM)       & 0x03;   // 2b
 2064              		.loc 1 769 0
 2065 0da2 BB7D     		ldrb	r3, [r7, #22]
 2066 0da4 03F00303 		and	r3, r3, #3
 2067 0da8 DAB2     		uxtb	r2, r3
 2068 0daa BB6B     		ldr	r3, [r7, #56]
 2069 0dac 1A70     		strb	r2, [r3]
 770:build/openmote-cc2538_armgcc/openstack/03a-IPHC/iphc.c ****        ipv6_header->header_length += sizeof(uint8_t);
 2070              		.loc 1 770 0
 2071 0dae 3B6C     		ldr	r3, [r7, #64]
 2072 0db0 93F84030 		ldrb	r3, [r3, #64]	@ zero_extendqisi2
 2073 0db4 0133     		adds	r3, r3, #1
 2074 0db6 DAB2     		uxtb	r2, r3
 2075 0db8 3B6C     		ldr	r3, [r7, #64]
 2076 0dba 83F84020 		strb	r2, [r3, #64]
 771:build/openmote-cc2538_armgcc/openstack/03a-IPHC/iphc.c ****        
 772:build/openmote-cc2538_armgcc/openstack/03a-IPHC/iphc.c ****        // dispatch
 773:build/openmote-cc2538_armgcc/openstack/03a-IPHC/iphc.c ****        switch (*dispatch) {
 2077              		.loc 1 773 0
 2078 0dbe 7B68     		ldr	r3, [r7, #4]
 2079 0dc0 1B78     		ldrb	r3, [r3]	@ zero_extendqisi2
 2080 0dc2 032B     		cmp	r3, #3
 2081 0dc4 07D0     		beq	.L174
 774:build/openmote-cc2538_armgcc/openstack/03a-IPHC/iphc.c ****           case IPHC_DISPATCH_IPHC:
 775:build/openmote-cc2538_armgcc/openstack/03a-IPHC/iphc.c ****              break;
 776:build/openmote-cc2538_armgcc/openstack/03a-IPHC/iphc.c ****           default:
 777:build/openmote-cc2538_armgcc/openstack/03a-IPHC/iphc.c ****              openserial_printError(
 778:build/openmote-cc2538_armgcc/openstack/03a-IPHC/iphc.c ****                 COMPONENT_IPHC,
 779:build/openmote-cc2538_armgcc/openstack/03a-IPHC/iphc.c ****                 ERR_6LOWPAN_UNSUPPORTED,
 780:build/openmote-cc2538_armgcc/openstack/03a-IPHC/iphc.c ****                 (errorparameter_t)5,
 781:build/openmote-cc2538_armgcc/openstack/03a-IPHC/iphc.c ****                 (errorparameter_t)(*dispatch)
 2082              		.loc 1 781 0
 2083 0dc6 7B68     		ldr	r3, [r7, #4]
 2084 0dc8 1B78     		ldrb	r3, [r3]	@ zero_extendqisi2
 777:build/openmote-cc2538_armgcc/openstack/03a-IPHC/iphc.c ****                 COMPONENT_IPHC,
 2085              		.loc 1 777 0
 2086 0dca 1120     		movs	r0, #17
 2087 0dcc 0C21     		movs	r1, #12
 2088 0dce 0522     		movs	r2, #5
 2089 0dd0 FFF7FEFF 		bl	openserial_printError
 782:build/openmote-cc2538_armgcc/openstack/03a-IPHC/iphc.c ****              );
 783:build/openmote-cc2538_armgcc/openstack/03a-IPHC/iphc.c ****              break;
 2090              		.loc 1 783 0
 2091 0dd4 00E0     		b	.L125
 2092              	.L174:
 775:build/openmote-cc2538_armgcc/openstack/03a-IPHC/iphc.c ****           default:
 2093              		.loc 1 775 0
 2094 0dd6 00BF     		nop
 2095              	.L125:
 784:build/openmote-cc2538_armgcc/openstack/03a-IPHC/iphc.c ****        }
 785:build/openmote-cc2538_armgcc/openstack/03a-IPHC/iphc.c ****        
 786:build/openmote-cc2538_armgcc/openstack/03a-IPHC/iphc.c ****        // flowlabel
 787:build/openmote-cc2538_armgcc/openstack/03a-IPHC/iphc.c ****        switch (*tf) {
 2096              		.loc 1 787 0
 2097 0dd8 3B68     		ldr	r3, [r7]
 2098 0dda 1B78     		ldrb	r3, [r3]	@ zero_extendqisi2
 2099 0ddc 012B     		cmp	r3, #1
 2100 0dde 02D0     		beq	.L127
 2101 0de0 032B     		cmp	r3, #3
 2102 0de2 4ED0     		beq	.L128
 2103 0de4 51E0     		b	.L171
 2104              	.L127:
 788:build/openmote-cc2538_armgcc/openstack/03a-IPHC/iphc.c ****           case IPHC_TF_3B:
 789:build/openmote-cc2538_armgcc/openstack/03a-IPHC/iphc.c **** 
 790:build/openmote-cc2538_armgcc/openstack/03a-IPHC/iphc.c ****              ipv6_header->flow_label        = 0;
 2105              		.loc 1 790 0
 2106 0de6 3B6C     		ldr	r3, [r7, #64]
 2107 0de8 0022     		movs	r2, #0
 2108 0dea 5A60     		str	r2, [r3, #4]
 791:build/openmote-cc2538_armgcc/openstack/03a-IPHC/iphc.c ****              ipv6_header->flow_label       |= ((uint32_t) *((uint8_t*)(msg->payload)+ipv6_header->h
 2109              		.loc 1 791 0
 2110 0dec 3B6C     		ldr	r3, [r7, #64]
 2111 0dee 5A68     		ldr	r2, [r3, #4]
 2112 0df0 FB6B     		ldr	r3, [r7, #60]
 2113 0df2 5968     		ldr	r1, [r3, #4]
 2114 0df4 3B6C     		ldr	r3, [r7, #64]
 2115 0df6 93F84030 		ldrb	r3, [r3, #64]	@ zero_extendqisi2
 2116 0dfa 1846     		mov	r0, r3
 2117 0dfc 97F84430 		ldrb	r3, [r7, #68]	@ zero_extendqisi2
 2118 0e00 0344     		add	r3, r3, r0
 2119 0e02 0B44     		add	r3, r3, r1
 2120 0e04 1B78     		ldrb	r3, [r3]	@ zero_extendqisi2
 2121 0e06 1A43     		orrs	r2, r2, r3
 2122 0e08 3B6C     		ldr	r3, [r7, #64]
 2123 0e0a 5A60     		str	r2, [r3, #4]
 792:build/openmote-cc2538_armgcc/openstack/03a-IPHC/iphc.c ****              ipv6_header->header_length    += sizeof(uint8_t);
 2124              		.loc 1 792 0
 2125 0e0c 3B6C     		ldr	r3, [r7, #64]
 2126 0e0e 93F84030 		ldrb	r3, [r3, #64]	@ zero_extendqisi2
 2127 0e12 0133     		adds	r3, r3, #1
 2128 0e14 DAB2     		uxtb	r2, r3
 2129 0e16 3B6C     		ldr	r3, [r7, #64]
 2130 0e18 83F84020 		strb	r2, [r3, #64]
 793:build/openmote-cc2538_armgcc/openstack/03a-IPHC/iphc.c ****              ipv6_header->flow_label       |= ((uint32_t) *((uint8_t*)(msg->payload)+ipv6_header->h
 2131              		.loc 1 793 0
 2132 0e1c 3B6C     		ldr	r3, [r7, #64]
 2133 0e1e 5A68     		ldr	r2, [r3, #4]
 2134 0e20 FB6B     		ldr	r3, [r7, #60]
 2135 0e22 5968     		ldr	r1, [r3, #4]
 2136 0e24 3B6C     		ldr	r3, [r7, #64]
 2137 0e26 93F84030 		ldrb	r3, [r3, #64]	@ zero_extendqisi2
 2138 0e2a 1846     		mov	r0, r3
 2139 0e2c 97F84430 		ldrb	r3, [r7, #68]	@ zero_extendqisi2
 2140 0e30 0344     		add	r3, r3, r0
 2141 0e32 0B44     		add	r3, r3, r1
 2142 0e34 1B78     		ldrb	r3, [r3]	@ zero_extendqisi2
 2143 0e36 1B02     		lsls	r3, r3, #8
 2144 0e38 1A43     		orrs	r2, r2, r3
 2145 0e3a 3B6C     		ldr	r3, [r7, #64]
 2146 0e3c 5A60     		str	r2, [r3, #4]
 794:build/openmote-cc2538_armgcc/openstack/03a-IPHC/iphc.c ****              ipv6_header->header_length    += sizeof(uint8_t);
 2147              		.loc 1 794 0
 2148 0e3e 3B6C     		ldr	r3, [r7, #64]
 2149 0e40 93F84030 		ldrb	r3, [r3, #64]	@ zero_extendqisi2
 2150 0e44 0133     		adds	r3, r3, #1
 2151 0e46 DAB2     		uxtb	r2, r3
 2152 0e48 3B6C     		ldr	r3, [r7, #64]
 2153 0e4a 83F84020 		strb	r2, [r3, #64]
 795:build/openmote-cc2538_armgcc/openstack/03a-IPHC/iphc.c ****              ipv6_header->flow_label       |= ((uint32_t) *((uint8_t*)(msg->payload)+ipv6_header->h
 2154              		.loc 1 795 0
 2155 0e4e 3B6C     		ldr	r3, [r7, #64]
 2156 0e50 5A68     		ldr	r2, [r3, #4]
 2157 0e52 FB6B     		ldr	r3, [r7, #60]
 2158 0e54 5968     		ldr	r1, [r3, #4]
 2159 0e56 3B6C     		ldr	r3, [r7, #64]
 2160 0e58 93F84030 		ldrb	r3, [r3, #64]	@ zero_extendqisi2
 2161 0e5c 1846     		mov	r0, r3
 2162 0e5e 97F84430 		ldrb	r3, [r7, #68]	@ zero_extendqisi2
 2163 0e62 0344     		add	r3, r3, r0
 2164 0e64 0B44     		add	r3, r3, r1
 2165 0e66 1B78     		ldrb	r3, [r3]	@ zero_extendqisi2
 2166 0e68 1B04     		lsls	r3, r3, #16
 2167 0e6a 1A43     		orrs	r2, r2, r3
 2168 0e6c 3B6C     		ldr	r3, [r7, #64]
 2169 0e6e 5A60     		str	r2, [r3, #4]
 796:build/openmote-cc2538_armgcc/openstack/03a-IPHC/iphc.c ****              ipv6_header->header_length    += sizeof(uint8_t);
 2170              		.loc 1 796 0
 2171 0e70 3B6C     		ldr	r3, [r7, #64]
 2172 0e72 93F84030 		ldrb	r3, [r3, #64]	@ zero_extendqisi2
 2173 0e76 0133     		adds	r3, r3, #1
 2174 0e78 DAB2     		uxtb	r2, r3
 2175 0e7a 3B6C     		ldr	r3, [r7, #64]
 2176 0e7c 83F84020 		strb	r2, [r3, #64]
 797:build/openmote-cc2538_armgcc/openstack/03a-IPHC/iphc.c ****              break;            
 2177              		.loc 1 797 0
 2178 0e80 0BE0     		b	.L129
 2179              	.L128:
 798:build/openmote-cc2538_armgcc/openstack/03a-IPHC/iphc.c ****           case IPHC_TF_ELIDED:
 799:build/openmote-cc2538_armgcc/openstack/03a-IPHC/iphc.c ****              ipv6_header->flow_label        = 0;
 2180              		.loc 1 799 0
 2181 0e82 3B6C     		ldr	r3, [r7, #64]
 2182 0e84 0022     		movs	r2, #0
 2183 0e86 5A60     		str	r2, [r3, #4]
 800:build/openmote-cc2538_armgcc/openstack/03a-IPHC/iphc.c ****              break;
 2184              		.loc 1 800 0
 2185 0e88 07E0     		b	.L129
 2186              	.L171:
 801:build/openmote-cc2538_armgcc/openstack/03a-IPHC/iphc.c ****           case IPHC_TF_4B:
 802:build/openmote-cc2538_armgcc/openstack/03a-IPHC/iphc.c ****              //unsupported
 803:build/openmote-cc2538_armgcc/openstack/03a-IPHC/iphc.c ****           case IPHC_TF_1B:
 804:build/openmote-cc2538_armgcc/openstack/03a-IPHC/iphc.c ****              //unsupported
 805:build/openmote-cc2538_armgcc/openstack/03a-IPHC/iphc.c ****           default:
 806:build/openmote-cc2538_armgcc/openstack/03a-IPHC/iphc.c ****              openserial_printError(
 807:build/openmote-cc2538_armgcc/openstack/03a-IPHC/iphc.c ****                 COMPONENT_IPHC,
 808:build/openmote-cc2538_armgcc/openstack/03a-IPHC/iphc.c ****                 ERR_6LOWPAN_UNSUPPORTED,
 809:build/openmote-cc2538_armgcc/openstack/03a-IPHC/iphc.c ****                 (errorparameter_t)6,
 810:build/openmote-cc2538_armgcc/openstack/03a-IPHC/iphc.c ****                 (errorparameter_t)(*tf)
 2187              		.loc 1 810 0
 2188 0e8a 3B68     		ldr	r3, [r7]
 2189 0e8c 1B78     		ldrb	r3, [r3]	@ zero_extendqisi2
 806:build/openmote-cc2538_armgcc/openstack/03a-IPHC/iphc.c ****                 COMPONENT_IPHC,
 2190              		.loc 1 806 0
 2191 0e8e 1120     		movs	r0, #17
 2192 0e90 0C21     		movs	r1, #12
 2193 0e92 0622     		movs	r2, #6
 2194 0e94 FFF7FEFF 		bl	openserial_printError
 811:build/openmote-cc2538_armgcc/openstack/03a-IPHC/iphc.c ****              );
 812:build/openmote-cc2538_armgcc/openstack/03a-IPHC/iphc.c ****              break;
 2195              		.loc 1 812 0
 2196 0e98 00BF     		nop
 2197              	.L129:
 813:build/openmote-cc2538_armgcc/openstack/03a-IPHC/iphc.c ****        }
 814:build/openmote-cc2538_armgcc/openstack/03a-IPHC/iphc.c ****        
 815:build/openmote-cc2538_armgcc/openstack/03a-IPHC/iphc.c ****        // next header
 816:build/openmote-cc2538_armgcc/openstack/03a-IPHC/iphc.c ****        switch (*nh) {
 2198              		.loc 1 816 0
 2199 0e9a BB6A     		ldr	r3, [r7, #40]
 2200 0e9c 1B78     		ldrb	r3, [r3]	@ zero_extendqisi2
 2201 0e9e 002B     		cmp	r3, #0
 2202 0ea0 02D0     		beq	.L131
 2203 0ea2 012B     		cmp	r3, #1
 2204 0ea4 19D0     		beq	.L132
 2205 0ea6 1CE0     		b	.L172
 2206              	.L131:
 817:build/openmote-cc2538_armgcc/openstack/03a-IPHC/iphc.c ****           case IPHC_NH_INLINE:
 818:build/openmote-cc2538_armgcc/openstack/03a-IPHC/iphc.c ****              // Full 8 bits for Next Header are carried in-line
 819:build/openmote-cc2538_armgcc/openstack/03a-IPHC/iphc.c ****              ipv6_header->next_header_compressed = FALSE;
 2207              		.loc 1 819 0
 2208 0ea8 3B6C     		ldr	r3, [r7, #64]
 2209 0eaa 0022     		movs	r2, #0
 2210 0eac 1A72     		strb	r2, [r3, #8]
 820:build/openmote-cc2538_armgcc/openstack/03a-IPHC/iphc.c ****              ipv6_header->next_header            = *((uint8_t*)(msg->payload)+ipv6_header->header_l
 2211              		.loc 1 820 0
 2212 0eae FB6B     		ldr	r3, [r7, #60]
 2213 0eb0 5A68     		ldr	r2, [r3, #4]
 2214 0eb2 3B6C     		ldr	r3, [r7, #64]
 2215 0eb4 93F84030 		ldrb	r3, [r3, #64]	@ zero_extendqisi2
 2216 0eb8 1946     		mov	r1, r3
 2217 0eba 97F84430 		ldrb	r3, [r7, #68]	@ zero_extendqisi2
 2218 0ebe 0B44     		add	r3, r3, r1
 2219 0ec0 1344     		add	r3, r3, r2
 2220 0ec2 1A78     		ldrb	r2, [r3]	@ zero_extendqisi2
 2221 0ec4 3B6C     		ldr	r3, [r7, #64]
 2222 0ec6 5A72     		strb	r2, [r3, #9]
 821:build/openmote-cc2538_armgcc/openstack/03a-IPHC/iphc.c ****              ipv6_header->header_length         += sizeof(uint8_t);
 2223              		.loc 1 821 0
 2224 0ec8 3B6C     		ldr	r3, [r7, #64]
 2225 0eca 93F84030 		ldrb	r3, [r3, #64]	@ zero_extendqisi2
 2226 0ece 0133     		adds	r3, r3, #1
 2227 0ed0 DAB2     		uxtb	r2, r3
 2228 0ed2 3B6C     		ldr	r3, [r7, #64]
 2229 0ed4 83F84020 		strb	r2, [r3, #64]
 822:build/openmote-cc2538_armgcc/openstack/03a-IPHC/iphc.c ****           
 823:build/openmote-cc2538_armgcc/openstack/03a-IPHC/iphc.c ****              break;
 2230              		.loc 1 823 0
 2231 0ed8 0BE0     		b	.L133
 2232              	.L132:
 824:build/openmote-cc2538_armgcc/openstack/03a-IPHC/iphc.c ****           case IPHC_NH_COMPRESSED:
 825:build/openmote-cc2538_armgcc/openstack/03a-IPHC/iphc.c ****              // the Next header field is compressed and the next header is encoded
 826:build/openmote-cc2538_armgcc/openstack/03a-IPHC/iphc.c ****              // using LOWPAN_NHC, which is discussed in Section 4.1 of RFC6282
 827:build/openmote-cc2538_armgcc/openstack/03a-IPHC/iphc.c ****              // we don't parse anything here, but will look at the (compressed)
 828:build/openmote-cc2538_armgcc/openstack/03a-IPHC/iphc.c ****              // next header after having parsed all address fields.
 829:build/openmote-cc2538_armgcc/openstack/03a-IPHC/iphc.c ****              ipv6_header->next_header_compressed = TRUE;
 2233              		.loc 1 829 0
 2234 0eda 3B6C     		ldr	r3, [r7, #64]
 2235 0edc 0122     		movs	r2, #1
 2236 0ede 1A72     		strb	r2, [r3, #8]
 830:build/openmote-cc2538_armgcc/openstack/03a-IPHC/iphc.c ****              break;
 2237              		.loc 1 830 0
 2238 0ee0 07E0     		b	.L133
 2239              	.L172:
 831:build/openmote-cc2538_armgcc/openstack/03a-IPHC/iphc.c ****           default:
 832:build/openmote-cc2538_armgcc/openstack/03a-IPHC/iphc.c ****              openserial_printError(
 833:build/openmote-cc2538_armgcc/openstack/03a-IPHC/iphc.c ****                 COMPONENT_IPHC,
 834:build/openmote-cc2538_armgcc/openstack/03a-IPHC/iphc.c ****                 ERR_6LOWPAN_UNSUPPORTED,
 835:build/openmote-cc2538_armgcc/openstack/03a-IPHC/iphc.c ****                 (errorparameter_t)7,
 836:build/openmote-cc2538_armgcc/openstack/03a-IPHC/iphc.c ****                 (errorparameter_t)(*nh)
 2240              		.loc 1 836 0
 2241 0ee2 BB6A     		ldr	r3, [r7, #40]
 2242 0ee4 1B78     		ldrb	r3, [r3]	@ zero_extendqisi2
 832:build/openmote-cc2538_armgcc/openstack/03a-IPHC/iphc.c ****                 COMPONENT_IPHC,
 2243              		.loc 1 832 0
 2244 0ee6 1120     		movs	r0, #17
 2245 0ee8 0C21     		movs	r1, #12
 2246 0eea 0722     		movs	r2, #7
 2247 0eec FFF7FEFF 		bl	openserial_printError
 837:build/openmote-cc2538_armgcc/openstack/03a-IPHC/iphc.c ****              );
 838:build/openmote-cc2538_armgcc/openstack/03a-IPHC/iphc.c ****              break;
 2248              		.loc 1 838 0
 2249 0ef0 00BF     		nop
 2250              	.L133:
 839:build/openmote-cc2538_armgcc/openstack/03a-IPHC/iphc.c ****        }
 840:build/openmote-cc2538_armgcc/openstack/03a-IPHC/iphc.c ****        
 841:build/openmote-cc2538_armgcc/openstack/03a-IPHC/iphc.c ****        // hop limit
 842:build/openmote-cc2538_armgcc/openstack/03a-IPHC/iphc.c ****        switch (*hlim) {
 2251              		.loc 1 842 0
 2252 0ef2 FB6A     		ldr	r3, [r7, #44]
 2253 0ef4 1B78     		ldrb	r3, [r3]	@ zero_extendqisi2
 2254 0ef6 032B     		cmp	r3, #3
 2255 0ef8 2CD8     		bhi	.L134
 2256 0efa 01A2     		adr	r2, .L136
 2257 0efc 52F823F0 		ldr	pc, [r2, r3, lsl #2]
 2258              		.p2align 2
 2259              	.L136:
 2260 0f00 110F0000 		.word	.L135+1
 2261 0f04 3D0F0000 		.word	.L137+1
 2262 0f08 450F0000 		.word	.L138+1
 2263 0f0c 4D0F0000 		.word	.L139+1
 2264              	.L135:
 843:build/openmote-cc2538_armgcc/openstack/03a-IPHC/iphc.c ****           case IPHC_HLIM_INLINE:
 844:build/openmote-cc2538_armgcc/openstack/03a-IPHC/iphc.c ****              ipv6_header->hop_limit         = *((uint8_t*)(msg->payload+ipv6_header->header_length+
 2265              		.loc 1 844 0
 2266 0f10 FB6B     		ldr	r3, [r7, #60]
 2267 0f12 5A68     		ldr	r2, [r3, #4]
 2268 0f14 3B6C     		ldr	r3, [r7, #64]
 2269 0f16 93F84030 		ldrb	r3, [r3, #64]	@ zero_extendqisi2
 2270 0f1a 1946     		mov	r1, r3
 2271 0f1c 97F84430 		ldrb	r3, [r7, #68]	@ zero_extendqisi2
 2272 0f20 0B44     		add	r3, r3, r1
 2273 0f22 1344     		add	r3, r3, r2
 2274 0f24 1A78     		ldrb	r2, [r3]	@ zero_extendqisi2
 2275 0f26 3B6C     		ldr	r3, [r7, #64]
 2276 0f28 1A77     		strb	r2, [r3, #28]
 845:build/openmote-cc2538_armgcc/openstack/03a-IPHC/iphc.c ****              ipv6_header->header_length    += sizeof(uint8_t);
 2277              		.loc 1 845 0
 2278 0f2a 3B6C     		ldr	r3, [r7, #64]
 2279 0f2c 93F84030 		ldrb	r3, [r3, #64]	@ zero_extendqisi2
 2280 0f30 0133     		adds	r3, r3, #1
 2281 0f32 DAB2     		uxtb	r2, r3
 2282 0f34 3B6C     		ldr	r3, [r7, #64]
 2283 0f36 83F84020 		strb	r2, [r3, #64]
 846:build/openmote-cc2538_armgcc/openstack/03a-IPHC/iphc.c ****              break;
 2284              		.loc 1 846 0
 2285 0f3a 13E0     		b	.L140
 2286              	.L137:
 847:build/openmote-cc2538_armgcc/openstack/03a-IPHC/iphc.c ****           case IPHC_HLIM_1:
 848:build/openmote-cc2538_armgcc/openstack/03a-IPHC/iphc.c ****              ipv6_header->hop_limit         = 1;
 2287              		.loc 1 848 0
 2288 0f3c 3B6C     		ldr	r3, [r7, #64]
 2289 0f3e 0122     		movs	r2, #1
 2290 0f40 1A77     		strb	r2, [r3, #28]
 849:build/openmote-cc2538_armgcc/openstack/03a-IPHC/iphc.c ****              break;
 2291              		.loc 1 849 0
 2292 0f42 0FE0     		b	.L140
 2293              	.L138:
 850:build/openmote-cc2538_armgcc/openstack/03a-IPHC/iphc.c ****           case IPHC_HLIM_64:
 851:build/openmote-cc2538_armgcc/openstack/03a-IPHC/iphc.c ****              ipv6_header->hop_limit         = 64;
 2294              		.loc 1 851 0
 2295 0f44 3B6C     		ldr	r3, [r7, #64]
 2296 0f46 4022     		movs	r2, #64
 2297 0f48 1A77     		strb	r2, [r3, #28]
 852:build/openmote-cc2538_armgcc/openstack/03a-IPHC/iphc.c ****              break;
 2298              		.loc 1 852 0
 2299 0f4a 0BE0     		b	.L140
 2300              	.L139:
 853:build/openmote-cc2538_armgcc/openstack/03a-IPHC/iphc.c ****           case IPHC_HLIM_255:
 854:build/openmote-cc2538_armgcc/openstack/03a-IPHC/iphc.c ****              ipv6_header->hop_limit         = 255;
 2301              		.loc 1 854 0
 2302 0f4c 3B6C     		ldr	r3, [r7, #64]
 2303 0f4e FF22     		movs	r2, #255
 2304 0f50 1A77     		strb	r2, [r3, #28]
 855:build/openmote-cc2538_armgcc/openstack/03a-IPHC/iphc.c ****              break;
 2305              		.loc 1 855 0
 2306 0f52 07E0     		b	.L140
 2307              	.L134:
 856:build/openmote-cc2538_armgcc/openstack/03a-IPHC/iphc.c ****           default:
 857:build/openmote-cc2538_armgcc/openstack/03a-IPHC/iphc.c ****              openserial_printError(
 858:build/openmote-cc2538_armgcc/openstack/03a-IPHC/iphc.c ****                 COMPONENT_IPHC,
 859:build/openmote-cc2538_armgcc/openstack/03a-IPHC/iphc.c ****                 ERR_6LOWPAN_UNSUPPORTED,
 860:build/openmote-cc2538_armgcc/openstack/03a-IPHC/iphc.c ****                 (errorparameter_t)8,
 861:build/openmote-cc2538_armgcc/openstack/03a-IPHC/iphc.c ****                 (errorparameter_t)(*hlim)
 2308              		.loc 1 861 0
 2309 0f54 FB6A     		ldr	r3, [r7, #44]
 2310 0f56 1B78     		ldrb	r3, [r3]	@ zero_extendqisi2
 857:build/openmote-cc2538_armgcc/openstack/03a-IPHC/iphc.c ****                 COMPONENT_IPHC,
 2311              		.loc 1 857 0
 2312 0f58 1120     		movs	r0, #17
 2313 0f5a 0C21     		movs	r1, #12
 2314 0f5c 0822     		movs	r2, #8
 2315 0f5e FFF7FEFF 		bl	openserial_printError
 862:build/openmote-cc2538_armgcc/openstack/03a-IPHC/iphc.c ****              );
 863:build/openmote-cc2538_armgcc/openstack/03a-IPHC/iphc.c ****              break;
 2316              		.loc 1 863 0
 2317 0f62 00BF     		nop
 2318              	.L140:
 864:build/openmote-cc2538_armgcc/openstack/03a-IPHC/iphc.c ****        }
 865:build/openmote-cc2538_armgcc/openstack/03a-IPHC/iphc.c ****        
 866:build/openmote-cc2538_armgcc/openstack/03a-IPHC/iphc.c ****        // source address
 867:build/openmote-cc2538_armgcc/openstack/03a-IPHC/iphc.c ****        switch (*sam) {
 2319              		.loc 1 867 0
 2320 0f64 3B6B     		ldr	r3, [r7, #48]
 2321 0f66 1B78     		ldrb	r3, [r3]	@ zero_extendqisi2
 2322 0f68 032B     		cmp	r3, #3
 2323 0f6a 00F28180 		bhi	.L141
 2324 0f6e 01A2     		adr	r2, .L143
 2325 0f70 52F823F0 		ldr	pc, [r2, r3, lsl #2]
 2326              		.p2align 2
 2327              	.L143:
 2328 0f74 3B100000 		.word	.L142+1
 2329 0f78 F30F0000 		.word	.L144+1
 2330 0f7c A30F0000 		.word	.L145+1
 2331 0f80 850F0000 		.word	.L146+1
 2332              	.L146:
 868:build/openmote-cc2538_armgcc/openstack/03a-IPHC/iphc.c ****           case IPHC_SAM_ELIDED:
 869:build/openmote-cc2538_armgcc/openstack/03a-IPHC/iphc.c ****              packetfunctions_mac64bToIp128b(idmanager_getMyID(ADDR_PREFIX),&(msg->l2_nextORprevious
 2333              		.loc 1 869 0
 2334 0f84 0520     		movs	r0, #5
 2335 0f86 FFF7FEFF 		bl	idmanager_getMyID
 2336 0f8a 0146     		mov	r1, r0
 2337 0f8c FB6B     		ldr	r3, [r7, #60]
 2338 0f8e 03F13802 		add	r2, r3, #56
 2339 0f92 3B6C     		ldr	r3, [r7, #64]
 2340 0f94 1E33     		adds	r3, r3, #30
 2341 0f96 0846     		mov	r0, r1
 2342 0f98 1146     		mov	r1, r2
 2343 0f9a 1A46     		mov	r2, r3
 2344 0f9c FFF7FEFF 		bl	packetfunctions_mac64bToIp128b
 870:build/openmote-cc2538_armgcc/openstack/03a-IPHC/iphc.c ****              break;
 2345              		.loc 1 870 0
 2346 0fa0 6EE0     		b	.L147
 2347              	.L145:
 871:build/openmote-cc2538_armgcc/openstack/03a-IPHC/iphc.c ****           case IPHC_SAM_16B:
 872:build/openmote-cc2538_armgcc/openstack/03a-IPHC/iphc.c ****              packetfunctions_readAddress(((uint8_t*)(msg->payload+ipv6_header->header_length+previo
 2348              		.loc 1 872 0
 2349 0fa2 FB6B     		ldr	r3, [r7, #60]
 2350 0fa4 5A68     		ldr	r2, [r3, #4]
 2351 0fa6 3B6C     		ldr	r3, [r7, #64]
 2352 0fa8 93F84030 		ldrb	r3, [r3, #64]	@ zero_extendqisi2
 2353 0fac 1946     		mov	r1, r3
 2354 0fae 97F84430 		ldrb	r3, [r7, #68]	@ zero_extendqisi2
 2355 0fb2 0B44     		add	r3, r3, r1
 2356 0fb4 1344     		add	r3, r3, r2
 2357 0fb6 1846     		mov	r0, r3
 2358 0fb8 0121     		movs	r1, #1
 2359 0fba FA68     		ldr	r2, [r7, #12]
 2360 0fbc 0023     		movs	r3, #0
 2361 0fbe FFF7FEFF 		bl	packetfunctions_readAddress
 873:build/openmote-cc2538_armgcc/openstack/03a-IPHC/iphc.c ****              ipv6_header->header_length += 2*sizeof(uint8_t);
 2362              		.loc 1 873 0
 2363 0fc2 3B6C     		ldr	r3, [r7, #64]
 2364 0fc4 93F84030 		ldrb	r3, [r3, #64]	@ zero_extendqisi2
 2365 0fc8 0233     		adds	r3, r3, #2
 2366 0fca DAB2     		uxtb	r2, r3
 2367 0fcc 3B6C     		ldr	r3, [r7, #64]
 2368 0fce 83F84020 		strb	r2, [r3, #64]
 874:build/openmote-cc2538_armgcc/openstack/03a-IPHC/iphc.c ****              packetfunctions_mac16bToMac64b(temp_addr_16b,temp_addr_64b);
 2369              		.loc 1 874 0
 2370 0fd2 F868     		ldr	r0, [r7, #12]
 2371 0fd4 B968     		ldr	r1, [r7, #8]
 2372 0fd6 FFF7FEFF 		bl	packetfunctions_mac16bToMac64b
 875:build/openmote-cc2538_armgcc/openstack/03a-IPHC/iphc.c ****              packetfunctions_mac64bToIp128b(idmanager_getMyID(ADDR_PREFIX),temp_addr_64b,&ipv6_head
 2373              		.loc 1 875 0
 2374 0fda 0520     		movs	r0, #5
 2375 0fdc FFF7FEFF 		bl	idmanager_getMyID
 2376 0fe0 0246     		mov	r2, r0
 2377 0fe2 3B6C     		ldr	r3, [r7, #64]
 2378 0fe4 1E33     		adds	r3, r3, #30
 2379 0fe6 1046     		mov	r0, r2
 2380 0fe8 B968     		ldr	r1, [r7, #8]
 2381 0fea 1A46     		mov	r2, r3
 2382 0fec FFF7FEFF 		bl	packetfunctions_mac64bToIp128b
 876:build/openmote-cc2538_armgcc/openstack/03a-IPHC/iphc.c ****              break;
 2383              		.loc 1 876 0
 2384 0ff0 46E0     		b	.L147
 2385              	.L144:
 877:build/openmote-cc2538_armgcc/openstack/03a-IPHC/iphc.c ****           case IPHC_SAM_64B:
 878:build/openmote-cc2538_armgcc/openstack/03a-IPHC/iphc.c ****              packetfunctions_readAddress(((uint8_t*)(msg->payload+ipv6_header->header_length+previo
 2386              		.loc 1 878 0
 2387 0ff2 FB6B     		ldr	r3, [r7, #60]
 2388 0ff4 5A68     		ldr	r2, [r3, #4]
 2389 0ff6 3B6C     		ldr	r3, [r7, #64]
 2390 0ff8 93F84030 		ldrb	r3, [r3, #64]	@ zero_extendqisi2
 2391 0ffc 1946     		mov	r1, r3
 2392 0ffe 97F84430 		ldrb	r3, [r7, #68]	@ zero_extendqisi2
 2393 1002 0B44     		add	r3, r3, r1
 2394 1004 1344     		add	r3, r3, r2
 2395 1006 1846     		mov	r0, r3
 2396 1008 0221     		movs	r1, #2
 2397 100a BA68     		ldr	r2, [r7, #8]
 2398 100c 0023     		movs	r3, #0
 2399 100e FFF7FEFF 		bl	packetfunctions_readAddress
 879:build/openmote-cc2538_armgcc/openstack/03a-IPHC/iphc.c ****              ipv6_header->header_length += 8*sizeof(uint8_t);
 2400              		.loc 1 879 0
 2401 1012 3B6C     		ldr	r3, [r7, #64]
 2402 1014 93F84030 		ldrb	r3, [r3, #64]	@ zero_extendqisi2
 2403 1018 0833     		adds	r3, r3, #8
 2404 101a DAB2     		uxtb	r2, r3
 2405 101c 3B6C     		ldr	r3, [r7, #64]
 2406 101e 83F84020 		strb	r2, [r3, #64]
 880:build/openmote-cc2538_armgcc/openstack/03a-IPHC/iphc.c ****              packetfunctions_mac64bToIp128b(idmanager_getMyID(ADDR_PREFIX),temp_addr_64b,&ipv6_head
 2407              		.loc 1 880 0
 2408 1022 0520     		movs	r0, #5
 2409 1024 FFF7FEFF 		bl	idmanager_getMyID
 2410 1028 0246     		mov	r2, r0
 2411 102a 3B6C     		ldr	r3, [r7, #64]
 2412 102c 1E33     		adds	r3, r3, #30
 2413 102e 1046     		mov	r0, r2
 2414 1030 B968     		ldr	r1, [r7, #8]
 2415 1032 1A46     		mov	r2, r3
 2416 1034 FFF7FEFF 		bl	packetfunctions_mac64bToIp128b
 881:build/openmote-cc2538_armgcc/openstack/03a-IPHC/iphc.c ****              break;
 2417              		.loc 1 881 0
 2418 1038 22E0     		b	.L147
 2419              	.L142:
 882:build/openmote-cc2538_armgcc/openstack/03a-IPHC/iphc.c ****           case IPHC_SAM_128B:
 883:build/openmote-cc2538_armgcc/openstack/03a-IPHC/iphc.c ****              packetfunctions_readAddress(((uint8_t*)(msg->payload+ipv6_header->header_length+previo
 2420              		.loc 1 883 0
 2421 103a FB6B     		ldr	r3, [r7, #60]
 2422 103c 5A68     		ldr	r2, [r3, #4]
 2423 103e 3B6C     		ldr	r3, [r7, #64]
 2424 1040 93F84030 		ldrb	r3, [r3, #64]	@ zero_extendqisi2
 2425 1044 1946     		mov	r1, r3
 2426 1046 97F84430 		ldrb	r3, [r7, #68]	@ zero_extendqisi2
 2427 104a 0B44     		add	r3, r3, r1
 2428 104c 1A44     		add	r2, r2, r3
 2429 104e 3B6C     		ldr	r3, [r7, #64]
 2430 1050 1E33     		adds	r3, r3, #30
 2431 1052 1046     		mov	r0, r2
 2432 1054 0321     		movs	r1, #3
 2433 1056 1A46     		mov	r2, r3
 2434 1058 0023     		movs	r3, #0
 2435 105a FFF7FEFF 		bl	packetfunctions_readAddress
 884:build/openmote-cc2538_armgcc/openstack/03a-IPHC/iphc.c ****              ipv6_header->header_length += 16*sizeof(uint8_t);
 2436              		.loc 1 884 0
 2437 105e 3B6C     		ldr	r3, [r7, #64]
 2438 1060 93F84030 		ldrb	r3, [r3, #64]	@ zero_extendqisi2
 2439 1064 1033     		adds	r3, r3, #16
 2440 1066 DAB2     		uxtb	r2, r3
 2441 1068 3B6C     		ldr	r3, [r7, #64]
 2442 106a 83F84020 		strb	r2, [r3, #64]
 885:build/openmote-cc2538_armgcc/openstack/03a-IPHC/iphc.c ****              break;
 2443              		.loc 1 885 0
 2444 106e 07E0     		b	.L147
 2445              	.L141:
 886:build/openmote-cc2538_armgcc/openstack/03a-IPHC/iphc.c ****           default:
 887:build/openmote-cc2538_armgcc/openstack/03a-IPHC/iphc.c ****              openserial_printError(
 888:build/openmote-cc2538_armgcc/openstack/03a-IPHC/iphc.c ****                 COMPONENT_IPHC,
 889:build/openmote-cc2538_armgcc/openstack/03a-IPHC/iphc.c ****                 ERR_6LOWPAN_UNSUPPORTED,
 890:build/openmote-cc2538_armgcc/openstack/03a-IPHC/iphc.c ****                 (errorparameter_t)9,
 891:build/openmote-cc2538_armgcc/openstack/03a-IPHC/iphc.c ****                 (errorparameter_t)(*sam)
 2446              		.loc 1 891 0
 2447 1070 3B6B     		ldr	r3, [r7, #48]
 2448 1072 1B78     		ldrb	r3, [r3]	@ zero_extendqisi2
 887:build/openmote-cc2538_armgcc/openstack/03a-IPHC/iphc.c ****                 COMPONENT_IPHC,
 2449              		.loc 1 887 0
 2450 1074 1120     		movs	r0, #17
 2451 1076 0C21     		movs	r1, #12
 2452 1078 0922     		movs	r2, #9
 2453 107a FFF7FEFF 		bl	openserial_printError
 892:build/openmote-cc2538_armgcc/openstack/03a-IPHC/iphc.c ****              );
 893:build/openmote-cc2538_armgcc/openstack/03a-IPHC/iphc.c ****              break;
 2454              		.loc 1 893 0
 2455 107e 00BF     		nop
 2456              	.L147:
 894:build/openmote-cc2538_armgcc/openstack/03a-IPHC/iphc.c ****        }
 895:build/openmote-cc2538_armgcc/openstack/03a-IPHC/iphc.c ****        
 896:build/openmote-cc2538_armgcc/openstack/03a-IPHC/iphc.c ****        // destination address
 897:build/openmote-cc2538_armgcc/openstack/03a-IPHC/iphc.c ****        if(*m == IPHC_M_YES) {
 2457              		.loc 1 897 0
 2458 1080 7B6B     		ldr	r3, [r7, #52]
 2459 1082 1B78     		ldrb	r3, [r3]	@ zero_extendqisi2
 2460 1084 012B     		cmp	r3, #1
 2461 1086 42D1     		bne	.L148
 898:build/openmote-cc2538_armgcc/openstack/03a-IPHC/iphc.c ****            switch (*dam) {
 2462              		.loc 1 898 0
 2463 1088 BB6B     		ldr	r3, [r7, #56]
 2464 108a 1B78     		ldrb	r3, [r3]	@ zero_extendqisi2
 2465 108c 032B     		cmp	r3, #3
 2466 108e 34D8     		bhi	.L149
 2467 1090 01A2     		adr	r2, .L151
 2468 1092 52F823F0 		ldr	pc, [r2, r3, lsl #2]
 2469 1096 00BF     		.p2align 2
 2470              	.L151:
 2471 1098 0B110000 		.word	.L175+1
 2472 109c 0B110000 		.word	.L175+1
 2473 10a0 0B110000 		.word	.L175+1
 2474 10a4 A9100000 		.word	.L154+1
 2475              	.L154:
 899:build/openmote-cc2538_armgcc/openstack/03a-IPHC/iphc.c ****               case IPHC_DAM_ELIDED:
 900:build/openmote-cc2538_armgcc/openstack/03a-IPHC/iphc.c ****                  ipv6_header->dest.type = ADDR_128B;
 2476              		.loc 1 900 0
 2477 10a8 3B6C     		ldr	r3, [r7, #64]
 2478 10aa 0322     		movs	r2, #3
 2479 10ac 83F82F20 		strb	r2, [r3, #47]
 901:build/openmote-cc2538_armgcc/openstack/03a-IPHC/iphc.c ****                  memcpy(&(ipv6_header->dest.addr_128b[0]),all_routers_multicast,sizeof(all_routers_
 2480              		.loc 1 901 0
 2481 10b0 3B6C     		ldr	r3, [r7, #64]
 2482 10b2 03F13002 		add	r2, r3, #48
 2483 10b6 40F20003 		movw	r3, #:lower16:all_routers_multicast
 2484 10ba C0F20003 		movt	r3, #:upper16:all_routers_multicast
 2485 10be 1446     		mov	r4, r2
 2486 10c0 1D46     		mov	r5, r3
 2487 10c2 0FCD     		ldmia	r5!, {r0, r1, r2, r3}
 2488 10c4 2060     		str	r0, [r4]	@ unaligned
 2489 10c6 6160     		str	r1, [r4, #4]	@ unaligned
 2490 10c8 A260     		str	r2, [r4, #8]	@ unaligned
 2491 10ca E360     		str	r3, [r4, #12]	@ unaligned
 902:build/openmote-cc2538_armgcc/openstack/03a-IPHC/iphc.c ****                  ipv6_header->dest.addr_128b[15] = *(msg->payload+ipv6_header->header_length+previo
 2492              		.loc 1 902 0
 2493 10cc FB6B     		ldr	r3, [r7, #60]
 2494 10ce 5A68     		ldr	r2, [r3, #4]
 2495 10d0 3B6C     		ldr	r3, [r7, #64]
 2496 10d2 93F84030 		ldrb	r3, [r3, #64]	@ zero_extendqisi2
 2497 10d6 1946     		mov	r1, r3
 2498 10d8 97F84430 		ldrb	r3, [r7, #68]	@ zero_extendqisi2
 2499 10dc 0B44     		add	r3, r3, r1
 2500 10de 1344     		add	r3, r3, r2
 2501 10e0 1A78     		ldrb	r2, [r3]	@ zero_extendqisi2
 2502 10e2 3B6C     		ldr	r3, [r7, #64]
 2503 10e4 83F83F20 		strb	r2, [r3, #63]
 903:build/openmote-cc2538_armgcc/openstack/03a-IPHC/iphc.c ****                  ipv6_header->header_length += sizeof(uint8_t);
 2504              		.loc 1 903 0
 2505 10e8 3B6C     		ldr	r3, [r7, #64]
 2506 10ea 93F84030 		ldrb	r3, [r3, #64]	@ zero_extendqisi2
 2507 10ee 0133     		adds	r3, r3, #1
 2508 10f0 DAB2     		uxtb	r2, r3
 2509 10f2 3B6C     		ldr	r3, [r7, #64]
 2510 10f4 83F84020 		strb	r2, [r3, #64]
 904:build/openmote-cc2538_armgcc/openstack/03a-IPHC/iphc.c ****                  break;
 2511              		.loc 1 904 0
 2512 10f8 08E0     		b	.L155
 2513              	.L149:
 905:build/openmote-cc2538_armgcc/openstack/03a-IPHC/iphc.c ****               case IPHC_DAM_16B:
 906:build/openmote-cc2538_armgcc/openstack/03a-IPHC/iphc.c ****                  // tengfei: todo
 907:build/openmote-cc2538_armgcc/openstack/03a-IPHC/iphc.c ****                  break;
 908:build/openmote-cc2538_armgcc/openstack/03a-IPHC/iphc.c ****               case IPHC_DAM_64B:
 909:build/openmote-cc2538_armgcc/openstack/03a-IPHC/iphc.c ****                  // tengfei: todo
 910:build/openmote-cc2538_armgcc/openstack/03a-IPHC/iphc.c ****                  break;
 911:build/openmote-cc2538_armgcc/openstack/03a-IPHC/iphc.c ****               case IPHC_DAM_128B:
 912:build/openmote-cc2538_armgcc/openstack/03a-IPHC/iphc.c ****                  // tengfei: todo
 913:build/openmote-cc2538_armgcc/openstack/03a-IPHC/iphc.c ****                  break;
 914:build/openmote-cc2538_armgcc/openstack/03a-IPHC/iphc.c ****               default:
 915:build/openmote-cc2538_armgcc/openstack/03a-IPHC/iphc.c ****                  openserial_printError(
 916:build/openmote-cc2538_armgcc/openstack/03a-IPHC/iphc.c ****                     COMPONENT_IPHC,
 917:build/openmote-cc2538_armgcc/openstack/03a-IPHC/iphc.c ****                     ERR_6LOWPAN_UNSUPPORTED,
 918:build/openmote-cc2538_armgcc/openstack/03a-IPHC/iphc.c ****                     (errorparameter_t)10,
 919:build/openmote-cc2538_armgcc/openstack/03a-IPHC/iphc.c ****                     (errorparameter_t)(*dam)
 2514              		.loc 1 919 0
 2515 10fa BB6B     		ldr	r3, [r7, #56]
 2516 10fc 1B78     		ldrb	r3, [r3]	@ zero_extendqisi2
 915:build/openmote-cc2538_armgcc/openstack/03a-IPHC/iphc.c ****                     COMPONENT_IPHC,
 2517              		.loc 1 915 0
 2518 10fe 1120     		movs	r0, #17
 2519 1100 0C21     		movs	r1, #12
 2520 1102 0A22     		movs	r2, #10
 2521 1104 FFF7FEFF 		bl	openserial_printError
 920:build/openmote-cc2538_armgcc/openstack/03a-IPHC/iphc.c ****                  );
 921:build/openmote-cc2538_armgcc/openstack/03a-IPHC/iphc.c ****                  break;
 2522              		.loc 1 921 0
 2523 1108 00E0     		b	.L155
 2524              	.L175:
 913:build/openmote-cc2538_armgcc/openstack/03a-IPHC/iphc.c ****               default:
 2525              		.loc 1 913 0
 2526 110a 00BF     		nop
 2527              	.L155:
 2528 110c 8FE0     		b	.L156
 2529              	.L148:
 922:build/openmote-cc2538_armgcc/openstack/03a-IPHC/iphc.c ****            }
 923:build/openmote-cc2538_armgcc/openstack/03a-IPHC/iphc.c ****        } else {
 924:build/openmote-cc2538_armgcc/openstack/03a-IPHC/iphc.c ****            switch (*dam) {
 2530              		.loc 1 924 0
 2531 110e BB6B     		ldr	r3, [r7, #56]
 2532 1110 1B78     		ldrb	r3, [r3]	@ zero_extendqisi2
 2533 1112 032B     		cmp	r3, #3
 2534 1114 00F28380 		bhi	.L157
 2535 1118 01A2     		adr	r2, .L159
 2536 111a 52F823F0 		ldr	pc, [r2, r3, lsl #2]
 2537 111e 00BF     		.p2align 2
 2538              	.L159:
 2539 1120 E9110000 		.word	.L158+1
 2540 1124 A1110000 		.word	.L160+1
 2541 1128 51110000 		.word	.L161+1
 2542 112c 31110000 		.word	.L162+1
 2543              	.L162:
 925:build/openmote-cc2538_armgcc/openstack/03a-IPHC/iphc.c ****               case IPHC_DAM_ELIDED:
 926:build/openmote-cc2538_armgcc/openstack/03a-IPHC/iphc.c ****                  packetfunctions_mac64bToIp128b(idmanager_getMyID(ADDR_PREFIX),idmanager_getMyID(AD
 2544              		.loc 1 926 0
 2545 1130 0520     		movs	r0, #5
 2546 1132 FFF7FEFF 		bl	idmanager_getMyID
 2547 1136 0446     		mov	r4, r0
 2548 1138 0220     		movs	r0, #2
 2549 113a FFF7FEFF 		bl	idmanager_getMyID
 2550 113e 0246     		mov	r2, r0
 2551 1140 3B6C     		ldr	r3, [r7, #64]
 2552 1142 2F33     		adds	r3, r3, #47
 2553 1144 2046     		mov	r0, r4
 2554 1146 1146     		mov	r1, r2
 2555 1148 1A46     		mov	r2, r3
 2556 114a FFF7FEFF 		bl	packetfunctions_mac64bToIp128b
 927:build/openmote-cc2538_armgcc/openstack/03a-IPHC/iphc.c ****                  break;
 2557              		.loc 1 927 0
 2558 114e 6EE0     		b	.L156
 2559              	.L161:
 928:build/openmote-cc2538_armgcc/openstack/03a-IPHC/iphc.c ****               case IPHC_DAM_16B:
 929:build/openmote-cc2538_armgcc/openstack/03a-IPHC/iphc.c ****                  packetfunctions_readAddress(((uint8_t*)(msg->payload+ipv6_header->header_length+pr
 2560              		.loc 1 929 0
 2561 1150 FB6B     		ldr	r3, [r7, #60]
 2562 1152 5A68     		ldr	r2, [r3, #4]
 2563 1154 3B6C     		ldr	r3, [r7, #64]
 2564 1156 93F84030 		ldrb	r3, [r3, #64]	@ zero_extendqisi2
 2565 115a 1946     		mov	r1, r3
 2566 115c 97F84430 		ldrb	r3, [r7, #68]	@ zero_extendqisi2
 2567 1160 0B44     		add	r3, r3, r1
 2568 1162 1344     		add	r3, r3, r2
 2569 1164 1846     		mov	r0, r3
 2570 1166 0121     		movs	r1, #1
 2571 1168 FA68     		ldr	r2, [r7, #12]
 2572 116a 0023     		movs	r3, #0
 2573 116c FFF7FEFF 		bl	packetfunctions_readAddress
 930:build/openmote-cc2538_armgcc/openstack/03a-IPHC/iphc.c ****                  ipv6_header->header_length += 2*sizeof(uint8_t);
 2574              		.loc 1 930 0
 2575 1170 3B6C     		ldr	r3, [r7, #64]
 2576 1172 93F84030 		ldrb	r3, [r3, #64]	@ zero_extendqisi2
 2577 1176 0233     		adds	r3, r3, #2
 2578 1178 DAB2     		uxtb	r2, r3
 2579 117a 3B6C     		ldr	r3, [r7, #64]
 2580 117c 83F84020 		strb	r2, [r3, #64]
 931:build/openmote-cc2538_armgcc/openstack/03a-IPHC/iphc.c ****                  packetfunctions_mac16bToMac64b(temp_addr_16b,temp_addr_64b);
 2581              		.loc 1 931 0
 2582 1180 F868     		ldr	r0, [r7, #12]
 2583 1182 B968     		ldr	r1, [r7, #8]
 2584 1184 FFF7FEFF 		bl	packetfunctions_mac16bToMac64b
 932:build/openmote-cc2538_armgcc/openstack/03a-IPHC/iphc.c ****                  packetfunctions_mac64bToIp128b(idmanager_getMyID(ADDR_PREFIX),temp_addr_64b,&ipv6_
 2585              		.loc 1 932 0
 2586 1188 0520     		movs	r0, #5
 2587 118a FFF7FEFF 		bl	idmanager_getMyID
 2588 118e 0246     		mov	r2, r0
 2589 1190 3B6C     		ldr	r3, [r7, #64]
 2590 1192 2F33     		adds	r3, r3, #47
 2591 1194 1046     		mov	r0, r2
 2592 1196 B968     		ldr	r1, [r7, #8]
 2593 1198 1A46     		mov	r2, r3
 2594 119a FFF7FEFF 		bl	packetfunctions_mac64bToIp128b
 933:build/openmote-cc2538_armgcc/openstack/03a-IPHC/iphc.c ****                  break;
 2595              		.loc 1 933 0
 2596 119e 46E0     		b	.L156
 2597              	.L160:
 934:build/openmote-cc2538_armgcc/openstack/03a-IPHC/iphc.c ****               case IPHC_DAM_64B:
 935:build/openmote-cc2538_armgcc/openstack/03a-IPHC/iphc.c ****                  packetfunctions_readAddress(((uint8_t*)(msg->payload+ipv6_header->header_length+pr
 2598              		.loc 1 935 0
 2599 11a0 FB6B     		ldr	r3, [r7, #60]
 2600 11a2 5A68     		ldr	r2, [r3, #4]
 2601 11a4 3B6C     		ldr	r3, [r7, #64]
 2602 11a6 93F84030 		ldrb	r3, [r3, #64]	@ zero_extendqisi2
 2603 11aa 1946     		mov	r1, r3
 2604 11ac 97F84430 		ldrb	r3, [r7, #68]	@ zero_extendqisi2
 2605 11b0 0B44     		add	r3, r3, r1
 2606 11b2 1344     		add	r3, r3, r2
 2607 11b4 1846     		mov	r0, r3
 2608 11b6 0221     		movs	r1, #2
 2609 11b8 BA68     		ldr	r2, [r7, #8]
 2610 11ba 0023     		movs	r3, #0
 2611 11bc FFF7FEFF 		bl	packetfunctions_readAddress
 936:build/openmote-cc2538_armgcc/openstack/03a-IPHC/iphc.c ****                  ipv6_header->header_length += 8*sizeof(uint8_t);
 2612              		.loc 1 936 0
 2613 11c0 3B6C     		ldr	r3, [r7, #64]
 2614 11c2 93F84030 		ldrb	r3, [r3, #64]	@ zero_extendqisi2
 2615 11c6 0833     		adds	r3, r3, #8
 2616 11c8 DAB2     		uxtb	r2, r3
 2617 11ca 3B6C     		ldr	r3, [r7, #64]
 2618 11cc 83F84020 		strb	r2, [r3, #64]
 937:build/openmote-cc2538_armgcc/openstack/03a-IPHC/iphc.c ****                  packetfunctions_mac64bToIp128b(idmanager_getMyID(ADDR_PREFIX),temp_addr_64b,&ipv6_
 2619              		.loc 1 937 0
 2620 11d0 0520     		movs	r0, #5
 2621 11d2 FFF7FEFF 		bl	idmanager_getMyID
 2622 11d6 0246     		mov	r2, r0
 2623 11d8 3B6C     		ldr	r3, [r7, #64]
 2624 11da 2F33     		adds	r3, r3, #47
 2625 11dc 1046     		mov	r0, r2
 2626 11de B968     		ldr	r1, [r7, #8]
 2627 11e0 1A46     		mov	r2, r3
 2628 11e2 FFF7FEFF 		bl	packetfunctions_mac64bToIp128b
 938:build/openmote-cc2538_armgcc/openstack/03a-IPHC/iphc.c ****                  break;
 2629              		.loc 1 938 0
 2630 11e6 22E0     		b	.L156
 2631              	.L158:
 939:build/openmote-cc2538_armgcc/openstack/03a-IPHC/iphc.c ****               case IPHC_DAM_128B:
 940:build/openmote-cc2538_armgcc/openstack/03a-IPHC/iphc.c ****                  packetfunctions_readAddress(((uint8_t*)(msg->payload+ipv6_header->header_length+pr
 2632              		.loc 1 940 0
 2633 11e8 FB6B     		ldr	r3, [r7, #60]
 2634 11ea 5A68     		ldr	r2, [r3, #4]
 2635 11ec 3B6C     		ldr	r3, [r7, #64]
 2636 11ee 93F84030 		ldrb	r3, [r3, #64]	@ zero_extendqisi2
 2637 11f2 1946     		mov	r1, r3
 2638 11f4 97F84430 		ldrb	r3, [r7, #68]	@ zero_extendqisi2
 2639 11f8 0B44     		add	r3, r3, r1
 2640 11fa 1A44     		add	r2, r2, r3
 2641 11fc 3B6C     		ldr	r3, [r7, #64]
 2642 11fe 2F33     		adds	r3, r3, #47
 2643 1200 1046     		mov	r0, r2
 2644 1202 0321     		movs	r1, #3
 2645 1204 1A46     		mov	r2, r3
 2646 1206 0023     		movs	r3, #0
 2647 1208 FFF7FEFF 		bl	packetfunctions_readAddress
 941:build/openmote-cc2538_armgcc/openstack/03a-IPHC/iphc.c ****                  ipv6_header->header_length += 16*sizeof(uint8_t);
 2648              		.loc 1 941 0
 2649 120c 3B6C     		ldr	r3, [r7, #64]
 2650 120e 93F84030 		ldrb	r3, [r3, #64]	@ zero_extendqisi2
 2651 1212 1033     		adds	r3, r3, #16
 2652 1214 DAB2     		uxtb	r2, r3
 2653 1216 3B6C     		ldr	r3, [r7, #64]
 2654 1218 83F84020 		strb	r2, [r3, #64]
 942:build/openmote-cc2538_armgcc/openstack/03a-IPHC/iphc.c ****                  break;
 2655              		.loc 1 942 0
 2656 121c 07E0     		b	.L156
 2657              	.L157:
 943:build/openmote-cc2538_armgcc/openstack/03a-IPHC/iphc.c ****               default:
 944:build/openmote-cc2538_armgcc/openstack/03a-IPHC/iphc.c ****                  openserial_printError(
 945:build/openmote-cc2538_armgcc/openstack/03a-IPHC/iphc.c ****                     COMPONENT_IPHC,
 946:build/openmote-cc2538_armgcc/openstack/03a-IPHC/iphc.c ****                     ERR_6LOWPAN_UNSUPPORTED,
 947:build/openmote-cc2538_armgcc/openstack/03a-IPHC/iphc.c ****                     (errorparameter_t)10,
 948:build/openmote-cc2538_armgcc/openstack/03a-IPHC/iphc.c ****                     (errorparameter_t)(*dam)
 2658              		.loc 1 948 0
 2659 121e BB6B     		ldr	r3, [r7, #56]
 2660 1220 1B78     		ldrb	r3, [r3]	@ zero_extendqisi2
 944:build/openmote-cc2538_armgcc/openstack/03a-IPHC/iphc.c ****                     COMPONENT_IPHC,
 2661              		.loc 1 944 0
 2662 1222 1120     		movs	r0, #17
 2663 1224 0C21     		movs	r1, #12
 2664 1226 0A22     		movs	r2, #10
 2665 1228 FFF7FEFF 		bl	openserial_printError
 949:build/openmote-cc2538_armgcc/openstack/03a-IPHC/iphc.c ****                  );
 950:build/openmote-cc2538_armgcc/openstack/03a-IPHC/iphc.c ****                  break;
 2666              		.loc 1 950 0
 2667 122c 00BF     		nop
 2668              	.L156:
 951:build/openmote-cc2538_armgcc/openstack/03a-IPHC/iphc.c ****            }
 952:build/openmote-cc2538_armgcc/openstack/03a-IPHC/iphc.c ****        }
 953:build/openmote-cc2538_armgcc/openstack/03a-IPHC/iphc.c ****       //TODO, check NH if compressed no?
 954:build/openmote-cc2538_armgcc/openstack/03a-IPHC/iphc.c ****       if (ipv6_header->next_header_compressed){
 2669              		.loc 1 954 0
 2670 122e 3B6C     		ldr	r3, [r7, #64]
 2671 1230 1B7A     		ldrb	r3, [r3, #8]	@ zero_extendqisi2
 2672 1232 002B     		cmp	r3, #0
 2673 1234 13D0     		beq	.L163
 955:build/openmote-cc2538_armgcc/openstack/03a-IPHC/iphc.c ****           lowpan_nhc = *(msg->payload+ipv6_header->header_length+previousLen);//get the next elemen
 2674              		.loc 1 955 0
 2675 1236 FB6B     		ldr	r3, [r7, #60]
 2676 1238 5A68     		ldr	r2, [r3, #4]
 2677 123a 3B6C     		ldr	r3, [r7, #64]
 2678 123c 93F84030 		ldrb	r3, [r3, #64]	@ zero_extendqisi2
 2679 1240 1946     		mov	r1, r3
 2680 1242 97F84430 		ldrb	r3, [r7, #68]	@ zero_extendqisi2
 2681 1246 0B44     		add	r3, r3, r1
 2682 1248 1344     		add	r3, r3, r2
 2683 124a 1B78     		ldrb	r3, [r3]
 2684 124c 3B75     		strb	r3, [r7, #20]
 956:build/openmote-cc2538_armgcc/openstack/03a-IPHC/iphc.c ****           if ((lowpan_nhc & NHC_UDP_MASK) == NHC_UDP_ID){ //check if it is UDP LOWPAN_NHC
 2685              		.loc 1 956 0
 2686 124e 3B7D     		ldrb	r3, [r7, #20]	@ zero_extendqisi2
 2687 1250 03F0F803 		and	r3, r3, #248
 2688 1254 F02B     		cmp	r3, #240
 2689 1256 02D1     		bne	.L163
 957:build/openmote-cc2538_armgcc/openstack/03a-IPHC/iphc.c ****              ipv6_header->next_header = IANA_UDP;
 2690              		.loc 1 957 0
 2691 1258 3B6C     		ldr	r3, [r7, #64]
 2692 125a 1122     		movs	r2, #17
 2693 125c 5A72     		strb	r2, [r3, #9]
 2694              	.L163:
 954:build/openmote-cc2538_armgcc/openstack/03a-IPHC/iphc.c ****           lowpan_nhc = *(msg->payload+ipv6_header->header_length+previousLen);//get the next elemen
 2695              		.loc 1 954 0 discriminator 1
 2696 125e C1E0     		b	.L164
 2697              	.L122:
 958:build/openmote-cc2538_armgcc/openstack/03a-IPHC/iphc.c ****           }
 959:build/openmote-cc2538_armgcc/openstack/03a-IPHC/iphc.c ****           else{
 960:build/openmote-cc2538_armgcc/openstack/03a-IPHC/iphc.c ****               //error?
 961:build/openmote-cc2538_armgcc/openstack/03a-IPHC/iphc.c ****           }
 962:build/openmote-cc2538_armgcc/openstack/03a-IPHC/iphc.c ****       }
 963:build/openmote-cc2538_armgcc/openstack/03a-IPHC/iphc.c ****     } else {
 964:build/openmote-cc2538_armgcc/openstack/03a-IPHC/iphc.c ****         // we are in 6LoRH now
 965:build/openmote-cc2538_armgcc/openstack/03a-IPHC/iphc.c ****         if (page == 1){
 2698              		.loc 1 965 0
 2699 1260 FB7D     		ldrb	r3, [r7, #23]	@ zero_extendqisi2
 2700 1262 012B     		cmp	r3, #1
 2701 1264 40F0BE80 		bne	.L164
 966:build/openmote-cc2538_armgcc/openstack/03a-IPHC/iphc.c ****             temp_8b = *(uint8_t*)(msg->payload+ipv6_header->header_length+previousLen);
 2702              		.loc 1 966 0
 2703 1268 FB6B     		ldr	r3, [r7, #60]
 2704 126a 5A68     		ldr	r2, [r3, #4]
 2705 126c 3B6C     		ldr	r3, [r7, #64]
 2706 126e 93F84030 		ldrb	r3, [r3, #64]	@ zero_extendqisi2
 2707 1272 1946     		mov	r1, r3
 2708 1274 97F84430 		ldrb	r3, [r7, #68]	@ zero_extendqisi2
 2709 1278 0B44     		add	r3, r3, r1
 2710 127a 1344     		add	r3, r3, r2
 2711 127c 1B78     		ldrb	r3, [r3]
 2712 127e BB75     		strb	r3, [r7, #22]
 967:build/openmote-cc2538_armgcc/openstack/03a-IPHC/iphc.c ****             if ((temp_8b & FORMAT_6LORH_MASK) == ELECTIVE_6LoRH){
 2713              		.loc 1 967 0
 2714 1280 BB7D     		ldrb	r3, [r7, #22]	@ zero_extendqisi2
 2715 1282 03F0E003 		and	r3, r3, #224
 2716 1286 A02B     		cmp	r3, #160
 2717 1288 40F0AC80 		bne	.L164
 968:build/openmote-cc2538_armgcc/openstack/03a-IPHC/iphc.c ****                 // this is an elective 6LoRH
 969:build/openmote-cc2538_armgcc/openstack/03a-IPHC/iphc.c ****                 ipinip_length = temp_8b & IPINIP_LEN_6LORH_MASK;
 2718              		.loc 1 969 0
 2719 128c BB7D     		ldrb	r3, [r7, #22]
 2720 128e 03F01F03 		and	r3, r3, #31
 2721 1292 7B75     		strb	r3, [r7, #21]
 970:build/openmote-cc2538_armgcc/openstack/03a-IPHC/iphc.c ****                 ipv6_header->header_length += 1;
 2722              		.loc 1 970 0
 2723 1294 3B6C     		ldr	r3, [r7, #64]
 2724 1296 93F84030 		ldrb	r3, [r3, #64]	@ zero_extendqisi2
 2725 129a 0133     		adds	r3, r3, #1
 2726 129c DAB2     		uxtb	r2, r3
 2727 129e 3B6C     		ldr	r3, [r7, #64]
 2728 12a0 83F84020 		strb	r2, [r3, #64]
 971:build/openmote-cc2538_armgcc/openstack/03a-IPHC/iphc.c ****                 temp_8b = *(uint8_t*)(msg->payload+ipv6_header->header_length+previousLen);
 2729              		.loc 1 971 0
 2730 12a4 FB6B     		ldr	r3, [r7, #60]
 2731 12a6 5A68     		ldr	r2, [r3, #4]
 2732 12a8 3B6C     		ldr	r3, [r7, #64]
 2733 12aa 93F84030 		ldrb	r3, [r3, #64]	@ zero_extendqisi2
 2734 12ae 1946     		mov	r1, r3
 2735 12b0 97F84430 		ldrb	r3, [r7, #68]	@ zero_extendqisi2
 2736 12b4 0B44     		add	r3, r3, r1
 2737 12b6 1344     		add	r3, r3, r2
 2738 12b8 1B78     		ldrb	r3, [r3]
 2739 12ba BB75     		strb	r3, [r7, #22]
 972:build/openmote-cc2538_armgcc/openstack/03a-IPHC/iphc.c ****                 if (temp_8b == IPINIP_TYPE_6LORH){
 2740              		.loc 1 972 0
 2741 12bc BB7D     		ldrb	r3, [r7, #22]	@ zero_extendqisi2
 2742 12be 062B     		cmp	r3, #6
 2743 12c0 40F09080 		bne	.L164
 973:build/openmote-cc2538_armgcc/openstack/03a-IPHC/iphc.c ****                     // this is IpinIP 6LoRH
 974:build/openmote-cc2538_armgcc/openstack/03a-IPHC/iphc.c ****                     ipv6_header->header_length += 1;
 2744              		.loc 1 974 0
 2745 12c4 3B6C     		ldr	r3, [r7, #64]
 2746 12c6 93F84030 		ldrb	r3, [r3, #64]	@ zero_extendqisi2
 2747 12ca 0133     		adds	r3, r3, #1
 2748 12cc DAB2     		uxtb	r2, r3
 2749 12ce 3B6C     		ldr	r3, [r7, #64]
 2750 12d0 83F84020 		strb	r2, [r3, #64]
 975:build/openmote-cc2538_armgcc/openstack/03a-IPHC/iphc.c ****                     ipv6_header->hop_limit = *(uint8_t*)(msg->payload+ipv6_header->header_length+pr
 2751              		.loc 1 975 0
 2752 12d4 FB6B     		ldr	r3, [r7, #60]
 2753 12d6 5A68     		ldr	r2, [r3, #4]
 2754 12d8 3B6C     		ldr	r3, [r7, #64]
 2755 12da 93F84030 		ldrb	r3, [r3, #64]	@ zero_extendqisi2
 2756 12de 1946     		mov	r1, r3
 2757 12e0 97F84430 		ldrb	r3, [r7, #68]	@ zero_extendqisi2
 2758 12e4 0B44     		add	r3, r3, r1
 2759 12e6 1344     		add	r3, r3, r2
 2760 12e8 1A78     		ldrb	r2, [r3]	@ zero_extendqisi2
 2761 12ea 3B6C     		ldr	r3, [r7, #64]
 2762 12ec 1A77     		strb	r2, [r3, #28]
 976:build/openmote-cc2538_armgcc/openstack/03a-IPHC/iphc.c ****                     ipv6_header->header_length += 1;
 2763              		.loc 1 976 0
 2764 12ee 3B6C     		ldr	r3, [r7, #64]
 2765 12f0 93F84030 		ldrb	r3, [r3, #64]	@ zero_extendqisi2
 2766 12f4 0133     		adds	r3, r3, #1
 2767 12f6 DAB2     		uxtb	r2, r3
 2768 12f8 3B6C     		ldr	r3, [r7, #64]
 2769 12fa 83F84020 		strb	r2, [r3, #64]
 977:build/openmote-cc2538_armgcc/openstack/03a-IPHC/iphc.c ****                     // destination address maybe is the first address in RH3 6LoRH OR dest adress i
 978:build/openmote-cc2538_armgcc/openstack/03a-IPHC/iphc.c ****                     // update destination address if necessary after the processing
 979:build/openmote-cc2538_armgcc/openstack/03a-IPHC/iphc.c ****                     ipv6_header->dest.type = ADDR_NONE;
 2770              		.loc 1 979 0
 2771 12fe 3B6C     		ldr	r3, [r7, #64]
 2772 1300 0022     		movs	r2, #0
 2773 1302 83F82F20 		strb	r2, [r3, #47]
 980:build/openmote-cc2538_armgcc/openstack/03a-IPHC/iphc.c ****                     memset(&(ipv6_header->dest.addr_128b[0]),0,16);
 2774              		.loc 1 980 0
 2775 1306 3B6C     		ldr	r3, [r7, #64]
 2776 1308 3033     		adds	r3, r3, #48
 2777 130a 1846     		mov	r0, r3
 2778 130c 0021     		movs	r1, #0
 2779 130e 1022     		movs	r2, #16
 2780 1310 FFF7FEFF 		bl	memset
 981:build/openmote-cc2538_armgcc/openstack/03a-IPHC/iphc.c ****                     if (ipinip_length == 1){
 2781              		.loc 1 981 0
 2782 1314 7B7D     		ldrb	r3, [r7, #21]	@ zero_extendqisi2
 2783 1316 012B     		cmp	r3, #1
 2784 1318 15D1     		bne	.L166
 982:build/openmote-cc2538_armgcc/openstack/03a-IPHC/iphc.c ****                         // source address is root
 983:build/openmote-cc2538_armgcc/openstack/03a-IPHC/iphc.c ****                         memset(&(ipv6_header->src),0,sizeof(open_addr_t));
 2785              		.loc 1 983 0
 2786 131a 3B6C     		ldr	r3, [r7, #64]
 2787 131c 1E33     		adds	r3, r3, #30
 2788 131e 1846     		mov	r0, r3
 2789 1320 0021     		movs	r1, #0
 2790 1322 1122     		movs	r2, #17
 2791 1324 FFF7FEFF 		bl	memset
 984:build/openmote-cc2538_armgcc/openstack/03a-IPHC/iphc.c ****                         packetfunctions_mac64bToIp128b(idmanager_getMyID(ADDR_PREFIX),(open_addr_t*
 2792              		.loc 1 984 0
 2793 1328 0520     		movs	r0, #5
 2794 132a FFF7FEFF 		bl	idmanager_getMyID
 2795 132e 0246     		mov	r2, r0
 2796 1330 3B6C     		ldr	r3, [r7, #64]
 2797 1332 1E33     		adds	r3, r3, #30
 2798 1334 1046     		mov	r0, r2
 2799 1336 40F20001 		movw	r1, #:lower16:dagroot_mac64b
 2800 133a C0F20001 		movt	r1, #:upper16:dagroot_mac64b
 2801 133e 1A46     		mov	r2, r3
 2802 1340 FFF7FEFF 		bl	packetfunctions_mac64bToIp128b
 2803 1344 4EE0     		b	.L164
 2804              	.L166:
 985:build/openmote-cc2538_armgcc/openstack/03a-IPHC/iphc.c ****                         // destination address is the first address in RH3 6LoRH OR dest adress in 
 986:build/openmote-cc2538_armgcc/openstack/03a-IPHC/iphc.c ****                     } else{
 987:build/openmote-cc2538_armgcc/openstack/03a-IPHC/iphc.c ****                         switch(ipinip_length-1){
 2805              		.loc 1 987 0
 2806 1346 7B7D     		ldrb	r3, [r7, #21]	@ zero_extendqisi2
 2807 1348 013B     		subs	r3, r3, #1
 2808 134a 082B     		cmp	r3, #8
 2809 134c 1CD0     		beq	.L168
 2810 134e 102B     		cmp	r3, #16
 2811 1350 3ED1     		bne	.L173
 988:build/openmote-cc2538_armgcc/openstack/03a-IPHC/iphc.c ****                         case 16:
 989:build/openmote-cc2538_armgcc/openstack/03a-IPHC/iphc.c ****                              // this is source address 
 990:build/openmote-cc2538_armgcc/openstack/03a-IPHC/iphc.c ****                              packetfunctions_readAddress(((uint8_t*)(msg->payload+ipv6_header->head
 2812              		.loc 1 990 0
 2813 1352 FB6B     		ldr	r3, [r7, #60]
 2814 1354 5A68     		ldr	r2, [r3, #4]
 2815 1356 3B6C     		ldr	r3, [r7, #64]
 2816 1358 93F84030 		ldrb	r3, [r3, #64]	@ zero_extendqisi2
 2817 135c 1946     		mov	r1, r3
 2818 135e 97F84430 		ldrb	r3, [r7, #68]	@ zero_extendqisi2
 2819 1362 0B44     		add	r3, r3, r1
 2820 1364 1A44     		add	r2, r2, r3
 2821 1366 3B6C     		ldr	r3, [r7, #64]
 2822 1368 1E33     		adds	r3, r3, #30
 2823 136a 1046     		mov	r0, r2
 2824 136c 0321     		movs	r1, #3
 2825 136e 1A46     		mov	r2, r3
 2826 1370 0023     		movs	r3, #0
 2827 1372 FFF7FEFF 		bl	packetfunctions_readAddress
 991:build/openmote-cc2538_armgcc/openstack/03a-IPHC/iphc.c ****                              ipv6_header->header_length += 16*sizeof(uint8_t);
 2828              		.loc 1 991 0
 2829 1376 3B6C     		ldr	r3, [r7, #64]
 2830 1378 93F84030 		ldrb	r3, [r3, #64]	@ zero_extendqisi2
 2831 137c 1033     		adds	r3, r3, #16
 2832 137e DAB2     		uxtb	r2, r3
 2833 1380 3B6C     		ldr	r3, [r7, #64]
 2834 1382 83F84020 		strb	r2, [r3, #64]
 992:build/openmote-cc2538_armgcc/openstack/03a-IPHC/iphc.c ****                              break;
 2835              		.loc 1 992 0
 2836 1386 2DE0     		b	.L165
 2837              	.L168:
 993:build/openmote-cc2538_armgcc/openstack/03a-IPHC/iphc.c ****                         case 8:
 994:build/openmote-cc2538_armgcc/openstack/03a-IPHC/iphc.c ****                              // this is source address 
 995:build/openmote-cc2538_armgcc/openstack/03a-IPHC/iphc.c ****                              packetfunctions_readAddress(((uint8_t*)(msg->payload+ipv6_header->head
 2838              		.loc 1 995 0
 2839 1388 FB6B     		ldr	r3, [r7, #60]
 2840 138a 5A68     		ldr	r2, [r3, #4]
 2841 138c 3B6C     		ldr	r3, [r7, #64]
 2842 138e 93F84030 		ldrb	r3, [r3, #64]	@ zero_extendqisi2
 2843 1392 1946     		mov	r1, r3
 2844 1394 97F84430 		ldrb	r3, [r7, #68]	@ zero_extendqisi2
 2845 1398 0B44     		add	r3, r3, r1
 2846 139a 1344     		add	r3, r3, r2
 2847 139c 1846     		mov	r0, r3
 2848 139e 0221     		movs	r1, #2
 2849 13a0 BA68     		ldr	r2, [r7, #8]
 2850 13a2 0023     		movs	r3, #0
 2851 13a4 FFF7FEFF 		bl	packetfunctions_readAddress
 996:build/openmote-cc2538_armgcc/openstack/03a-IPHC/iphc.c ****                              ipv6_header->header_length += 8*sizeof(uint8_t);
 2852              		.loc 1 996 0
 2853 13a8 3B6C     		ldr	r3, [r7, #64]
 2854 13aa 93F84030 		ldrb	r3, [r3, #64]	@ zero_extendqisi2
 2855 13ae 0833     		adds	r3, r3, #8
 2856 13b0 DAB2     		uxtb	r2, r3
 2857 13b2 3B6C     		ldr	r3, [r7, #64]
 2858 13b4 83F84020 		strb	r2, [r3, #64]
 997:build/openmote-cc2538_armgcc/openstack/03a-IPHC/iphc.c ****                              packetfunctions_mac64bToIp128b(idmanager_getMyID(ADDR_PREFIX),temp_add
 2859              		.loc 1 997 0
 2860 13b8 0520     		movs	r0, #5
 2861 13ba FFF7FEFF 		bl	idmanager_getMyID
 2862 13be 0246     		mov	r2, r0
 2863 13c0 3B6C     		ldr	r3, [r7, #64]
 2864 13c2 1E33     		adds	r3, r3, #30
 2865 13c4 1046     		mov	r0, r2
 2866 13c6 B968     		ldr	r1, [r7, #8]
 2867 13c8 1A46     		mov	r2, r3
 2868 13ca FFF7FEFF 		bl	packetfunctions_mac64bToIp128b
 998:build/openmote-cc2538_armgcc/openstack/03a-IPHC/iphc.c ****                              break;
 2869              		.loc 1 998 0
 2870 13ce 09E0     		b	.L165
 2871              	.L173:
 999:build/openmote-cc2538_armgcc/openstack/03a-IPHC/iphc.c ****                         default:
1000:build/openmote-cc2538_armgcc/openstack/03a-IPHC/iphc.c ****                              // do not support other length yet and destination address will be in 
1001:build/openmote-cc2538_armgcc/openstack/03a-IPHC/iphc.c ****                              openserial_printError(
 2872              		.loc 1 1001 0
 2873 13d0 7B7D     		ldrb	r3, [r7, #21]	@ zero_extendqisi2
 2874 13d2 9BB2     		uxth	r3, r3
 2875 13d4 013B     		subs	r3, r3, #1
 2876 13d6 9BB2     		uxth	r3, r3
 2877 13d8 1120     		movs	r0, #17
 2878 13da 0C21     		movs	r1, #12
 2879 13dc 0C22     		movs	r2, #12
 2880 13de FFF7FEFF 		bl	openserial_printError
 2881 13e2 FFE7     		b	.L164
 2882              	.L165:
 2883              	.L164:
1002:build/openmote-cc2538_armgcc/openstack/03a-IPHC/iphc.c ****                                 COMPONENT_IPHC,
1003:build/openmote-cc2538_armgcc/openstack/03a-IPHC/iphc.c ****                                 ERR_6LOWPAN_UNSUPPORTED,
1004:build/openmote-cc2538_armgcc/openstack/03a-IPHC/iphc.c ****                                 (errorparameter_t)12,
1005:build/openmote-cc2538_armgcc/openstack/03a-IPHC/iphc.c ****                                 (errorparameter_t)(ipinip_length-1)
1006:build/openmote-cc2538_armgcc/openstack/03a-IPHC/iphc.c ****                              );
1007:build/openmote-cc2538_armgcc/openstack/03a-IPHC/iphc.c ****                         }
1008:build/openmote-cc2538_armgcc/openstack/03a-IPHC/iphc.c ****                     }
1009:build/openmote-cc2538_armgcc/openstack/03a-IPHC/iphc.c ****                 }
1010:build/openmote-cc2538_armgcc/openstack/03a-IPHC/iphc.c **** 
1011:build/openmote-cc2538_armgcc/openstack/03a-IPHC/iphc.c ****             } else {
1012:build/openmote-cc2538_armgcc/openstack/03a-IPHC/iphc.c ****                 // ip in ip is elided: the followig is a critical 6lorh
1013:build/openmote-cc2538_armgcc/openstack/03a-IPHC/iphc.c ****                 // finish the ip header compression
1014:build/openmote-cc2538_armgcc/openstack/03a-IPHC/iphc.c ****             }
1015:build/openmote-cc2538_armgcc/openstack/03a-IPHC/iphc.c ****         }
1016:build/openmote-cc2538_armgcc/openstack/03a-IPHC/iphc.c ****     }
1017:build/openmote-cc2538_armgcc/openstack/03a-IPHC/iphc.c ****     return page;
 2884              		.loc 1 1017 0
 2885 13e4 FB7D     		ldrb	r3, [r7, #23]	@ zero_extendqisi2
1018:build/openmote-cc2538_armgcc/openstack/03a-IPHC/iphc.c **** }
 2886              		.loc 1 1018 0
 2887 13e6 1846     		mov	r0, r3
 2888 13e8 1837     		adds	r7, r7, #24
 2889 13ea BD46     		mov	sp, r7
 2890              		@ sp needed
 2891 13ec B0BD     		pop	{r4, r5, r7, pc}
 2892              		.cfi_endproc
 2893              	.LFE7:
 2895 13ee 00BF     		.align	2
 2896              		.global	iphc_prependIPv6HopByHopHeader
 2897              		.thumb
 2898              		.thumb_func
 2900              	iphc_prependIPv6HopByHopHeader:
 2901              	.LFB8:
1019:build/openmote-cc2538_armgcc/openstack/03a-IPHC/iphc.c **** 
1020:build/openmote-cc2538_armgcc/openstack/03a-IPHC/iphc.c **** //===== IPv6 hop-by-hop header
1021:build/openmote-cc2538_armgcc/openstack/03a-IPHC/iphc.c **** 
1022:build/openmote-cc2538_armgcc/openstack/03a-IPHC/iphc.c **** /**
1023:build/openmote-cc2538_armgcc/openstack/03a-IPHC/iphc.c **** \brief Prepend an IPv6 hop-by-hop header to a message.
1024:build/openmote-cc2538_armgcc/openstack/03a-IPHC/iphc.c **** 
1025:build/openmote-cc2538_armgcc/openstack/03a-IPHC/iphc.c **** \note The field are written in reverse order.
1026:build/openmote-cc2538_armgcc/openstack/03a-IPHC/iphc.c **** 
1027:build/openmote-cc2538_armgcc/openstack/03a-IPHC/iphc.c **** \param[in,out] msg             The message to prepend the header to.
1028:build/openmote-cc2538_armgcc/openstack/03a-IPHC/iphc.c **** \param[in]     nextheader      The next header value to use.
1029:build/openmote-cc2538_armgcc/openstack/03a-IPHC/iphc.c **** \param[in]     rpl_option      The RPL option to include.
1030:build/openmote-cc2538_armgcc/openstack/03a-IPHC/iphc.c **** */
1031:build/openmote-cc2538_armgcc/openstack/03a-IPHC/iphc.c **** void iphc_prependIPv6HopByHopHeader(
1032:build/openmote-cc2538_armgcc/openstack/03a-IPHC/iphc.c ****       OpenQueueEntry_t* msg,
1033:build/openmote-cc2538_armgcc/openstack/03a-IPHC/iphc.c ****       uint8_t           nextheader,
1034:build/openmote-cc2538_armgcc/openstack/03a-IPHC/iphc.c ****       rpl_option_ht*    rpl_option
1035:build/openmote-cc2538_armgcc/openstack/03a-IPHC/iphc.c ****    ){
 2902              		.loc 1 1035 0
 2903              		.cfi_startproc
 2904              		@ args = 0, pretend = 0, frame = 24
 2905              		@ frame_needed = 1, uses_anonymous_args = 0
 2906 13f0 80B5     		push	{r7, lr}
 2907              		.cfi_def_cfa_offset 8
 2908              		.cfi_offset 7, -8
 2909              		.cfi_offset 14, -4
 2910 13f2 86B0     		sub	sp, sp, #24
 2911              		.cfi_def_cfa_offset 32
 2912 13f4 00AF     		add	r7, sp, #0
 2913              		.cfi_def_cfa_register 7
 2914 13f6 F860     		str	r0, [r7, #12]
 2915 13f8 0B46     		mov	r3, r1
 2916 13fa 7A60     		str	r2, [r7, #4]
 2917 13fc FB72     		strb	r3, [r7, #11]
1036:build/openmote-cc2538_armgcc/openstack/03a-IPHC/iphc.c ****    uint8_t temp_8b;
1037:build/openmote-cc2538_armgcc/openstack/03a-IPHC/iphc.c ****    
1038:build/openmote-cc2538_armgcc/openstack/03a-IPHC/iphc.c ****    if ((rpl_option->flags & K_FLAG) == 0){
 2918              		.loc 1 1038 0
 2919 13fe 7B68     		ldr	r3, [r7, #4]
 2920 1400 5B78     		ldrb	r3, [r3, #1]	@ zero_extendqisi2
 2921 1402 03F00103 		and	r3, r3, #1
 2922 1406 002B     		cmp	r3, #0
 2923 1408 17D1     		bne	.L177
1039:build/openmote-cc2538_armgcc/openstack/03a-IPHC/iphc.c ****       packetfunctions_reserveHeaderSize(msg,sizeof(uint16_t));
 2924              		.loc 1 1039 0
 2925 140a F868     		ldr	r0, [r7, #12]
 2926 140c 0221     		movs	r1, #2
 2927 140e FFF7FEFF 		bl	packetfunctions_reserveHeaderSize
1040:build/openmote-cc2538_armgcc/openstack/03a-IPHC/iphc.c ****       msg->payload[0] = (uint8_t)((rpl_option->senderRank&0xFF00)>>8);
 2928              		.loc 1 1040 0
 2929 1412 FB68     		ldr	r3, [r7, #12]
 2930 1414 5B68     		ldr	r3, [r3, #4]
 2931 1416 7A68     		ldr	r2, [r7, #4]
 2932 1418 B2F80320 		ldrh	r2, [r2, #3]	@ unaligned
 2933 141c 92B2     		uxth	r2, r2
 2934 141e 120A     		lsrs	r2, r2, #8
 2935 1420 92B2     		uxth	r2, r2
 2936 1422 D2B2     		uxtb	r2, r2
 2937 1424 1A70     		strb	r2, [r3]
1041:build/openmote-cc2538_armgcc/openstack/03a-IPHC/iphc.c ****       msg->payload[1] = (uint8_t)(rpl_option->senderRank&0x00FF);
 2938              		.loc 1 1041 0
 2939 1426 FB68     		ldr	r3, [r7, #12]
 2940 1428 5B68     		ldr	r3, [r3, #4]
 2941 142a 0133     		adds	r3, r3, #1
 2942 142c 7A68     		ldr	r2, [r7, #4]
 2943 142e B2F80320 		ldrh	r2, [r2, #3]	@ unaligned
 2944 1432 92B2     		uxth	r2, r2
 2945 1434 D2B2     		uxtb	r2, r2
 2946 1436 1A70     		strb	r2, [r3]
 2947 1438 0DE0     		b	.L178
 2948              	.L177:
1042:build/openmote-cc2538_armgcc/openstack/03a-IPHC/iphc.c ****    } else {
1043:build/openmote-cc2538_armgcc/openstack/03a-IPHC/iphc.c ****       packetfunctions_reserveHeaderSize(msg,sizeof(uint8_t));
 2949              		.loc 1 1043 0
 2950 143a F868     		ldr	r0, [r7, #12]
 2951 143c 0121     		movs	r1, #1
 2952 143e FFF7FEFF 		bl	packetfunctions_reserveHeaderSize
1044:build/openmote-cc2538_armgcc/openstack/03a-IPHC/iphc.c ****       *((uint8_t*)(msg->payload)) = (uint8_t)((rpl_option->senderRank&0xFF00)>>8);
 2953              		.loc 1 1044 0
 2954 1442 FB68     		ldr	r3, [r7, #12]
 2955 1444 5B68     		ldr	r3, [r3, #4]
 2956 1446 7A68     		ldr	r2, [r7, #4]
 2957 1448 B2F80320 		ldrh	r2, [r2, #3]	@ unaligned
 2958 144c 92B2     		uxth	r2, r2
 2959 144e 120A     		lsrs	r2, r2, #8
 2960 1450 92B2     		uxth	r2, r2
 2961 1452 D2B2     		uxtb	r2, r2
 2962 1454 1A70     		strb	r2, [r3]
 2963              	.L178:
1045:build/openmote-cc2538_armgcc/openstack/03a-IPHC/iphc.c ****    }
1046:build/openmote-cc2538_armgcc/openstack/03a-IPHC/iphc.c ****    
1047:build/openmote-cc2538_armgcc/openstack/03a-IPHC/iphc.c ****    if ((rpl_option->flags & I_FLAG) == 0){
 2964              		.loc 1 1047 0
 2965 1456 7B68     		ldr	r3, [r7, #4]
 2966 1458 5B78     		ldrb	r3, [r3, #1]	@ zero_extendqisi2
 2967 145a 03F00203 		and	r3, r3, #2
 2968 145e 002B     		cmp	r3, #0
 2969 1460 08D1     		bne	.L179
1048:build/openmote-cc2538_armgcc/openstack/03a-IPHC/iphc.c ****       packetfunctions_reserveHeaderSize(msg,sizeof(uint8_t));
 2970              		.loc 1 1048 0
 2971 1462 F868     		ldr	r0, [r7, #12]
 2972 1464 0121     		movs	r1, #1
 2973 1466 FFF7FEFF 		bl	packetfunctions_reserveHeaderSize
1049:build/openmote-cc2538_armgcc/openstack/03a-IPHC/iphc.c ****       *((uint8_t*)(msg->payload)) = rpl_option->rplInstanceID;  
 2974              		.loc 1 1049 0
 2975 146a FB68     		ldr	r3, [r7, #12]
 2976 146c 5B68     		ldr	r3, [r3, #4]
 2977 146e 7A68     		ldr	r2, [r7, #4]
 2978 1470 9278     		ldrb	r2, [r2, #2]	@ zero_extendqisi2
 2979 1472 1A70     		strb	r2, [r3]
 2980              	.L179:
1050:build/openmote-cc2538_armgcc/openstack/03a-IPHC/iphc.c ****    }
1051:build/openmote-cc2538_armgcc/openstack/03a-IPHC/iphc.c ****    
1052:build/openmote-cc2538_armgcc/openstack/03a-IPHC/iphc.c ****    packetfunctions_reserveHeaderSize(msg,sizeof(uint8_t));
 2981              		.loc 1 1052 0
 2982 1474 F868     		ldr	r0, [r7, #12]
 2983 1476 0121     		movs	r1, #1
 2984 1478 FFF7FEFF 		bl	packetfunctions_reserveHeaderSize
1053:build/openmote-cc2538_armgcc/openstack/03a-IPHC/iphc.c ****    *((uint8_t*)(msg->payload)) = RPI_6LOTH_TYPE;
 2985              		.loc 1 1053 0
 2986 147c FB68     		ldr	r3, [r7, #12]
 2987 147e 5B68     		ldr	r3, [r3, #4]
 2988 1480 0522     		movs	r2, #5
 2989 1482 1A70     		strb	r2, [r3]
1054:build/openmote-cc2538_armgcc/openstack/03a-IPHC/iphc.c ****        
1055:build/openmote-cc2538_armgcc/openstack/03a-IPHC/iphc.c ****    temp_8b = CRITICAL_6LORH | rpl_option->flags; 
 2990              		.loc 1 1055 0
 2991 1484 7B68     		ldr	r3, [r7, #4]
 2992 1486 5B78     		ldrb	r3, [r3, #1]	@ zero_extendqisi2
 2993 1488 63F07F03 		orn	r3, r3, #127
 2994 148c FB75     		strb	r3, [r7, #23]
1056:build/openmote-cc2538_armgcc/openstack/03a-IPHC/iphc.c ****    packetfunctions_reserveHeaderSize(msg,sizeof(uint8_t));
 2995              		.loc 1 1056 0
 2996 148e F868     		ldr	r0, [r7, #12]
 2997 1490 0121     		movs	r1, #1
 2998 1492 FFF7FEFF 		bl	packetfunctions_reserveHeaderSize
1057:build/openmote-cc2538_armgcc/openstack/03a-IPHC/iphc.c ****    *((uint8_t*)(msg->payload)) = temp_8b;
 2999              		.loc 1 1057 0
 3000 1496 FB68     		ldr	r3, [r7, #12]
 3001 1498 5B68     		ldr	r3, [r3, #4]
 3002 149a FA7D     		ldrb	r2, [r7, #23]
 3003 149c 1A70     		strb	r2, [r3]
1058:build/openmote-cc2538_armgcc/openstack/03a-IPHC/iphc.c **** }
 3004              		.loc 1 1058 0
 3005 149e 1837     		adds	r7, r7, #24
 3006 14a0 BD46     		mov	sp, r7
 3007              		@ sp needed
 3008 14a2 80BD     		pop	{r7, pc}
 3009              		.cfi_endproc
 3010              	.LFE8:
 3012              		.align	2
 3013              		.global	iphc_retrieveIPv6HopByHopHeader
 3014              		.thumb
 3015              		.thumb_func
 3017              	iphc_retrieveIPv6HopByHopHeader:
 3018              	.LFB9:
1059:build/openmote-cc2538_armgcc/openstack/03a-IPHC/iphc.c **** 
1060:build/openmote-cc2538_armgcc/openstack/03a-IPHC/iphc.c **** /**
1061:build/openmote-cc2538_armgcc/openstack/03a-IPHC/iphc.c **** \brief Retrieve an IPv6 hop-by-hop header from a message.
1062:build/openmote-cc2538_armgcc/openstack/03a-IPHC/iphc.c **** 
1063:build/openmote-cc2538_armgcc/openstack/03a-IPHC/iphc.c **** \param[in,out] msg        The message to retrieve the header from.
1064:build/openmote-cc2538_armgcc/openstack/03a-IPHC/iphc.c **** \param[out]    rpl_option Pointer to the structure to hold the retrieved RPL option.
1065:build/openmote-cc2538_armgcc/openstack/03a-IPHC/iphc.c **** \returns       the header length in bytes.
1066:build/openmote-cc2538_armgcc/openstack/03a-IPHC/iphc.c **** */
1067:build/openmote-cc2538_armgcc/openstack/03a-IPHC/iphc.c **** uint8_t iphc_retrieveIPv6HopByHopHeader(
1068:build/openmote-cc2538_armgcc/openstack/03a-IPHC/iphc.c ****       OpenQueueEntry_t*      msg,
1069:build/openmote-cc2538_armgcc/openstack/03a-IPHC/iphc.c ****       rpl_option_ht*         rpl_option
1070:build/openmote-cc2538_armgcc/openstack/03a-IPHC/iphc.c ****    ){
 3019              		.loc 1 1070 0
 3020              		.cfi_startproc
 3021              		@ args = 0, pretend = 0, frame = 16
 3022              		@ frame_needed = 1, uses_anonymous_args = 0
 3023 14a4 80B5     		push	{r7, lr}
 3024              		.cfi_def_cfa_offset 8
 3025              		.cfi_offset 7, -8
 3026              		.cfi_offset 14, -4
 3027 14a6 84B0     		sub	sp, sp, #16
 3028              		.cfi_def_cfa_offset 24
 3029 14a8 00AF     		add	r7, sp, #0
 3030              		.cfi_def_cfa_register 7
 3031 14aa 7860     		str	r0, [r7, #4]
 3032 14ac 3960     		str	r1, [r7]
1071:build/openmote-cc2538_armgcc/openstack/03a-IPHC/iphc.c ****    uint8_t temp_8b;
1072:build/openmote-cc2538_armgcc/openstack/03a-IPHC/iphc.c ****    uint8_t type;
1073:build/openmote-cc2538_armgcc/openstack/03a-IPHC/iphc.c ****    uint8_t length;
1074:build/openmote-cc2538_armgcc/openstack/03a-IPHC/iphc.c ****    
1075:build/openmote-cc2538_armgcc/openstack/03a-IPHC/iphc.c ****    // initialize the header length (will increment at each field)
1076:build/openmote-cc2538_armgcc/openstack/03a-IPHC/iphc.c ****    length = 0;
 3033              		.loc 1 1076 0
 3034 14ae 0023     		movs	r3, #0
 3035 14b0 FB73     		strb	r3, [r7, #15]
1077:build/openmote-cc2538_armgcc/openstack/03a-IPHC/iphc.c ****    
1078:build/openmote-cc2538_armgcc/openstack/03a-IPHC/iphc.c ****    temp_8b = *((uint8_t*)(msg->payload)+length);
 3036              		.loc 1 1078 0
 3037 14b2 7B68     		ldr	r3, [r7, #4]
 3038 14b4 5A68     		ldr	r2, [r3, #4]
 3039 14b6 FB7B     		ldrb	r3, [r7, #15]	@ zero_extendqisi2
 3040 14b8 1344     		add	r3, r3, r2
 3041 14ba 1B78     		ldrb	r3, [r3]
 3042 14bc BB73     		strb	r3, [r7, #14]
1079:build/openmote-cc2538_armgcc/openstack/03a-IPHC/iphc.c ****    type    = *((uint8_t*)(msg->payload)+length+1);
 3043              		.loc 1 1079 0
 3044 14be 7B68     		ldr	r3, [r7, #4]
 3045 14c0 5A68     		ldr	r2, [r3, #4]
 3046 14c2 FB7B     		ldrb	r3, [r7, #15]	@ zero_extendqisi2
 3047 14c4 0133     		adds	r3, r3, #1
 3048 14c6 1344     		add	r3, r3, r2
 3049 14c8 1B78     		ldrb	r3, [r3]
 3050 14ca 7B73     		strb	r3, [r7, #13]
1080:build/openmote-cc2538_armgcc/openstack/03a-IPHC/iphc.c ****    
1081:build/openmote-cc2538_armgcc/openstack/03a-IPHC/iphc.c ****    if (
1082:build/openmote-cc2538_armgcc/openstack/03a-IPHC/iphc.c ****        (temp_8b & FORMAT_6LORH_MASK) == CRITICAL_6LORH &&
 3051              		.loc 1 1082 0
 3052 14cc BB7B     		ldrb	r3, [r7, #14]	@ zero_extendqisi2
 3053 14ce 03F0E003 		and	r3, r3, #224
1081:build/openmote-cc2538_armgcc/openstack/03a-IPHC/iphc.c ****        (temp_8b & FORMAT_6LORH_MASK) == CRITICAL_6LORH &&
 3054              		.loc 1 1081 0
 3055 14d2 802B     		cmp	r3, #128
 3056 14d4 57D1     		bne	.L181
 3057              		.loc 1 1082 0
 3058 14d6 7B7B     		ldrb	r3, [r7, #13]	@ zero_extendqisi2
 3059 14d8 052B     		cmp	r3, #5
 3060 14da 54D1     		bne	.L181
1083:build/openmote-cc2538_armgcc/openstack/03a-IPHC/iphc.c ****        type == RPI_6LOTH_TYPE
1084:build/openmote-cc2538_armgcc/openstack/03a-IPHC/iphc.c ****    ){
1085:build/openmote-cc2538_armgcc/openstack/03a-IPHC/iphc.c ****        // this is 6LoRH RPI, move pointer to compressed field
1086:build/openmote-cc2538_armgcc/openstack/03a-IPHC/iphc.c ****        length += sizeof(uint16_t);
 3061              		.loc 1 1086 0
 3062 14dc FB7B     		ldrb	r3, [r7, #15]
 3063 14de 0233     		adds	r3, r3, #2
 3064 14e0 FB73     		strb	r3, [r7, #15]
1087:build/openmote-cc2538_armgcc/openstack/03a-IPHC/iphc.c ****        // get the O, R, F I and K value
1088:build/openmote-cc2538_armgcc/openstack/03a-IPHC/iphc.c ****        rpl_option->flags = (uint8_t)(temp_8b & FLAG_MASK);
 3065              		.loc 1 1088 0
 3066 14e2 BB7B     		ldrb	r3, [r7, #14]
 3067 14e4 03F01F03 		and	r3, r3, #31
 3068 14e8 DAB2     		uxtb	r2, r3
 3069 14ea 3B68     		ldr	r3, [r7]
 3070 14ec 5A70     		strb	r2, [r3, #1]
1089:build/openmote-cc2538_armgcc/openstack/03a-IPHC/iphc.c ****        // check FLAG I to get rplinstance ID
1090:build/openmote-cc2538_armgcc/openstack/03a-IPHC/iphc.c ****        if ((temp_8b & I_FLAG)==0){
 3071              		.loc 1 1090 0
 3072 14ee BB7B     		ldrb	r3, [r7, #14]	@ zero_extendqisi2
 3073 14f0 03F00203 		and	r3, r3, #2
 3074 14f4 002B     		cmp	r3, #0
 3075 14f6 0AD1     		bne	.L182
1091:build/openmote-cc2538_armgcc/openstack/03a-IPHC/iphc.c ****            rpl_option->rplInstanceID = *((uint8_t*)(msg->payload)+length);
 3076              		.loc 1 1091 0
 3077 14f8 7B68     		ldr	r3, [r7, #4]
 3078 14fa 5A68     		ldr	r2, [r3, #4]
 3079 14fc FB7B     		ldrb	r3, [r7, #15]	@ zero_extendqisi2
 3080 14fe 1344     		add	r3, r3, r2
 3081 1500 1A78     		ldrb	r2, [r3]	@ zero_extendqisi2
 3082 1502 3B68     		ldr	r3, [r7]
 3083 1504 9A70     		strb	r2, [r3, #2]
1092:build/openmote-cc2538_armgcc/openstack/03a-IPHC/iphc.c ****            length += sizeof(uint8_t);
 3084              		.loc 1 1092 0
 3085 1506 FB7B     		ldrb	r3, [r7, #15]
 3086 1508 0133     		adds	r3, r3, #1
 3087 150a FB73     		strb	r3, [r7, #15]
 3088 150c 02E0     		b	.L183
 3089              	.L182:
1093:build/openmote-cc2538_armgcc/openstack/03a-IPHC/iphc.c ****        } else {
1094:build/openmote-cc2538_armgcc/openstack/03a-IPHC/iphc.c ****            // Global RPLInstanceID
1095:build/openmote-cc2538_armgcc/openstack/03a-IPHC/iphc.c ****            rpl_option->rplInstanceID = 0;
 3090              		.loc 1 1095 0
 3091 150e 3B68     		ldr	r3, [r7]
 3092 1510 0022     		movs	r2, #0
 3093 1512 9A70     		strb	r2, [r3, #2]
 3094              	.L183:
1096:build/openmote-cc2538_armgcc/openstack/03a-IPHC/iphc.c ****        }
1097:build/openmote-cc2538_armgcc/openstack/03a-IPHC/iphc.c ****        // check FLAG K to get senderRannk
1098:build/openmote-cc2538_armgcc/openstack/03a-IPHC/iphc.c ****        if ((temp_8b & K_FLAG)==0){
 3095              		.loc 1 1098 0
 3096 1514 BB7B     		ldrb	r3, [r7, #14]	@ zero_extendqisi2
 3097 1516 03F00103 		and	r3, r3, #1
 3098 151a 002B     		cmp	r3, #0
 3099 151c 1DD1     		bne	.L184
1099:build/openmote-cc2538_armgcc/openstack/03a-IPHC/iphc.c ****            rpl_option->senderRank = *((uint8_t*)(msg->payload)+length);
 3100              		.loc 1 1099 0
 3101 151e 7B68     		ldr	r3, [r7, #4]
 3102 1520 5A68     		ldr	r2, [r3, #4]
 3103 1522 FB7B     		ldrb	r3, [r7, #15]	@ zero_extendqisi2
 3104 1524 1344     		add	r3, r3, r2
 3105 1526 1B78     		ldrb	r3, [r3]	@ zero_extendqisi2
 3106 1528 1A46     		mov	r2, r3
 3107 152a 3B68     		ldr	r3, [r7]
 3108 152c A3F80320 		strh	r2, [r3, #3]	@ unaligned
1100:build/openmote-cc2538_armgcc/openstack/03a-IPHC/iphc.c ****            rpl_option->senderRank = ((rpl_option->senderRank)<<8)+*((uint8_t*)(msg->payload)+length
 3109              		.loc 1 1100 0
 3110 1530 3B68     		ldr	r3, [r7]
 3111 1532 B3F80330 		ldrh	r3, [r3, #3]	@ unaligned
 3112 1536 9BB2     		uxth	r3, r3
 3113 1538 1B02     		lsls	r3, r3, #8
 3114 153a 9AB2     		uxth	r2, r3
 3115 153c 7B68     		ldr	r3, [r7, #4]
 3116 153e 5968     		ldr	r1, [r3, #4]
 3117 1540 FB7B     		ldrb	r3, [r7, #15]	@ zero_extendqisi2
 3118 1542 0133     		adds	r3, r3, #1
 3119 1544 0B44     		add	r3, r3, r1
 3120 1546 1B78     		ldrb	r3, [r3]	@ zero_extendqisi2
 3121 1548 1344     		add	r3, r3, r2
 3122 154a 9AB2     		uxth	r2, r3
 3123 154c 3B68     		ldr	r3, [r7]
 3124 154e A3F80320 		strh	r2, [r3, #3]	@ unaligned
1101:build/openmote-cc2538_armgcc/openstack/03a-IPHC/iphc.c ****            length += sizeof(uint16_t);
 3125              		.loc 1 1101 0
 3126 1552 FB7B     		ldrb	r3, [r7, #15]
 3127 1554 0233     		adds	r3, r3, #2
 3128 1556 FB73     		strb	r3, [r7, #15]
1098:build/openmote-cc2538_armgcc/openstack/03a-IPHC/iphc.c ****            rpl_option->senderRank = *((uint8_t*)(msg->payload)+length);
 3129              		.loc 1 1098 0
 3130 1558 1CE0     		b	.L186
 3131              	.L184:
1102:build/openmote-cc2538_armgcc/openstack/03a-IPHC/iphc.c ****        } else{
1103:build/openmote-cc2538_armgcc/openstack/03a-IPHC/iphc.c ****            rpl_option->senderRank = *((uint8_t*)(msg->payload)+length);
 3132              		.loc 1 1103 0
 3133 155a 7B68     		ldr	r3, [r7, #4]
 3134 155c 5A68     		ldr	r2, [r3, #4]
 3135 155e FB7B     		ldrb	r3, [r7, #15]	@ zero_extendqisi2
 3136 1560 1344     		add	r3, r3, r2
 3137 1562 1B78     		ldrb	r3, [r3]	@ zero_extendqisi2
 3138 1564 1A46     		mov	r2, r3
 3139 1566 3B68     		ldr	r3, [r7]
 3140 1568 A3F80320 		strh	r2, [r3, #3]	@ unaligned
1104:build/openmote-cc2538_armgcc/openstack/03a-IPHC/iphc.c ****            rpl_option->senderRank = rpl_option->senderRank*256;
 3141              		.loc 1 1104 0
 3142 156c 3B68     		ldr	r3, [r7]
 3143 156e B3F80330 		ldrh	r3, [r3, #3]	@ unaligned
 3144 1572 9BB2     		uxth	r3, r3
 3145 1574 1B02     		lsls	r3, r3, #8
 3146 1576 9AB2     		uxth	r2, r3
 3147 1578 3B68     		ldr	r3, [r7]
 3148 157a A3F80320 		strh	r2, [r3, #3]	@ unaligned
1105:build/openmote-cc2538_armgcc/openstack/03a-IPHC/iphc.c ****            length  += sizeof(uint8_t);
 3149              		.loc 1 1105 0
 3150 157e FB7B     		ldrb	r3, [r7, #15]
 3151 1580 0133     		adds	r3, r3, #1
 3152 1582 FB73     		strb	r3, [r7, #15]
1098:build/openmote-cc2538_armgcc/openstack/03a-IPHC/iphc.c ****            rpl_option->senderRank = *((uint8_t*)(msg->payload)+length);
 3153              		.loc 1 1098 0
 3154 1584 06E0     		b	.L186
 3155              	.L181:
1106:build/openmote-cc2538_armgcc/openstack/03a-IPHC/iphc.c ****        }
1107:build/openmote-cc2538_armgcc/openstack/03a-IPHC/iphc.c ****    } else {
1108:build/openmote-cc2538_armgcc/openstack/03a-IPHC/iphc.c ****        openserial_printError(
 3156              		.loc 1 1108 0
 3157 1586 7B7B     		ldrb	r3, [r7, #13]	@ zero_extendqisi2
 3158 1588 9BB2     		uxth	r3, r3
 3159 158a 1120     		movs	r0, #17
 3160 158c 0C21     		movs	r1, #12
 3161 158e 0E22     		movs	r2, #14
 3162 1590 FFF7FEFF 		bl	openserial_printError
 3163              	.L186:
1109:build/openmote-cc2538_armgcc/openstack/03a-IPHC/iphc.c ****           COMPONENT_IPHC,
1110:build/openmote-cc2538_armgcc/openstack/03a-IPHC/iphc.c ****           ERR_6LOWPAN_UNSUPPORTED,
1111:build/openmote-cc2538_armgcc/openstack/03a-IPHC/iphc.c ****           (errorparameter_t)14,
1112:build/openmote-cc2538_armgcc/openstack/03a-IPHC/iphc.c ****           (errorparameter_t)type
1113:build/openmote-cc2538_armgcc/openstack/03a-IPHC/iphc.c ****        );
1114:build/openmote-cc2538_armgcc/openstack/03a-IPHC/iphc.c ****    }
1115:build/openmote-cc2538_armgcc/openstack/03a-IPHC/iphc.c ****    return length;
 3164              		.loc 1 1115 0
 3165 1594 FB7B     		ldrb	r3, [r7, #15]	@ zero_extendqisi2
1116:build/openmote-cc2538_armgcc/openstack/03a-IPHC/iphc.c **** }
 3166              		.loc 1 1116 0
 3167 1596 1846     		mov	r0, r3
 3168 1598 1037     		adds	r7, r7, #16
 3169 159a BD46     		mov	sp, r7
 3170              		@ sp needed
 3171 159c 80BD     		pop	{r7, pc}
 3172              		.cfi_endproc
 3173              	.LFE9:
 3175              	.Letext0:
 3176              		.file 2 "/usr/include/newlib/machine/_default_types.h"
 3177              		.file 3 "/usr/include/newlib/stdint.h"
 3178              		.file 4 "inc/opendefs.h"
 3179              		.file 5 "build/openmote-cc2538_armgcc/openstack/03a-IPHC/iphc.h"
 3180              		.file 6 "openstack/03b-IPv6/forwarding.h"
 3181              		.file 7 "bsp/boards/openmote-cc2538/board_info.h"
 3182              		.file 8 "openstack/03b-IPv6/icmpv6rpl.h"