   1              		.syntax unified
   2              		.cpu cortex-m3
   3              		.fpu softvfp
   4              		.eabi_attribute 20, 1
   5              		.eabi_attribute 21, 1
   6              		.eabi_attribute 23, 3
   7              		.eabi_attribute 24, 1
   8              		.eabi_attribute 25, 1
   9              		.eabi_attribute 26, 1
  10              		.eabi_attribute 30, 6
  11              		.eabi_attribute 34, 1
  12              		.eabi_attribute 18, 4
  13              		.thumb
  14              		.file	"aes_ecb.c"
  15              		.text
  16              	.Ltext0:
  17              		.cfi_sections	.debug_frame
  18              		.section	.rodata
  19              		.align	2
  22              	rreg_uriquery:
  23 0000 683D7563 		.ascii	"h=ucb\000"
  23      6200
  24 0006 0000     		.align	2
  27              	infoBoardname:
  28 0008 43433235 		.ascii	"CC2538\000"
  28      333800
  29 000f 00       		.align	2
  32              	infouCName:
  33 0010 43433235 		.ascii	"CC2538\000"
  33      333800
  34 0017 00       		.align	2
  37              	infoRadioName:
  38 0018 43433235 		.ascii	"CC2538 SoC\000"
  38      33382053 
  38      6F4300
  39 0023 00       		.align	2
  42              	infoStackName:
  43 0024 4F70656E 		.ascii	"OpenWSN \000"
  43      57534E20 
  43      00
  44              		.global	sbox
  45 002d 000000   		.align	2
  48              	sbox:
  49 0030 63       		.byte	99
  50 0031 7C       		.byte	124
  51 0032 77       		.byte	119
  52 0033 7B       		.byte	123
  53 0034 F2       		.byte	-14
  54 0035 6B       		.byte	107
  55 0036 6F       		.byte	111
  56 0037 C5       		.byte	-59
  57 0038 30       		.byte	48
  58 0039 01       		.byte	1
  59 003a 67       		.byte	103
  60 003b 2B       		.byte	43
  61 003c FE       		.byte	-2
  62 003d D7       		.byte	-41
  63 003e AB       		.byte	-85
  64 003f 76       		.byte	118
  65 0040 CA       		.byte	-54
  66 0041 82       		.byte	-126
  67 0042 C9       		.byte	-55
  68 0043 7D       		.byte	125
  69 0044 FA       		.byte	-6
  70 0045 59       		.byte	89
  71 0046 47       		.byte	71
  72 0047 F0       		.byte	-16
  73 0048 AD       		.byte	-83
  74 0049 D4       		.byte	-44
  75 004a A2       		.byte	-94
  76 004b AF       		.byte	-81
  77 004c 9C       		.byte	-100
  78 004d A4       		.byte	-92
  79 004e 72       		.byte	114
  80 004f C0       		.byte	-64
  81 0050 B7       		.byte	-73
  82 0051 FD       		.byte	-3
  83 0052 93       		.byte	-109
  84 0053 26       		.byte	38
  85 0054 36       		.byte	54
  86 0055 3F       		.byte	63
  87 0056 F7       		.byte	-9
  88 0057 CC       		.byte	-52
  89 0058 34       		.byte	52
  90 0059 A5       		.byte	-91
  91 005a E5       		.byte	-27
  92 005b F1       		.byte	-15
  93 005c 71       		.byte	113
  94 005d D8       		.byte	-40
  95 005e 31       		.byte	49
  96 005f 15       		.byte	21
  97 0060 04       		.byte	4
  98 0061 C7       		.byte	-57
  99 0062 23       		.byte	35
 100 0063 C3       		.byte	-61
 101 0064 18       		.byte	24
 102 0065 96       		.byte	-106
 103 0066 05       		.byte	5
 104 0067 9A       		.byte	-102
 105 0068 07       		.byte	7
 106 0069 12       		.byte	18
 107 006a 80       		.byte	-128
 108 006b E2       		.byte	-30
 109 006c EB       		.byte	-21
 110 006d 27       		.byte	39
 111 006e B2       		.byte	-78
 112 006f 75       		.byte	117
 113 0070 09       		.byte	9
 114 0071 83       		.byte	-125
 115 0072 2C       		.byte	44
 116 0073 1A       		.byte	26
 117 0074 1B       		.byte	27
 118 0075 6E       		.byte	110
 119 0076 5A       		.byte	90
 120 0077 A0       		.byte	-96
 121 0078 52       		.byte	82
 122 0079 3B       		.byte	59
 123 007a D6       		.byte	-42
 124 007b B3       		.byte	-77
 125 007c 29       		.byte	41
 126 007d E3       		.byte	-29
 127 007e 2F       		.byte	47
 128 007f 84       		.byte	-124
 129 0080 53       		.byte	83
 130 0081 D1       		.byte	-47
 131 0082 00       		.byte	0
 132 0083 ED       		.byte	-19
 133 0084 20       		.byte	32
 134 0085 FC       		.byte	-4
 135 0086 B1       		.byte	-79
 136 0087 5B       		.byte	91
 137 0088 6A       		.byte	106
 138 0089 CB       		.byte	-53
 139 008a BE       		.byte	-66
 140 008b 39       		.byte	57
 141 008c 4A       		.byte	74
 142 008d 4C       		.byte	76
 143 008e 58       		.byte	88
 144 008f CF       		.byte	-49
 145 0090 D0       		.byte	-48
 146 0091 EF       		.byte	-17
 147 0092 AA       		.byte	-86
 148 0093 FB       		.byte	-5
 149 0094 43       		.byte	67
 150 0095 4D       		.byte	77
 151 0096 33       		.byte	51
 152 0097 85       		.byte	-123
 153 0098 45       		.byte	69
 154 0099 F9       		.byte	-7
 155 009a 02       		.byte	2
 156 009b 7F       		.byte	127
 157 009c 50       		.byte	80
 158 009d 3C       		.byte	60
 159 009e 9F       		.byte	-97
 160 009f A8       		.byte	-88
 161 00a0 51       		.byte	81
 162 00a1 A3       		.byte	-93
 163 00a2 40       		.byte	64
 164 00a3 8F       		.byte	-113
 165 00a4 92       		.byte	-110
 166 00a5 9D       		.byte	-99
 167 00a6 38       		.byte	56
 168 00a7 F5       		.byte	-11
 169 00a8 BC       		.byte	-68
 170 00a9 B6       		.byte	-74
 171 00aa DA       		.byte	-38
 172 00ab 21       		.byte	33
 173 00ac 10       		.byte	16
 174 00ad FF       		.byte	-1
 175 00ae F3       		.byte	-13
 176 00af D2       		.byte	-46
 177 00b0 CD       		.byte	-51
 178 00b1 0C       		.byte	12
 179 00b2 13       		.byte	19
 180 00b3 EC       		.byte	-20
 181 00b4 5F       		.byte	95
 182 00b5 97       		.byte	-105
 183 00b6 44       		.byte	68
 184 00b7 17       		.byte	23
 185 00b8 C4       		.byte	-60
 186 00b9 A7       		.byte	-89
 187 00ba 7E       		.byte	126
 188 00bb 3D       		.byte	61
 189 00bc 64       		.byte	100
 190 00bd 5D       		.byte	93
 191 00be 19       		.byte	25
 192 00bf 73       		.byte	115
 193 00c0 60       		.byte	96
 194 00c1 81       		.byte	-127
 195 00c2 4F       		.byte	79
 196 00c3 DC       		.byte	-36
 197 00c4 22       		.byte	34
 198 00c5 2A       		.byte	42
 199 00c6 90       		.byte	-112
 200 00c7 88       		.byte	-120
 201 00c8 46       		.byte	70
 202 00c9 EE       		.byte	-18
 203 00ca B8       		.byte	-72
 204 00cb 14       		.byte	20
 205 00cc DE       		.byte	-34
 206 00cd 5E       		.byte	94
 207 00ce 0B       		.byte	11
 208 00cf DB       		.byte	-37
 209 00d0 E0       		.byte	-32
 210 00d1 32       		.byte	50
 211 00d2 3A       		.byte	58
 212 00d3 0A       		.byte	10
 213 00d4 49       		.byte	73
 214 00d5 06       		.byte	6
 215 00d6 24       		.byte	36
 216 00d7 5C       		.byte	92
 217 00d8 C2       		.byte	-62
 218 00d9 D3       		.byte	-45
 219 00da AC       		.byte	-84
 220 00db 62       		.byte	98
 221 00dc 91       		.byte	-111
 222 00dd 95       		.byte	-107
 223 00de E4       		.byte	-28
 224 00df 79       		.byte	121
 225 00e0 E7       		.byte	-25
 226 00e1 C8       		.byte	-56
 227 00e2 37       		.byte	55
 228 00e3 6D       		.byte	109
 229 00e4 8D       		.byte	-115
 230 00e5 D5       		.byte	-43
 231 00e6 4E       		.byte	78
 232 00e7 A9       		.byte	-87
 233 00e8 6C       		.byte	108
 234 00e9 56       		.byte	86
 235 00ea F4       		.byte	-12
 236 00eb EA       		.byte	-22
 237 00ec 65       		.byte	101
 238 00ed 7A       		.byte	122
 239 00ee AE       		.byte	-82
 240 00ef 08       		.byte	8
 241 00f0 BA       		.byte	-70
 242 00f1 78       		.byte	120
 243 00f2 25       		.byte	37
 244 00f3 2E       		.byte	46
 245 00f4 1C       		.byte	28
 246 00f5 A6       		.byte	-90
 247 00f6 B4       		.byte	-76
 248 00f7 C6       		.byte	-58
 249 00f8 E8       		.byte	-24
 250 00f9 DD       		.byte	-35
 251 00fa 74       		.byte	116
 252 00fb 1F       		.byte	31
 253 00fc 4B       		.byte	75
 254 00fd BD       		.byte	-67
 255 00fe 8B       		.byte	-117
 256 00ff 8A       		.byte	-118
 257 0100 70       		.byte	112
 258 0101 3E       		.byte	62
 259 0102 B5       		.byte	-75
 260 0103 66       		.byte	102
 261 0104 48       		.byte	72
 262 0105 03       		.byte	3
 263 0106 F6       		.byte	-10
 264 0107 0E       		.byte	14
 265 0108 61       		.byte	97
 266 0109 35       		.byte	53
 267 010a 57       		.byte	87
 268 010b B9       		.byte	-71
 269 010c 86       		.byte	-122
 270 010d C1       		.byte	-63
 271 010e 1D       		.byte	29
 272 010f 9E       		.byte	-98
 273 0110 E1       		.byte	-31
 274 0111 F8       		.byte	-8
 275 0112 98       		.byte	-104
 276 0113 11       		.byte	17
 277 0114 69       		.byte	105
 278 0115 D9       		.byte	-39
 279 0116 8E       		.byte	-114
 280 0117 94       		.byte	-108
 281 0118 9B       		.byte	-101
 282 0119 1E       		.byte	30
 283 011a 87       		.byte	-121
 284 011b E9       		.byte	-23
 285 011c CE       		.byte	-50
 286 011d 55       		.byte	85
 287 011e 28       		.byte	40
 288 011f DF       		.byte	-33
 289 0120 8C       		.byte	-116
 290 0121 A1       		.byte	-95
 291 0122 89       		.byte	-119
 292 0123 0D       		.byte	13
 293 0124 BF       		.byte	-65
 294 0125 E6       		.byte	-26
 295 0126 42       		.byte	66
 296 0127 68       		.byte	104
 297 0128 41       		.byte	65
 298 0129 99       		.byte	-103
 299 012a 2D       		.byte	45
 300 012b 0F       		.byte	15
 301 012c B0       		.byte	-80
 302 012d 54       		.byte	84
 303 012e BB       		.byte	-69
 304 012f 16       		.byte	22
 305              		.global	rsbox
 306              		.align	2
 309              	rsbox:
 310 0130 52       		.byte	82
 311 0131 09       		.byte	9
 312 0132 6A       		.byte	106
 313 0133 D5       		.byte	-43
 314 0134 30       		.byte	48
 315 0135 36       		.byte	54
 316 0136 A5       		.byte	-91
 317 0137 38       		.byte	56
 318 0138 BF       		.byte	-65
 319 0139 40       		.byte	64
 320 013a A3       		.byte	-93
 321 013b 9E       		.byte	-98
 322 013c 81       		.byte	-127
 323 013d F3       		.byte	-13
 324 013e D7       		.byte	-41
 325 013f FB       		.byte	-5
 326 0140 7C       		.byte	124
 327 0141 E3       		.byte	-29
 328 0142 39       		.byte	57
 329 0143 82       		.byte	-126
 330 0144 9B       		.byte	-101
 331 0145 2F       		.byte	47
 332 0146 FF       		.byte	-1
 333 0147 87       		.byte	-121
 334 0148 34       		.byte	52
 335 0149 8E       		.byte	-114
 336 014a 43       		.byte	67
 337 014b 44       		.byte	68
 338 014c C4       		.byte	-60
 339 014d DE       		.byte	-34
 340 014e E9       		.byte	-23
 341 014f CB       		.byte	-53
 342 0150 54       		.byte	84
 343 0151 7B       		.byte	123
 344 0152 94       		.byte	-108
 345 0153 32       		.byte	50
 346 0154 A6       		.byte	-90
 347 0155 C2       		.byte	-62
 348 0156 23       		.byte	35
 349 0157 3D       		.byte	61
 350 0158 EE       		.byte	-18
 351 0159 4C       		.byte	76
 352 015a 95       		.byte	-107
 353 015b 0B       		.byte	11
 354 015c 42       		.byte	66
 355 015d FA       		.byte	-6
 356 015e C3       		.byte	-61
 357 015f 4E       		.byte	78
 358 0160 08       		.byte	8
 359 0161 2E       		.byte	46
 360 0162 A1       		.byte	-95
 361 0163 66       		.byte	102
 362 0164 28       		.byte	40
 363 0165 D9       		.byte	-39
 364 0166 24       		.byte	36
 365 0167 B2       		.byte	-78
 366 0168 76       		.byte	118
 367 0169 5B       		.byte	91
 368 016a A2       		.byte	-94
 369 016b 49       		.byte	73
 370 016c 6D       		.byte	109
 371 016d 8B       		.byte	-117
 372 016e D1       		.byte	-47
 373 016f 25       		.byte	37
 374 0170 72       		.byte	114
 375 0171 F8       		.byte	-8
 376 0172 F6       		.byte	-10
 377 0173 64       		.byte	100
 378 0174 86       		.byte	-122
 379 0175 68       		.byte	104
 380 0176 98       		.byte	-104
 381 0177 16       		.byte	22
 382 0178 D4       		.byte	-44
 383 0179 A4       		.byte	-92
 384 017a 5C       		.byte	92
 385 017b CC       		.byte	-52
 386 017c 5D       		.byte	93
 387 017d 65       		.byte	101
 388 017e B6       		.byte	-74
 389 017f 92       		.byte	-110
 390 0180 6C       		.byte	108
 391 0181 70       		.byte	112
 392 0182 48       		.byte	72
 393 0183 50       		.byte	80
 394 0184 FD       		.byte	-3
 395 0185 ED       		.byte	-19
 396 0186 B9       		.byte	-71
 397 0187 DA       		.byte	-38
 398 0188 5E       		.byte	94
 399 0189 15       		.byte	21
 400 018a 46       		.byte	70
 401 018b 57       		.byte	87
 402 018c A7       		.byte	-89
 403 018d 8D       		.byte	-115
 404 018e 9D       		.byte	-99
 405 018f 84       		.byte	-124
 406 0190 90       		.byte	-112
 407 0191 D8       		.byte	-40
 408 0192 AB       		.byte	-85
 409 0193 00       		.byte	0
 410 0194 8C       		.byte	-116
 411 0195 BC       		.byte	-68
 412 0196 D3       		.byte	-45
 413 0197 0A       		.byte	10
 414 0198 F7       		.byte	-9
 415 0199 E4       		.byte	-28
 416 019a 58       		.byte	88
 417 019b 05       		.byte	5
 418 019c B8       		.byte	-72
 419 019d B3       		.byte	-77
 420 019e 45       		.byte	69
 421 019f 06       		.byte	6
 422 01a0 D0       		.byte	-48
 423 01a1 2C       		.byte	44
 424 01a2 1E       		.byte	30
 425 01a3 8F       		.byte	-113
 426 01a4 CA       		.byte	-54
 427 01a5 3F       		.byte	63
 428 01a6 0F       		.byte	15
 429 01a7 02       		.byte	2
 430 01a8 C1       		.byte	-63
 431 01a9 AF       		.byte	-81
 432 01aa BD       		.byte	-67
 433 01ab 03       		.byte	3
 434 01ac 01       		.byte	1
 435 01ad 13       		.byte	19
 436 01ae 8A       		.byte	-118
 437 01af 6B       		.byte	107
 438 01b0 3A       		.byte	58
 439 01b1 91       		.byte	-111
 440 01b2 11       		.byte	17
 441 01b3 41       		.byte	65
 442 01b4 4F       		.byte	79
 443 01b5 67       		.byte	103
 444 01b6 DC       		.byte	-36
 445 01b7 EA       		.byte	-22
 446 01b8 97       		.byte	-105
 447 01b9 F2       		.byte	-14
 448 01ba CF       		.byte	-49
 449 01bb CE       		.byte	-50
 450 01bc F0       		.byte	-16
 451 01bd B4       		.byte	-76
 452 01be E6       		.byte	-26
 453 01bf 73       		.byte	115
 454 01c0 96       		.byte	-106
 455 01c1 AC       		.byte	-84
 456 01c2 74       		.byte	116
 457 01c3 22       		.byte	34
 458 01c4 E7       		.byte	-25
 459 01c5 AD       		.byte	-83
 460 01c6 35       		.byte	53
 461 01c7 85       		.byte	-123
 462 01c8 E2       		.byte	-30
 463 01c9 F9       		.byte	-7
 464 01ca 37       		.byte	55
 465 01cb E8       		.byte	-24
 466 01cc 1C       		.byte	28
 467 01cd 75       		.byte	117
 468 01ce DF       		.byte	-33
 469 01cf 6E       		.byte	110
 470 01d0 47       		.byte	71
 471 01d1 F1       		.byte	-15
 472 01d2 1A       		.byte	26
 473 01d3 71       		.byte	113
 474 01d4 1D       		.byte	29
 475 01d5 29       		.byte	41
 476 01d6 C5       		.byte	-59
 477 01d7 89       		.byte	-119
 478 01d8 6F       		.byte	111
 479 01d9 B7       		.byte	-73
 480 01da 62       		.byte	98
 481 01db 0E       		.byte	14
 482 01dc AA       		.byte	-86
 483 01dd 18       		.byte	24
 484 01de BE       		.byte	-66
 485 01df 1B       		.byte	27
 486 01e0 FC       		.byte	-4
 487 01e1 56       		.byte	86
 488 01e2 3E       		.byte	62
 489 01e3 4B       		.byte	75
 490 01e4 C6       		.byte	-58
 491 01e5 D2       		.byte	-46
 492 01e6 79       		.byte	121
 493 01e7 20       		.byte	32
 494 01e8 9A       		.byte	-102
 495 01e9 DB       		.byte	-37
 496 01ea C0       		.byte	-64
 497 01eb FE       		.byte	-2
 498 01ec 78       		.byte	120
 499 01ed CD       		.byte	-51
 500 01ee 5A       		.byte	90
 501 01ef F4       		.byte	-12
 502 01f0 1F       		.byte	31
 503 01f1 DD       		.byte	-35
 504 01f2 A8       		.byte	-88
 505 01f3 33       		.byte	51
 506 01f4 88       		.byte	-120
 507 01f5 07       		.byte	7
 508 01f6 C7       		.byte	-57
 509 01f7 31       		.byte	49
 510 01f8 B1       		.byte	-79
 511 01f9 12       		.byte	18
 512 01fa 10       		.byte	16
 513 01fb 59       		.byte	89
 514 01fc 27       		.byte	39
 515 01fd 80       		.byte	-128
 516 01fe EC       		.byte	-20
 517 01ff 5F       		.byte	95
 518 0200 60       		.byte	96
 519 0201 51       		.byte	81
 520 0202 7F       		.byte	127
 521 0203 A9       		.byte	-87
 522 0204 19       		.byte	25
 523 0205 B5       		.byte	-75
 524 0206 4A       		.byte	74
 525 0207 0D       		.byte	13
 526 0208 2D       		.byte	45
 527 0209 E5       		.byte	-27
 528 020a 7A       		.byte	122
 529 020b 9F       		.byte	-97
 530 020c 93       		.byte	-109
 531 020d C9       		.byte	-55
 532 020e 9C       		.byte	-100
 533 020f EF       		.byte	-17
 534 0210 A0       		.byte	-96
 535 0211 E0       		.byte	-32
 536 0212 3B       		.byte	59
 537 0213 4D       		.byte	77
 538 0214 AE       		.byte	-82
 539 0215 2A       		.byte	42
 540 0216 F5       		.byte	-11
 541 0217 B0       		.byte	-80
 542 0218 C8       		.byte	-56
 543 0219 EB       		.byte	-21
 544 021a BB       		.byte	-69
 545 021b 3C       		.byte	60
 546 021c 83       		.byte	-125
 547 021d 53       		.byte	83
 548 021e 99       		.byte	-103
 549 021f 61       		.byte	97
 550 0220 17       		.byte	23
 551 0221 2B       		.byte	43
 552 0222 04       		.byte	4
 553 0223 7E       		.byte	126
 554 0224 BA       		.byte	-70
 555 0225 77       		.byte	119
 556 0226 D6       		.byte	-42
 557 0227 26       		.byte	38
 558 0228 E1       		.byte	-31
 559 0229 69       		.byte	105
 560 022a 14       		.byte	20
 561 022b 63       		.byte	99
 562 022c 55       		.byte	85
 563 022d 21       		.byte	33
 564 022e 0C       		.byte	12
 565 022f 7D       		.byte	125
 566              		.global	Rcon
 567              		.align	2
 570              	Rcon:
 571 0230 8D       		.byte	-115
 572 0231 01       		.byte	1
 573 0232 02       		.byte	2
 574 0233 04       		.byte	4
 575 0234 08       		.byte	8
 576 0235 10       		.byte	16
 577 0236 20       		.byte	32
 578 0237 40       		.byte	64
 579 0238 80       		.byte	-128
 580 0239 1B       		.byte	27
 581 023a 36       		.byte	54
 582 023b 00       		.text
 583              		.align	2
 584              		.global	expandKey
 585              		.thumb
 586              		.thumb_func
 588              	expandKey:
 589              	.LFB0:
 590              		.file 1 "build/openmote-cc2538_armgcc/bsp/boards/common/aes_ecb.c"
   1:build/openmote-cc2538_armgcc/bsp/boards/common/aes_ecb.c **** /**************************************************************
   2:build/openmote-cc2538_armgcc/bsp/boards/common/aes_ecb.c **** AES128
   3:build/openmote-cc2538_armgcc/bsp/boards/common/aes_ecb.c **** Author:   Uli Kretzschmar
   4:build/openmote-cc2538_armgcc/bsp/boards/common/aes_ecb.c **** MSP430 Systems
   5:build/openmote-cc2538_armgcc/bsp/boards/common/aes_ecb.c **** Freising
   6:build/openmote-cc2538_armgcc/bsp/boards/common/aes_ecb.c **** AES software support for encryption and decryption
   7:build/openmote-cc2538_armgcc/bsp/boards/common/aes_ecb.c **** ECCN 5D002 TSU - Technology / Software Unrestricted
   8:build/openmote-cc2538_armgcc/bsp/boards/common/aes_ecb.c **** Source: http://is.gd/o9RSPq
   9:build/openmote-cc2538_armgcc/bsp/boards/common/aes_ecb.c **** **************************************************************/
  10:build/openmote-cc2538_armgcc/bsp/boards/common/aes_ecb.c **** #include <stdint.h>
  11:build/openmote-cc2538_armgcc/bsp/boards/common/aes_ecb.c **** #include "opendefs.h"
  12:build/openmote-cc2538_armgcc/bsp/boards/common/aes_ecb.c **** #include "aes_ecb.h"
  13:build/openmote-cc2538_armgcc/bsp/boards/common/aes_ecb.c **** 
  14:build/openmote-cc2538_armgcc/bsp/boards/common/aes_ecb.c **** // foreward sbox
  15:build/openmote-cc2538_armgcc/bsp/boards/common/aes_ecb.c **** const unsigned char sbox[256] = {
  16:build/openmote-cc2538_armgcc/bsp/boards/common/aes_ecb.c ****     //0     1    2      3     4    5     6     7      8    9     A      B    C     D     E     F
  17:build/openmote-cc2538_armgcc/bsp/boards/common/aes_ecb.c ****     0x63, 0x7c, 0x77, 0x7b, 0xf2, 0x6b, 0x6f, 0xc5, 0x30, 0x01, 0x67, 0x2b, 0xfe, 0xd7, 0xab, 0x76,
  18:build/openmote-cc2538_armgcc/bsp/boards/common/aes_ecb.c ****     0xca, 0x82, 0xc9, 0x7d, 0xfa, 0x59, 0x47, 0xf0, 0xad, 0xd4, 0xa2, 0xaf, 0x9c, 0xa4, 0x72, 0xc0,
  19:build/openmote-cc2538_armgcc/bsp/boards/common/aes_ecb.c ****     0xb7, 0xfd, 0x93, 0x26, 0x36, 0x3f, 0xf7, 0xcc, 0x34, 0xa5, 0xe5, 0xf1, 0x71, 0xd8, 0x31, 0x15,
  20:build/openmote-cc2538_armgcc/bsp/boards/common/aes_ecb.c ****     0x04, 0xc7, 0x23, 0xc3, 0x18, 0x96, 0x05, 0x9a, 0x07, 0x12, 0x80, 0xe2, 0xeb, 0x27, 0xb2, 0x75,
  21:build/openmote-cc2538_armgcc/bsp/boards/common/aes_ecb.c ****     0x09, 0x83, 0x2c, 0x1a, 0x1b, 0x6e, 0x5a, 0xa0, 0x52, 0x3b, 0xd6, 0xb3, 0x29, 0xe3, 0x2f, 0x84,
  22:build/openmote-cc2538_armgcc/bsp/boards/common/aes_ecb.c ****     0x53, 0xd1, 0x00, 0xed, 0x20, 0xfc, 0xb1, 0x5b, 0x6a, 0xcb, 0xbe, 0x39, 0x4a, 0x4c, 0x58, 0xcf,
  23:build/openmote-cc2538_armgcc/bsp/boards/common/aes_ecb.c ****     0xd0, 0xef, 0xaa, 0xfb, 0x43, 0x4d, 0x33, 0x85, 0x45, 0xf9, 0x02, 0x7f, 0x50, 0x3c, 0x9f, 0xa8,
  24:build/openmote-cc2538_armgcc/bsp/boards/common/aes_ecb.c ****     0x51, 0xa3, 0x40, 0x8f, 0x92, 0x9d, 0x38, 0xf5, 0xbc, 0xb6, 0xda, 0x21, 0x10, 0xff, 0xf3, 0xd2,
  25:build/openmote-cc2538_armgcc/bsp/boards/common/aes_ecb.c ****     0xcd, 0x0c, 0x13, 0xec, 0x5f, 0x97, 0x44, 0x17, 0xc4, 0xa7, 0x7e, 0x3d, 0x64, 0x5d, 0x19, 0x73,
  26:build/openmote-cc2538_armgcc/bsp/boards/common/aes_ecb.c ****     0x60, 0x81, 0x4f, 0xdc, 0x22, 0x2a, 0x90, 0x88, 0x46, 0xee, 0xb8, 0x14, 0xde, 0x5e, 0x0b, 0xdb,
  27:build/openmote-cc2538_armgcc/bsp/boards/common/aes_ecb.c ****     0xe0, 0x32, 0x3a, 0x0a, 0x49, 0x06, 0x24, 0x5c, 0xc2, 0xd3, 0xac, 0x62, 0x91, 0x95, 0xe4, 0x79,
  28:build/openmote-cc2538_armgcc/bsp/boards/common/aes_ecb.c ****     0xe7, 0xc8, 0x37, 0x6d, 0x8d, 0xd5, 0x4e, 0xa9, 0x6c, 0x56, 0xf4, 0xea, 0x65, 0x7a, 0xae, 0x08,
  29:build/openmote-cc2538_armgcc/bsp/boards/common/aes_ecb.c ****     0xba, 0x78, 0x25, 0x2e, 0x1c, 0xa6, 0xb4, 0xc6, 0xe8, 0xdd, 0x74, 0x1f, 0x4b, 0xbd, 0x8b, 0x8a,
  30:build/openmote-cc2538_armgcc/bsp/boards/common/aes_ecb.c ****     0x70, 0x3e, 0xb5, 0x66, 0x48, 0x03, 0xf6, 0x0e, 0x61, 0x35, 0x57, 0xb9, 0x86, 0xc1, 0x1d, 0x9e,
  31:build/openmote-cc2538_armgcc/bsp/boards/common/aes_ecb.c ****     0xe1, 0xf8, 0x98, 0x11, 0x69, 0xd9, 0x8e, 0x94, 0x9b, 0x1e, 0x87, 0xe9, 0xce, 0x55, 0x28, 0xdf,
  32:build/openmote-cc2538_armgcc/bsp/boards/common/aes_ecb.c ****     0x8c, 0xa1, 0x89, 0x0d, 0xbf, 0xe6, 0x42, 0x68, 0x41, 0x99, 0x2d, 0x0f, 0xb0, 0x54, 0xbb, 0x16 
  33:build/openmote-cc2538_armgcc/bsp/boards/common/aes_ecb.c **** // inverse sbox
  34:build/openmote-cc2538_armgcc/bsp/boards/common/aes_ecb.c **** const unsigned char rsbox[256] =
  35:build/openmote-cc2538_armgcc/bsp/boards/common/aes_ecb.c **** { 0x52, 0x09, 0x6a, 0xd5, 0x30, 0x36, 0xa5, 0x38, 0xbf, 0x40, 0xa3, 0x9e, 0x81, 0xf3, 0xd7, 0xfb
  36:build/openmote-cc2538_armgcc/bsp/boards/common/aes_ecb.c **** , 0x7c, 0xe3, 0x39, 0x82, 0x9b, 0x2f, 0xff, 0x87, 0x34, 0x8e, 0x43, 0x44, 0xc4, 0xde, 0xe9, 0xcb
  37:build/openmote-cc2538_armgcc/bsp/boards/common/aes_ecb.c **** , 0x54, 0x7b, 0x94, 0x32, 0xa6, 0xc2, 0x23, 0x3d, 0xee, 0x4c, 0x95, 0x0b, 0x42, 0xfa, 0xc3, 0x4e
  38:build/openmote-cc2538_armgcc/bsp/boards/common/aes_ecb.c **** , 0x08, 0x2e, 0xa1, 0x66, 0x28, 0xd9, 0x24, 0xb2, 0x76, 0x5b, 0xa2, 0x49, 0x6d, 0x8b, 0xd1, 0x25
  39:build/openmote-cc2538_armgcc/bsp/boards/common/aes_ecb.c **** , 0x72, 0xf8, 0xf6, 0x64, 0x86, 0x68, 0x98, 0x16, 0xd4, 0xa4, 0x5c, 0xcc, 0x5d, 0x65, 0xb6, 0x92
  40:build/openmote-cc2538_armgcc/bsp/boards/common/aes_ecb.c **** , 0x6c, 0x70, 0x48, 0x50, 0xfd, 0xed, 0xb9, 0xda, 0x5e, 0x15, 0x46, 0x57, 0xa7, 0x8d, 0x9d, 0x84
  41:build/openmote-cc2538_armgcc/bsp/boards/common/aes_ecb.c **** , 0x90, 0xd8, 0xab, 0x00, 0x8c, 0xbc, 0xd3, 0x0a, 0xf7, 0xe4, 0x58, 0x05, 0xb8, 0xb3, 0x45, 0x06
  42:build/openmote-cc2538_armgcc/bsp/boards/common/aes_ecb.c **** , 0xd0, 0x2c, 0x1e, 0x8f, 0xca, 0x3f, 0x0f, 0x02, 0xc1, 0xaf, 0xbd, 0x03, 0x01, 0x13, 0x8a, 0x6b
  43:build/openmote-cc2538_armgcc/bsp/boards/common/aes_ecb.c **** , 0x3a, 0x91, 0x11, 0x41, 0x4f, 0x67, 0xdc, 0xea, 0x97, 0xf2, 0xcf, 0xce, 0xf0, 0xb4, 0xe6, 0x73
  44:build/openmote-cc2538_armgcc/bsp/boards/common/aes_ecb.c **** , 0x96, 0xac, 0x74, 0x22, 0xe7, 0xad, 0x35, 0x85, 0xe2, 0xf9, 0x37, 0xe8, 0x1c, 0x75, 0xdf, 0x6e
  45:build/openmote-cc2538_armgcc/bsp/boards/common/aes_ecb.c **** , 0x47, 0xf1, 0x1a, 0x71, 0x1d, 0x29, 0xc5, 0x89, 0x6f, 0xb7, 0x62, 0x0e, 0xaa, 0x18, 0xbe, 0x1b
  46:build/openmote-cc2538_armgcc/bsp/boards/common/aes_ecb.c **** , 0xfc, 0x56, 0x3e, 0x4b, 0xc6, 0xd2, 0x79, 0x20, 0x9a, 0xdb, 0xc0, 0xfe, 0x78, 0xcd, 0x5a, 0xf4
  47:build/openmote-cc2538_armgcc/bsp/boards/common/aes_ecb.c **** , 0x1f, 0xdd, 0xa8, 0x33, 0x88, 0x07, 0xc7, 0x31, 0xb1, 0x12, 0x10, 0x59, 0x27, 0x80, 0xec, 0x5f
  48:build/openmote-cc2538_armgcc/bsp/boards/common/aes_ecb.c **** , 0x60, 0x51, 0x7f, 0xa9, 0x19, 0xb5, 0x4a, 0x0d, 0x2d, 0xe5, 0x7a, 0x9f, 0x93, 0xc9, 0x9c, 0xef
  49:build/openmote-cc2538_armgcc/bsp/boards/common/aes_ecb.c **** , 0xa0, 0xe0, 0x3b, 0x4d, 0xae, 0x2a, 0xf5, 0xb0, 0xc8, 0xeb, 0xbb, 0x3c, 0x83, 0x53, 0x99, 0x61
  50:build/openmote-cc2538_armgcc/bsp/boards/common/aes_ecb.c **** , 0x17, 0x2b, 0x04, 0x7e, 0xba, 0x77, 0xd6, 0x26, 0xe1, 0x69, 0x14, 0x63, 0x55, 0x21, 0x0c, 0x7d };
  51:build/openmote-cc2538_armgcc/bsp/boards/common/aes_ecb.c **** // round constant
  52:build/openmote-cc2538_armgcc/bsp/boards/common/aes_ecb.c **** const unsigned char Rcon[11] = {
  53:build/openmote-cc2538_armgcc/bsp/boards/common/aes_ecb.c ****     0x8d, 0x01, 0x02, 0x04, 0x08, 0x10, 0x20, 0x40, 0x80, 0x1b, 0x36 };
  54:build/openmote-cc2538_armgcc/bsp/boards/common/aes_ecb.c **** 
  55:build/openmote-cc2538_armgcc/bsp/boards/common/aes_ecb.c **** 
  56:build/openmote-cc2538_armgcc/bsp/boards/common/aes_ecb.c **** // expand the key
  57:build/openmote-cc2538_armgcc/bsp/boards/common/aes_ecb.c **** void expandKey(unsigned char *expandedKey,
  58:build/openmote-cc2538_armgcc/bsp/boards/common/aes_ecb.c ****     unsigned char *key)
  59:build/openmote-cc2538_armgcc/bsp/boards/common/aes_ecb.c **** {
 591              		.loc 1 59 0
 592              		.cfi_startproc
 593              		@ args = 0, pretend = 0, frame = 16
 594              		@ frame_needed = 1, uses_anonymous_args = 0
 595              		@ link register save eliminated.
 596 0000 80B4     		push	{r7}
 597              		.cfi_def_cfa_offset 4
 598              		.cfi_offset 7, -4
 599 0002 85B0     		sub	sp, sp, #20
 600              		.cfi_def_cfa_offset 24
 601 0004 00AF     		add	r7, sp, #0
 602              		.cfi_def_cfa_register 7
 603 0006 7860     		str	r0, [r7, #4]
 604 0008 3960     		str	r1, [r7]
  60:build/openmote-cc2538_armgcc/bsp/boards/common/aes_ecb.c ****     unsigned short ii, buf1;
  61:build/openmote-cc2538_armgcc/bsp/boards/common/aes_ecb.c ****     for (ii = 0; ii<16; ii++)
 605              		.loc 1 61 0
 606 000a 0023     		movs	r3, #0
 607 000c FB81     		strh	r3, [r7, #14]	@ movhi
 608 000e 0AE0     		b	.L2
 609              	.L3:
  62:build/openmote-cc2538_armgcc/bsp/boards/common/aes_ecb.c ****         expandedKey[ii] = key[ii];
 610              		.loc 1 62 0 discriminator 2
 611 0010 FB89     		ldrh	r3, [r7, #14]
 612 0012 7A68     		ldr	r2, [r7, #4]
 613 0014 1344     		add	r3, r3, r2
 614 0016 FA89     		ldrh	r2, [r7, #14]
 615 0018 3968     		ldr	r1, [r7]
 616 001a 0A44     		add	r2, r2, r1
 617 001c 1278     		ldrb	r2, [r2]	@ zero_extendqisi2
 618 001e 1A70     		strb	r2, [r3]
  61:build/openmote-cc2538_armgcc/bsp/boards/common/aes_ecb.c ****         expandedKey[ii] = key[ii];
 619              		.loc 1 61 0 discriminator 2
 620 0020 FB89     		ldrh	r3, [r7, #14]
 621 0022 0133     		adds	r3, r3, #1
 622 0024 FB81     		strh	r3, [r7, #14]	@ movhi
 623              	.L2:
  61:build/openmote-cc2538_armgcc/bsp/boards/common/aes_ecb.c ****         expandedKey[ii] = key[ii];
 624              		.loc 1 61 0 is_stmt 0 discriminator 1
 625 0026 FB89     		ldrh	r3, [r7, #14]
 626 0028 0F2B     		cmp	r3, #15
 627 002a F1D9     		bls	.L3
  63:build/openmote-cc2538_armgcc/bsp/boards/common/aes_ecb.c ****     for (ii = 1; ii<11; ii++){
 628              		.loc 1 63 0 is_stmt 1
 629 002c 0123     		movs	r3, #1
 630 002e FB81     		strh	r3, [r7, #14]	@ movhi
 631 0030 70E1     		b	.L4
 632              	.L5:
  64:build/openmote-cc2538_armgcc/bsp/boards/common/aes_ecb.c ****         buf1 = expandedKey[ii * 16 - 4];
 633              		.loc 1 64 0 discriminator 2
 634 0032 FB89     		ldrh	r3, [r7, #14]
 635 0034 1B01     		lsls	r3, r3, #4
 636 0036 043B     		subs	r3, r3, #4
 637 0038 7A68     		ldr	r2, [r7, #4]
 638 003a 1344     		add	r3, r3, r2
 639 003c 1B78     		ldrb	r3, [r3]	@ zero_extendqisi2
 640 003e BB81     		strh	r3, [r7, #12]	@ movhi
  65:build/openmote-cc2538_armgcc/bsp/boards/common/aes_ecb.c ****         expandedKey[ii * 16 + 0] = sbox[expandedKey[ii * 16 - 3]] ^ expandedKey[(ii - 1) * 16 + 0] 
 641              		.loc 1 65 0 discriminator 2
 642 0040 FB89     		ldrh	r3, [r7, #14]
 643 0042 1B01     		lsls	r3, r3, #4
 644 0044 7A68     		ldr	r2, [r7, #4]
 645 0046 1A44     		add	r2, r2, r3
 646 0048 FB89     		ldrh	r3, [r7, #14]
 647 004a 1B01     		lsls	r3, r3, #4
 648 004c 033B     		subs	r3, r3, #3
 649 004e 7968     		ldr	r1, [r7, #4]
 650 0050 0B44     		add	r3, r3, r1
 651 0052 1B78     		ldrb	r3, [r3]	@ zero_extendqisi2
 652 0054 1946     		mov	r1, r3
 653 0056 40F20003 		movw	r3, #:lower16:sbox
 654 005a C0F20003 		movt	r3, #:upper16:sbox
 655 005e 595C     		ldrb	r1, [r3, r1]	@ zero_extendqisi2
 656 0060 FB89     		ldrh	r3, [r7, #14]
 657 0062 013B     		subs	r3, r3, #1
 658 0064 1B01     		lsls	r3, r3, #4
 659 0066 7868     		ldr	r0, [r7, #4]
 660 0068 0344     		add	r3, r3, r0
 661 006a 1B78     		ldrb	r3, [r3]	@ zero_extendqisi2
 662 006c 4B40     		eors	r3, r3, r1
 663 006e D9B2     		uxtb	r1, r3
 664 0070 F889     		ldrh	r0, [r7, #14]
 665 0072 40F20003 		movw	r3, #:lower16:Rcon
 666 0076 C0F20003 		movt	r3, #:upper16:Rcon
 667 007a 1B5C     		ldrb	r3, [r3, r0]	@ zero_extendqisi2
 668 007c 4B40     		eors	r3, r3, r1
 669 007e DBB2     		uxtb	r3, r3
 670 0080 1370     		strb	r3, [r2]
  66:build/openmote-cc2538_armgcc/bsp/boards/common/aes_ecb.c ****         expandedKey[ii * 16 + 1] = sbox[expandedKey[ii * 16 - 2]] ^ expandedKey[(ii - 1) * 16 + 1];
 671              		.loc 1 66 0 discriminator 2
 672 0082 FB89     		ldrh	r3, [r7, #14]
 673 0084 1B01     		lsls	r3, r3, #4
 674 0086 0133     		adds	r3, r3, #1
 675 0088 7A68     		ldr	r2, [r7, #4]
 676 008a 1A44     		add	r2, r2, r3
 677 008c FB89     		ldrh	r3, [r7, #14]
 678 008e 1B01     		lsls	r3, r3, #4
 679 0090 023B     		subs	r3, r3, #2
 680 0092 7968     		ldr	r1, [r7, #4]
 681 0094 0B44     		add	r3, r3, r1
 682 0096 1B78     		ldrb	r3, [r3]	@ zero_extendqisi2
 683 0098 1946     		mov	r1, r3
 684 009a 40F20003 		movw	r3, #:lower16:sbox
 685 009e C0F20003 		movt	r3, #:upper16:sbox
 686 00a2 595C     		ldrb	r1, [r3, r1]	@ zero_extendqisi2
 687 00a4 FB89     		ldrh	r3, [r7, #14]
 688 00a6 013B     		subs	r3, r3, #1
 689 00a8 1B01     		lsls	r3, r3, #4
 690 00aa 0133     		adds	r3, r3, #1
 691 00ac 7868     		ldr	r0, [r7, #4]
 692 00ae 0344     		add	r3, r3, r0
 693 00b0 1B78     		ldrb	r3, [r3]	@ zero_extendqisi2
 694 00b2 4B40     		eors	r3, r3, r1
 695 00b4 DBB2     		uxtb	r3, r3
 696 00b6 1370     		strb	r3, [r2]
  67:build/openmote-cc2538_armgcc/bsp/boards/common/aes_ecb.c ****         expandedKey[ii * 16 + 2] = sbox[expandedKey[ii * 16 - 1]] ^ expandedKey[(ii - 1) * 16 + 2];
 697              		.loc 1 67 0 discriminator 2
 698 00b8 FB89     		ldrh	r3, [r7, #14]
 699 00ba 1B01     		lsls	r3, r3, #4
 700 00bc 0233     		adds	r3, r3, #2
 701 00be 7A68     		ldr	r2, [r7, #4]
 702 00c0 1A44     		add	r2, r2, r3
 703 00c2 FB89     		ldrh	r3, [r7, #14]
 704 00c4 1B01     		lsls	r3, r3, #4
 705 00c6 013B     		subs	r3, r3, #1
 706 00c8 7968     		ldr	r1, [r7, #4]
 707 00ca 0B44     		add	r3, r3, r1
 708 00cc 1B78     		ldrb	r3, [r3]	@ zero_extendqisi2
 709 00ce 1946     		mov	r1, r3
 710 00d0 40F20003 		movw	r3, #:lower16:sbox
 711 00d4 C0F20003 		movt	r3, #:upper16:sbox
 712 00d8 595C     		ldrb	r1, [r3, r1]	@ zero_extendqisi2
 713 00da FB89     		ldrh	r3, [r7, #14]
 714 00dc 013B     		subs	r3, r3, #1
 715 00de 1B01     		lsls	r3, r3, #4
 716 00e0 0233     		adds	r3, r3, #2
 717 00e2 7868     		ldr	r0, [r7, #4]
 718 00e4 0344     		add	r3, r3, r0
 719 00e6 1B78     		ldrb	r3, [r3]	@ zero_extendqisi2
 720 00e8 4B40     		eors	r3, r3, r1
 721 00ea DBB2     		uxtb	r3, r3
 722 00ec 1370     		strb	r3, [r2]
  68:build/openmote-cc2538_armgcc/bsp/boards/common/aes_ecb.c ****         expandedKey[ii * 16 + 3] = sbox[buf1] ^ expandedKey[(ii - 1) * 16 + 3];
 723              		.loc 1 68 0 discriminator 2
 724 00ee FB89     		ldrh	r3, [r7, #14]
 725 00f0 1B01     		lsls	r3, r3, #4
 726 00f2 0333     		adds	r3, r3, #3
 727 00f4 7A68     		ldr	r2, [r7, #4]
 728 00f6 1A44     		add	r2, r2, r3
 729 00f8 B989     		ldrh	r1, [r7, #12]
 730 00fa 40F20003 		movw	r3, #:lower16:sbox
 731 00fe C0F20003 		movt	r3, #:upper16:sbox
 732 0102 595C     		ldrb	r1, [r3, r1]	@ zero_extendqisi2
 733 0104 FB89     		ldrh	r3, [r7, #14]
 734 0106 013B     		subs	r3, r3, #1
 735 0108 1B01     		lsls	r3, r3, #4
 736 010a 0333     		adds	r3, r3, #3
 737 010c 7868     		ldr	r0, [r7, #4]
 738 010e 0344     		add	r3, r3, r0
 739 0110 1B78     		ldrb	r3, [r3]	@ zero_extendqisi2
 740 0112 4B40     		eors	r3, r3, r1
 741 0114 DBB2     		uxtb	r3, r3
 742 0116 1370     		strb	r3, [r2]
  69:build/openmote-cc2538_armgcc/bsp/boards/common/aes_ecb.c ****         expandedKey[ii * 16 + 4] = expandedKey[(ii - 1) * 16 + 4] ^ expandedKey[ii * 16 + 0];
 743              		.loc 1 69 0 discriminator 2
 744 0118 FB89     		ldrh	r3, [r7, #14]
 745 011a 1B01     		lsls	r3, r3, #4
 746 011c 0433     		adds	r3, r3, #4
 747 011e 7A68     		ldr	r2, [r7, #4]
 748 0120 1344     		add	r3, r3, r2
 749 0122 FA89     		ldrh	r2, [r7, #14]
 750 0124 013A     		subs	r2, r2, #1
 751 0126 1201     		lsls	r2, r2, #4
 752 0128 0432     		adds	r2, r2, #4
 753 012a 7968     		ldr	r1, [r7, #4]
 754 012c 0A44     		add	r2, r2, r1
 755 012e 1178     		ldrb	r1, [r2]	@ zero_extendqisi2
 756 0130 FA89     		ldrh	r2, [r7, #14]
 757 0132 1201     		lsls	r2, r2, #4
 758 0134 7868     		ldr	r0, [r7, #4]
 759 0136 0244     		add	r2, r2, r0
 760 0138 1278     		ldrb	r2, [r2]	@ zero_extendqisi2
 761 013a 4A40     		eors	r2, r2, r1
 762 013c D2B2     		uxtb	r2, r2
 763 013e 1A70     		strb	r2, [r3]
  70:build/openmote-cc2538_armgcc/bsp/boards/common/aes_ecb.c ****         expandedKey[ii * 16 + 5] = expandedKey[(ii - 1) * 16 + 5] ^ expandedKey[ii * 16 + 1];
 764              		.loc 1 70 0 discriminator 2
 765 0140 FB89     		ldrh	r3, [r7, #14]
 766 0142 1B01     		lsls	r3, r3, #4
 767 0144 0533     		adds	r3, r3, #5
 768 0146 7A68     		ldr	r2, [r7, #4]
 769 0148 1344     		add	r3, r3, r2
 770 014a FA89     		ldrh	r2, [r7, #14]
 771 014c 013A     		subs	r2, r2, #1
 772 014e 1201     		lsls	r2, r2, #4
 773 0150 0532     		adds	r2, r2, #5
 774 0152 7968     		ldr	r1, [r7, #4]
 775 0154 0A44     		add	r2, r2, r1
 776 0156 1178     		ldrb	r1, [r2]	@ zero_extendqisi2
 777 0158 FA89     		ldrh	r2, [r7, #14]
 778 015a 1201     		lsls	r2, r2, #4
 779 015c 0132     		adds	r2, r2, #1
 780 015e 7868     		ldr	r0, [r7, #4]
 781 0160 0244     		add	r2, r2, r0
 782 0162 1278     		ldrb	r2, [r2]	@ zero_extendqisi2
 783 0164 4A40     		eors	r2, r2, r1
 784 0166 D2B2     		uxtb	r2, r2
 785 0168 1A70     		strb	r2, [r3]
  71:build/openmote-cc2538_armgcc/bsp/boards/common/aes_ecb.c ****         expandedKey[ii * 16 + 6] = expandedKey[(ii - 1) * 16 + 6] ^ expandedKey[ii * 16 + 2];
 786              		.loc 1 71 0 discriminator 2
 787 016a FB89     		ldrh	r3, [r7, #14]
 788 016c 1B01     		lsls	r3, r3, #4
 789 016e 0633     		adds	r3, r3, #6
 790 0170 7A68     		ldr	r2, [r7, #4]
 791 0172 1344     		add	r3, r3, r2
 792 0174 FA89     		ldrh	r2, [r7, #14]
 793 0176 013A     		subs	r2, r2, #1
 794 0178 1201     		lsls	r2, r2, #4
 795 017a 0632     		adds	r2, r2, #6
 796 017c 7968     		ldr	r1, [r7, #4]
 797 017e 0A44     		add	r2, r2, r1
 798 0180 1178     		ldrb	r1, [r2]	@ zero_extendqisi2
 799 0182 FA89     		ldrh	r2, [r7, #14]
 800 0184 1201     		lsls	r2, r2, #4
 801 0186 0232     		adds	r2, r2, #2
 802 0188 7868     		ldr	r0, [r7, #4]
 803 018a 0244     		add	r2, r2, r0
 804 018c 1278     		ldrb	r2, [r2]	@ zero_extendqisi2
 805 018e 4A40     		eors	r2, r2, r1
 806 0190 D2B2     		uxtb	r2, r2
 807 0192 1A70     		strb	r2, [r3]
  72:build/openmote-cc2538_armgcc/bsp/boards/common/aes_ecb.c ****         expandedKey[ii * 16 + 7] = expandedKey[(ii - 1) * 16 + 7] ^ expandedKey[ii * 16 + 3];
 808              		.loc 1 72 0 discriminator 2
 809 0194 FB89     		ldrh	r3, [r7, #14]
 810 0196 1B01     		lsls	r3, r3, #4
 811 0198 0733     		adds	r3, r3, #7
 812 019a 7A68     		ldr	r2, [r7, #4]
 813 019c 1344     		add	r3, r3, r2
 814 019e FA89     		ldrh	r2, [r7, #14]
 815 01a0 013A     		subs	r2, r2, #1
 816 01a2 1201     		lsls	r2, r2, #4
 817 01a4 0732     		adds	r2, r2, #7
 818 01a6 7968     		ldr	r1, [r7, #4]
 819 01a8 0A44     		add	r2, r2, r1
 820 01aa 1178     		ldrb	r1, [r2]	@ zero_extendqisi2
 821 01ac FA89     		ldrh	r2, [r7, #14]
 822 01ae 1201     		lsls	r2, r2, #4
 823 01b0 0332     		adds	r2, r2, #3
 824 01b2 7868     		ldr	r0, [r7, #4]
 825 01b4 0244     		add	r2, r2, r0
 826 01b6 1278     		ldrb	r2, [r2]	@ zero_extendqisi2
 827 01b8 4A40     		eors	r2, r2, r1
 828 01ba D2B2     		uxtb	r2, r2
 829 01bc 1A70     		strb	r2, [r3]
  73:build/openmote-cc2538_armgcc/bsp/boards/common/aes_ecb.c ****         expandedKey[ii * 16 + 8] = expandedKey[(ii - 1) * 16 + 8] ^ expandedKey[ii * 16 + 4];
 830              		.loc 1 73 0 discriminator 2
 831 01be FB89     		ldrh	r3, [r7, #14]
 832 01c0 1B01     		lsls	r3, r3, #4
 833 01c2 0833     		adds	r3, r3, #8
 834 01c4 7A68     		ldr	r2, [r7, #4]
 835 01c6 1344     		add	r3, r3, r2
 836 01c8 FA89     		ldrh	r2, [r7, #14]
 837 01ca 013A     		subs	r2, r2, #1
 838 01cc 1201     		lsls	r2, r2, #4
 839 01ce 0832     		adds	r2, r2, #8
 840 01d0 7968     		ldr	r1, [r7, #4]
 841 01d2 0A44     		add	r2, r2, r1
 842 01d4 1178     		ldrb	r1, [r2]	@ zero_extendqisi2
 843 01d6 FA89     		ldrh	r2, [r7, #14]
 844 01d8 1201     		lsls	r2, r2, #4
 845 01da 0432     		adds	r2, r2, #4
 846 01dc 7868     		ldr	r0, [r7, #4]
 847 01de 0244     		add	r2, r2, r0
 848 01e0 1278     		ldrb	r2, [r2]	@ zero_extendqisi2
 849 01e2 4A40     		eors	r2, r2, r1
 850 01e4 D2B2     		uxtb	r2, r2
 851 01e6 1A70     		strb	r2, [r3]
  74:build/openmote-cc2538_armgcc/bsp/boards/common/aes_ecb.c ****         expandedKey[ii * 16 + 9] = expandedKey[(ii - 1) * 16 + 9] ^ expandedKey[ii * 16 + 5];
 852              		.loc 1 74 0 discriminator 2
 853 01e8 FB89     		ldrh	r3, [r7, #14]
 854 01ea 1B01     		lsls	r3, r3, #4
 855 01ec 0933     		adds	r3, r3, #9
 856 01ee 7A68     		ldr	r2, [r7, #4]
 857 01f0 1344     		add	r3, r3, r2
 858 01f2 FA89     		ldrh	r2, [r7, #14]
 859 01f4 013A     		subs	r2, r2, #1
 860 01f6 1201     		lsls	r2, r2, #4
 861 01f8 0932     		adds	r2, r2, #9
 862 01fa 7968     		ldr	r1, [r7, #4]
 863 01fc 0A44     		add	r2, r2, r1
 864 01fe 1178     		ldrb	r1, [r2]	@ zero_extendqisi2
 865 0200 FA89     		ldrh	r2, [r7, #14]
 866 0202 1201     		lsls	r2, r2, #4
 867 0204 0532     		adds	r2, r2, #5
 868 0206 7868     		ldr	r0, [r7, #4]
 869 0208 0244     		add	r2, r2, r0
 870 020a 1278     		ldrb	r2, [r2]	@ zero_extendqisi2
 871 020c 4A40     		eors	r2, r2, r1
 872 020e D2B2     		uxtb	r2, r2
 873 0210 1A70     		strb	r2, [r3]
  75:build/openmote-cc2538_armgcc/bsp/boards/common/aes_ecb.c ****         expandedKey[ii * 16 + 10] = expandedKey[(ii - 1) * 16 + 10] ^ expandedKey[ii * 16 + 6];
 874              		.loc 1 75 0 discriminator 2
 875 0212 FB89     		ldrh	r3, [r7, #14]
 876 0214 1B01     		lsls	r3, r3, #4
 877 0216 0A33     		adds	r3, r3, #10
 878 0218 7A68     		ldr	r2, [r7, #4]
 879 021a 1344     		add	r3, r3, r2
 880 021c FA89     		ldrh	r2, [r7, #14]
 881 021e 013A     		subs	r2, r2, #1
 882 0220 1201     		lsls	r2, r2, #4
 883 0222 0A32     		adds	r2, r2, #10
 884 0224 7968     		ldr	r1, [r7, #4]
 885 0226 0A44     		add	r2, r2, r1
 886 0228 1178     		ldrb	r1, [r2]	@ zero_extendqisi2
 887 022a FA89     		ldrh	r2, [r7, #14]
 888 022c 1201     		lsls	r2, r2, #4
 889 022e 0632     		adds	r2, r2, #6
 890 0230 7868     		ldr	r0, [r7, #4]
 891 0232 0244     		add	r2, r2, r0
 892 0234 1278     		ldrb	r2, [r2]	@ zero_extendqisi2
 893 0236 4A40     		eors	r2, r2, r1
 894 0238 D2B2     		uxtb	r2, r2
 895 023a 1A70     		strb	r2, [r3]
  76:build/openmote-cc2538_armgcc/bsp/boards/common/aes_ecb.c ****         expandedKey[ii * 16 + 11] = expandedKey[(ii - 1) * 16 + 11] ^ expandedKey[ii * 16 + 7];
 896              		.loc 1 76 0 discriminator 2
 897 023c FB89     		ldrh	r3, [r7, #14]
 898 023e 1B01     		lsls	r3, r3, #4
 899 0240 0B33     		adds	r3, r3, #11
 900 0242 7A68     		ldr	r2, [r7, #4]
 901 0244 1344     		add	r3, r3, r2
 902 0246 FA89     		ldrh	r2, [r7, #14]
 903 0248 013A     		subs	r2, r2, #1
 904 024a 1201     		lsls	r2, r2, #4
 905 024c 0B32     		adds	r2, r2, #11
 906 024e 7968     		ldr	r1, [r7, #4]
 907 0250 0A44     		add	r2, r2, r1
 908 0252 1178     		ldrb	r1, [r2]	@ zero_extendqisi2
 909 0254 FA89     		ldrh	r2, [r7, #14]
 910 0256 1201     		lsls	r2, r2, #4
 911 0258 0732     		adds	r2, r2, #7
 912 025a 7868     		ldr	r0, [r7, #4]
 913 025c 0244     		add	r2, r2, r0
 914 025e 1278     		ldrb	r2, [r2]	@ zero_extendqisi2
 915 0260 4A40     		eors	r2, r2, r1
 916 0262 D2B2     		uxtb	r2, r2
 917 0264 1A70     		strb	r2, [r3]
  77:build/openmote-cc2538_armgcc/bsp/boards/common/aes_ecb.c ****         expandedKey[ii * 16 + 12] = expandedKey[(ii - 1) * 16 + 12] ^ expandedKey[ii * 16 + 8];
 918              		.loc 1 77 0 discriminator 2
 919 0266 FB89     		ldrh	r3, [r7, #14]
 920 0268 1B01     		lsls	r3, r3, #4
 921 026a 0C33     		adds	r3, r3, #12
 922 026c 7A68     		ldr	r2, [r7, #4]
 923 026e 1344     		add	r3, r3, r2
 924 0270 FA89     		ldrh	r2, [r7, #14]
 925 0272 013A     		subs	r2, r2, #1
 926 0274 1201     		lsls	r2, r2, #4
 927 0276 0C32     		adds	r2, r2, #12
 928 0278 7968     		ldr	r1, [r7, #4]
 929 027a 0A44     		add	r2, r2, r1
 930 027c 1178     		ldrb	r1, [r2]	@ zero_extendqisi2
 931 027e FA89     		ldrh	r2, [r7, #14]
 932 0280 1201     		lsls	r2, r2, #4
 933 0282 0832     		adds	r2, r2, #8
 934 0284 7868     		ldr	r0, [r7, #4]
 935 0286 0244     		add	r2, r2, r0
 936 0288 1278     		ldrb	r2, [r2]	@ zero_extendqisi2
 937 028a 4A40     		eors	r2, r2, r1
 938 028c D2B2     		uxtb	r2, r2
 939 028e 1A70     		strb	r2, [r3]
  78:build/openmote-cc2538_armgcc/bsp/boards/common/aes_ecb.c ****         expandedKey[ii * 16 + 13] = expandedKey[(ii - 1) * 16 + 13] ^ expandedKey[ii * 16 + 9];
 940              		.loc 1 78 0 discriminator 2
 941 0290 FB89     		ldrh	r3, [r7, #14]
 942 0292 1B01     		lsls	r3, r3, #4
 943 0294 0D33     		adds	r3, r3, #13
 944 0296 7A68     		ldr	r2, [r7, #4]
 945 0298 1344     		add	r3, r3, r2
 946 029a FA89     		ldrh	r2, [r7, #14]
 947 029c 013A     		subs	r2, r2, #1
 948 029e 1201     		lsls	r2, r2, #4
 949 02a0 0D32     		adds	r2, r2, #13
 950 02a2 7968     		ldr	r1, [r7, #4]
 951 02a4 0A44     		add	r2, r2, r1
 952 02a6 1178     		ldrb	r1, [r2]	@ zero_extendqisi2
 953 02a8 FA89     		ldrh	r2, [r7, #14]
 954 02aa 1201     		lsls	r2, r2, #4
 955 02ac 0932     		adds	r2, r2, #9
 956 02ae 7868     		ldr	r0, [r7, #4]
 957 02b0 0244     		add	r2, r2, r0
 958 02b2 1278     		ldrb	r2, [r2]	@ zero_extendqisi2
 959 02b4 4A40     		eors	r2, r2, r1
 960 02b6 D2B2     		uxtb	r2, r2
 961 02b8 1A70     		strb	r2, [r3]
  79:build/openmote-cc2538_armgcc/bsp/boards/common/aes_ecb.c ****         expandedKey[ii * 16 + 14] = expandedKey[(ii - 1) * 16 + 14] ^ expandedKey[ii * 16 + 10];
 962              		.loc 1 79 0 discriminator 2
 963 02ba FB89     		ldrh	r3, [r7, #14]
 964 02bc 1B01     		lsls	r3, r3, #4
 965 02be 0E33     		adds	r3, r3, #14
 966 02c0 7A68     		ldr	r2, [r7, #4]
 967 02c2 1344     		add	r3, r3, r2
 968 02c4 FA89     		ldrh	r2, [r7, #14]
 969 02c6 013A     		subs	r2, r2, #1
 970 02c8 1201     		lsls	r2, r2, #4
 971 02ca 0E32     		adds	r2, r2, #14
 972 02cc 7968     		ldr	r1, [r7, #4]
 973 02ce 0A44     		add	r2, r2, r1
 974 02d0 1178     		ldrb	r1, [r2]	@ zero_extendqisi2
 975 02d2 FA89     		ldrh	r2, [r7, #14]
 976 02d4 1201     		lsls	r2, r2, #4
 977 02d6 0A32     		adds	r2, r2, #10
 978 02d8 7868     		ldr	r0, [r7, #4]
 979 02da 0244     		add	r2, r2, r0
 980 02dc 1278     		ldrb	r2, [r2]	@ zero_extendqisi2
 981 02de 4A40     		eors	r2, r2, r1
 982 02e0 D2B2     		uxtb	r2, r2
 983 02e2 1A70     		strb	r2, [r3]
  80:build/openmote-cc2538_armgcc/bsp/boards/common/aes_ecb.c ****         expandedKey[ii * 16 + 15] = expandedKey[(ii - 1) * 16 + 15] ^ expandedKey[ii * 16 + 11];
 984              		.loc 1 80 0 discriminator 2
 985 02e4 FB89     		ldrh	r3, [r7, #14]
 986 02e6 1B01     		lsls	r3, r3, #4
 987 02e8 0F33     		adds	r3, r3, #15
 988 02ea 7A68     		ldr	r2, [r7, #4]
 989 02ec 1344     		add	r3, r3, r2
 990 02ee FA89     		ldrh	r2, [r7, #14]
 991 02f0 013A     		subs	r2, r2, #1
 992 02f2 1201     		lsls	r2, r2, #4
 993 02f4 0F32     		adds	r2, r2, #15
 994 02f6 7968     		ldr	r1, [r7, #4]
 995 02f8 0A44     		add	r2, r2, r1
 996 02fa 1178     		ldrb	r1, [r2]	@ zero_extendqisi2
 997 02fc FA89     		ldrh	r2, [r7, #14]
 998 02fe 1201     		lsls	r2, r2, #4
 999 0300 0B32     		adds	r2, r2, #11
 1000 0302 7868     		ldr	r0, [r7, #4]
 1001 0304 0244     		add	r2, r2, r0
 1002 0306 1278     		ldrb	r2, [r2]	@ zero_extendqisi2
 1003 0308 4A40     		eors	r2, r2, r1
 1004 030a D2B2     		uxtb	r2, r2
 1005 030c 1A70     		strb	r2, [r3]
  63:build/openmote-cc2538_armgcc/bsp/boards/common/aes_ecb.c ****         buf1 = expandedKey[ii * 16 - 4];
 1006              		.loc 1 63 0 discriminator 2
 1007 030e FB89     		ldrh	r3, [r7, #14]
 1008 0310 0133     		adds	r3, r3, #1
 1009 0312 FB81     		strh	r3, [r7, #14]	@ movhi
 1010              	.L4:
  63:build/openmote-cc2538_armgcc/bsp/boards/common/aes_ecb.c ****         buf1 = expandedKey[ii * 16 - 4];
 1011              		.loc 1 63 0 is_stmt 0 discriminator 1
 1012 0314 FB89     		ldrh	r3, [r7, #14]
 1013 0316 0A2B     		cmp	r3, #10
 1014 0318 7FF68BAE 		bls	.L5
  81:build/openmote-cc2538_armgcc/bsp/boards/common/aes_ecb.c ****     }
  82:build/openmote-cc2538_armgcc/bsp/boards/common/aes_ecb.c **** 
  83:build/openmote-cc2538_armgcc/bsp/boards/common/aes_ecb.c **** 
  84:build/openmote-cc2538_armgcc/bsp/boards/common/aes_ecb.c **** }
 1015              		.loc 1 84 0 is_stmt 1
 1016 031c 1437     		adds	r7, r7, #20
 1017 031e BD46     		mov	sp, r7
 1018              		@ sp needed
 1019 0320 5DF8047B 		ldr	r7, [sp], #4
 1020 0324 7047     		bx	lr
 1021              		.cfi_endproc
 1022              	.LFE0:
 1024 0326 00BF     		.align	2
 1025              		.global	galois_mul2
 1026              		.thumb
 1027              		.thumb_func
 1029              	galois_mul2:
 1030              	.LFB1:
  85:build/openmote-cc2538_armgcc/bsp/boards/common/aes_ecb.c **** 
  86:build/openmote-cc2538_armgcc/bsp/boards/common/aes_ecb.c **** // multiply by 2 in the galois field
  87:build/openmote-cc2538_armgcc/bsp/boards/common/aes_ecb.c **** unsigned char galois_mul2(unsigned char value)
  88:build/openmote-cc2538_armgcc/bsp/boards/common/aes_ecb.c **** {
 1031              		.loc 1 88 0
 1032              		.cfi_startproc
 1033              		@ args = 0, pretend = 0, frame = 8
 1034              		@ frame_needed = 1, uses_anonymous_args = 0
 1035              		@ link register save eliminated.
 1036 0328 80B4     		push	{r7}
 1037              		.cfi_def_cfa_offset 4
 1038              		.cfi_offset 7, -4
 1039 032a 83B0     		sub	sp, sp, #12
 1040              		.cfi_def_cfa_offset 16
 1041 032c 00AF     		add	r7, sp, #0
 1042              		.cfi_def_cfa_register 7
 1043 032e 0346     		mov	r3, r0
 1044 0330 FB71     		strb	r3, [r7, #7]
  89:build/openmote-cc2538_armgcc/bsp/boards/common/aes_ecb.c ****     if (value >> 7)
 1045              		.loc 1 89 0
 1046 0332 FB79     		ldrb	r3, [r7, #7]	@ zero_extendqisi2
 1047 0334 5BB2     		sxtb	r3, r3
 1048 0336 002B     		cmp	r3, #0
 1049 0338 07DA     		bge	.L7
  90:build/openmote-cc2538_armgcc/bsp/boards/common/aes_ecb.c ****     {
  91:build/openmote-cc2538_armgcc/bsp/boards/common/aes_ecb.c ****         value = value << 1;
 1050              		.loc 1 91 0
 1051 033a FB79     		ldrb	r3, [r7, #7]
 1052 033c 5B00     		lsls	r3, r3, #1
 1053 033e FB71     		strb	r3, [r7, #7]
  92:build/openmote-cc2538_armgcc/bsp/boards/common/aes_ecb.c ****         return (value ^ 0x1b);
 1054              		.loc 1 92 0
 1055 0340 FB79     		ldrb	r3, [r7, #7]
 1056 0342 83F01B03 		eor	r3, r3, #27
 1057 0346 DBB2     		uxtb	r3, r3
 1058 0348 02E0     		b	.L8
 1059              	.L7:
  93:build/openmote-cc2538_armgcc/bsp/boards/common/aes_ecb.c ****     }
  94:build/openmote-cc2538_armgcc/bsp/boards/common/aes_ecb.c ****     else
  95:build/openmote-cc2538_armgcc/bsp/boards/common/aes_ecb.c ****         return value << 1;
 1060              		.loc 1 95 0
 1061 034a FB79     		ldrb	r3, [r7, #7]
 1062 034c 5B00     		lsls	r3, r3, #1
 1063 034e DBB2     		uxtb	r3, r3
 1064              	.L8:
  96:build/openmote-cc2538_armgcc/bsp/boards/common/aes_ecb.c **** }
 1065              		.loc 1 96 0
 1066 0350 1846     		mov	r0, r3
 1067 0352 0C37     		adds	r7, r7, #12
 1068 0354 BD46     		mov	sp, r7
 1069              		@ sp needed
 1070 0356 5DF8047B 		ldr	r7, [sp], #4
 1071 035a 7047     		bx	lr
 1072              		.cfi_endproc
 1073              	.LFE1:
 1075              		.align	2
 1076              		.global	aes_encr
 1077              		.thumb
 1078              		.thumb_func
 1080              	aes_encr:
 1081              	.LFB2:
  97:build/openmote-cc2538_armgcc/bsp/boards/common/aes_ecb.c **** 
  98:build/openmote-cc2538_armgcc/bsp/boards/common/aes_ecb.c **** // straight foreward aes encryption implementation
  99:build/openmote-cc2538_armgcc/bsp/boards/common/aes_ecb.c **** //   first the group of operations
 100:build/openmote-cc2538_armgcc/bsp/boards/common/aes_ecb.c **** //     - addroundkey
 101:build/openmote-cc2538_armgcc/bsp/boards/common/aes_ecb.c **** //     - subbytes
 102:build/openmote-cc2538_armgcc/bsp/boards/common/aes_ecb.c **** //     - shiftrows
 103:build/openmote-cc2538_armgcc/bsp/boards/common/aes_ecb.c **** //     - mixcolums
 104:build/openmote-cc2538_armgcc/bsp/boards/common/aes_ecb.c **** //   is executed 9 times, after this addroundkey to finish the 9th round, 
 105:build/openmote-cc2538_armgcc/bsp/boards/common/aes_ecb.c **** //   after that the 10th round without mixcolums
 106:build/openmote-cc2538_armgcc/bsp/boards/common/aes_ecb.c **** //   no further subfunctions to save cycles for function calls
 107:build/openmote-cc2538_armgcc/bsp/boards/common/aes_ecb.c **** //   no structuring with "for (....)" to save cycles
 108:build/openmote-cc2538_armgcc/bsp/boards/common/aes_ecb.c **** void aes_encr(unsigned char *state, unsigned char *expandedKey)
 109:build/openmote-cc2538_armgcc/bsp/boards/common/aes_ecb.c **** {
 1082              		.loc 1 109 0
 1083              		.cfi_startproc
 1084              		@ args = 0, pretend = 0, frame = 16
 1085              		@ frame_needed = 1, uses_anonymous_args = 0
 1086 035c 80B5     		push	{r7, lr}
 1087              		.cfi_def_cfa_offset 8
 1088              		.cfi_offset 7, -8
 1089              		.cfi_offset 14, -4
 1090 035e 84B0     		sub	sp, sp, #16
 1091              		.cfi_def_cfa_offset 24
 1092 0360 00AF     		add	r7, sp, #0
 1093              		.cfi_def_cfa_register 7
 1094 0362 7860     		str	r0, [r7, #4]
 1095 0364 3960     		str	r1, [r7]
 110:build/openmote-cc2538_armgcc/bsp/boards/common/aes_ecb.c ****     unsigned char buf1, buf2, buf3, round;
 111:build/openmote-cc2538_armgcc/bsp/boards/common/aes_ecb.c **** 
 112:build/openmote-cc2538_armgcc/bsp/boards/common/aes_ecb.c **** 
 113:build/openmote-cc2538_armgcc/bsp/boards/common/aes_ecb.c ****     for (round = 0; round < 9; round++){
 1096              		.loc 1 113 0
 1097 0366 0023     		movs	r3, #0
 1098 0368 FB73     		strb	r3, [r7, #15]
 1099 036a 2FE3     		b	.L10
 1100              	.L11:
 114:build/openmote-cc2538_armgcc/bsp/boards/common/aes_ecb.c ****         // addroundkey, sbox and shiftrows
 115:build/openmote-cc2538_armgcc/bsp/boards/common/aes_ecb.c ****         // row 0
 116:build/openmote-cc2538_armgcc/bsp/boards/common/aes_ecb.c ****         state[0] = sbox[(state[0] ^ expandedKey[(round * 16)])];
 1101              		.loc 1 116 0 discriminator 2
 1102 036c 7B68     		ldr	r3, [r7, #4]
 1103 036e 1A78     		ldrb	r2, [r3]	@ zero_extendqisi2
 1104 0370 FB7B     		ldrb	r3, [r7, #15]	@ zero_extendqisi2
 1105 0372 1B01     		lsls	r3, r3, #4
 1106 0374 3968     		ldr	r1, [r7]
 1107 0376 0B44     		add	r3, r3, r1
 1108 0378 1B78     		ldrb	r3, [r3]	@ zero_extendqisi2
 1109 037a 5340     		eors	r3, r3, r2
 1110 037c DBB2     		uxtb	r3, r3
 1111 037e 1A46     		mov	r2, r3
 1112 0380 40F20003 		movw	r3, #:lower16:sbox
 1113 0384 C0F20003 		movt	r3, #:upper16:sbox
 1114 0388 9A5C     		ldrb	r2, [r3, r2]	@ zero_extendqisi2
 1115 038a 7B68     		ldr	r3, [r7, #4]
 1116 038c 1A70     		strb	r2, [r3]
 117:build/openmote-cc2538_armgcc/bsp/boards/common/aes_ecb.c ****         state[4] = sbox[(state[4] ^ expandedKey[(round * 16) + 4])];
 1117              		.loc 1 117 0 discriminator 2
 1118 038e 7B68     		ldr	r3, [r7, #4]
 1119 0390 1A1D     		adds	r2, r3, #4
 1120 0392 7B68     		ldr	r3, [r7, #4]
 1121 0394 0433     		adds	r3, r3, #4
 1122 0396 1978     		ldrb	r1, [r3]	@ zero_extendqisi2
 1123 0398 FB7B     		ldrb	r3, [r7, #15]	@ zero_extendqisi2
 1124 039a 1B01     		lsls	r3, r3, #4
 1125 039c 0433     		adds	r3, r3, #4
 1126 039e 3868     		ldr	r0, [r7]
 1127 03a0 0344     		add	r3, r3, r0
 1128 03a2 1B78     		ldrb	r3, [r3]	@ zero_extendqisi2
 1129 03a4 4B40     		eors	r3, r3, r1
 1130 03a6 DBB2     		uxtb	r3, r3
 1131 03a8 1946     		mov	r1, r3
 1132 03aa 40F20003 		movw	r3, #:lower16:sbox
 1133 03ae C0F20003 		movt	r3, #:upper16:sbox
 1134 03b2 5B5C     		ldrb	r3, [r3, r1]	@ zero_extendqisi2
 1135 03b4 1370     		strb	r3, [r2]
 118:build/openmote-cc2538_armgcc/bsp/boards/common/aes_ecb.c ****         state[8] = sbox[(state[8] ^ expandedKey[(round * 16) + 8])];
 1136              		.loc 1 118 0 discriminator 2
 1137 03b6 7B68     		ldr	r3, [r7, #4]
 1138 03b8 03F10802 		add	r2, r3, #8
 1139 03bc 7B68     		ldr	r3, [r7, #4]
 1140 03be 0833     		adds	r3, r3, #8
 1141 03c0 1978     		ldrb	r1, [r3]	@ zero_extendqisi2
 1142 03c2 FB7B     		ldrb	r3, [r7, #15]	@ zero_extendqisi2
 1143 03c4 1B01     		lsls	r3, r3, #4
 1144 03c6 0833     		adds	r3, r3, #8
 1145 03c8 3868     		ldr	r0, [r7]
 1146 03ca 0344     		add	r3, r3, r0
 1147 03cc 1B78     		ldrb	r3, [r3]	@ zero_extendqisi2
 1148 03ce 4B40     		eors	r3, r3, r1
 1149 03d0 DBB2     		uxtb	r3, r3
 1150 03d2 1946     		mov	r1, r3
 1151 03d4 40F20003 		movw	r3, #:lower16:sbox
 1152 03d8 C0F20003 		movt	r3, #:upper16:sbox
 1153 03dc 5B5C     		ldrb	r3, [r3, r1]	@ zero_extendqisi2
 1154 03de 1370     		strb	r3, [r2]
 119:build/openmote-cc2538_armgcc/bsp/boards/common/aes_ecb.c ****         state[12] = sbox[(state[12] ^ expandedKey[(round * 16) + 12])];
 1155              		.loc 1 119 0 discriminator 2
 1156 03e0 7B68     		ldr	r3, [r7, #4]
 1157 03e2 03F10C02 		add	r2, r3, #12
 1158 03e6 7B68     		ldr	r3, [r7, #4]
 1159 03e8 0C33     		adds	r3, r3, #12
 1160 03ea 1978     		ldrb	r1, [r3]	@ zero_extendqisi2
 1161 03ec FB7B     		ldrb	r3, [r7, #15]	@ zero_extendqisi2
 1162 03ee 1B01     		lsls	r3, r3, #4
 1163 03f0 0C33     		adds	r3, r3, #12
 1164 03f2 3868     		ldr	r0, [r7]
 1165 03f4 0344     		add	r3, r3, r0
 1166 03f6 1B78     		ldrb	r3, [r3]	@ zero_extendqisi2
 1167 03f8 4B40     		eors	r3, r3, r1
 1168 03fa DBB2     		uxtb	r3, r3
 1169 03fc 1946     		mov	r1, r3
 1170 03fe 40F20003 		movw	r3, #:lower16:sbox
 1171 0402 C0F20003 		movt	r3, #:upper16:sbox
 1172 0406 5B5C     		ldrb	r3, [r3, r1]	@ zero_extendqisi2
 1173 0408 1370     		strb	r3, [r2]
 120:build/openmote-cc2538_armgcc/bsp/boards/common/aes_ecb.c ****         // row 1
 121:build/openmote-cc2538_armgcc/bsp/boards/common/aes_ecb.c ****         buf1 = state[1] ^ expandedKey[(round * 16) + 1];
 1174              		.loc 1 121 0 discriminator 2
 1175 040a 7B68     		ldr	r3, [r7, #4]
 1176 040c 0133     		adds	r3, r3, #1
 1177 040e 1A78     		ldrb	r2, [r3]	@ zero_extendqisi2
 1178 0410 FB7B     		ldrb	r3, [r7, #15]	@ zero_extendqisi2
 1179 0412 1B01     		lsls	r3, r3, #4
 1180 0414 0133     		adds	r3, r3, #1
 1181 0416 3968     		ldr	r1, [r7]
 1182 0418 0B44     		add	r3, r3, r1
 1183 041a 1B78     		ldrb	r3, [r3]	@ zero_extendqisi2
 1184 041c 5340     		eors	r3, r3, r2
 1185 041e BB73     		strb	r3, [r7, #14]
 122:build/openmote-cc2538_armgcc/bsp/boards/common/aes_ecb.c ****         state[1] = sbox[(state[5] ^ expandedKey[(round * 16) + 5])];
 1186              		.loc 1 122 0 discriminator 2
 1187 0420 7B68     		ldr	r3, [r7, #4]
 1188 0422 5A1C     		adds	r2, r3, #1
 1189 0424 7B68     		ldr	r3, [r7, #4]
 1190 0426 0533     		adds	r3, r3, #5
 1191 0428 1978     		ldrb	r1, [r3]	@ zero_extendqisi2
 1192 042a FB7B     		ldrb	r3, [r7, #15]	@ zero_extendqisi2
 1193 042c 1B01     		lsls	r3, r3, #4
 1194 042e 0533     		adds	r3, r3, #5
 1195 0430 3868     		ldr	r0, [r7]
 1196 0432 0344     		add	r3, r3, r0
 1197 0434 1B78     		ldrb	r3, [r3]	@ zero_extendqisi2
 1198 0436 4B40     		eors	r3, r3, r1
 1199 0438 DBB2     		uxtb	r3, r3
 1200 043a 1946     		mov	r1, r3
 1201 043c 40F20003 		movw	r3, #:lower16:sbox
 1202 0440 C0F20003 		movt	r3, #:upper16:sbox
 1203 0444 5B5C     		ldrb	r3, [r3, r1]	@ zero_extendqisi2
 1204 0446 1370     		strb	r3, [r2]
 123:build/openmote-cc2538_armgcc/bsp/boards/common/aes_ecb.c ****         state[5] = sbox[(state[9] ^ expandedKey[(round * 16) + 9])];
 1205              		.loc 1 123 0 discriminator 2
 1206 0448 7B68     		ldr	r3, [r7, #4]
 1207 044a 5A1D     		adds	r2, r3, #5
 1208 044c 7B68     		ldr	r3, [r7, #4]
 1209 044e 0933     		adds	r3, r3, #9
 1210 0450 1978     		ldrb	r1, [r3]	@ zero_extendqisi2
 1211 0452 FB7B     		ldrb	r3, [r7, #15]	@ zero_extendqisi2
 1212 0454 1B01     		lsls	r3, r3, #4
 1213 0456 0933     		adds	r3, r3, #9
 1214 0458 3868     		ldr	r0, [r7]
 1215 045a 0344     		add	r3, r3, r0
 1216 045c 1B78     		ldrb	r3, [r3]	@ zero_extendqisi2
 1217 045e 4B40     		eors	r3, r3, r1
 1218 0460 DBB2     		uxtb	r3, r3
 1219 0462 1946     		mov	r1, r3
 1220 0464 40F20003 		movw	r3, #:lower16:sbox
 1221 0468 C0F20003 		movt	r3, #:upper16:sbox
 1222 046c 5B5C     		ldrb	r3, [r3, r1]	@ zero_extendqisi2
 1223 046e 1370     		strb	r3, [r2]
 124:build/openmote-cc2538_armgcc/bsp/boards/common/aes_ecb.c ****         state[9] = sbox[(state[13] ^ expandedKey[(round * 16) + 13])];
 1224              		.loc 1 124 0 discriminator 2
 1225 0470 7B68     		ldr	r3, [r7, #4]
 1226 0472 03F10902 		add	r2, r3, #9
 1227 0476 7B68     		ldr	r3, [r7, #4]
 1228 0478 0D33     		adds	r3, r3, #13
 1229 047a 1978     		ldrb	r1, [r3]	@ zero_extendqisi2
 1230 047c FB7B     		ldrb	r3, [r7, #15]	@ zero_extendqisi2
 1231 047e 1B01     		lsls	r3, r3, #4
 1232 0480 0D33     		adds	r3, r3, #13
 1233 0482 3868     		ldr	r0, [r7]
 1234 0484 0344     		add	r3, r3, r0
 1235 0486 1B78     		ldrb	r3, [r3]	@ zero_extendqisi2
 1236 0488 4B40     		eors	r3, r3, r1
 1237 048a DBB2     		uxtb	r3, r3
 1238 048c 1946     		mov	r1, r3
 1239 048e 40F20003 		movw	r3, #:lower16:sbox
 1240 0492 C0F20003 		movt	r3, #:upper16:sbox
 1241 0496 5B5C     		ldrb	r3, [r3, r1]	@ zero_extendqisi2
 1242 0498 1370     		strb	r3, [r2]
 125:build/openmote-cc2538_armgcc/bsp/boards/common/aes_ecb.c ****         state[13] = sbox[buf1];
 1243              		.loc 1 125 0 discriminator 2
 1244 049a 7B68     		ldr	r3, [r7, #4]
 1245 049c 03F10D02 		add	r2, r3, #13
 1246 04a0 B97B     		ldrb	r1, [r7, #14]	@ zero_extendqisi2
 1247 04a2 40F20003 		movw	r3, #:lower16:sbox
 1248 04a6 C0F20003 		movt	r3, #:upper16:sbox
 1249 04aa 5B5C     		ldrb	r3, [r3, r1]	@ zero_extendqisi2
 1250 04ac 1370     		strb	r3, [r2]
 126:build/openmote-cc2538_armgcc/bsp/boards/common/aes_ecb.c ****         // row 2
 127:build/openmote-cc2538_armgcc/bsp/boards/common/aes_ecb.c ****         buf1 = state[2] ^ expandedKey[(round * 16) + 2];
 1251              		.loc 1 127 0 discriminator 2
 1252 04ae 7B68     		ldr	r3, [r7, #4]
 1253 04b0 0233     		adds	r3, r3, #2
 1254 04b2 1A78     		ldrb	r2, [r3]	@ zero_extendqisi2
 1255 04b4 FB7B     		ldrb	r3, [r7, #15]	@ zero_extendqisi2
 1256 04b6 1B01     		lsls	r3, r3, #4
 1257 04b8 0233     		adds	r3, r3, #2
 1258 04ba 3968     		ldr	r1, [r7]
 1259 04bc 0B44     		add	r3, r3, r1
 1260 04be 1B78     		ldrb	r3, [r3]	@ zero_extendqisi2
 1261 04c0 5340     		eors	r3, r3, r2
 1262 04c2 BB73     		strb	r3, [r7, #14]
 128:build/openmote-cc2538_armgcc/bsp/boards/common/aes_ecb.c ****         buf2 = state[6] ^ expandedKey[(round * 16) + 6];
 1263              		.loc 1 128 0 discriminator 2
 1264 04c4 7B68     		ldr	r3, [r7, #4]
 1265 04c6 0633     		adds	r3, r3, #6
 1266 04c8 1A78     		ldrb	r2, [r3]	@ zero_extendqisi2
 1267 04ca FB7B     		ldrb	r3, [r7, #15]	@ zero_extendqisi2
 1268 04cc 1B01     		lsls	r3, r3, #4
 1269 04ce 0633     		adds	r3, r3, #6
 1270 04d0 3968     		ldr	r1, [r7]
 1271 04d2 0B44     		add	r3, r3, r1
 1272 04d4 1B78     		ldrb	r3, [r3]	@ zero_extendqisi2
 1273 04d6 5340     		eors	r3, r3, r2
 1274 04d8 7B73     		strb	r3, [r7, #13]
 129:build/openmote-cc2538_armgcc/bsp/boards/common/aes_ecb.c ****         state[2] = sbox[(state[10] ^ expandedKey[(round * 16) + 10])];
 1275              		.loc 1 129 0 discriminator 2
 1276 04da 7B68     		ldr	r3, [r7, #4]
 1277 04dc 9A1C     		adds	r2, r3, #2
 1278 04de 7B68     		ldr	r3, [r7, #4]
 1279 04e0 0A33     		adds	r3, r3, #10
 1280 04e2 1978     		ldrb	r1, [r3]	@ zero_extendqisi2
 1281 04e4 FB7B     		ldrb	r3, [r7, #15]	@ zero_extendqisi2
 1282 04e6 1B01     		lsls	r3, r3, #4
 1283 04e8 0A33     		adds	r3, r3, #10
 1284 04ea 3868     		ldr	r0, [r7]
 1285 04ec 0344     		add	r3, r3, r0
 1286 04ee 1B78     		ldrb	r3, [r3]	@ zero_extendqisi2
 1287 04f0 4B40     		eors	r3, r3, r1
 1288 04f2 DBB2     		uxtb	r3, r3
 1289 04f4 1946     		mov	r1, r3
 1290 04f6 40F20003 		movw	r3, #:lower16:sbox
 1291 04fa C0F20003 		movt	r3, #:upper16:sbox
 1292 04fe 5B5C     		ldrb	r3, [r3, r1]	@ zero_extendqisi2
 1293 0500 1370     		strb	r3, [r2]
 130:build/openmote-cc2538_armgcc/bsp/boards/common/aes_ecb.c ****         state[6] = sbox[(state[14] ^ expandedKey[(round * 16) + 14])];
 1294              		.loc 1 130 0 discriminator 2
 1295 0502 7B68     		ldr	r3, [r7, #4]
 1296 0504 9A1D     		adds	r2, r3, #6
 1297 0506 7B68     		ldr	r3, [r7, #4]
 1298 0508 0E33     		adds	r3, r3, #14
 1299 050a 1978     		ldrb	r1, [r3]	@ zero_extendqisi2
 1300 050c FB7B     		ldrb	r3, [r7, #15]	@ zero_extendqisi2
 1301 050e 1B01     		lsls	r3, r3, #4
 1302 0510 0E33     		adds	r3, r3, #14
 1303 0512 3868     		ldr	r0, [r7]
 1304 0514 0344     		add	r3, r3, r0
 1305 0516 1B78     		ldrb	r3, [r3]	@ zero_extendqisi2
 1306 0518 4B40     		eors	r3, r3, r1
 1307 051a DBB2     		uxtb	r3, r3
 1308 051c 1946     		mov	r1, r3
 1309 051e 40F20003 		movw	r3, #:lower16:sbox
 1310 0522 C0F20003 		movt	r3, #:upper16:sbox
 1311 0526 5B5C     		ldrb	r3, [r3, r1]	@ zero_extendqisi2
 1312 0528 1370     		strb	r3, [r2]
 131:build/openmote-cc2538_armgcc/bsp/boards/common/aes_ecb.c ****         state[10] = sbox[buf1];
 1313              		.loc 1 131 0 discriminator 2
 1314 052a 7B68     		ldr	r3, [r7, #4]
 1315 052c 03F10A02 		add	r2, r3, #10
 1316 0530 B97B     		ldrb	r1, [r7, #14]	@ zero_extendqisi2
 1317 0532 40F20003 		movw	r3, #:lower16:sbox
 1318 0536 C0F20003 		movt	r3, #:upper16:sbox
 1319 053a 5B5C     		ldrb	r3, [r3, r1]	@ zero_extendqisi2
 1320 053c 1370     		strb	r3, [r2]
 132:build/openmote-cc2538_armgcc/bsp/boards/common/aes_ecb.c ****         state[14] = sbox[buf2];
 1321              		.loc 1 132 0 discriminator 2
 1322 053e 7B68     		ldr	r3, [r7, #4]
 1323 0540 03F10E02 		add	r2, r3, #14
 1324 0544 797B     		ldrb	r1, [r7, #13]	@ zero_extendqisi2
 1325 0546 40F20003 		movw	r3, #:lower16:sbox
 1326 054a C0F20003 		movt	r3, #:upper16:sbox
 1327 054e 5B5C     		ldrb	r3, [r3, r1]	@ zero_extendqisi2
 1328 0550 1370     		strb	r3, [r2]
 133:build/openmote-cc2538_armgcc/bsp/boards/common/aes_ecb.c ****         // row 3
 134:build/openmote-cc2538_armgcc/bsp/boards/common/aes_ecb.c ****         buf1 = state[15] ^ expandedKey[(round * 16) + 15];
 1329              		.loc 1 134 0 discriminator 2
 1330 0552 7B68     		ldr	r3, [r7, #4]
 1331 0554 0F33     		adds	r3, r3, #15
 1332 0556 1A78     		ldrb	r2, [r3]	@ zero_extendqisi2
 1333 0558 FB7B     		ldrb	r3, [r7, #15]	@ zero_extendqisi2
 1334 055a 1B01     		lsls	r3, r3, #4
 1335 055c 0F33     		adds	r3, r3, #15
 1336 055e 3968     		ldr	r1, [r7]
 1337 0560 0B44     		add	r3, r3, r1
 1338 0562 1B78     		ldrb	r3, [r3]	@ zero_extendqisi2
 1339 0564 5340     		eors	r3, r3, r2
 1340 0566 BB73     		strb	r3, [r7, #14]
 135:build/openmote-cc2538_armgcc/bsp/boards/common/aes_ecb.c ****         state[15] = sbox[(state[11] ^ expandedKey[(round * 16) + 11])];
 1341              		.loc 1 135 0 discriminator 2
 1342 0568 7B68     		ldr	r3, [r7, #4]
 1343 056a 03F10F02 		add	r2, r3, #15
 1344 056e 7B68     		ldr	r3, [r7, #4]
 1345 0570 0B33     		adds	r3, r3, #11
 1346 0572 1978     		ldrb	r1, [r3]	@ zero_extendqisi2
 1347 0574 FB7B     		ldrb	r3, [r7, #15]	@ zero_extendqisi2
 1348 0576 1B01     		lsls	r3, r3, #4
 1349 0578 0B33     		adds	r3, r3, #11
 1350 057a 3868     		ldr	r0, [r7]
 1351 057c 0344     		add	r3, r3, r0
 1352 057e 1B78     		ldrb	r3, [r3]	@ zero_extendqisi2
 1353 0580 4B40     		eors	r3, r3, r1
 1354 0582 DBB2     		uxtb	r3, r3
 1355 0584 1946     		mov	r1, r3
 1356 0586 40F20003 		movw	r3, #:lower16:sbox
 1357 058a C0F20003 		movt	r3, #:upper16:sbox
 1358 058e 5B5C     		ldrb	r3, [r3, r1]	@ zero_extendqisi2
 1359 0590 1370     		strb	r3, [r2]
 136:build/openmote-cc2538_armgcc/bsp/boards/common/aes_ecb.c ****         state[11] = sbox[(state[7] ^ expandedKey[(round * 16) + 7])];
 1360              		.loc 1 136 0 discriminator 2
 1361 0592 7B68     		ldr	r3, [r7, #4]
 1362 0594 03F10B02 		add	r2, r3, #11
 1363 0598 7B68     		ldr	r3, [r7, #4]
 1364 059a 0733     		adds	r3, r3, #7
 1365 059c 1978     		ldrb	r1, [r3]	@ zero_extendqisi2
 1366 059e FB7B     		ldrb	r3, [r7, #15]	@ zero_extendqisi2
 1367 05a0 1B01     		lsls	r3, r3, #4
 1368 05a2 0733     		adds	r3, r3, #7
 1369 05a4 3868     		ldr	r0, [r7]
 1370 05a6 0344     		add	r3, r3, r0
 1371 05a8 1B78     		ldrb	r3, [r3]	@ zero_extendqisi2
 1372 05aa 4B40     		eors	r3, r3, r1
 1373 05ac DBB2     		uxtb	r3, r3
 1374 05ae 1946     		mov	r1, r3
 1375 05b0 40F20003 		movw	r3, #:lower16:sbox
 1376 05b4 C0F20003 		movt	r3, #:upper16:sbox
 1377 05b8 5B5C     		ldrb	r3, [r3, r1]	@ zero_extendqisi2
 1378 05ba 1370     		strb	r3, [r2]
 137:build/openmote-cc2538_armgcc/bsp/boards/common/aes_ecb.c ****         state[7] = sbox[(state[3] ^ expandedKey[(round * 16) + 3])];
 1379              		.loc 1 137 0 discriminator 2
 1380 05bc 7B68     		ldr	r3, [r7, #4]
 1381 05be DA1D     		adds	r2, r3, #7
 1382 05c0 7B68     		ldr	r3, [r7, #4]
 1383 05c2 0333     		adds	r3, r3, #3
 1384 05c4 1978     		ldrb	r1, [r3]	@ zero_extendqisi2
 1385 05c6 FB7B     		ldrb	r3, [r7, #15]	@ zero_extendqisi2
 1386 05c8 1B01     		lsls	r3, r3, #4
 1387 05ca 0333     		adds	r3, r3, #3
 1388 05cc 3868     		ldr	r0, [r7]
 1389 05ce 0344     		add	r3, r3, r0
 1390 05d0 1B78     		ldrb	r3, [r3]	@ zero_extendqisi2
 1391 05d2 4B40     		eors	r3, r3, r1
 1392 05d4 DBB2     		uxtb	r3, r3
 1393 05d6 1946     		mov	r1, r3
 1394 05d8 40F20003 		movw	r3, #:lower16:sbox
 1395 05dc C0F20003 		movt	r3, #:upper16:sbox
 1396 05e0 5B5C     		ldrb	r3, [r3, r1]	@ zero_extendqisi2
 1397 05e2 1370     		strb	r3, [r2]
 138:build/openmote-cc2538_armgcc/bsp/boards/common/aes_ecb.c ****         state[3] = sbox[buf1];
 1398              		.loc 1 138 0 discriminator 2
 1399 05e4 7B68     		ldr	r3, [r7, #4]
 1400 05e6 DA1C     		adds	r2, r3, #3
 1401 05e8 B97B     		ldrb	r1, [r7, #14]	@ zero_extendqisi2
 1402 05ea 40F20003 		movw	r3, #:lower16:sbox
 1403 05ee C0F20003 		movt	r3, #:upper16:sbox
 1404 05f2 5B5C     		ldrb	r3, [r3, r1]	@ zero_extendqisi2
 1405 05f4 1370     		strb	r3, [r2]
 139:build/openmote-cc2538_armgcc/bsp/boards/common/aes_ecb.c **** 
 140:build/openmote-cc2538_armgcc/bsp/boards/common/aes_ecb.c ****         // mixcolums //////////
 141:build/openmote-cc2538_armgcc/bsp/boards/common/aes_ecb.c ****         // col1
 142:build/openmote-cc2538_armgcc/bsp/boards/common/aes_ecb.c ****         buf1 = state[0] ^ state[1] ^ state[2] ^ state[3];
 1406              		.loc 1 142 0 discriminator 2
 1407 05f6 7B68     		ldr	r3, [r7, #4]
 1408 05f8 1A78     		ldrb	r2, [r3]	@ zero_extendqisi2
 1409 05fa 7B68     		ldr	r3, [r7, #4]
 1410 05fc 0133     		adds	r3, r3, #1
 1411 05fe 1B78     		ldrb	r3, [r3]	@ zero_extendqisi2
 1412 0600 5340     		eors	r3, r3, r2
 1413 0602 DAB2     		uxtb	r2, r3
 1414 0604 7B68     		ldr	r3, [r7, #4]
 1415 0606 0233     		adds	r3, r3, #2
 1416 0608 1B78     		ldrb	r3, [r3]	@ zero_extendqisi2
 1417 060a 5340     		eors	r3, r3, r2
 1418 060c DAB2     		uxtb	r2, r3
 1419 060e 7B68     		ldr	r3, [r7, #4]
 1420 0610 0333     		adds	r3, r3, #3
 1421 0612 1B78     		ldrb	r3, [r3]	@ zero_extendqisi2
 1422 0614 5340     		eors	r3, r3, r2
 1423 0616 BB73     		strb	r3, [r7, #14]
 143:build/openmote-cc2538_armgcc/bsp/boards/common/aes_ecb.c ****         buf2 = state[0];
 1424              		.loc 1 143 0 discriminator 2
 1425 0618 7B68     		ldr	r3, [r7, #4]
 1426 061a 1B78     		ldrb	r3, [r3]
 1427 061c 7B73     		strb	r3, [r7, #13]
 144:build/openmote-cc2538_armgcc/bsp/boards/common/aes_ecb.c ****         buf3 = state[0] ^ state[1]; buf3 = galois_mul2(buf3); state[0] = state[0] ^ buf3 ^ buf1;
 1428              		.loc 1 144 0 discriminator 2
 1429 061e 7B68     		ldr	r3, [r7, #4]
 1430 0620 1A78     		ldrb	r2, [r3]	@ zero_extendqisi2
 1431 0622 7B68     		ldr	r3, [r7, #4]
 1432 0624 0133     		adds	r3, r3, #1
 1433 0626 1B78     		ldrb	r3, [r3]	@ zero_extendqisi2
 1434 0628 5340     		eors	r3, r3, r2
 1435 062a 3B73     		strb	r3, [r7, #12]
 1436 062c 3B7B     		ldrb	r3, [r7, #12]	@ zero_extendqisi2
 1437 062e 1846     		mov	r0, r3
 1438 0630 FFF7FEFF 		bl	galois_mul2
 1439 0634 0346     		mov	r3, r0
 1440 0636 3B73     		strb	r3, [r7, #12]
 1441 0638 7B68     		ldr	r3, [r7, #4]
 1442 063a 1A78     		ldrb	r2, [r3]	@ zero_extendqisi2
 1443 063c 3B7B     		ldrb	r3, [r7, #12]
 1444 063e 5340     		eors	r3, r3, r2
 1445 0640 DAB2     		uxtb	r2, r3
 1446 0642 BB7B     		ldrb	r3, [r7, #14]
 1447 0644 5340     		eors	r3, r3, r2
 1448 0646 DAB2     		uxtb	r2, r3
 1449 0648 7B68     		ldr	r3, [r7, #4]
 1450 064a 1A70     		strb	r2, [r3]
 145:build/openmote-cc2538_armgcc/bsp/boards/common/aes_ecb.c ****         buf3 = state[1] ^ state[2]; buf3 = galois_mul2(buf3); state[1] = state[1] ^ buf3 ^ buf1;
 1451              		.loc 1 145 0 discriminator 2
 1452 064c 7B68     		ldr	r3, [r7, #4]
 1453 064e 0133     		adds	r3, r3, #1
 1454 0650 1A78     		ldrb	r2, [r3]	@ zero_extendqisi2
 1455 0652 7B68     		ldr	r3, [r7, #4]
 1456 0654 0233     		adds	r3, r3, #2
 1457 0656 1B78     		ldrb	r3, [r3]	@ zero_extendqisi2
 1458 0658 5340     		eors	r3, r3, r2
 1459 065a 3B73     		strb	r3, [r7, #12]
 1460 065c 3B7B     		ldrb	r3, [r7, #12]	@ zero_extendqisi2
 1461 065e 1846     		mov	r0, r3
 1462 0660 FFF7FEFF 		bl	galois_mul2
 1463 0664 0346     		mov	r3, r0
 1464 0666 3B73     		strb	r3, [r7, #12]
 1465 0668 7B68     		ldr	r3, [r7, #4]
 1466 066a 0133     		adds	r3, r3, #1
 1467 066c 7A68     		ldr	r2, [r7, #4]
 1468 066e 0132     		adds	r2, r2, #1
 1469 0670 1178     		ldrb	r1, [r2]	@ zero_extendqisi2
 1470 0672 3A7B     		ldrb	r2, [r7, #12]
 1471 0674 4A40     		eors	r2, r2, r1
 1472 0676 D1B2     		uxtb	r1, r2
 1473 0678 BA7B     		ldrb	r2, [r7, #14]
 1474 067a 4A40     		eors	r2, r2, r1
 1475 067c D2B2     		uxtb	r2, r2
 1476 067e 1A70     		strb	r2, [r3]
 146:build/openmote-cc2538_armgcc/bsp/boards/common/aes_ecb.c ****         buf3 = state[2] ^ state[3]; buf3 = galois_mul2(buf3); state[2] = state[2] ^ buf3 ^ buf1;
 1477              		.loc 1 146 0 discriminator 2
 1478 0680 7B68     		ldr	r3, [r7, #4]
 1479 0682 0233     		adds	r3, r3, #2
 1480 0684 1A78     		ldrb	r2, [r3]	@ zero_extendqisi2
 1481 0686 7B68     		ldr	r3, [r7, #4]
 1482 0688 0333     		adds	r3, r3, #3
 1483 068a 1B78     		ldrb	r3, [r3]	@ zero_extendqisi2
 1484 068c 5340     		eors	r3, r3, r2
 1485 068e 3B73     		strb	r3, [r7, #12]
 1486 0690 3B7B     		ldrb	r3, [r7, #12]	@ zero_extendqisi2
 1487 0692 1846     		mov	r0, r3
 1488 0694 FFF7FEFF 		bl	galois_mul2
 1489 0698 0346     		mov	r3, r0
 1490 069a 3B73     		strb	r3, [r7, #12]
 1491 069c 7B68     		ldr	r3, [r7, #4]
 1492 069e 0233     		adds	r3, r3, #2
 1493 06a0 7A68     		ldr	r2, [r7, #4]
 1494 06a2 0232     		adds	r2, r2, #2
 1495 06a4 1178     		ldrb	r1, [r2]	@ zero_extendqisi2
 1496 06a6 3A7B     		ldrb	r2, [r7, #12]
 1497 06a8 4A40     		eors	r2, r2, r1
 1498 06aa D1B2     		uxtb	r1, r2
 1499 06ac BA7B     		ldrb	r2, [r7, #14]
 1500 06ae 4A40     		eors	r2, r2, r1
 1501 06b0 D2B2     		uxtb	r2, r2
 1502 06b2 1A70     		strb	r2, [r3]
 147:build/openmote-cc2538_armgcc/bsp/boards/common/aes_ecb.c ****         buf3 = state[3] ^ buf2;     buf3 = galois_mul2(buf3); state[3] = state[3] ^ buf3 ^ buf1;
 1503              		.loc 1 147 0 discriminator 2
 1504 06b4 7B68     		ldr	r3, [r7, #4]
 1505 06b6 0333     		adds	r3, r3, #3
 1506 06b8 1A78     		ldrb	r2, [r3]	@ zero_extendqisi2
 1507 06ba 7B7B     		ldrb	r3, [r7, #13]
 1508 06bc 5340     		eors	r3, r3, r2
 1509 06be 3B73     		strb	r3, [r7, #12]
 1510 06c0 3B7B     		ldrb	r3, [r7, #12]	@ zero_extendqisi2
 1511 06c2 1846     		mov	r0, r3
 1512 06c4 FFF7FEFF 		bl	galois_mul2
 1513 06c8 0346     		mov	r3, r0
 1514 06ca 3B73     		strb	r3, [r7, #12]
 1515 06cc 7B68     		ldr	r3, [r7, #4]
 1516 06ce 0333     		adds	r3, r3, #3
 1517 06d0 7A68     		ldr	r2, [r7, #4]
 1518 06d2 0332     		adds	r2, r2, #3
 1519 06d4 1178     		ldrb	r1, [r2]	@ zero_extendqisi2
 1520 06d6 3A7B     		ldrb	r2, [r7, #12]
 1521 06d8 4A40     		eors	r2, r2, r1
 1522 06da D1B2     		uxtb	r1, r2
 1523 06dc BA7B     		ldrb	r2, [r7, #14]
 1524 06de 4A40     		eors	r2, r2, r1
 1525 06e0 D2B2     		uxtb	r2, r2
 1526 06e2 1A70     		strb	r2, [r3]
 148:build/openmote-cc2538_armgcc/bsp/boards/common/aes_ecb.c ****         // col2
 149:build/openmote-cc2538_armgcc/bsp/boards/common/aes_ecb.c ****         buf1 = state[4] ^ state[5] ^ state[6] ^ state[7];
 1527              		.loc 1 149 0 discriminator 2
 1528 06e4 7B68     		ldr	r3, [r7, #4]
 1529 06e6 0433     		adds	r3, r3, #4
 1530 06e8 1A78     		ldrb	r2, [r3]	@ zero_extendqisi2
 1531 06ea 7B68     		ldr	r3, [r7, #4]
 1532 06ec 0533     		adds	r3, r3, #5
 1533 06ee 1B78     		ldrb	r3, [r3]	@ zero_extendqisi2
 1534 06f0 5340     		eors	r3, r3, r2
 1535 06f2 DAB2     		uxtb	r2, r3
 1536 06f4 7B68     		ldr	r3, [r7, #4]
 1537 06f6 0633     		adds	r3, r3, #6
 1538 06f8 1B78     		ldrb	r3, [r3]	@ zero_extendqisi2
 1539 06fa 5340     		eors	r3, r3, r2
 1540 06fc DAB2     		uxtb	r2, r3
 1541 06fe 7B68     		ldr	r3, [r7, #4]
 1542 0700 0733     		adds	r3, r3, #7
 1543 0702 1B78     		ldrb	r3, [r3]	@ zero_extendqisi2
 1544 0704 5340     		eors	r3, r3, r2
 1545 0706 BB73     		strb	r3, [r7, #14]
 150:build/openmote-cc2538_armgcc/bsp/boards/common/aes_ecb.c ****         buf2 = state[4];
 1546              		.loc 1 150 0 discriminator 2
 1547 0708 7B68     		ldr	r3, [r7, #4]
 1548 070a 1B79     		ldrb	r3, [r3, #4]
 1549 070c 7B73     		strb	r3, [r7, #13]
 151:build/openmote-cc2538_armgcc/bsp/boards/common/aes_ecb.c ****         buf3 = state[4] ^ state[5]; buf3 = galois_mul2(buf3); state[4] = state[4] ^ buf3 ^ buf1;
 1550              		.loc 1 151 0 discriminator 2
 1551 070e 7B68     		ldr	r3, [r7, #4]
 1552 0710 0433     		adds	r3, r3, #4
 1553 0712 1A78     		ldrb	r2, [r3]	@ zero_extendqisi2
 1554 0714 7B68     		ldr	r3, [r7, #4]
 1555 0716 0533     		adds	r3, r3, #5
 1556 0718 1B78     		ldrb	r3, [r3]	@ zero_extendqisi2
 1557 071a 5340     		eors	r3, r3, r2
 1558 071c 3B73     		strb	r3, [r7, #12]
 1559 071e 3B7B     		ldrb	r3, [r7, #12]	@ zero_extendqisi2
 1560 0720 1846     		mov	r0, r3
 1561 0722 FFF7FEFF 		bl	galois_mul2
 1562 0726 0346     		mov	r3, r0
 1563 0728 3B73     		strb	r3, [r7, #12]
 1564 072a 7B68     		ldr	r3, [r7, #4]
 1565 072c 0433     		adds	r3, r3, #4
 1566 072e 7A68     		ldr	r2, [r7, #4]
 1567 0730 0432     		adds	r2, r2, #4
 1568 0732 1178     		ldrb	r1, [r2]	@ zero_extendqisi2
 1569 0734 3A7B     		ldrb	r2, [r7, #12]
 1570 0736 4A40     		eors	r2, r2, r1
 1571 0738 D1B2     		uxtb	r1, r2
 1572 073a BA7B     		ldrb	r2, [r7, #14]
 1573 073c 4A40     		eors	r2, r2, r1
 1574 073e D2B2     		uxtb	r2, r2
 1575 0740 1A70     		strb	r2, [r3]
 152:build/openmote-cc2538_armgcc/bsp/boards/common/aes_ecb.c ****         buf3 = state[5] ^ state[6]; buf3 = galois_mul2(buf3); state[5] = state[5] ^ buf3 ^ buf1;
 1576              		.loc 1 152 0 discriminator 2
 1577 0742 7B68     		ldr	r3, [r7, #4]
 1578 0744 0533     		adds	r3, r3, #5
 1579 0746 1A78     		ldrb	r2, [r3]	@ zero_extendqisi2
 1580 0748 7B68     		ldr	r3, [r7, #4]
 1581 074a 0633     		adds	r3, r3, #6
 1582 074c 1B78     		ldrb	r3, [r3]	@ zero_extendqisi2
 1583 074e 5340     		eors	r3, r3, r2
 1584 0750 3B73     		strb	r3, [r7, #12]
 1585 0752 3B7B     		ldrb	r3, [r7, #12]	@ zero_extendqisi2
 1586 0754 1846     		mov	r0, r3
 1587 0756 FFF7FEFF 		bl	galois_mul2
 1588 075a 0346     		mov	r3, r0
 1589 075c 3B73     		strb	r3, [r7, #12]
 1590 075e 7B68     		ldr	r3, [r7, #4]
 1591 0760 0533     		adds	r3, r3, #5
 1592 0762 7A68     		ldr	r2, [r7, #4]
 1593 0764 0532     		adds	r2, r2, #5
 1594 0766 1178     		ldrb	r1, [r2]	@ zero_extendqisi2
 1595 0768 3A7B     		ldrb	r2, [r7, #12]
 1596 076a 4A40     		eors	r2, r2, r1
 1597 076c D1B2     		uxtb	r1, r2
 1598 076e BA7B     		ldrb	r2, [r7, #14]
 1599 0770 4A40     		eors	r2, r2, r1
 1600 0772 D2B2     		uxtb	r2, r2
 1601 0774 1A70     		strb	r2, [r3]
 153:build/openmote-cc2538_armgcc/bsp/boards/common/aes_ecb.c ****         buf3 = state[6] ^ state[7]; buf3 = galois_mul2(buf3); state[6] = state[6] ^ buf3 ^ buf1;
 1602              		.loc 1 153 0 discriminator 2
 1603 0776 7B68     		ldr	r3, [r7, #4]
 1604 0778 0633     		adds	r3, r3, #6
 1605 077a 1A78     		ldrb	r2, [r3]	@ zero_extendqisi2
 1606 077c 7B68     		ldr	r3, [r7, #4]
 1607 077e 0733     		adds	r3, r3, #7
 1608 0780 1B78     		ldrb	r3, [r3]	@ zero_extendqisi2
 1609 0782 5340     		eors	r3, r3, r2
 1610 0784 3B73     		strb	r3, [r7, #12]
 1611 0786 3B7B     		ldrb	r3, [r7, #12]	@ zero_extendqisi2
 1612 0788 1846     		mov	r0, r3
 1613 078a FFF7FEFF 		bl	galois_mul2
 1614 078e 0346     		mov	r3, r0
 1615 0790 3B73     		strb	r3, [r7, #12]
 1616 0792 7B68     		ldr	r3, [r7, #4]
 1617 0794 0633     		adds	r3, r3, #6
 1618 0796 7A68     		ldr	r2, [r7, #4]
 1619 0798 0632     		adds	r2, r2, #6
 1620 079a 1178     		ldrb	r1, [r2]	@ zero_extendqisi2
 1621 079c 3A7B     		ldrb	r2, [r7, #12]
 1622 079e 4A40     		eors	r2, r2, r1
 1623 07a0 D1B2     		uxtb	r1, r2
 1624 07a2 BA7B     		ldrb	r2, [r7, #14]
 1625 07a4 4A40     		eors	r2, r2, r1
 1626 07a6 D2B2     		uxtb	r2, r2
 1627 07a8 1A70     		strb	r2, [r3]
 154:build/openmote-cc2538_armgcc/bsp/boards/common/aes_ecb.c ****         buf3 = state[7] ^ buf2;     buf3 = galois_mul2(buf3); state[7] = state[7] ^ buf3 ^ buf1;
 1628              		.loc 1 154 0 discriminator 2
 1629 07aa 7B68     		ldr	r3, [r7, #4]
 1630 07ac 0733     		adds	r3, r3, #7
 1631 07ae 1A78     		ldrb	r2, [r3]	@ zero_extendqisi2
 1632 07b0 7B7B     		ldrb	r3, [r7, #13]
 1633 07b2 5340     		eors	r3, r3, r2
 1634 07b4 3B73     		strb	r3, [r7, #12]
 1635 07b6 3B7B     		ldrb	r3, [r7, #12]	@ zero_extendqisi2
 1636 07b8 1846     		mov	r0, r3
 1637 07ba FFF7FEFF 		bl	galois_mul2
 1638 07be 0346     		mov	r3, r0
 1639 07c0 3B73     		strb	r3, [r7, #12]
 1640 07c2 7B68     		ldr	r3, [r7, #4]
 1641 07c4 0733     		adds	r3, r3, #7
 1642 07c6 7A68     		ldr	r2, [r7, #4]
 1643 07c8 0732     		adds	r2, r2, #7
 1644 07ca 1178     		ldrb	r1, [r2]	@ zero_extendqisi2
 1645 07cc 3A7B     		ldrb	r2, [r7, #12]
 1646 07ce 4A40     		eors	r2, r2, r1
 1647 07d0 D1B2     		uxtb	r1, r2
 1648 07d2 BA7B     		ldrb	r2, [r7, #14]
 1649 07d4 4A40     		eors	r2, r2, r1
 1650 07d6 D2B2     		uxtb	r2, r2
 1651 07d8 1A70     		strb	r2, [r3]
 155:build/openmote-cc2538_armgcc/bsp/boards/common/aes_ecb.c ****         // col3
 156:build/openmote-cc2538_armgcc/bsp/boards/common/aes_ecb.c ****         buf1 = state[8] ^ state[9] ^ state[10] ^ state[11];
 1652              		.loc 1 156 0 discriminator 2
 1653 07da 7B68     		ldr	r3, [r7, #4]
 1654 07dc 0833     		adds	r3, r3, #8
 1655 07de 1A78     		ldrb	r2, [r3]	@ zero_extendqisi2
 1656 07e0 7B68     		ldr	r3, [r7, #4]
 1657 07e2 0933     		adds	r3, r3, #9
 1658 07e4 1B78     		ldrb	r3, [r3]	@ zero_extendqisi2
 1659 07e6 5340     		eors	r3, r3, r2
 1660 07e8 DAB2     		uxtb	r2, r3
 1661 07ea 7B68     		ldr	r3, [r7, #4]
 1662 07ec 0A33     		adds	r3, r3, #10
 1663 07ee 1B78     		ldrb	r3, [r3]	@ zero_extendqisi2
 1664 07f0 5340     		eors	r3, r3, r2
 1665 07f2 DAB2     		uxtb	r2, r3
 1666 07f4 7B68     		ldr	r3, [r7, #4]
 1667 07f6 0B33     		adds	r3, r3, #11
 1668 07f8 1B78     		ldrb	r3, [r3]	@ zero_extendqisi2
 1669 07fa 5340     		eors	r3, r3, r2
 1670 07fc BB73     		strb	r3, [r7, #14]
 157:build/openmote-cc2538_armgcc/bsp/boards/common/aes_ecb.c ****         buf2 = state[8];
 1671              		.loc 1 157 0 discriminator 2
 1672 07fe 7B68     		ldr	r3, [r7, #4]
 1673 0800 1B7A     		ldrb	r3, [r3, #8]
 1674 0802 7B73     		strb	r3, [r7, #13]
 158:build/openmote-cc2538_armgcc/bsp/boards/common/aes_ecb.c ****         buf3 = state[8] ^ state[9];   buf3 = galois_mul2(buf3); state[8] = state[8] ^ buf3 ^ buf1;
 1675              		.loc 1 158 0 discriminator 2
 1676 0804 7B68     		ldr	r3, [r7, #4]
 1677 0806 0833     		adds	r3, r3, #8
 1678 0808 1A78     		ldrb	r2, [r3]	@ zero_extendqisi2
 1679 080a 7B68     		ldr	r3, [r7, #4]
 1680 080c 0933     		adds	r3, r3, #9
 1681 080e 1B78     		ldrb	r3, [r3]	@ zero_extendqisi2
 1682 0810 5340     		eors	r3, r3, r2
 1683 0812 3B73     		strb	r3, [r7, #12]
 1684 0814 3B7B     		ldrb	r3, [r7, #12]	@ zero_extendqisi2
 1685 0816 1846     		mov	r0, r3
 1686 0818 FFF7FEFF 		bl	galois_mul2
 1687 081c 0346     		mov	r3, r0
 1688 081e 3B73     		strb	r3, [r7, #12]
 1689 0820 7B68     		ldr	r3, [r7, #4]
 1690 0822 0833     		adds	r3, r3, #8
 1691 0824 7A68     		ldr	r2, [r7, #4]
 1692 0826 0832     		adds	r2, r2, #8
 1693 0828 1178     		ldrb	r1, [r2]	@ zero_extendqisi2
 1694 082a 3A7B     		ldrb	r2, [r7, #12]
 1695 082c 4A40     		eors	r2, r2, r1
 1696 082e D1B2     		uxtb	r1, r2
 1697 0830 BA7B     		ldrb	r2, [r7, #14]
 1698 0832 4A40     		eors	r2, r2, r1
 1699 0834 D2B2     		uxtb	r2, r2
 1700 0836 1A70     		strb	r2, [r3]
 159:build/openmote-cc2538_armgcc/bsp/boards/common/aes_ecb.c ****         buf3 = state[9] ^ state[10];  buf3 = galois_mul2(buf3); state[9] = state[9] ^ buf3 ^ buf1;
 1701              		.loc 1 159 0 discriminator 2
 1702 0838 7B68     		ldr	r3, [r7, #4]
 1703 083a 0933     		adds	r3, r3, #9
 1704 083c 1A78     		ldrb	r2, [r3]	@ zero_extendqisi2
 1705 083e 7B68     		ldr	r3, [r7, #4]
 1706 0840 0A33     		adds	r3, r3, #10
 1707 0842 1B78     		ldrb	r3, [r3]	@ zero_extendqisi2
 1708 0844 5340     		eors	r3, r3, r2
 1709 0846 3B73     		strb	r3, [r7, #12]
 1710 0848 3B7B     		ldrb	r3, [r7, #12]	@ zero_extendqisi2
 1711 084a 1846     		mov	r0, r3
 1712 084c FFF7FEFF 		bl	galois_mul2
 1713 0850 0346     		mov	r3, r0
 1714 0852 3B73     		strb	r3, [r7, #12]
 1715 0854 7B68     		ldr	r3, [r7, #4]
 1716 0856 0933     		adds	r3, r3, #9
 1717 0858 7A68     		ldr	r2, [r7, #4]
 1718 085a 0932     		adds	r2, r2, #9
 1719 085c 1178     		ldrb	r1, [r2]	@ zero_extendqisi2
 1720 085e 3A7B     		ldrb	r2, [r7, #12]
 1721 0860 4A40     		eors	r2, r2, r1
 1722 0862 D1B2     		uxtb	r1, r2
 1723 0864 BA7B     		ldrb	r2, [r7, #14]
 1724 0866 4A40     		eors	r2, r2, r1
 1725 0868 D2B2     		uxtb	r2, r2
 1726 086a 1A70     		strb	r2, [r3]
 160:build/openmote-cc2538_armgcc/bsp/boards/common/aes_ecb.c ****         buf3 = state[10] ^ state[11]; buf3 = galois_mul2(buf3); state[10] = state[10] ^ buf3 ^ buf1
 1727              		.loc 1 160 0 discriminator 2
 1728 086c 7B68     		ldr	r3, [r7, #4]
 1729 086e 0A33     		adds	r3, r3, #10
 1730 0870 1A78     		ldrb	r2, [r3]	@ zero_extendqisi2
 1731 0872 7B68     		ldr	r3, [r7, #4]
 1732 0874 0B33     		adds	r3, r3, #11
 1733 0876 1B78     		ldrb	r3, [r3]	@ zero_extendqisi2
 1734 0878 5340     		eors	r3, r3, r2
 1735 087a 3B73     		strb	r3, [r7, #12]
 1736 087c 3B7B     		ldrb	r3, [r7, #12]	@ zero_extendqisi2
 1737 087e 1846     		mov	r0, r3
 1738 0880 FFF7FEFF 		bl	galois_mul2
 1739 0884 0346     		mov	r3, r0
 1740 0886 3B73     		strb	r3, [r7, #12]
 1741 0888 7B68     		ldr	r3, [r7, #4]
 1742 088a 0A33     		adds	r3, r3, #10
 1743 088c 7A68     		ldr	r2, [r7, #4]
 1744 088e 0A32     		adds	r2, r2, #10
 1745 0890 1178     		ldrb	r1, [r2]	@ zero_extendqisi2
 1746 0892 3A7B     		ldrb	r2, [r7, #12]
 1747 0894 4A40     		eors	r2, r2, r1
 1748 0896 D1B2     		uxtb	r1, r2
 1749 0898 BA7B     		ldrb	r2, [r7, #14]
 1750 089a 4A40     		eors	r2, r2, r1
 1751 089c D2B2     		uxtb	r2, r2
 1752 089e 1A70     		strb	r2, [r3]
 161:build/openmote-cc2538_armgcc/bsp/boards/common/aes_ecb.c ****         buf3 = state[11] ^ buf2;      buf3 = galois_mul2(buf3); state[11] = state[11] ^ buf3 ^ buf1
 1753              		.loc 1 161 0 discriminator 2
 1754 08a0 7B68     		ldr	r3, [r7, #4]
 1755 08a2 0B33     		adds	r3, r3, #11
 1756 08a4 1A78     		ldrb	r2, [r3]	@ zero_extendqisi2
 1757 08a6 7B7B     		ldrb	r3, [r7, #13]
 1758 08a8 5340     		eors	r3, r3, r2
 1759 08aa 3B73     		strb	r3, [r7, #12]
 1760 08ac 3B7B     		ldrb	r3, [r7, #12]	@ zero_extendqisi2
 1761 08ae 1846     		mov	r0, r3
 1762 08b0 FFF7FEFF 		bl	galois_mul2
 1763 08b4 0346     		mov	r3, r0
 1764 08b6 3B73     		strb	r3, [r7, #12]
 1765 08b8 7B68     		ldr	r3, [r7, #4]
 1766 08ba 0B33     		adds	r3, r3, #11
 1767 08bc 7A68     		ldr	r2, [r7, #4]
 1768 08be 0B32     		adds	r2, r2, #11
 1769 08c0 1178     		ldrb	r1, [r2]	@ zero_extendqisi2
 1770 08c2 3A7B     		ldrb	r2, [r7, #12]
 1771 08c4 4A40     		eors	r2, r2, r1
 1772 08c6 D1B2     		uxtb	r1, r2
 1773 08c8 BA7B     		ldrb	r2, [r7, #14]
 1774 08ca 4A40     		eors	r2, r2, r1
 1775 08cc D2B2     		uxtb	r2, r2
 1776 08ce 1A70     		strb	r2, [r3]
 162:build/openmote-cc2538_armgcc/bsp/boards/common/aes_ecb.c ****         // col4
 163:build/openmote-cc2538_armgcc/bsp/boards/common/aes_ecb.c ****         buf1 = state[12] ^ state[13] ^ state[14] ^ state[15];
 1777              		.loc 1 163 0 discriminator 2
 1778 08d0 7B68     		ldr	r3, [r7, #4]
 1779 08d2 0C33     		adds	r3, r3, #12
 1780 08d4 1A78     		ldrb	r2, [r3]	@ zero_extendqisi2
 1781 08d6 7B68     		ldr	r3, [r7, #4]
 1782 08d8 0D33     		adds	r3, r3, #13
 1783 08da 1B78     		ldrb	r3, [r3]	@ zero_extendqisi2
 1784 08dc 5340     		eors	r3, r3, r2
 1785 08de DAB2     		uxtb	r2, r3
 1786 08e0 7B68     		ldr	r3, [r7, #4]
 1787 08e2 0E33     		adds	r3, r3, #14
 1788 08e4 1B78     		ldrb	r3, [r3]	@ zero_extendqisi2
 1789 08e6 5340     		eors	r3, r3, r2
 1790 08e8 DAB2     		uxtb	r2, r3
 1791 08ea 7B68     		ldr	r3, [r7, #4]
 1792 08ec 0F33     		adds	r3, r3, #15
 1793 08ee 1B78     		ldrb	r3, [r3]	@ zero_extendqisi2
 1794 08f0 5340     		eors	r3, r3, r2
 1795 08f2 BB73     		strb	r3, [r7, #14]
 164:build/openmote-cc2538_armgcc/bsp/boards/common/aes_ecb.c ****         buf2 = state[12];
 1796              		.loc 1 164 0 discriminator 2
 1797 08f4 7B68     		ldr	r3, [r7, #4]
 1798 08f6 1B7B     		ldrb	r3, [r3, #12]
 1799 08f8 7B73     		strb	r3, [r7, #13]
 165:build/openmote-cc2538_armgcc/bsp/boards/common/aes_ecb.c ****         buf3 = state[12] ^ state[13]; buf3 = galois_mul2(buf3); state[12] = state[12] ^ buf3 ^ buf1
 1800              		.loc 1 165 0 discriminator 2
 1801 08fa 7B68     		ldr	r3, [r7, #4]
 1802 08fc 0C33     		adds	r3, r3, #12
 1803 08fe 1A78     		ldrb	r2, [r3]	@ zero_extendqisi2
 1804 0900 7B68     		ldr	r3, [r7, #4]
 1805 0902 0D33     		adds	r3, r3, #13
 1806 0904 1B78     		ldrb	r3, [r3]	@ zero_extendqisi2
 1807 0906 5340     		eors	r3, r3, r2
 1808 0908 3B73     		strb	r3, [r7, #12]
 1809 090a 3B7B     		ldrb	r3, [r7, #12]	@ zero_extendqisi2
 1810 090c 1846     		mov	r0, r3
 1811 090e FFF7FEFF 		bl	galois_mul2
 1812 0912 0346     		mov	r3, r0
 1813 0914 3B73     		strb	r3, [r7, #12]
 1814 0916 7B68     		ldr	r3, [r7, #4]
 1815 0918 0C33     		adds	r3, r3, #12
 1816 091a 7A68     		ldr	r2, [r7, #4]
 1817 091c 0C32     		adds	r2, r2, #12
 1818 091e 1178     		ldrb	r1, [r2]	@ zero_extendqisi2
 1819 0920 3A7B     		ldrb	r2, [r7, #12]
 1820 0922 4A40     		eors	r2, r2, r1
 1821 0924 D1B2     		uxtb	r1, r2
 1822 0926 BA7B     		ldrb	r2, [r7, #14]
 1823 0928 4A40     		eors	r2, r2, r1
 1824 092a D2B2     		uxtb	r2, r2
 1825 092c 1A70     		strb	r2, [r3]
 166:build/openmote-cc2538_armgcc/bsp/boards/common/aes_ecb.c ****         buf3 = state[13] ^ state[14]; buf3 = galois_mul2(buf3); state[13] = state[13] ^ buf3 ^ buf1
 1826              		.loc 1 166 0 discriminator 2
 1827 092e 7B68     		ldr	r3, [r7, #4]
 1828 0930 0D33     		adds	r3, r3, #13
 1829 0932 1A78     		ldrb	r2, [r3]	@ zero_extendqisi2
 1830 0934 7B68     		ldr	r3, [r7, #4]
 1831 0936 0E33     		adds	r3, r3, #14
 1832 0938 1B78     		ldrb	r3, [r3]	@ zero_extendqisi2
 1833 093a 5340     		eors	r3, r3, r2
 1834 093c 3B73     		strb	r3, [r7, #12]
 1835 093e 3B7B     		ldrb	r3, [r7, #12]	@ zero_extendqisi2
 1836 0940 1846     		mov	r0, r3
 1837 0942 FFF7FEFF 		bl	galois_mul2
 1838 0946 0346     		mov	r3, r0
 1839 0948 3B73     		strb	r3, [r7, #12]
 1840 094a 7B68     		ldr	r3, [r7, #4]
 1841 094c 0D33     		adds	r3, r3, #13
 1842 094e 7A68     		ldr	r2, [r7, #4]
 1843 0950 0D32     		adds	r2, r2, #13
 1844 0952 1178     		ldrb	r1, [r2]	@ zero_extendqisi2
 1845 0954 3A7B     		ldrb	r2, [r7, #12]
 1846 0956 4A40     		eors	r2, r2, r1
 1847 0958 D1B2     		uxtb	r1, r2
 1848 095a BA7B     		ldrb	r2, [r7, #14]
 1849 095c 4A40     		eors	r2, r2, r1
 1850 095e D2B2     		uxtb	r2, r2
 1851 0960 1A70     		strb	r2, [r3]
 167:build/openmote-cc2538_armgcc/bsp/boards/common/aes_ecb.c ****         buf3 = state[14] ^ state[15]; buf3 = galois_mul2(buf3); state[14] = state[14] ^ buf3 ^ buf1
 1852              		.loc 1 167 0 discriminator 2
 1853 0962 7B68     		ldr	r3, [r7, #4]
 1854 0964 0E33     		adds	r3, r3, #14
 1855 0966 1A78     		ldrb	r2, [r3]	@ zero_extendqisi2
 1856 0968 7B68     		ldr	r3, [r7, #4]
 1857 096a 0F33     		adds	r3, r3, #15
 1858 096c 1B78     		ldrb	r3, [r3]	@ zero_extendqisi2
 1859 096e 5340     		eors	r3, r3, r2
 1860 0970 3B73     		strb	r3, [r7, #12]
 1861 0972 3B7B     		ldrb	r3, [r7, #12]	@ zero_extendqisi2
 1862 0974 1846     		mov	r0, r3
 1863 0976 FFF7FEFF 		bl	galois_mul2
 1864 097a 0346     		mov	r3, r0
 1865 097c 3B73     		strb	r3, [r7, #12]
 1866 097e 7B68     		ldr	r3, [r7, #4]
 1867 0980 0E33     		adds	r3, r3, #14
 1868 0982 7A68     		ldr	r2, [r7, #4]
 1869 0984 0E32     		adds	r2, r2, #14
 1870 0986 1178     		ldrb	r1, [r2]	@ zero_extendqisi2
 1871 0988 3A7B     		ldrb	r2, [r7, #12]
 1872 098a 4A40     		eors	r2, r2, r1
 1873 098c D1B2     		uxtb	r1, r2
 1874 098e BA7B     		ldrb	r2, [r7, #14]
 1875 0990 4A40     		eors	r2, r2, r1
 1876 0992 D2B2     		uxtb	r2, r2
 1877 0994 1A70     		strb	r2, [r3]
 168:build/openmote-cc2538_armgcc/bsp/boards/common/aes_ecb.c ****         buf3 = state[15] ^ buf2;      buf3 = galois_mul2(buf3); state[15] = state[15] ^ buf3 ^ buf1
 1878              		.loc 1 168 0 discriminator 2
 1879 0996 7B68     		ldr	r3, [r7, #4]
 1880 0998 0F33     		adds	r3, r3, #15
 1881 099a 1A78     		ldrb	r2, [r3]	@ zero_extendqisi2
 1882 099c 7B7B     		ldrb	r3, [r7, #13]
 1883 099e 5340     		eors	r3, r3, r2
 1884 09a0 3B73     		strb	r3, [r7, #12]
 1885 09a2 3B7B     		ldrb	r3, [r7, #12]	@ zero_extendqisi2
 1886 09a4 1846     		mov	r0, r3
 1887 09a6 FFF7FEFF 		bl	galois_mul2
 1888 09aa 0346     		mov	r3, r0
 1889 09ac 3B73     		strb	r3, [r7, #12]
 1890 09ae 7B68     		ldr	r3, [r7, #4]
 1891 09b0 0F33     		adds	r3, r3, #15
 1892 09b2 7A68     		ldr	r2, [r7, #4]
 1893 09b4 0F32     		adds	r2, r2, #15
 1894 09b6 1178     		ldrb	r1, [r2]	@ zero_extendqisi2
 1895 09b8 3A7B     		ldrb	r2, [r7, #12]
 1896 09ba 4A40     		eors	r2, r2, r1
 1897 09bc D1B2     		uxtb	r1, r2
 1898 09be BA7B     		ldrb	r2, [r7, #14]
 1899 09c0 4A40     		eors	r2, r2, r1
 1900 09c2 D2B2     		uxtb	r2, r2
 1901 09c4 1A70     		strb	r2, [r3]
 113:build/openmote-cc2538_armgcc/bsp/boards/common/aes_ecb.c ****         // addroundkey, sbox and shiftrows
 1902              		.loc 1 113 0 discriminator 2
 1903 09c6 FB7B     		ldrb	r3, [r7, #15]	@ zero_extendqisi2
 1904 09c8 0133     		adds	r3, r3, #1
 1905 09ca FB73     		strb	r3, [r7, #15]
 1906              	.L10:
 113:build/openmote-cc2538_armgcc/bsp/boards/common/aes_ecb.c ****         // addroundkey, sbox and shiftrows
 1907              		.loc 1 113 0 is_stmt 0 discriminator 1
 1908 09cc FB7B     		ldrb	r3, [r7, #15]	@ zero_extendqisi2
 1909 09ce 082B     		cmp	r3, #8
 1910 09d0 7FF6CCAC 		bls	.L11
 169:build/openmote-cc2538_armgcc/bsp/boards/common/aes_ecb.c **** 
 170:build/openmote-cc2538_armgcc/bsp/boards/common/aes_ecb.c ****     }
 171:build/openmote-cc2538_armgcc/bsp/boards/common/aes_ecb.c ****     // 10th round without mixcols
 172:build/openmote-cc2538_armgcc/bsp/boards/common/aes_ecb.c ****     state[0] = sbox[(state[0] ^ expandedKey[(round * 16)])];
 1911              		.loc 1 172 0 is_stmt 1
 1912 09d4 7B68     		ldr	r3, [r7, #4]
 1913 09d6 1A78     		ldrb	r2, [r3]	@ zero_extendqisi2
 1914 09d8 FB7B     		ldrb	r3, [r7, #15]	@ zero_extendqisi2
 1915 09da 1B01     		lsls	r3, r3, #4
 1916 09dc 3968     		ldr	r1, [r7]
 1917 09de 0B44     		add	r3, r3, r1
 1918 09e0 1B78     		ldrb	r3, [r3]	@ zero_extendqisi2
 1919 09e2 5340     		eors	r3, r3, r2
 1920 09e4 DBB2     		uxtb	r3, r3
 1921 09e6 1A46     		mov	r2, r3
 1922 09e8 40F20003 		movw	r3, #:lower16:sbox
 1923 09ec C0F20003 		movt	r3, #:upper16:sbox
 1924 09f0 9A5C     		ldrb	r2, [r3, r2]	@ zero_extendqisi2
 1925 09f2 7B68     		ldr	r3, [r7, #4]
 1926 09f4 1A70     		strb	r2, [r3]
 173:build/openmote-cc2538_armgcc/bsp/boards/common/aes_ecb.c ****     state[4] = sbox[(state[4] ^ expandedKey[(round * 16) + 4])];
 1927              		.loc 1 173 0
 1928 09f6 7B68     		ldr	r3, [r7, #4]
 1929 09f8 1A1D     		adds	r2, r3, #4
 1930 09fa 7B68     		ldr	r3, [r7, #4]
 1931 09fc 0433     		adds	r3, r3, #4
 1932 09fe 1978     		ldrb	r1, [r3]	@ zero_extendqisi2
 1933 0a00 FB7B     		ldrb	r3, [r7, #15]	@ zero_extendqisi2
 1934 0a02 1B01     		lsls	r3, r3, #4
 1935 0a04 0433     		adds	r3, r3, #4
 1936 0a06 3868     		ldr	r0, [r7]
 1937 0a08 0344     		add	r3, r3, r0
 1938 0a0a 1B78     		ldrb	r3, [r3]	@ zero_extendqisi2
 1939 0a0c 4B40     		eors	r3, r3, r1
 1940 0a0e DBB2     		uxtb	r3, r3
 1941 0a10 1946     		mov	r1, r3
 1942 0a12 40F20003 		movw	r3, #:lower16:sbox
 1943 0a16 C0F20003 		movt	r3, #:upper16:sbox
 1944 0a1a 5B5C     		ldrb	r3, [r3, r1]	@ zero_extendqisi2
 1945 0a1c 1370     		strb	r3, [r2]
 174:build/openmote-cc2538_armgcc/bsp/boards/common/aes_ecb.c ****     state[8] = sbox[(state[8] ^ expandedKey[(round * 16) + 8])];
 1946              		.loc 1 174 0
 1947 0a1e 7B68     		ldr	r3, [r7, #4]
 1948 0a20 03F10802 		add	r2, r3, #8
 1949 0a24 7B68     		ldr	r3, [r7, #4]
 1950 0a26 0833     		adds	r3, r3, #8
 1951 0a28 1978     		ldrb	r1, [r3]	@ zero_extendqisi2
 1952 0a2a FB7B     		ldrb	r3, [r7, #15]	@ zero_extendqisi2
 1953 0a2c 1B01     		lsls	r3, r3, #4
 1954 0a2e 0833     		adds	r3, r3, #8
 1955 0a30 3868     		ldr	r0, [r7]
 1956 0a32 0344     		add	r3, r3, r0
 1957 0a34 1B78     		ldrb	r3, [r3]	@ zero_extendqisi2
 1958 0a36 4B40     		eors	r3, r3, r1
 1959 0a38 DBB2     		uxtb	r3, r3
 1960 0a3a 1946     		mov	r1, r3
 1961 0a3c 40F20003 		movw	r3, #:lower16:sbox
 1962 0a40 C0F20003 		movt	r3, #:upper16:sbox
 1963 0a44 5B5C     		ldrb	r3, [r3, r1]	@ zero_extendqisi2
 1964 0a46 1370     		strb	r3, [r2]
 175:build/openmote-cc2538_armgcc/bsp/boards/common/aes_ecb.c ****     state[12] = sbox[(state[12] ^ expandedKey[(round * 16) + 12])];
 1965              		.loc 1 175 0
 1966 0a48 7B68     		ldr	r3, [r7, #4]
 1967 0a4a 03F10C02 		add	r2, r3, #12
 1968 0a4e 7B68     		ldr	r3, [r7, #4]
 1969 0a50 0C33     		adds	r3, r3, #12
 1970 0a52 1978     		ldrb	r1, [r3]	@ zero_extendqisi2
 1971 0a54 FB7B     		ldrb	r3, [r7, #15]	@ zero_extendqisi2
 1972 0a56 1B01     		lsls	r3, r3, #4
 1973 0a58 0C33     		adds	r3, r3, #12
 1974 0a5a 3868     		ldr	r0, [r7]
 1975 0a5c 0344     		add	r3, r3, r0
 1976 0a5e 1B78     		ldrb	r3, [r3]	@ zero_extendqisi2
 1977 0a60 4B40     		eors	r3, r3, r1
 1978 0a62 DBB2     		uxtb	r3, r3
 1979 0a64 1946     		mov	r1, r3
 1980 0a66 40F20003 		movw	r3, #:lower16:sbox
 1981 0a6a C0F20003 		movt	r3, #:upper16:sbox
 1982 0a6e 5B5C     		ldrb	r3, [r3, r1]	@ zero_extendqisi2
 1983 0a70 1370     		strb	r3, [r2]
 176:build/openmote-cc2538_armgcc/bsp/boards/common/aes_ecb.c ****     // row 1
 177:build/openmote-cc2538_armgcc/bsp/boards/common/aes_ecb.c ****     buf1 = state[1] ^ expandedKey[(round * 16) + 1];
 1984              		.loc 1 177 0
 1985 0a72 7B68     		ldr	r3, [r7, #4]
 1986 0a74 0133     		adds	r3, r3, #1
 1987 0a76 1A78     		ldrb	r2, [r3]	@ zero_extendqisi2
 1988 0a78 FB7B     		ldrb	r3, [r7, #15]	@ zero_extendqisi2
 1989 0a7a 1B01     		lsls	r3, r3, #4
 1990 0a7c 0133     		adds	r3, r3, #1
 1991 0a7e 3968     		ldr	r1, [r7]
 1992 0a80 0B44     		add	r3, r3, r1
 1993 0a82 1B78     		ldrb	r3, [r3]	@ zero_extendqisi2
 1994 0a84 5340     		eors	r3, r3, r2
 1995 0a86 BB73     		strb	r3, [r7, #14]
 178:build/openmote-cc2538_armgcc/bsp/boards/common/aes_ecb.c ****     state[1] = sbox[(state[5] ^ expandedKey[(round * 16) + 5])];
 1996              		.loc 1 178 0
 1997 0a88 7B68     		ldr	r3, [r7, #4]
 1998 0a8a 5A1C     		adds	r2, r3, #1
 1999 0a8c 7B68     		ldr	r3, [r7, #4]
 2000 0a8e 0533     		adds	r3, r3, #5
 2001 0a90 1978     		ldrb	r1, [r3]	@ zero_extendqisi2
 2002 0a92 FB7B     		ldrb	r3, [r7, #15]	@ zero_extendqisi2
 2003 0a94 1B01     		lsls	r3, r3, #4
 2004 0a96 0533     		adds	r3, r3, #5
 2005 0a98 3868     		ldr	r0, [r7]
 2006 0a9a 0344     		add	r3, r3, r0
 2007 0a9c 1B78     		ldrb	r3, [r3]	@ zero_extendqisi2
 2008 0a9e 4B40     		eors	r3, r3, r1
 2009 0aa0 DBB2     		uxtb	r3, r3
 2010 0aa2 1946     		mov	r1, r3
 2011 0aa4 40F20003 		movw	r3, #:lower16:sbox
 2012 0aa8 C0F20003 		movt	r3, #:upper16:sbox
 2013 0aac 5B5C     		ldrb	r3, [r3, r1]	@ zero_extendqisi2
 2014 0aae 1370     		strb	r3, [r2]
 179:build/openmote-cc2538_armgcc/bsp/boards/common/aes_ecb.c ****     state[5] = sbox[(state[9] ^ expandedKey[(round * 16) + 9])];
 2015              		.loc 1 179 0
 2016 0ab0 7B68     		ldr	r3, [r7, #4]
 2017 0ab2 5A1D     		adds	r2, r3, #5
 2018 0ab4 7B68     		ldr	r3, [r7, #4]
 2019 0ab6 0933     		adds	r3, r3, #9
 2020 0ab8 1978     		ldrb	r1, [r3]	@ zero_extendqisi2
 2021 0aba FB7B     		ldrb	r3, [r7, #15]	@ zero_extendqisi2
 2022 0abc 1B01     		lsls	r3, r3, #4
 2023 0abe 0933     		adds	r3, r3, #9
 2024 0ac0 3868     		ldr	r0, [r7]
 2025 0ac2 0344     		add	r3, r3, r0
 2026 0ac4 1B78     		ldrb	r3, [r3]	@ zero_extendqisi2
 2027 0ac6 4B40     		eors	r3, r3, r1
 2028 0ac8 DBB2     		uxtb	r3, r3
 2029 0aca 1946     		mov	r1, r3
 2030 0acc 40F20003 		movw	r3, #:lower16:sbox
 2031 0ad0 C0F20003 		movt	r3, #:upper16:sbox
 2032 0ad4 5B5C     		ldrb	r3, [r3, r1]	@ zero_extendqisi2
 2033 0ad6 1370     		strb	r3, [r2]
 180:build/openmote-cc2538_armgcc/bsp/boards/common/aes_ecb.c ****     state[9] = sbox[(state[13] ^ expandedKey[(round * 16) + 13])];
 2034              		.loc 1 180 0
 2035 0ad8 7B68     		ldr	r3, [r7, #4]
 2036 0ada 03F10902 		add	r2, r3, #9
 2037 0ade 7B68     		ldr	r3, [r7, #4]
 2038 0ae0 0D33     		adds	r3, r3, #13
 2039 0ae2 1978     		ldrb	r1, [r3]	@ zero_extendqisi2
 2040 0ae4 FB7B     		ldrb	r3, [r7, #15]	@ zero_extendqisi2
 2041 0ae6 1B01     		lsls	r3, r3, #4
 2042 0ae8 0D33     		adds	r3, r3, #13
 2043 0aea 3868     		ldr	r0, [r7]
 2044 0aec 0344     		add	r3, r3, r0
 2045 0aee 1B78     		ldrb	r3, [r3]	@ zero_extendqisi2
 2046 0af0 4B40     		eors	r3, r3, r1
 2047 0af2 DBB2     		uxtb	r3, r3
 2048 0af4 1946     		mov	r1, r3
 2049 0af6 40F20003 		movw	r3, #:lower16:sbox
 2050 0afa C0F20003 		movt	r3, #:upper16:sbox
 2051 0afe 5B5C     		ldrb	r3, [r3, r1]	@ zero_extendqisi2
 2052 0b00 1370     		strb	r3, [r2]
 181:build/openmote-cc2538_armgcc/bsp/boards/common/aes_ecb.c ****     state[13] = sbox[buf1];
 2053              		.loc 1 181 0
 2054 0b02 7B68     		ldr	r3, [r7, #4]
 2055 0b04 03F10D02 		add	r2, r3, #13
 2056 0b08 B97B     		ldrb	r1, [r7, #14]	@ zero_extendqisi2
 2057 0b0a 40F20003 		movw	r3, #:lower16:sbox
 2058 0b0e C0F20003 		movt	r3, #:upper16:sbox
 2059 0b12 5B5C     		ldrb	r3, [r3, r1]	@ zero_extendqisi2
 2060 0b14 1370     		strb	r3, [r2]
 182:build/openmote-cc2538_armgcc/bsp/boards/common/aes_ecb.c ****     // row 2
 183:build/openmote-cc2538_armgcc/bsp/boards/common/aes_ecb.c ****     buf1 = state[2] ^ expandedKey[(round * 16) + 2];
 2061              		.loc 1 183 0
 2062 0b16 7B68     		ldr	r3, [r7, #4]
 2063 0b18 0233     		adds	r3, r3, #2
 2064 0b1a 1A78     		ldrb	r2, [r3]	@ zero_extendqisi2
 2065 0b1c FB7B     		ldrb	r3, [r7, #15]	@ zero_extendqisi2
 2066 0b1e 1B01     		lsls	r3, r3, #4
 2067 0b20 0233     		adds	r3, r3, #2
 2068 0b22 3968     		ldr	r1, [r7]
 2069 0b24 0B44     		add	r3, r3, r1
 2070 0b26 1B78     		ldrb	r3, [r3]	@ zero_extendqisi2
 2071 0b28 5340     		eors	r3, r3, r2
 2072 0b2a BB73     		strb	r3, [r7, #14]
 184:build/openmote-cc2538_armgcc/bsp/boards/common/aes_ecb.c ****     buf2 = state[6] ^ expandedKey[(round * 16) + 6];
 2073              		.loc 1 184 0
 2074 0b2c 7B68     		ldr	r3, [r7, #4]
 2075 0b2e 0633     		adds	r3, r3, #6
 2076 0b30 1A78     		ldrb	r2, [r3]	@ zero_extendqisi2
 2077 0b32 FB7B     		ldrb	r3, [r7, #15]	@ zero_extendqisi2
 2078 0b34 1B01     		lsls	r3, r3, #4
 2079 0b36 0633     		adds	r3, r3, #6
 2080 0b38 3968     		ldr	r1, [r7]
 2081 0b3a 0B44     		add	r3, r3, r1
 2082 0b3c 1B78     		ldrb	r3, [r3]	@ zero_extendqisi2
 2083 0b3e 5340     		eors	r3, r3, r2
 2084 0b40 7B73     		strb	r3, [r7, #13]
 185:build/openmote-cc2538_armgcc/bsp/boards/common/aes_ecb.c ****     state[2] = sbox[(state[10] ^ expandedKey[(round * 16) + 10])];
 2085              		.loc 1 185 0
 2086 0b42 7B68     		ldr	r3, [r7, #4]
 2087 0b44 9A1C     		adds	r2, r3, #2
 2088 0b46 7B68     		ldr	r3, [r7, #4]
 2089 0b48 0A33     		adds	r3, r3, #10
 2090 0b4a 1978     		ldrb	r1, [r3]	@ zero_extendqisi2
 2091 0b4c FB7B     		ldrb	r3, [r7, #15]	@ zero_extendqisi2
 2092 0b4e 1B01     		lsls	r3, r3, #4
 2093 0b50 0A33     		adds	r3, r3, #10
 2094 0b52 3868     		ldr	r0, [r7]
 2095 0b54 0344     		add	r3, r3, r0
 2096 0b56 1B78     		ldrb	r3, [r3]	@ zero_extendqisi2
 2097 0b58 4B40     		eors	r3, r3, r1
 2098 0b5a DBB2     		uxtb	r3, r3
 2099 0b5c 1946     		mov	r1, r3
 2100 0b5e 40F20003 		movw	r3, #:lower16:sbox
 2101 0b62 C0F20003 		movt	r3, #:upper16:sbox
 2102 0b66 5B5C     		ldrb	r3, [r3, r1]	@ zero_extendqisi2
 2103 0b68 1370     		strb	r3, [r2]
 186:build/openmote-cc2538_armgcc/bsp/boards/common/aes_ecb.c ****     state[6] = sbox[(state[14] ^ expandedKey[(round * 16) + 14])];
 2104              		.loc 1 186 0
 2105 0b6a 7B68     		ldr	r3, [r7, #4]
 2106 0b6c 9A1D     		adds	r2, r3, #6
 2107 0b6e 7B68     		ldr	r3, [r7, #4]
 2108 0b70 0E33     		adds	r3, r3, #14
 2109 0b72 1978     		ldrb	r1, [r3]	@ zero_extendqisi2
 2110 0b74 FB7B     		ldrb	r3, [r7, #15]	@ zero_extendqisi2
 2111 0b76 1B01     		lsls	r3, r3, #4
 2112 0b78 0E33     		adds	r3, r3, #14
 2113 0b7a 3868     		ldr	r0, [r7]
 2114 0b7c 0344     		add	r3, r3, r0
 2115 0b7e 1B78     		ldrb	r3, [r3]	@ zero_extendqisi2
 2116 0b80 4B40     		eors	r3, r3, r1
 2117 0b82 DBB2     		uxtb	r3, r3
 2118 0b84 1946     		mov	r1, r3
 2119 0b86 40F20003 		movw	r3, #:lower16:sbox
 2120 0b8a C0F20003 		movt	r3, #:upper16:sbox
 2121 0b8e 5B5C     		ldrb	r3, [r3, r1]	@ zero_extendqisi2
 2122 0b90 1370     		strb	r3, [r2]
 187:build/openmote-cc2538_armgcc/bsp/boards/common/aes_ecb.c ****     state[10] = sbox[buf1];
 2123              		.loc 1 187 0
 2124 0b92 7B68     		ldr	r3, [r7, #4]
 2125 0b94 03F10A02 		add	r2, r3, #10
 2126 0b98 B97B     		ldrb	r1, [r7, #14]	@ zero_extendqisi2
 2127 0b9a 40F20003 		movw	r3, #:lower16:sbox
 2128 0b9e C0F20003 		movt	r3, #:upper16:sbox
 2129 0ba2 5B5C     		ldrb	r3, [r3, r1]	@ zero_extendqisi2
 2130 0ba4 1370     		strb	r3, [r2]
 188:build/openmote-cc2538_armgcc/bsp/boards/common/aes_ecb.c ****     state[14] = sbox[buf2];
 2131              		.loc 1 188 0
 2132 0ba6 7B68     		ldr	r3, [r7, #4]
 2133 0ba8 03F10E02 		add	r2, r3, #14
 2134 0bac 797B     		ldrb	r1, [r7, #13]	@ zero_extendqisi2
 2135 0bae 40F20003 		movw	r3, #:lower16:sbox
 2136 0bb2 C0F20003 		movt	r3, #:upper16:sbox
 2137 0bb6 5B5C     		ldrb	r3, [r3, r1]	@ zero_extendqisi2
 2138 0bb8 1370     		strb	r3, [r2]
 189:build/openmote-cc2538_armgcc/bsp/boards/common/aes_ecb.c ****     // row 3
 190:build/openmote-cc2538_armgcc/bsp/boards/common/aes_ecb.c ****     buf1 = state[15] ^ expandedKey[(round * 16) + 15];
 2139              		.loc 1 190 0
 2140 0bba 7B68     		ldr	r3, [r7, #4]
 2141 0bbc 0F33     		adds	r3, r3, #15
 2142 0bbe 1A78     		ldrb	r2, [r3]	@ zero_extendqisi2
 2143 0bc0 FB7B     		ldrb	r3, [r7, #15]	@ zero_extendqisi2
 2144 0bc2 1B01     		lsls	r3, r3, #4
 2145 0bc4 0F33     		adds	r3, r3, #15
 2146 0bc6 3968     		ldr	r1, [r7]
 2147 0bc8 0B44     		add	r3, r3, r1
 2148 0bca 1B78     		ldrb	r3, [r3]	@ zero_extendqisi2
 2149 0bcc 5340     		eors	r3, r3, r2
 2150 0bce BB73     		strb	r3, [r7, #14]
 191:build/openmote-cc2538_armgcc/bsp/boards/common/aes_ecb.c ****     state[15] = sbox[(state[11] ^ expandedKey[(round * 16) + 11])];
 2151              		.loc 1 191 0
 2152 0bd0 7B68     		ldr	r3, [r7, #4]
 2153 0bd2 03F10F02 		add	r2, r3, #15
 2154 0bd6 7B68     		ldr	r3, [r7, #4]
 2155 0bd8 0B33     		adds	r3, r3, #11
 2156 0bda 1978     		ldrb	r1, [r3]	@ zero_extendqisi2
 2157 0bdc FB7B     		ldrb	r3, [r7, #15]	@ zero_extendqisi2
 2158 0bde 1B01     		lsls	r3, r3, #4
 2159 0be0 0B33     		adds	r3, r3, #11
 2160 0be2 3868     		ldr	r0, [r7]
 2161 0be4 0344     		add	r3, r3, r0
 2162 0be6 1B78     		ldrb	r3, [r3]	@ zero_extendqisi2
 2163 0be8 4B40     		eors	r3, r3, r1
 2164 0bea DBB2     		uxtb	r3, r3
 2165 0bec 1946     		mov	r1, r3
 2166 0bee 40F20003 		movw	r3, #:lower16:sbox
 2167 0bf2 C0F20003 		movt	r3, #:upper16:sbox
 2168 0bf6 5B5C     		ldrb	r3, [r3, r1]	@ zero_extendqisi2
 2169 0bf8 1370     		strb	r3, [r2]
 192:build/openmote-cc2538_armgcc/bsp/boards/common/aes_ecb.c ****     state[11] = sbox[(state[7] ^ expandedKey[(round * 16) + 7])];
 2170              		.loc 1 192 0
 2171 0bfa 7B68     		ldr	r3, [r7, #4]
 2172 0bfc 03F10B02 		add	r2, r3, #11
 2173 0c00 7B68     		ldr	r3, [r7, #4]
 2174 0c02 0733     		adds	r3, r3, #7
 2175 0c04 1978     		ldrb	r1, [r3]	@ zero_extendqisi2
 2176 0c06 FB7B     		ldrb	r3, [r7, #15]	@ zero_extendqisi2
 2177 0c08 1B01     		lsls	r3, r3, #4
 2178 0c0a 0733     		adds	r3, r3, #7
 2179 0c0c 3868     		ldr	r0, [r7]
 2180 0c0e 0344     		add	r3, r3, r0
 2181 0c10 1B78     		ldrb	r3, [r3]	@ zero_extendqisi2
 2182 0c12 4B40     		eors	r3, r3, r1
 2183 0c14 DBB2     		uxtb	r3, r3
 2184 0c16 1946     		mov	r1, r3
 2185 0c18 40F20003 		movw	r3, #:lower16:sbox
 2186 0c1c C0F20003 		movt	r3, #:upper16:sbox
 2187 0c20 5B5C     		ldrb	r3, [r3, r1]	@ zero_extendqisi2
 2188 0c22 1370     		strb	r3, [r2]
 193:build/openmote-cc2538_armgcc/bsp/boards/common/aes_ecb.c ****     state[7] = sbox[(state[3] ^ expandedKey[(round * 16) + 3])];
 2189              		.loc 1 193 0
 2190 0c24 7B68     		ldr	r3, [r7, #4]
 2191 0c26 DA1D     		adds	r2, r3, #7
 2192 0c28 7B68     		ldr	r3, [r7, #4]
 2193 0c2a 0333     		adds	r3, r3, #3
 2194 0c2c 1978     		ldrb	r1, [r3]	@ zero_extendqisi2
 2195 0c2e FB7B     		ldrb	r3, [r7, #15]	@ zero_extendqisi2
 2196 0c30 1B01     		lsls	r3, r3, #4
 2197 0c32 0333     		adds	r3, r3, #3
 2198 0c34 3868     		ldr	r0, [r7]
 2199 0c36 0344     		add	r3, r3, r0
 2200 0c38 1B78     		ldrb	r3, [r3]	@ zero_extendqisi2
 2201 0c3a 4B40     		eors	r3, r3, r1
 2202 0c3c DBB2     		uxtb	r3, r3
 2203 0c3e 1946     		mov	r1, r3
 2204 0c40 40F20003 		movw	r3, #:lower16:sbox
 2205 0c44 C0F20003 		movt	r3, #:upper16:sbox
 2206 0c48 5B5C     		ldrb	r3, [r3, r1]	@ zero_extendqisi2
 2207 0c4a 1370     		strb	r3, [r2]
 194:build/openmote-cc2538_armgcc/bsp/boards/common/aes_ecb.c ****     state[3] = sbox[buf1];
 2208              		.loc 1 194 0
 2209 0c4c 7B68     		ldr	r3, [r7, #4]
 2210 0c4e DA1C     		adds	r2, r3, #3
 2211 0c50 B97B     		ldrb	r1, [r7, #14]	@ zero_extendqisi2
 2212 0c52 40F20003 		movw	r3, #:lower16:sbox
 2213 0c56 C0F20003 		movt	r3, #:upper16:sbox
 2214 0c5a 5B5C     		ldrb	r3, [r3, r1]	@ zero_extendqisi2
 2215 0c5c 1370     		strb	r3, [r2]
 195:build/openmote-cc2538_armgcc/bsp/boards/common/aes_ecb.c ****     // last addroundkey
 196:build/openmote-cc2538_armgcc/bsp/boards/common/aes_ecb.c ****     state[0] ^= expandedKey[160];
 2216              		.loc 1 196 0
 2217 0c5e 7B68     		ldr	r3, [r7, #4]
 2218 0c60 1A78     		ldrb	r2, [r3]	@ zero_extendqisi2
 2219 0c62 3B68     		ldr	r3, [r7]
 2220 0c64 A033     		adds	r3, r3, #160
 2221 0c66 1B78     		ldrb	r3, [r3]	@ zero_extendqisi2
 2222 0c68 5340     		eors	r3, r3, r2
 2223 0c6a DAB2     		uxtb	r2, r3
 2224 0c6c 7B68     		ldr	r3, [r7, #4]
 2225 0c6e 1A70     		strb	r2, [r3]
 197:build/openmote-cc2538_armgcc/bsp/boards/common/aes_ecb.c ****     state[1] ^= expandedKey[161];
 2226              		.loc 1 197 0
 2227 0c70 7B68     		ldr	r3, [r7, #4]
 2228 0c72 0133     		adds	r3, r3, #1
 2229 0c74 7A68     		ldr	r2, [r7, #4]
 2230 0c76 0132     		adds	r2, r2, #1
 2231 0c78 1178     		ldrb	r1, [r2]	@ zero_extendqisi2
 2232 0c7a 3A68     		ldr	r2, [r7]
 2233 0c7c A132     		adds	r2, r2, #161
 2234 0c7e 1278     		ldrb	r2, [r2]	@ zero_extendqisi2
 2235 0c80 4A40     		eors	r2, r2, r1
 2236 0c82 D2B2     		uxtb	r2, r2
 2237 0c84 1A70     		strb	r2, [r3]
 198:build/openmote-cc2538_armgcc/bsp/boards/common/aes_ecb.c ****     state[2] ^= expandedKey[162];
 2238              		.loc 1 198 0
 2239 0c86 7B68     		ldr	r3, [r7, #4]
 2240 0c88 0233     		adds	r3, r3, #2
 2241 0c8a 7A68     		ldr	r2, [r7, #4]
 2242 0c8c 0232     		adds	r2, r2, #2
 2243 0c8e 1178     		ldrb	r1, [r2]	@ zero_extendqisi2
 2244 0c90 3A68     		ldr	r2, [r7]
 2245 0c92 A232     		adds	r2, r2, #162
 2246 0c94 1278     		ldrb	r2, [r2]	@ zero_extendqisi2
 2247 0c96 4A40     		eors	r2, r2, r1
 2248 0c98 D2B2     		uxtb	r2, r2
 2249 0c9a 1A70     		strb	r2, [r3]
 199:build/openmote-cc2538_armgcc/bsp/boards/common/aes_ecb.c ****     state[3] ^= expandedKey[163];
 2250              		.loc 1 199 0
 2251 0c9c 7B68     		ldr	r3, [r7, #4]
 2252 0c9e 0333     		adds	r3, r3, #3
 2253 0ca0 7A68     		ldr	r2, [r7, #4]
 2254 0ca2 0332     		adds	r2, r2, #3
 2255 0ca4 1178     		ldrb	r1, [r2]	@ zero_extendqisi2
 2256 0ca6 3A68     		ldr	r2, [r7]
 2257 0ca8 A332     		adds	r2, r2, #163
 2258 0caa 1278     		ldrb	r2, [r2]	@ zero_extendqisi2
 2259 0cac 4A40     		eors	r2, r2, r1
 2260 0cae D2B2     		uxtb	r2, r2
 2261 0cb0 1A70     		strb	r2, [r3]
 200:build/openmote-cc2538_armgcc/bsp/boards/common/aes_ecb.c ****     state[4] ^= expandedKey[164];
 2262              		.loc 1 200 0
 2263 0cb2 7B68     		ldr	r3, [r7, #4]
 2264 0cb4 0433     		adds	r3, r3, #4
 2265 0cb6 7A68     		ldr	r2, [r7, #4]
 2266 0cb8 0432     		adds	r2, r2, #4
 2267 0cba 1178     		ldrb	r1, [r2]	@ zero_extendqisi2
 2268 0cbc 3A68     		ldr	r2, [r7]
 2269 0cbe A432     		adds	r2, r2, #164
 2270 0cc0 1278     		ldrb	r2, [r2]	@ zero_extendqisi2
 2271 0cc2 4A40     		eors	r2, r2, r1
 2272 0cc4 D2B2     		uxtb	r2, r2
 2273 0cc6 1A70     		strb	r2, [r3]
 201:build/openmote-cc2538_armgcc/bsp/boards/common/aes_ecb.c ****     state[5] ^= expandedKey[165];
 2274              		.loc 1 201 0
 2275 0cc8 7B68     		ldr	r3, [r7, #4]
 2276 0cca 0533     		adds	r3, r3, #5
 2277 0ccc 7A68     		ldr	r2, [r7, #4]
 2278 0cce 0532     		adds	r2, r2, #5
 2279 0cd0 1178     		ldrb	r1, [r2]	@ zero_extendqisi2
 2280 0cd2 3A68     		ldr	r2, [r7]
 2281 0cd4 A532     		adds	r2, r2, #165
 2282 0cd6 1278     		ldrb	r2, [r2]	@ zero_extendqisi2
 2283 0cd8 4A40     		eors	r2, r2, r1
 2284 0cda D2B2     		uxtb	r2, r2
 2285 0cdc 1A70     		strb	r2, [r3]
 202:build/openmote-cc2538_armgcc/bsp/boards/common/aes_ecb.c ****     state[6] ^= expandedKey[166];
 2286              		.loc 1 202 0
 2287 0cde 7B68     		ldr	r3, [r7, #4]
 2288 0ce0 0633     		adds	r3, r3, #6
 2289 0ce2 7A68     		ldr	r2, [r7, #4]
 2290 0ce4 0632     		adds	r2, r2, #6
 2291 0ce6 1178     		ldrb	r1, [r2]	@ zero_extendqisi2
 2292 0ce8 3A68     		ldr	r2, [r7]
 2293 0cea A632     		adds	r2, r2, #166
 2294 0cec 1278     		ldrb	r2, [r2]	@ zero_extendqisi2
 2295 0cee 4A40     		eors	r2, r2, r1
 2296 0cf0 D2B2     		uxtb	r2, r2
 2297 0cf2 1A70     		strb	r2, [r3]
 203:build/openmote-cc2538_armgcc/bsp/boards/common/aes_ecb.c ****     state[7] ^= expandedKey[167];
 2298              		.loc 1 203 0
 2299 0cf4 7B68     		ldr	r3, [r7, #4]
 2300 0cf6 0733     		adds	r3, r3, #7
 2301 0cf8 7A68     		ldr	r2, [r7, #4]
 2302 0cfa 0732     		adds	r2, r2, #7
 2303 0cfc 1178     		ldrb	r1, [r2]	@ zero_extendqisi2
 2304 0cfe 3A68     		ldr	r2, [r7]
 2305 0d00 A732     		adds	r2, r2, #167
 2306 0d02 1278     		ldrb	r2, [r2]	@ zero_extendqisi2
 2307 0d04 4A40     		eors	r2, r2, r1
 2308 0d06 D2B2     		uxtb	r2, r2
 2309 0d08 1A70     		strb	r2, [r3]
 204:build/openmote-cc2538_armgcc/bsp/boards/common/aes_ecb.c ****     state[8] ^= expandedKey[168];
 2310              		.loc 1 204 0
 2311 0d0a 7B68     		ldr	r3, [r7, #4]
 2312 0d0c 0833     		adds	r3, r3, #8
 2313 0d0e 7A68     		ldr	r2, [r7, #4]
 2314 0d10 0832     		adds	r2, r2, #8
 2315 0d12 1178     		ldrb	r1, [r2]	@ zero_extendqisi2
 2316 0d14 3A68     		ldr	r2, [r7]
 2317 0d16 A832     		adds	r2, r2, #168
 2318 0d18 1278     		ldrb	r2, [r2]	@ zero_extendqisi2
 2319 0d1a 4A40     		eors	r2, r2, r1
 2320 0d1c D2B2     		uxtb	r2, r2
 2321 0d1e 1A70     		strb	r2, [r3]
 205:build/openmote-cc2538_armgcc/bsp/boards/common/aes_ecb.c ****     state[9] ^= expandedKey[169];
 2322              		.loc 1 205 0
 2323 0d20 7B68     		ldr	r3, [r7, #4]
 2324 0d22 0933     		adds	r3, r3, #9
 2325 0d24 7A68     		ldr	r2, [r7, #4]
 2326 0d26 0932     		adds	r2, r2, #9
 2327 0d28 1178     		ldrb	r1, [r2]	@ zero_extendqisi2
 2328 0d2a 3A68     		ldr	r2, [r7]
 2329 0d2c A932     		adds	r2, r2, #169
 2330 0d2e 1278     		ldrb	r2, [r2]	@ zero_extendqisi2
 2331 0d30 4A40     		eors	r2, r2, r1
 2332 0d32 D2B2     		uxtb	r2, r2
 2333 0d34 1A70     		strb	r2, [r3]
 206:build/openmote-cc2538_armgcc/bsp/boards/common/aes_ecb.c ****     state[10] ^= expandedKey[170];
 2334              		.loc 1 206 0
 2335 0d36 7B68     		ldr	r3, [r7, #4]
 2336 0d38 0A33     		adds	r3, r3, #10
 2337 0d3a 7A68     		ldr	r2, [r7, #4]
 2338 0d3c 0A32     		adds	r2, r2, #10
 2339 0d3e 1178     		ldrb	r1, [r2]	@ zero_extendqisi2
 2340 0d40 3A68     		ldr	r2, [r7]
 2341 0d42 AA32     		adds	r2, r2, #170
 2342 0d44 1278     		ldrb	r2, [r2]	@ zero_extendqisi2
 2343 0d46 4A40     		eors	r2, r2, r1
 2344 0d48 D2B2     		uxtb	r2, r2
 2345 0d4a 1A70     		strb	r2, [r3]
 207:build/openmote-cc2538_armgcc/bsp/boards/common/aes_ecb.c ****     state[11] ^= expandedKey[171];
 2346              		.loc 1 207 0
 2347 0d4c 7B68     		ldr	r3, [r7, #4]
 2348 0d4e 0B33     		adds	r3, r3, #11
 2349 0d50 7A68     		ldr	r2, [r7, #4]
 2350 0d52 0B32     		adds	r2, r2, #11
 2351 0d54 1178     		ldrb	r1, [r2]	@ zero_extendqisi2
 2352 0d56 3A68     		ldr	r2, [r7]
 2353 0d58 AB32     		adds	r2, r2, #171
 2354 0d5a 1278     		ldrb	r2, [r2]	@ zero_extendqisi2
 2355 0d5c 4A40     		eors	r2, r2, r1
 2356 0d5e D2B2     		uxtb	r2, r2
 2357 0d60 1A70     		strb	r2, [r3]
 208:build/openmote-cc2538_armgcc/bsp/boards/common/aes_ecb.c ****     state[12] ^= expandedKey[172];
 2358              		.loc 1 208 0
 2359 0d62 7B68     		ldr	r3, [r7, #4]
 2360 0d64 0C33     		adds	r3, r3, #12
 2361 0d66 7A68     		ldr	r2, [r7, #4]
 2362 0d68 0C32     		adds	r2, r2, #12
 2363 0d6a 1178     		ldrb	r1, [r2]	@ zero_extendqisi2
 2364 0d6c 3A68     		ldr	r2, [r7]
 2365 0d6e AC32     		adds	r2, r2, #172
 2366 0d70 1278     		ldrb	r2, [r2]	@ zero_extendqisi2
 2367 0d72 4A40     		eors	r2, r2, r1
 2368 0d74 D2B2     		uxtb	r2, r2
 2369 0d76 1A70     		strb	r2, [r3]
 209:build/openmote-cc2538_armgcc/bsp/boards/common/aes_ecb.c ****     state[13] ^= expandedKey[173];
 2370              		.loc 1 209 0
 2371 0d78 7B68     		ldr	r3, [r7, #4]
 2372 0d7a 0D33     		adds	r3, r3, #13
 2373 0d7c 7A68     		ldr	r2, [r7, #4]
 2374 0d7e 0D32     		adds	r2, r2, #13
 2375 0d80 1178     		ldrb	r1, [r2]	@ zero_extendqisi2
 2376 0d82 3A68     		ldr	r2, [r7]
 2377 0d84 AD32     		adds	r2, r2, #173
 2378 0d86 1278     		ldrb	r2, [r2]	@ zero_extendqisi2
 2379 0d88 4A40     		eors	r2, r2, r1
 2380 0d8a D2B2     		uxtb	r2, r2
 2381 0d8c 1A70     		strb	r2, [r3]
 210:build/openmote-cc2538_armgcc/bsp/boards/common/aes_ecb.c ****     state[14] ^= expandedKey[174];
 2382              		.loc 1 210 0
 2383 0d8e 7B68     		ldr	r3, [r7, #4]
 2384 0d90 0E33     		adds	r3, r3, #14
 2385 0d92 7A68     		ldr	r2, [r7, #4]
 2386 0d94 0E32     		adds	r2, r2, #14
 2387 0d96 1178     		ldrb	r1, [r2]	@ zero_extendqisi2
 2388 0d98 3A68     		ldr	r2, [r7]
 2389 0d9a AE32     		adds	r2, r2, #174
 2390 0d9c 1278     		ldrb	r2, [r2]	@ zero_extendqisi2
 2391 0d9e 4A40     		eors	r2, r2, r1
 2392 0da0 D2B2     		uxtb	r2, r2
 2393 0da2 1A70     		strb	r2, [r3]
 211:build/openmote-cc2538_armgcc/bsp/boards/common/aes_ecb.c ****     state[15] ^= expandedKey[175];
 2394              		.loc 1 211 0
 2395 0da4 7B68     		ldr	r3, [r7, #4]
 2396 0da6 0F33     		adds	r3, r3, #15
 2397 0da8 7A68     		ldr	r2, [r7, #4]
 2398 0daa 0F32     		adds	r2, r2, #15
 2399 0dac 1178     		ldrb	r1, [r2]	@ zero_extendqisi2
 2400 0dae 3A68     		ldr	r2, [r7]
 2401 0db0 AF32     		adds	r2, r2, #175
 2402 0db2 1278     		ldrb	r2, [r2]	@ zero_extendqisi2
 2403 0db4 4A40     		eors	r2, r2, r1
 2404 0db6 D2B2     		uxtb	r2, r2
 2405 0db8 1A70     		strb	r2, [r3]
 212:build/openmote-cc2538_armgcc/bsp/boards/common/aes_ecb.c **** }
 2406              		.loc 1 212 0
 2407 0dba 1037     		adds	r7, r7, #16
 2408 0dbc BD46     		mov	sp, r7
 2409              		@ sp needed
 2410 0dbe 80BD     		pop	{r7, pc}
 2411              		.cfi_endproc
 2412              	.LFE2:
 2414              		.align	2
 2415              		.global	aes_decr
 2416              		.thumb
 2417              		.thumb_func
 2419              	aes_decr:
 2420              	.LFB3:
 213:build/openmote-cc2538_armgcc/bsp/boards/common/aes_ecb.c **** 
 214:build/openmote-cc2538_armgcc/bsp/boards/common/aes_ecb.c **** // straight foreward aes decryption implementation
 215:build/openmote-cc2538_armgcc/bsp/boards/common/aes_ecb.c **** //   the order of substeps is the exact reverse of decryption
 216:build/openmote-cc2538_armgcc/bsp/boards/common/aes_ecb.c **** //   inverse functions:
 217:build/openmote-cc2538_armgcc/bsp/boards/common/aes_ecb.c **** //       - addRoundKey is its own inverse
 218:build/openmote-cc2538_armgcc/bsp/boards/common/aes_ecb.c **** //       - rsbox is inverse of sbox
 219:build/openmote-cc2538_armgcc/bsp/boards/common/aes_ecb.c **** //       - rightshift instead of leftshift
 220:build/openmote-cc2538_armgcc/bsp/boards/common/aes_ecb.c **** //       - invMixColumns = barreto + mixColumns
 221:build/openmote-cc2538_armgcc/bsp/boards/common/aes_ecb.c **** //   no further subfunctions to save cycles for function calls
 222:build/openmote-cc2538_armgcc/bsp/boards/common/aes_ecb.c **** //   no structuring with "for (....)" to save cycles
 223:build/openmote-cc2538_armgcc/bsp/boards/common/aes_ecb.c **** void aes_decr(unsigned char *state, unsigned char *expandedKey)
 224:build/openmote-cc2538_armgcc/bsp/boards/common/aes_ecb.c **** {
 2421              		.loc 1 224 0
 2422              		.cfi_startproc
 2423              		@ args = 0, pretend = 0, frame = 16
 2424              		@ frame_needed = 1, uses_anonymous_args = 0
 2425 0dc0 80B5     		push	{r7, lr}
 2426              		.cfi_def_cfa_offset 8
 2427              		.cfi_offset 7, -8
 2428              		.cfi_offset 14, -4
 2429 0dc2 84B0     		sub	sp, sp, #16
 2430              		.cfi_def_cfa_offset 24
 2431 0dc4 00AF     		add	r7, sp, #0
 2432              		.cfi_def_cfa_register 7
 2433 0dc6 7860     		str	r0, [r7, #4]
 2434 0dc8 3960     		str	r1, [r7]
 225:build/openmote-cc2538_armgcc/bsp/boards/common/aes_ecb.c ****     unsigned char buf1, buf2, buf3;
 226:build/openmote-cc2538_armgcc/bsp/boards/common/aes_ecb.c ****     signed char round;
 227:build/openmote-cc2538_armgcc/bsp/boards/common/aes_ecb.c ****     round = 9;
 2435              		.loc 1 227 0
 2436 0dca 0923     		movs	r3, #9
 2437 0dcc FB73     		strb	r3, [r7, #15]
 228:build/openmote-cc2538_armgcc/bsp/boards/common/aes_ecb.c **** 
 229:build/openmote-cc2538_armgcc/bsp/boards/common/aes_ecb.c ****     // initial addroundkey
 230:build/openmote-cc2538_armgcc/bsp/boards/common/aes_ecb.c ****     state[0] ^= expandedKey[160];
 2438              		.loc 1 230 0
 2439 0dce 7B68     		ldr	r3, [r7, #4]
 2440 0dd0 1A78     		ldrb	r2, [r3]	@ zero_extendqisi2
 2441 0dd2 3B68     		ldr	r3, [r7]
 2442 0dd4 A033     		adds	r3, r3, #160
 2443 0dd6 1B78     		ldrb	r3, [r3]	@ zero_extendqisi2
 2444 0dd8 5340     		eors	r3, r3, r2
 2445 0dda DAB2     		uxtb	r2, r3
 2446 0ddc 7B68     		ldr	r3, [r7, #4]
 2447 0dde 1A70     		strb	r2, [r3]
 231:build/openmote-cc2538_armgcc/bsp/boards/common/aes_ecb.c ****     state[1] ^= expandedKey[161];
 2448              		.loc 1 231 0
 2449 0de0 7B68     		ldr	r3, [r7, #4]
 2450 0de2 0133     		adds	r3, r3, #1
 2451 0de4 7A68     		ldr	r2, [r7, #4]
 2452 0de6 0132     		adds	r2, r2, #1
 2453 0de8 1178     		ldrb	r1, [r2]	@ zero_extendqisi2
 2454 0dea 3A68     		ldr	r2, [r7]
 2455 0dec A132     		adds	r2, r2, #161
 2456 0dee 1278     		ldrb	r2, [r2]	@ zero_extendqisi2
 2457 0df0 4A40     		eors	r2, r2, r1
 2458 0df2 D2B2     		uxtb	r2, r2
 2459 0df4 1A70     		strb	r2, [r3]
 232:build/openmote-cc2538_armgcc/bsp/boards/common/aes_ecb.c ****     state[2] ^= expandedKey[162];
 2460              		.loc 1 232 0
 2461 0df6 7B68     		ldr	r3, [r7, #4]
 2462 0df8 0233     		adds	r3, r3, #2
 2463 0dfa 7A68     		ldr	r2, [r7, #4]
 2464 0dfc 0232     		adds	r2, r2, #2
 2465 0dfe 1178     		ldrb	r1, [r2]	@ zero_extendqisi2
 2466 0e00 3A68     		ldr	r2, [r7]
 2467 0e02 A232     		adds	r2, r2, #162
 2468 0e04 1278     		ldrb	r2, [r2]	@ zero_extendqisi2
 2469 0e06 4A40     		eors	r2, r2, r1
 2470 0e08 D2B2     		uxtb	r2, r2
 2471 0e0a 1A70     		strb	r2, [r3]
 233:build/openmote-cc2538_armgcc/bsp/boards/common/aes_ecb.c ****     state[3] ^= expandedKey[163];
 2472              		.loc 1 233 0
 2473 0e0c 7B68     		ldr	r3, [r7, #4]
 2474 0e0e 0333     		adds	r3, r3, #3
 2475 0e10 7A68     		ldr	r2, [r7, #4]
 2476 0e12 0332     		adds	r2, r2, #3
 2477 0e14 1178     		ldrb	r1, [r2]	@ zero_extendqisi2
 2478 0e16 3A68     		ldr	r2, [r7]
 2479 0e18 A332     		adds	r2, r2, #163
 2480 0e1a 1278     		ldrb	r2, [r2]	@ zero_extendqisi2
 2481 0e1c 4A40     		eors	r2, r2, r1
 2482 0e1e D2B2     		uxtb	r2, r2
 2483 0e20 1A70     		strb	r2, [r3]
 234:build/openmote-cc2538_armgcc/bsp/boards/common/aes_ecb.c ****     state[4] ^= expandedKey[164];
 2484              		.loc 1 234 0
 2485 0e22 7B68     		ldr	r3, [r7, #4]
 2486 0e24 0433     		adds	r3, r3, #4
 2487 0e26 7A68     		ldr	r2, [r7, #4]
 2488 0e28 0432     		adds	r2, r2, #4
 2489 0e2a 1178     		ldrb	r1, [r2]	@ zero_extendqisi2
 2490 0e2c 3A68     		ldr	r2, [r7]
 2491 0e2e A432     		adds	r2, r2, #164
 2492 0e30 1278     		ldrb	r2, [r2]	@ zero_extendqisi2
 2493 0e32 4A40     		eors	r2, r2, r1
 2494 0e34 D2B2     		uxtb	r2, r2
 2495 0e36 1A70     		strb	r2, [r3]
 235:build/openmote-cc2538_armgcc/bsp/boards/common/aes_ecb.c ****     state[5] ^= expandedKey[165];
 2496              		.loc 1 235 0
 2497 0e38 7B68     		ldr	r3, [r7, #4]
 2498 0e3a 0533     		adds	r3, r3, #5
 2499 0e3c 7A68     		ldr	r2, [r7, #4]
 2500 0e3e 0532     		adds	r2, r2, #5
 2501 0e40 1178     		ldrb	r1, [r2]	@ zero_extendqisi2
 2502 0e42 3A68     		ldr	r2, [r7]
 2503 0e44 A532     		adds	r2, r2, #165
 2504 0e46 1278     		ldrb	r2, [r2]	@ zero_extendqisi2
 2505 0e48 4A40     		eors	r2, r2, r1
 2506 0e4a D2B2     		uxtb	r2, r2
 2507 0e4c 1A70     		strb	r2, [r3]
 236:build/openmote-cc2538_armgcc/bsp/boards/common/aes_ecb.c ****     state[6] ^= expandedKey[166];
 2508              		.loc 1 236 0
 2509 0e4e 7B68     		ldr	r3, [r7, #4]
 2510 0e50 0633     		adds	r3, r3, #6
 2511 0e52 7A68     		ldr	r2, [r7, #4]
 2512 0e54 0632     		adds	r2, r2, #6
 2513 0e56 1178     		ldrb	r1, [r2]	@ zero_extendqisi2
 2514 0e58 3A68     		ldr	r2, [r7]
 2515 0e5a A632     		adds	r2, r2, #166
 2516 0e5c 1278     		ldrb	r2, [r2]	@ zero_extendqisi2
 2517 0e5e 4A40     		eors	r2, r2, r1
 2518 0e60 D2B2     		uxtb	r2, r2
 2519 0e62 1A70     		strb	r2, [r3]
 237:build/openmote-cc2538_armgcc/bsp/boards/common/aes_ecb.c ****     state[7] ^= expandedKey[167];
 2520              		.loc 1 237 0
 2521 0e64 7B68     		ldr	r3, [r7, #4]
 2522 0e66 0733     		adds	r3, r3, #7
 2523 0e68 7A68     		ldr	r2, [r7, #4]
 2524 0e6a 0732     		adds	r2, r2, #7
 2525 0e6c 1178     		ldrb	r1, [r2]	@ zero_extendqisi2
 2526 0e6e 3A68     		ldr	r2, [r7]
 2527 0e70 A732     		adds	r2, r2, #167
 2528 0e72 1278     		ldrb	r2, [r2]	@ zero_extendqisi2
 2529 0e74 4A40     		eors	r2, r2, r1
 2530 0e76 D2B2     		uxtb	r2, r2
 2531 0e78 1A70     		strb	r2, [r3]
 238:build/openmote-cc2538_armgcc/bsp/boards/common/aes_ecb.c ****     state[8] ^= expandedKey[168];
 2532              		.loc 1 238 0
 2533 0e7a 7B68     		ldr	r3, [r7, #4]
 2534 0e7c 0833     		adds	r3, r3, #8
 2535 0e7e 7A68     		ldr	r2, [r7, #4]
 2536 0e80 0832     		adds	r2, r2, #8
 2537 0e82 1178     		ldrb	r1, [r2]	@ zero_extendqisi2
 2538 0e84 3A68     		ldr	r2, [r7]
 2539 0e86 A832     		adds	r2, r2, #168
 2540 0e88 1278     		ldrb	r2, [r2]	@ zero_extendqisi2
 2541 0e8a 4A40     		eors	r2, r2, r1
 2542 0e8c D2B2     		uxtb	r2, r2
 2543 0e8e 1A70     		strb	r2, [r3]
 239:build/openmote-cc2538_armgcc/bsp/boards/common/aes_ecb.c ****     state[9] ^= expandedKey[169];
 2544              		.loc 1 239 0
 2545 0e90 7B68     		ldr	r3, [r7, #4]
 2546 0e92 0933     		adds	r3, r3, #9
 2547 0e94 7A68     		ldr	r2, [r7, #4]
 2548 0e96 0932     		adds	r2, r2, #9
 2549 0e98 1178     		ldrb	r1, [r2]	@ zero_extendqisi2
 2550 0e9a 3A68     		ldr	r2, [r7]
 2551 0e9c A932     		adds	r2, r2, #169
 2552 0e9e 1278     		ldrb	r2, [r2]	@ zero_extendqisi2
 2553 0ea0 4A40     		eors	r2, r2, r1
 2554 0ea2 D2B2     		uxtb	r2, r2
 2555 0ea4 1A70     		strb	r2, [r3]
 240:build/openmote-cc2538_armgcc/bsp/boards/common/aes_ecb.c ****     state[10] ^= expandedKey[170];
 2556              		.loc 1 240 0
 2557 0ea6 7B68     		ldr	r3, [r7, #4]
 2558 0ea8 0A33     		adds	r3, r3, #10
 2559 0eaa 7A68     		ldr	r2, [r7, #4]
 2560 0eac 0A32     		adds	r2, r2, #10
 2561 0eae 1178     		ldrb	r1, [r2]	@ zero_extendqisi2
 2562 0eb0 3A68     		ldr	r2, [r7]
 2563 0eb2 AA32     		adds	r2, r2, #170
 2564 0eb4 1278     		ldrb	r2, [r2]	@ zero_extendqisi2
 2565 0eb6 4A40     		eors	r2, r2, r1
 2566 0eb8 D2B2     		uxtb	r2, r2
 2567 0eba 1A70     		strb	r2, [r3]
 241:build/openmote-cc2538_armgcc/bsp/boards/common/aes_ecb.c ****     state[11] ^= expandedKey[171];
 2568              		.loc 1 241 0
 2569 0ebc 7B68     		ldr	r3, [r7, #4]
 2570 0ebe 0B33     		adds	r3, r3, #11
 2571 0ec0 7A68     		ldr	r2, [r7, #4]
 2572 0ec2 0B32     		adds	r2, r2, #11
 2573 0ec4 1178     		ldrb	r1, [r2]	@ zero_extendqisi2
 2574 0ec6 3A68     		ldr	r2, [r7]
 2575 0ec8 AB32     		adds	r2, r2, #171
 2576 0eca 1278     		ldrb	r2, [r2]	@ zero_extendqisi2
 2577 0ecc 4A40     		eors	r2, r2, r1
 2578 0ece D2B2     		uxtb	r2, r2
 2579 0ed0 1A70     		strb	r2, [r3]
 242:build/openmote-cc2538_armgcc/bsp/boards/common/aes_ecb.c ****     state[12] ^= expandedKey[172];
 2580              		.loc 1 242 0
 2581 0ed2 7B68     		ldr	r3, [r7, #4]
 2582 0ed4 0C33     		adds	r3, r3, #12
 2583 0ed6 7A68     		ldr	r2, [r7, #4]
 2584 0ed8 0C32     		adds	r2, r2, #12
 2585 0eda 1178     		ldrb	r1, [r2]	@ zero_extendqisi2
 2586 0edc 3A68     		ldr	r2, [r7]
 2587 0ede AC32     		adds	r2, r2, #172
 2588 0ee0 1278     		ldrb	r2, [r2]	@ zero_extendqisi2
 2589 0ee2 4A40     		eors	r2, r2, r1
 2590 0ee4 D2B2     		uxtb	r2, r2
 2591 0ee6 1A70     		strb	r2, [r3]
 243:build/openmote-cc2538_armgcc/bsp/boards/common/aes_ecb.c ****     state[13] ^= expandedKey[173];
 2592              		.loc 1 243 0
 2593 0ee8 7B68     		ldr	r3, [r7, #4]
 2594 0eea 0D33     		adds	r3, r3, #13
 2595 0eec 7A68     		ldr	r2, [r7, #4]
 2596 0eee 0D32     		adds	r2, r2, #13
 2597 0ef0 1178     		ldrb	r1, [r2]	@ zero_extendqisi2
 2598 0ef2 3A68     		ldr	r2, [r7]
 2599 0ef4 AD32     		adds	r2, r2, #173
 2600 0ef6 1278     		ldrb	r2, [r2]	@ zero_extendqisi2
 2601 0ef8 4A40     		eors	r2, r2, r1
 2602 0efa D2B2     		uxtb	r2, r2
 2603 0efc 1A70     		strb	r2, [r3]
 244:build/openmote-cc2538_armgcc/bsp/boards/common/aes_ecb.c ****     state[14] ^= expandedKey[174];
 2604              		.loc 1 244 0
 2605 0efe 7B68     		ldr	r3, [r7, #4]
 2606 0f00 0E33     		adds	r3, r3, #14
 2607 0f02 7A68     		ldr	r2, [r7, #4]
 2608 0f04 0E32     		adds	r2, r2, #14
 2609 0f06 1178     		ldrb	r1, [r2]	@ zero_extendqisi2
 2610 0f08 3A68     		ldr	r2, [r7]
 2611 0f0a AE32     		adds	r2, r2, #174
 2612 0f0c 1278     		ldrb	r2, [r2]	@ zero_extendqisi2
 2613 0f0e 4A40     		eors	r2, r2, r1
 2614 0f10 D2B2     		uxtb	r2, r2
 2615 0f12 1A70     		strb	r2, [r3]
 245:build/openmote-cc2538_armgcc/bsp/boards/common/aes_ecb.c ****     state[15] ^= expandedKey[175];
 2616              		.loc 1 245 0
 2617 0f14 7B68     		ldr	r3, [r7, #4]
 2618 0f16 0F33     		adds	r3, r3, #15
 2619 0f18 7A68     		ldr	r2, [r7, #4]
 2620 0f1a 0F32     		adds	r2, r2, #15
 2621 0f1c 1178     		ldrb	r1, [r2]	@ zero_extendqisi2
 2622 0f1e 3A68     		ldr	r2, [r7]
 2623 0f20 AF32     		adds	r2, r2, #175
 2624 0f22 1278     		ldrb	r2, [r2]	@ zero_extendqisi2
 2625 0f24 4A40     		eors	r2, r2, r1
 2626 0f26 D2B2     		uxtb	r2, r2
 2627 0f28 1A70     		strb	r2, [r3]
 246:build/openmote-cc2538_armgcc/bsp/boards/common/aes_ecb.c **** 
 247:build/openmote-cc2538_armgcc/bsp/boards/common/aes_ecb.c ****     // 10th round without mixcols
 248:build/openmote-cc2538_armgcc/bsp/boards/common/aes_ecb.c ****     state[0] = rsbox[state[0]] ^ expandedKey[(round * 16)];
 2628              		.loc 1 248 0
 2629 0f2a 7B68     		ldr	r3, [r7, #4]
 2630 0f2c 1B78     		ldrb	r3, [r3]	@ zero_extendqisi2
 2631 0f2e 1A46     		mov	r2, r3
 2632 0f30 40F20003 		movw	r3, #:lower16:rsbox
 2633 0f34 C0F20003 		movt	r3, #:upper16:rsbox
 2634 0f38 9A5C     		ldrb	r2, [r3, r2]	@ zero_extendqisi2
 2635 0f3a 97F90F30 		ldrsb	r3, [r7, #15]
 2636 0f3e 1B01     		lsls	r3, r3, #4
 2637 0f40 3968     		ldr	r1, [r7]
 2638 0f42 0B44     		add	r3, r3, r1
 2639 0f44 1B78     		ldrb	r3, [r3]	@ zero_extendqisi2
 2640 0f46 5340     		eors	r3, r3, r2
 2641 0f48 DAB2     		uxtb	r2, r3
 2642 0f4a 7B68     		ldr	r3, [r7, #4]
 2643 0f4c 1A70     		strb	r2, [r3]
 249:build/openmote-cc2538_armgcc/bsp/boards/common/aes_ecb.c ****     state[4] = rsbox[state[4]] ^ expandedKey[(round * 16) + 4];
 2644              		.loc 1 249 0
 2645 0f4e 7B68     		ldr	r3, [r7, #4]
 2646 0f50 1A1D     		adds	r2, r3, #4
 2647 0f52 7B68     		ldr	r3, [r7, #4]
 2648 0f54 0433     		adds	r3, r3, #4
 2649 0f56 1B78     		ldrb	r3, [r3]	@ zero_extendqisi2
 2650 0f58 1946     		mov	r1, r3
 2651 0f5a 40F20003 		movw	r3, #:lower16:rsbox
 2652 0f5e C0F20003 		movt	r3, #:upper16:rsbox
 2653 0f62 595C     		ldrb	r1, [r3, r1]	@ zero_extendqisi2
 2654 0f64 97F90F30 		ldrsb	r3, [r7, #15]
 2655 0f68 1B01     		lsls	r3, r3, #4
 2656 0f6a 0433     		adds	r3, r3, #4
 2657 0f6c 3868     		ldr	r0, [r7]
 2658 0f6e 0344     		add	r3, r3, r0
 2659 0f70 1B78     		ldrb	r3, [r3]	@ zero_extendqisi2
 2660 0f72 4B40     		eors	r3, r3, r1
 2661 0f74 DBB2     		uxtb	r3, r3
 2662 0f76 1370     		strb	r3, [r2]
 250:build/openmote-cc2538_armgcc/bsp/boards/common/aes_ecb.c ****     state[8] = rsbox[state[8]] ^ expandedKey[(round * 16) + 8];
 2663              		.loc 1 250 0
 2664 0f78 7B68     		ldr	r3, [r7, #4]
 2665 0f7a 03F10802 		add	r2, r3, #8
 2666 0f7e 7B68     		ldr	r3, [r7, #4]
 2667 0f80 0833     		adds	r3, r3, #8
 2668 0f82 1B78     		ldrb	r3, [r3]	@ zero_extendqisi2
 2669 0f84 1946     		mov	r1, r3
 2670 0f86 40F20003 		movw	r3, #:lower16:rsbox
 2671 0f8a C0F20003 		movt	r3, #:upper16:rsbox
 2672 0f8e 595C     		ldrb	r1, [r3, r1]	@ zero_extendqisi2
 2673 0f90 97F90F30 		ldrsb	r3, [r7, #15]
 2674 0f94 1B01     		lsls	r3, r3, #4
 2675 0f96 0833     		adds	r3, r3, #8
 2676 0f98 3868     		ldr	r0, [r7]
 2677 0f9a 0344     		add	r3, r3, r0
 2678 0f9c 1B78     		ldrb	r3, [r3]	@ zero_extendqisi2
 2679 0f9e 4B40     		eors	r3, r3, r1
 2680 0fa0 DBB2     		uxtb	r3, r3
 2681 0fa2 1370     		strb	r3, [r2]
 251:build/openmote-cc2538_armgcc/bsp/boards/common/aes_ecb.c ****     state[12] = rsbox[state[12]] ^ expandedKey[(round * 16) + 12];
 2682              		.loc 1 251 0
 2683 0fa4 7B68     		ldr	r3, [r7, #4]
 2684 0fa6 03F10C02 		add	r2, r3, #12
 2685 0faa 7B68     		ldr	r3, [r7, #4]
 2686 0fac 0C33     		adds	r3, r3, #12
 2687 0fae 1B78     		ldrb	r3, [r3]	@ zero_extendqisi2
 2688 0fb0 1946     		mov	r1, r3
 2689 0fb2 40F20003 		movw	r3, #:lower16:rsbox
 2690 0fb6 C0F20003 		movt	r3, #:upper16:rsbox
 2691 0fba 595C     		ldrb	r1, [r3, r1]	@ zero_extendqisi2
 2692 0fbc 97F90F30 		ldrsb	r3, [r7, #15]
 2693 0fc0 1B01     		lsls	r3, r3, #4
 2694 0fc2 0C33     		adds	r3, r3, #12
 2695 0fc4 3868     		ldr	r0, [r7]
 2696 0fc6 0344     		add	r3, r3, r0
 2697 0fc8 1B78     		ldrb	r3, [r3]	@ zero_extendqisi2
 2698 0fca 4B40     		eors	r3, r3, r1
 2699 0fcc DBB2     		uxtb	r3, r3
 2700 0fce 1370     		strb	r3, [r2]
 252:build/openmote-cc2538_armgcc/bsp/boards/common/aes_ecb.c ****     // row 1
 253:build/openmote-cc2538_armgcc/bsp/boards/common/aes_ecb.c ****     buf1 = rsbox[state[13]] ^ expandedKey[(round * 16) + 1];
 2701              		.loc 1 253 0
 2702 0fd0 7B68     		ldr	r3, [r7, #4]
 2703 0fd2 0D33     		adds	r3, r3, #13
 2704 0fd4 1B78     		ldrb	r3, [r3]	@ zero_extendqisi2
 2705 0fd6 1A46     		mov	r2, r3
 2706 0fd8 40F20003 		movw	r3, #:lower16:rsbox
 2707 0fdc C0F20003 		movt	r3, #:upper16:rsbox
 2708 0fe0 9A5C     		ldrb	r2, [r3, r2]	@ zero_extendqisi2
 2709 0fe2 97F90F30 		ldrsb	r3, [r7, #15]
 2710 0fe6 1B01     		lsls	r3, r3, #4
 2711 0fe8 0133     		adds	r3, r3, #1
 2712 0fea 3968     		ldr	r1, [r7]
 2713 0fec 0B44     		add	r3, r3, r1
 2714 0fee 1B78     		ldrb	r3, [r3]	@ zero_extendqisi2
 2715 0ff0 5340     		eors	r3, r3, r2
 2716 0ff2 BB73     		strb	r3, [r7, #14]
 254:build/openmote-cc2538_armgcc/bsp/boards/common/aes_ecb.c ****     state[13] = rsbox[state[9]] ^ expandedKey[(round * 16) + 13];
 2717              		.loc 1 254 0
 2718 0ff4 7B68     		ldr	r3, [r7, #4]
 2719 0ff6 03F10D02 		add	r2, r3, #13
 2720 0ffa 7B68     		ldr	r3, [r7, #4]
 2721 0ffc 0933     		adds	r3, r3, #9
 2722 0ffe 1B78     		ldrb	r3, [r3]	@ zero_extendqisi2
 2723 1000 1946     		mov	r1, r3
 2724 1002 40F20003 		movw	r3, #:lower16:rsbox
 2725 1006 C0F20003 		movt	r3, #:upper16:rsbox
 2726 100a 595C     		ldrb	r1, [r3, r1]	@ zero_extendqisi2
 2727 100c 97F90F30 		ldrsb	r3, [r7, #15]
 2728 1010 1B01     		lsls	r3, r3, #4
 2729 1012 0D33     		adds	r3, r3, #13
 2730 1014 3868     		ldr	r0, [r7]
 2731 1016 0344     		add	r3, r3, r0
 2732 1018 1B78     		ldrb	r3, [r3]	@ zero_extendqisi2
 2733 101a 4B40     		eors	r3, r3, r1
 2734 101c DBB2     		uxtb	r3, r3
 2735 101e 1370     		strb	r3, [r2]
 255:build/openmote-cc2538_armgcc/bsp/boards/common/aes_ecb.c ****     state[9] = rsbox[state[5]] ^ expandedKey[(round * 16) + 9];
 2736              		.loc 1 255 0
 2737 1020 7B68     		ldr	r3, [r7, #4]
 2738 1022 03F10902 		add	r2, r3, #9
 2739 1026 7B68     		ldr	r3, [r7, #4]
 2740 1028 0533     		adds	r3, r3, #5
 2741 102a 1B78     		ldrb	r3, [r3]	@ zero_extendqisi2
 2742 102c 1946     		mov	r1, r3
 2743 102e 40F20003 		movw	r3, #:lower16:rsbox
 2744 1032 C0F20003 		movt	r3, #:upper16:rsbox
 2745 1036 595C     		ldrb	r1, [r3, r1]	@ zero_extendqisi2
 2746 1038 97F90F30 		ldrsb	r3, [r7, #15]
 2747 103c 1B01     		lsls	r3, r3, #4
 2748 103e 0933     		adds	r3, r3, #9
 2749 1040 3868     		ldr	r0, [r7]
 2750 1042 0344     		add	r3, r3, r0
 2751 1044 1B78     		ldrb	r3, [r3]	@ zero_extendqisi2
 2752 1046 4B40     		eors	r3, r3, r1
 2753 1048 DBB2     		uxtb	r3, r3
 2754 104a 1370     		strb	r3, [r2]
 256:build/openmote-cc2538_armgcc/bsp/boards/common/aes_ecb.c ****     state[5] = rsbox[state[1]] ^ expandedKey[(round * 16) + 5];
 2755              		.loc 1 256 0
 2756 104c 7B68     		ldr	r3, [r7, #4]
 2757 104e 5A1D     		adds	r2, r3, #5
 2758 1050 7B68     		ldr	r3, [r7, #4]
 2759 1052 0133     		adds	r3, r3, #1
 2760 1054 1B78     		ldrb	r3, [r3]	@ zero_extendqisi2
 2761 1056 1946     		mov	r1, r3
 2762 1058 40F20003 		movw	r3, #:lower16:rsbox
 2763 105c C0F20003 		movt	r3, #:upper16:rsbox
 2764 1060 595C     		ldrb	r1, [r3, r1]	@ zero_extendqisi2
 2765 1062 97F90F30 		ldrsb	r3, [r7, #15]
 2766 1066 1B01     		lsls	r3, r3, #4
 2767 1068 0533     		adds	r3, r3, #5
 2768 106a 3868     		ldr	r0, [r7]
 2769 106c 0344     		add	r3, r3, r0
 2770 106e 1B78     		ldrb	r3, [r3]	@ zero_extendqisi2
 2771 1070 4B40     		eors	r3, r3, r1
 2772 1072 DBB2     		uxtb	r3, r3
 2773 1074 1370     		strb	r3, [r2]
 257:build/openmote-cc2538_armgcc/bsp/boards/common/aes_ecb.c ****     state[1] = buf1;
 2774              		.loc 1 257 0
 2775 1076 7B68     		ldr	r3, [r7, #4]
 2776 1078 0133     		adds	r3, r3, #1
 2777 107a BA7B     		ldrb	r2, [r7, #14]
 2778 107c 1A70     		strb	r2, [r3]
 258:build/openmote-cc2538_armgcc/bsp/boards/common/aes_ecb.c ****     // row 2
 259:build/openmote-cc2538_armgcc/bsp/boards/common/aes_ecb.c ****     buf1 = rsbox[state[2]] ^ expandedKey[(round * 16) + 10];
 2779              		.loc 1 259 0
 2780 107e 7B68     		ldr	r3, [r7, #4]
 2781 1080 0233     		adds	r3, r3, #2
 2782 1082 1B78     		ldrb	r3, [r3]	@ zero_extendqisi2
 2783 1084 1A46     		mov	r2, r3
 2784 1086 40F20003 		movw	r3, #:lower16:rsbox
 2785 108a C0F20003 		movt	r3, #:upper16:rsbox
 2786 108e 9A5C     		ldrb	r2, [r3, r2]	@ zero_extendqisi2
 2787 1090 97F90F30 		ldrsb	r3, [r7, #15]
 2788 1094 1B01     		lsls	r3, r3, #4
 2789 1096 0A33     		adds	r3, r3, #10
 2790 1098 3968     		ldr	r1, [r7]
 2791 109a 0B44     		add	r3, r3, r1
 2792 109c 1B78     		ldrb	r3, [r3]	@ zero_extendqisi2
 2793 109e 5340     		eors	r3, r3, r2
 2794 10a0 BB73     		strb	r3, [r7, #14]
 260:build/openmote-cc2538_armgcc/bsp/boards/common/aes_ecb.c ****     buf2 = rsbox[state[6]] ^ expandedKey[(round * 16) + 14];
 2795              		.loc 1 260 0
 2796 10a2 7B68     		ldr	r3, [r7, #4]
 2797 10a4 0633     		adds	r3, r3, #6
 2798 10a6 1B78     		ldrb	r3, [r3]	@ zero_extendqisi2
 2799 10a8 1A46     		mov	r2, r3
 2800 10aa 40F20003 		movw	r3, #:lower16:rsbox
 2801 10ae C0F20003 		movt	r3, #:upper16:rsbox
 2802 10b2 9A5C     		ldrb	r2, [r3, r2]	@ zero_extendqisi2
 2803 10b4 97F90F30 		ldrsb	r3, [r7, #15]
 2804 10b8 1B01     		lsls	r3, r3, #4
 2805 10ba 0E33     		adds	r3, r3, #14
 2806 10bc 3968     		ldr	r1, [r7]
 2807 10be 0B44     		add	r3, r3, r1
 2808 10c0 1B78     		ldrb	r3, [r3]	@ zero_extendqisi2
 2809 10c2 5340     		eors	r3, r3, r2
 2810 10c4 7B73     		strb	r3, [r7, #13]
 261:build/openmote-cc2538_armgcc/bsp/boards/common/aes_ecb.c ****     state[2] = rsbox[state[10]] ^ expandedKey[(round * 16) + 2];
 2811              		.loc 1 261 0
 2812 10c6 7B68     		ldr	r3, [r7, #4]
 2813 10c8 9A1C     		adds	r2, r3, #2
 2814 10ca 7B68     		ldr	r3, [r7, #4]
 2815 10cc 0A33     		adds	r3, r3, #10
 2816 10ce 1B78     		ldrb	r3, [r3]	@ zero_extendqisi2
 2817 10d0 1946     		mov	r1, r3
 2818 10d2 40F20003 		movw	r3, #:lower16:rsbox
 2819 10d6 C0F20003 		movt	r3, #:upper16:rsbox
 2820 10da 595C     		ldrb	r1, [r3, r1]	@ zero_extendqisi2
 2821 10dc 97F90F30 		ldrsb	r3, [r7, #15]
 2822 10e0 1B01     		lsls	r3, r3, #4
 2823 10e2 0233     		adds	r3, r3, #2
 2824 10e4 3868     		ldr	r0, [r7]
 2825 10e6 0344     		add	r3, r3, r0
 2826 10e8 1B78     		ldrb	r3, [r3]	@ zero_extendqisi2
 2827 10ea 4B40     		eors	r3, r3, r1
 2828 10ec DBB2     		uxtb	r3, r3
 2829 10ee 1370     		strb	r3, [r2]
 262:build/openmote-cc2538_armgcc/bsp/boards/common/aes_ecb.c ****     state[6] = rsbox[state[14]] ^ expandedKey[(round * 16) + 6];
 2830              		.loc 1 262 0
 2831 10f0 7B68     		ldr	r3, [r7, #4]
 2832 10f2 9A1D     		adds	r2, r3, #6
 2833 10f4 7B68     		ldr	r3, [r7, #4]
 2834 10f6 0E33     		adds	r3, r3, #14
 2835 10f8 1B78     		ldrb	r3, [r3]	@ zero_extendqisi2
 2836 10fa 1946     		mov	r1, r3
 2837 10fc 40F20003 		movw	r3, #:lower16:rsbox
 2838 1100 C0F20003 		movt	r3, #:upper16:rsbox
 2839 1104 595C     		ldrb	r1, [r3, r1]	@ zero_extendqisi2
 2840 1106 97F90F30 		ldrsb	r3, [r7, #15]
 2841 110a 1B01     		lsls	r3, r3, #4
 2842 110c 0633     		adds	r3, r3, #6
 2843 110e 3868     		ldr	r0, [r7]
 2844 1110 0344     		add	r3, r3, r0
 2845 1112 1B78     		ldrb	r3, [r3]	@ zero_extendqisi2
 2846 1114 4B40     		eors	r3, r3, r1
 2847 1116 DBB2     		uxtb	r3, r3
 2848 1118 1370     		strb	r3, [r2]
 263:build/openmote-cc2538_armgcc/bsp/boards/common/aes_ecb.c ****     state[10] = buf1;
 2849              		.loc 1 263 0
 2850 111a 7B68     		ldr	r3, [r7, #4]
 2851 111c 0A33     		adds	r3, r3, #10
 2852 111e BA7B     		ldrb	r2, [r7, #14]
 2853 1120 1A70     		strb	r2, [r3]
 264:build/openmote-cc2538_armgcc/bsp/boards/common/aes_ecb.c ****     state[14] = buf2;
 2854              		.loc 1 264 0
 2855 1122 7B68     		ldr	r3, [r7, #4]
 2856 1124 0E33     		adds	r3, r3, #14
 2857 1126 7A7B     		ldrb	r2, [r7, #13]
 2858 1128 1A70     		strb	r2, [r3]
 265:build/openmote-cc2538_armgcc/bsp/boards/common/aes_ecb.c ****     // row 3
 266:build/openmote-cc2538_armgcc/bsp/boards/common/aes_ecb.c ****     buf1 = rsbox[state[3]] ^ expandedKey[(round * 16) + 15];
 2859              		.loc 1 266 0
 2860 112a 7B68     		ldr	r3, [r7, #4]
 2861 112c 0333     		adds	r3, r3, #3
 2862 112e 1B78     		ldrb	r3, [r3]	@ zero_extendqisi2
 2863 1130 1A46     		mov	r2, r3
 2864 1132 40F20003 		movw	r3, #:lower16:rsbox
 2865 1136 C0F20003 		movt	r3, #:upper16:rsbox
 2866 113a 9A5C     		ldrb	r2, [r3, r2]	@ zero_extendqisi2
 2867 113c 97F90F30 		ldrsb	r3, [r7, #15]
 2868 1140 1B01     		lsls	r3, r3, #4
 2869 1142 0F33     		adds	r3, r3, #15
 2870 1144 3968     		ldr	r1, [r7]
 2871 1146 0B44     		add	r3, r3, r1
 2872 1148 1B78     		ldrb	r3, [r3]	@ zero_extendqisi2
 2873 114a 5340     		eors	r3, r3, r2
 2874 114c BB73     		strb	r3, [r7, #14]
 267:build/openmote-cc2538_armgcc/bsp/boards/common/aes_ecb.c ****     state[3] = rsbox[state[7]] ^ expandedKey[(round * 16) + 3];
 2875              		.loc 1 267 0
 2876 114e 7B68     		ldr	r3, [r7, #4]
 2877 1150 DA1C     		adds	r2, r3, #3
 2878 1152 7B68     		ldr	r3, [r7, #4]
 2879 1154 0733     		adds	r3, r3, #7
 2880 1156 1B78     		ldrb	r3, [r3]	@ zero_extendqisi2
 2881 1158 1946     		mov	r1, r3
 2882 115a 40F20003 		movw	r3, #:lower16:rsbox
 2883 115e C0F20003 		movt	r3, #:upper16:rsbox
 2884 1162 595C     		ldrb	r1, [r3, r1]	@ zero_extendqisi2
 2885 1164 97F90F30 		ldrsb	r3, [r7, #15]
 2886 1168 1B01     		lsls	r3, r3, #4
 2887 116a 0333     		adds	r3, r3, #3
 2888 116c 3868     		ldr	r0, [r7]
 2889 116e 0344     		add	r3, r3, r0
 2890 1170 1B78     		ldrb	r3, [r3]	@ zero_extendqisi2
 2891 1172 4B40     		eors	r3, r3, r1
 2892 1174 DBB2     		uxtb	r3, r3
 2893 1176 1370     		strb	r3, [r2]
 268:build/openmote-cc2538_armgcc/bsp/boards/common/aes_ecb.c ****     state[7] = rsbox[state[11]] ^ expandedKey[(round * 16) + 7];
 2894              		.loc 1 268 0
 2895 1178 7B68     		ldr	r3, [r7, #4]
 2896 117a DA1D     		adds	r2, r3, #7
 2897 117c 7B68     		ldr	r3, [r7, #4]
 2898 117e 0B33     		adds	r3, r3, #11
 2899 1180 1B78     		ldrb	r3, [r3]	@ zero_extendqisi2
 2900 1182 1946     		mov	r1, r3
 2901 1184 40F20003 		movw	r3, #:lower16:rsbox
 2902 1188 C0F20003 		movt	r3, #:upper16:rsbox
 2903 118c 595C     		ldrb	r1, [r3, r1]	@ zero_extendqisi2
 2904 118e 97F90F30 		ldrsb	r3, [r7, #15]
 2905 1192 1B01     		lsls	r3, r3, #4
 2906 1194 0733     		adds	r3, r3, #7
 2907 1196 3868     		ldr	r0, [r7]
 2908 1198 0344     		add	r3, r3, r0
 2909 119a 1B78     		ldrb	r3, [r3]	@ zero_extendqisi2
 2910 119c 4B40     		eors	r3, r3, r1
 2911 119e DBB2     		uxtb	r3, r3
 2912 11a0 1370     		strb	r3, [r2]
 269:build/openmote-cc2538_armgcc/bsp/boards/common/aes_ecb.c ****     state[11] = rsbox[state[15]] ^ expandedKey[(round * 16) + 11];
 2913              		.loc 1 269 0
 2914 11a2 7B68     		ldr	r3, [r7, #4]
 2915 11a4 03F10B02 		add	r2, r3, #11
 2916 11a8 7B68     		ldr	r3, [r7, #4]
 2917 11aa 0F33     		adds	r3, r3, #15
 2918 11ac 1B78     		ldrb	r3, [r3]	@ zero_extendqisi2
 2919 11ae 1946     		mov	r1, r3
 2920 11b0 40F20003 		movw	r3, #:lower16:rsbox
 2921 11b4 C0F20003 		movt	r3, #:upper16:rsbox
 2922 11b8 595C     		ldrb	r1, [r3, r1]	@ zero_extendqisi2
 2923 11ba 97F90F30 		ldrsb	r3, [r7, #15]
 2924 11be 1B01     		lsls	r3, r3, #4
 2925 11c0 0B33     		adds	r3, r3, #11
 2926 11c2 3868     		ldr	r0, [r7]
 2927 11c4 0344     		add	r3, r3, r0
 2928 11c6 1B78     		ldrb	r3, [r3]	@ zero_extendqisi2
 2929 11c8 4B40     		eors	r3, r3, r1
 2930 11ca DBB2     		uxtb	r3, r3
 2931 11cc 1370     		strb	r3, [r2]
 270:build/openmote-cc2538_armgcc/bsp/boards/common/aes_ecb.c ****     state[15] = buf1;
 2932              		.loc 1 270 0
 2933 11ce 7B68     		ldr	r3, [r7, #4]
 2934 11d0 0F33     		adds	r3, r3, #15
 2935 11d2 BA7B     		ldrb	r2, [r7, #14]
 2936 11d4 1A70     		strb	r2, [r3]
 271:build/openmote-cc2538_armgcc/bsp/boards/common/aes_ecb.c **** 
 272:build/openmote-cc2538_armgcc/bsp/boards/common/aes_ecb.c ****     for (round = 8; round >= 0; round--){
 2937              		.loc 1 272 0
 2938 11d6 0823     		movs	r3, #8
 2939 11d8 FB73     		strb	r3, [r7, #15]
 2940 11da 00F056BC 		b	.L13
 2941              	.L14:
 273:build/openmote-cc2538_armgcc/bsp/boards/common/aes_ecb.c ****         // barreto
 274:build/openmote-cc2538_armgcc/bsp/boards/common/aes_ecb.c ****         //col1
 275:build/openmote-cc2538_armgcc/bsp/boards/common/aes_ecb.c ****         buf1 = galois_mul2(galois_mul2(state[0] ^ state[2]));
 2942              		.loc 1 275 0 discriminator 2
 2943 11de 7B68     		ldr	r3, [r7, #4]
 2944 11e0 1A78     		ldrb	r2, [r3]	@ zero_extendqisi2
 2945 11e2 7B68     		ldr	r3, [r7, #4]
 2946 11e4 0233     		adds	r3, r3, #2
 2947 11e6 1B78     		ldrb	r3, [r3]	@ zero_extendqisi2
 2948 11e8 5340     		eors	r3, r3, r2
 2949 11ea DBB2     		uxtb	r3, r3
 2950 11ec 1846     		mov	r0, r3
 2951 11ee FFF7FEFF 		bl	galois_mul2
 2952 11f2 0346     		mov	r3, r0
 2953 11f4 1846     		mov	r0, r3
 2954 11f6 FFF7FEFF 		bl	galois_mul2
 2955 11fa 0346     		mov	r3, r0
 2956 11fc BB73     		strb	r3, [r7, #14]
 276:build/openmote-cc2538_armgcc/bsp/boards/common/aes_ecb.c ****         buf2 = galois_mul2(galois_mul2(state[1] ^ state[3]));
 2957              		.loc 1 276 0 discriminator 2
 2958 11fe 7B68     		ldr	r3, [r7, #4]
 2959 1200 0133     		adds	r3, r3, #1
 2960 1202 1A78     		ldrb	r2, [r3]	@ zero_extendqisi2
 2961 1204 7B68     		ldr	r3, [r7, #4]
 2962 1206 0333     		adds	r3, r3, #3
 2963 1208 1B78     		ldrb	r3, [r3]	@ zero_extendqisi2
 2964 120a 5340     		eors	r3, r3, r2
 2965 120c DBB2     		uxtb	r3, r3
 2966 120e 1846     		mov	r0, r3
 2967 1210 FFF7FEFF 		bl	galois_mul2
 2968 1214 0346     		mov	r3, r0
 2969 1216 1846     		mov	r0, r3
 2970 1218 FFF7FEFF 		bl	galois_mul2
 2971 121c 0346     		mov	r3, r0
 2972 121e 7B73     		strb	r3, [r7, #13]
 277:build/openmote-cc2538_armgcc/bsp/boards/common/aes_ecb.c ****         state[0] ^= buf1;     state[1] ^= buf2;    state[2] ^= buf1;    state[3] ^= buf2;
 2973              		.loc 1 277 0 discriminator 2
 2974 1220 7B68     		ldr	r3, [r7, #4]
 2975 1222 1A78     		ldrb	r2, [r3]	@ zero_extendqisi2
 2976 1224 BB7B     		ldrb	r3, [r7, #14]
 2977 1226 5340     		eors	r3, r3, r2
 2978 1228 DAB2     		uxtb	r2, r3
 2979 122a 7B68     		ldr	r3, [r7, #4]
 2980 122c 1A70     		strb	r2, [r3]
 2981 122e 7B68     		ldr	r3, [r7, #4]
 2982 1230 0133     		adds	r3, r3, #1
 2983 1232 7A68     		ldr	r2, [r7, #4]
 2984 1234 0132     		adds	r2, r2, #1
 2985 1236 1178     		ldrb	r1, [r2]	@ zero_extendqisi2
 2986 1238 7A7B     		ldrb	r2, [r7, #13]
 2987 123a 4A40     		eors	r2, r2, r1
 2988 123c D2B2     		uxtb	r2, r2
 2989 123e 1A70     		strb	r2, [r3]
 2990 1240 7B68     		ldr	r3, [r7, #4]
 2991 1242 0233     		adds	r3, r3, #2
 2992 1244 7A68     		ldr	r2, [r7, #4]
 2993 1246 0232     		adds	r2, r2, #2
 2994 1248 1178     		ldrb	r1, [r2]	@ zero_extendqisi2
 2995 124a BA7B     		ldrb	r2, [r7, #14]
 2996 124c 4A40     		eors	r2, r2, r1
 2997 124e D2B2     		uxtb	r2, r2
 2998 1250 1A70     		strb	r2, [r3]
 2999 1252 7B68     		ldr	r3, [r7, #4]
 3000 1254 0333     		adds	r3, r3, #3
 3001 1256 7A68     		ldr	r2, [r7, #4]
 3002 1258 0332     		adds	r2, r2, #3
 3003 125a 1178     		ldrb	r1, [r2]	@ zero_extendqisi2
 3004 125c 7A7B     		ldrb	r2, [r7, #13]
 3005 125e 4A40     		eors	r2, r2, r1
 3006 1260 D2B2     		uxtb	r2, r2
 3007 1262 1A70     		strb	r2, [r3]
 278:build/openmote-cc2538_armgcc/bsp/boards/common/aes_ecb.c ****         //col2
 279:build/openmote-cc2538_armgcc/bsp/boards/common/aes_ecb.c ****         buf1 = galois_mul2(galois_mul2(state[4] ^ state[6]));
 3008              		.loc 1 279 0 discriminator 2
 3009 1264 7B68     		ldr	r3, [r7, #4]
 3010 1266 0433     		adds	r3, r3, #4
 3011 1268 1A78     		ldrb	r2, [r3]	@ zero_extendqisi2
 3012 126a 7B68     		ldr	r3, [r7, #4]
 3013 126c 0633     		adds	r3, r3, #6
 3014 126e 1B78     		ldrb	r3, [r3]	@ zero_extendqisi2
 3015 1270 5340     		eors	r3, r3, r2
 3016 1272 DBB2     		uxtb	r3, r3
 3017 1274 1846     		mov	r0, r3
 3018 1276 FFF7FEFF 		bl	galois_mul2
 3019 127a 0346     		mov	r3, r0
 3020 127c 1846     		mov	r0, r3
 3021 127e FFF7FEFF 		bl	galois_mul2
 3022 1282 0346     		mov	r3, r0
 3023 1284 BB73     		strb	r3, [r7, #14]
 280:build/openmote-cc2538_armgcc/bsp/boards/common/aes_ecb.c ****         buf2 = galois_mul2(galois_mul2(state[5] ^ state[7]));
 3024              		.loc 1 280 0 discriminator 2
 3025 1286 7B68     		ldr	r3, [r7, #4]
 3026 1288 0533     		adds	r3, r3, #5
 3027 128a 1A78     		ldrb	r2, [r3]	@ zero_extendqisi2
 3028 128c 7B68     		ldr	r3, [r7, #4]
 3029 128e 0733     		adds	r3, r3, #7
 3030 1290 1B78     		ldrb	r3, [r3]	@ zero_extendqisi2
 3031 1292 5340     		eors	r3, r3, r2
 3032 1294 DBB2     		uxtb	r3, r3
 3033 1296 1846     		mov	r0, r3
 3034 1298 FFF7FEFF 		bl	galois_mul2
 3035 129c 0346     		mov	r3, r0
 3036 129e 1846     		mov	r0, r3
 3037 12a0 FFF7FEFF 		bl	galois_mul2
 3038 12a4 0346     		mov	r3, r0
 3039 12a6 7B73     		strb	r3, [r7, #13]
 281:build/openmote-cc2538_armgcc/bsp/boards/common/aes_ecb.c ****         state[4] ^= buf1;    state[5] ^= buf2;    state[6] ^= buf1;    state[7] ^= buf2;
 3040              		.loc 1 281 0 discriminator 2
 3041 12a8 7B68     		ldr	r3, [r7, #4]
 3042 12aa 0433     		adds	r3, r3, #4
 3043 12ac 7A68     		ldr	r2, [r7, #4]
 3044 12ae 0432     		adds	r2, r2, #4
 3045 12b0 1178     		ldrb	r1, [r2]	@ zero_extendqisi2
 3046 12b2 BA7B     		ldrb	r2, [r7, #14]
 3047 12b4 4A40     		eors	r2, r2, r1
 3048 12b6 D2B2     		uxtb	r2, r2
 3049 12b8 1A70     		strb	r2, [r3]
 3050 12ba 7B68     		ldr	r3, [r7, #4]
 3051 12bc 0533     		adds	r3, r3, #5
 3052 12be 7A68     		ldr	r2, [r7, #4]
 3053 12c0 0532     		adds	r2, r2, #5
 3054 12c2 1178     		ldrb	r1, [r2]	@ zero_extendqisi2
 3055 12c4 7A7B     		ldrb	r2, [r7, #13]
 3056 12c6 4A40     		eors	r2, r2, r1
 3057 12c8 D2B2     		uxtb	r2, r2
 3058 12ca 1A70     		strb	r2, [r3]
 3059 12cc 7B68     		ldr	r3, [r7, #4]
 3060 12ce 0633     		adds	r3, r3, #6
 3061 12d0 7A68     		ldr	r2, [r7, #4]
 3062 12d2 0632     		adds	r2, r2, #6
 3063 12d4 1178     		ldrb	r1, [r2]	@ zero_extendqisi2
 3064 12d6 BA7B     		ldrb	r2, [r7, #14]
 3065 12d8 4A40     		eors	r2, r2, r1
 3066 12da D2B2     		uxtb	r2, r2
 3067 12dc 1A70     		strb	r2, [r3]
 3068 12de 7B68     		ldr	r3, [r7, #4]
 3069 12e0 0733     		adds	r3, r3, #7
 3070 12e2 7A68     		ldr	r2, [r7, #4]
 3071 12e4 0732     		adds	r2, r2, #7
 3072 12e6 1178     		ldrb	r1, [r2]	@ zero_extendqisi2
 3073 12e8 7A7B     		ldrb	r2, [r7, #13]
 3074 12ea 4A40     		eors	r2, r2, r1
 3075 12ec D2B2     		uxtb	r2, r2
 3076 12ee 1A70     		strb	r2, [r3]
 282:build/openmote-cc2538_armgcc/bsp/boards/common/aes_ecb.c ****         //col3
 283:build/openmote-cc2538_armgcc/bsp/boards/common/aes_ecb.c ****         buf1 = galois_mul2(galois_mul2(state[8] ^ state[10]));
 3077              		.loc 1 283 0 discriminator 2
 3078 12f0 7B68     		ldr	r3, [r7, #4]
 3079 12f2 0833     		adds	r3, r3, #8
 3080 12f4 1A78     		ldrb	r2, [r3]	@ zero_extendqisi2
 3081 12f6 7B68     		ldr	r3, [r7, #4]
 3082 12f8 0A33     		adds	r3, r3, #10
 3083 12fa 1B78     		ldrb	r3, [r3]	@ zero_extendqisi2
 3084 12fc 5340     		eors	r3, r3, r2
 3085 12fe DBB2     		uxtb	r3, r3
 3086 1300 1846     		mov	r0, r3
 3087 1302 FFF7FEFF 		bl	galois_mul2
 3088 1306 0346     		mov	r3, r0
 3089 1308 1846     		mov	r0, r3
 3090 130a FFF7FEFF 		bl	galois_mul2
 3091 130e 0346     		mov	r3, r0
 3092 1310 BB73     		strb	r3, [r7, #14]
 284:build/openmote-cc2538_armgcc/bsp/boards/common/aes_ecb.c ****         buf2 = galois_mul2(galois_mul2(state[9] ^ state[11]));
 3093              		.loc 1 284 0 discriminator 2
 3094 1312 7B68     		ldr	r3, [r7, #4]
 3095 1314 0933     		adds	r3, r3, #9
 3096 1316 1A78     		ldrb	r2, [r3]	@ zero_extendqisi2
 3097 1318 7B68     		ldr	r3, [r7, #4]
 3098 131a 0B33     		adds	r3, r3, #11
 3099 131c 1B78     		ldrb	r3, [r3]	@ zero_extendqisi2
 3100 131e 5340     		eors	r3, r3, r2
 3101 1320 DBB2     		uxtb	r3, r3
 3102 1322 1846     		mov	r0, r3
 3103 1324 FFF7FEFF 		bl	galois_mul2
 3104 1328 0346     		mov	r3, r0
 3105 132a 1846     		mov	r0, r3
 3106 132c FFF7FEFF 		bl	galois_mul2
 3107 1330 0346     		mov	r3, r0
 3108 1332 7B73     		strb	r3, [r7, #13]
 285:build/openmote-cc2538_armgcc/bsp/boards/common/aes_ecb.c ****         state[8] ^= buf1;    state[9] ^= buf2;    state[10] ^= buf1;    state[11] ^= buf2;
 3109              		.loc 1 285 0 discriminator 2
 3110 1334 7B68     		ldr	r3, [r7, #4]
 3111 1336 0833     		adds	r3, r3, #8
 3112 1338 7A68     		ldr	r2, [r7, #4]
 3113 133a 0832     		adds	r2, r2, #8
 3114 133c 1178     		ldrb	r1, [r2]	@ zero_extendqisi2
 3115 133e BA7B     		ldrb	r2, [r7, #14]
 3116 1340 4A40     		eors	r2, r2, r1
 3117 1342 D2B2     		uxtb	r2, r2
 3118 1344 1A70     		strb	r2, [r3]
 3119 1346 7B68     		ldr	r3, [r7, #4]
 3120 1348 0933     		adds	r3, r3, #9
 3121 134a 7A68     		ldr	r2, [r7, #4]
 3122 134c 0932     		adds	r2, r2, #9
 3123 134e 1178     		ldrb	r1, [r2]	@ zero_extendqisi2
 3124 1350 7A7B     		ldrb	r2, [r7, #13]
 3125 1352 4A40     		eors	r2, r2, r1
 3126 1354 D2B2     		uxtb	r2, r2
 3127 1356 1A70     		strb	r2, [r3]
 3128 1358 7B68     		ldr	r3, [r7, #4]
 3129 135a 0A33     		adds	r3, r3, #10
 3130 135c 7A68     		ldr	r2, [r7, #4]
 3131 135e 0A32     		adds	r2, r2, #10
 3132 1360 1178     		ldrb	r1, [r2]	@ zero_extendqisi2
 3133 1362 BA7B     		ldrb	r2, [r7, #14]
 3134 1364 4A40     		eors	r2, r2, r1
 3135 1366 D2B2     		uxtb	r2, r2
 3136 1368 1A70     		strb	r2, [r3]
 3137 136a 7B68     		ldr	r3, [r7, #4]
 3138 136c 0B33     		adds	r3, r3, #11
 3139 136e 7A68     		ldr	r2, [r7, #4]
 3140 1370 0B32     		adds	r2, r2, #11
 3141 1372 1178     		ldrb	r1, [r2]	@ zero_extendqisi2
 3142 1374 7A7B     		ldrb	r2, [r7, #13]
 3143 1376 4A40     		eors	r2, r2, r1
 3144 1378 D2B2     		uxtb	r2, r2
 3145 137a 1A70     		strb	r2, [r3]
 286:build/openmote-cc2538_armgcc/bsp/boards/common/aes_ecb.c ****         //col4
 287:build/openmote-cc2538_armgcc/bsp/boards/common/aes_ecb.c ****         buf1 = galois_mul2(galois_mul2(state[12] ^ state[14]));
 3146              		.loc 1 287 0 discriminator 2
 3147 137c 7B68     		ldr	r3, [r7, #4]
 3148 137e 0C33     		adds	r3, r3, #12
 3149 1380 1A78     		ldrb	r2, [r3]	@ zero_extendqisi2
 3150 1382 7B68     		ldr	r3, [r7, #4]
 3151 1384 0E33     		adds	r3, r3, #14
 3152 1386 1B78     		ldrb	r3, [r3]	@ zero_extendqisi2
 3153 1388 5340     		eors	r3, r3, r2
 3154 138a DBB2     		uxtb	r3, r3
 3155 138c 1846     		mov	r0, r3
 3156 138e FFF7FEFF 		bl	galois_mul2
 3157 1392 0346     		mov	r3, r0
 3158 1394 1846     		mov	r0, r3
 3159 1396 FFF7FEFF 		bl	galois_mul2
 3160 139a 0346     		mov	r3, r0
 3161 139c BB73     		strb	r3, [r7, #14]
 288:build/openmote-cc2538_armgcc/bsp/boards/common/aes_ecb.c ****         buf2 = galois_mul2(galois_mul2(state[13] ^ state[15]));
 3162              		.loc 1 288 0 discriminator 2
 3163 139e 7B68     		ldr	r3, [r7, #4]
 3164 13a0 0D33     		adds	r3, r3, #13
 3165 13a2 1A78     		ldrb	r2, [r3]	@ zero_extendqisi2
 3166 13a4 7B68     		ldr	r3, [r7, #4]
 3167 13a6 0F33     		adds	r3, r3, #15
 3168 13a8 1B78     		ldrb	r3, [r3]	@ zero_extendqisi2
 3169 13aa 5340     		eors	r3, r3, r2
 3170 13ac DBB2     		uxtb	r3, r3
 3171 13ae 1846     		mov	r0, r3
 3172 13b0 FFF7FEFF 		bl	galois_mul2
 3173 13b4 0346     		mov	r3, r0
 3174 13b6 1846     		mov	r0, r3
 3175 13b8 FFF7FEFF 		bl	galois_mul2
 3176 13bc 0346     		mov	r3, r0
 3177 13be 7B73     		strb	r3, [r7, #13]
 289:build/openmote-cc2538_armgcc/bsp/boards/common/aes_ecb.c ****         state[12] ^= buf1;    state[13] ^= buf2;    state[14] ^= buf1;    state[15] ^= buf2;
 3178              		.loc 1 289 0 discriminator 2
 3179 13c0 7B68     		ldr	r3, [r7, #4]
 3180 13c2 0C33     		adds	r3, r3, #12
 3181 13c4 7A68     		ldr	r2, [r7, #4]
 3182 13c6 0C32     		adds	r2, r2, #12
 3183 13c8 1178     		ldrb	r1, [r2]	@ zero_extendqisi2
 3184 13ca BA7B     		ldrb	r2, [r7, #14]
 3185 13cc 4A40     		eors	r2, r2, r1
 3186 13ce D2B2     		uxtb	r2, r2
 3187 13d0 1A70     		strb	r2, [r3]
 3188 13d2 7B68     		ldr	r3, [r7, #4]
 3189 13d4 0D33     		adds	r3, r3, #13
 3190 13d6 7A68     		ldr	r2, [r7, #4]
 3191 13d8 0D32     		adds	r2, r2, #13
 3192 13da 1178     		ldrb	r1, [r2]	@ zero_extendqisi2
 3193 13dc 7A7B     		ldrb	r2, [r7, #13]
 3194 13de 4A40     		eors	r2, r2, r1
 3195 13e0 D2B2     		uxtb	r2, r2
 3196 13e2 1A70     		strb	r2, [r3]
 3197 13e4 7B68     		ldr	r3, [r7, #4]
 3198 13e6 0E33     		adds	r3, r3, #14
 3199 13e8 7A68     		ldr	r2, [r7, #4]
 3200 13ea 0E32     		adds	r2, r2, #14
 3201 13ec 1178     		ldrb	r1, [r2]	@ zero_extendqisi2
 3202 13ee BA7B     		ldrb	r2, [r7, #14]
 3203 13f0 4A40     		eors	r2, r2, r1
 3204 13f2 D2B2     		uxtb	r2, r2
 3205 13f4 1A70     		strb	r2, [r3]
 3206 13f6 7B68     		ldr	r3, [r7, #4]
 3207 13f8 0F33     		adds	r3, r3, #15
 3208 13fa 7A68     		ldr	r2, [r7, #4]
 3209 13fc 0F32     		adds	r2, r2, #15
 3210 13fe 1178     		ldrb	r1, [r2]	@ zero_extendqisi2
 3211 1400 7A7B     		ldrb	r2, [r7, #13]
 3212 1402 4A40     		eors	r2, r2, r1
 3213 1404 D2B2     		uxtb	r2, r2
 3214 1406 1A70     		strb	r2, [r3]
 290:build/openmote-cc2538_armgcc/bsp/boards/common/aes_ecb.c ****         // mixcolums //////////
 291:build/openmote-cc2538_armgcc/bsp/boards/common/aes_ecb.c ****         // col1
 292:build/openmote-cc2538_armgcc/bsp/boards/common/aes_ecb.c ****         buf1 = state[0] ^ state[1] ^ state[2] ^ state[3];
 3215              		.loc 1 292 0 discriminator 2
 3216 1408 7B68     		ldr	r3, [r7, #4]
 3217 140a 1A78     		ldrb	r2, [r3]	@ zero_extendqisi2
 3218 140c 7B68     		ldr	r3, [r7, #4]
 3219 140e 0133     		adds	r3, r3, #1
 3220 1410 1B78     		ldrb	r3, [r3]	@ zero_extendqisi2
 3221 1412 5340     		eors	r3, r3, r2
 3222 1414 DAB2     		uxtb	r2, r3
 3223 1416 7B68     		ldr	r3, [r7, #4]
 3224 1418 0233     		adds	r3, r3, #2
 3225 141a 1B78     		ldrb	r3, [r3]	@ zero_extendqisi2
 3226 141c 5340     		eors	r3, r3, r2
 3227 141e DAB2     		uxtb	r2, r3
 3228 1420 7B68     		ldr	r3, [r7, #4]
 3229 1422 0333     		adds	r3, r3, #3
 3230 1424 1B78     		ldrb	r3, [r3]	@ zero_extendqisi2
 3231 1426 5340     		eors	r3, r3, r2
 3232 1428 BB73     		strb	r3, [r7, #14]
 293:build/openmote-cc2538_armgcc/bsp/boards/common/aes_ecb.c ****         buf2 = state[0];
 3233              		.loc 1 293 0 discriminator 2
 3234 142a 7B68     		ldr	r3, [r7, #4]
 3235 142c 1B78     		ldrb	r3, [r3]
 3236 142e 7B73     		strb	r3, [r7, #13]
 294:build/openmote-cc2538_armgcc/bsp/boards/common/aes_ecb.c ****         buf3 = state[0] ^ state[1]; buf3 = galois_mul2(buf3); state[0] = state[0] ^ buf3 ^ buf1;
 3237              		.loc 1 294 0 discriminator 2
 3238 1430 7B68     		ldr	r3, [r7, #4]
 3239 1432 1A78     		ldrb	r2, [r3]	@ zero_extendqisi2
 3240 1434 7B68     		ldr	r3, [r7, #4]
 3241 1436 0133     		adds	r3, r3, #1
 3242 1438 1B78     		ldrb	r3, [r3]	@ zero_extendqisi2
 3243 143a 5340     		eors	r3, r3, r2
 3244 143c 3B73     		strb	r3, [r7, #12]
 3245 143e 3B7B     		ldrb	r3, [r7, #12]	@ zero_extendqisi2
 3246 1440 1846     		mov	r0, r3
 3247 1442 FFF7FEFF 		bl	galois_mul2
 3248 1446 0346     		mov	r3, r0
 3249 1448 3B73     		strb	r3, [r7, #12]
 3250 144a 7B68     		ldr	r3, [r7, #4]
 3251 144c 1A78     		ldrb	r2, [r3]	@ zero_extendqisi2
 3252 144e 3B7B     		ldrb	r3, [r7, #12]
 3253 1450 5340     		eors	r3, r3, r2
 3254 1452 DAB2     		uxtb	r2, r3
 3255 1454 BB7B     		ldrb	r3, [r7, #14]
 3256 1456 5340     		eors	r3, r3, r2
 3257 1458 DAB2     		uxtb	r2, r3
 3258 145a 7B68     		ldr	r3, [r7, #4]
 3259 145c 1A70     		strb	r2, [r3]
 295:build/openmote-cc2538_armgcc/bsp/boards/common/aes_ecb.c ****         buf3 = state[1] ^ state[2]; buf3 = galois_mul2(buf3); state[1] = state[1] ^ buf3 ^ buf1;
 3260              		.loc 1 295 0 discriminator 2
 3261 145e 7B68     		ldr	r3, [r7, #4]
 3262 1460 0133     		adds	r3, r3, #1
 3263 1462 1A78     		ldrb	r2, [r3]	@ zero_extendqisi2
 3264 1464 7B68     		ldr	r3, [r7, #4]
 3265 1466 0233     		adds	r3, r3, #2
 3266 1468 1B78     		ldrb	r3, [r3]	@ zero_extendqisi2
 3267 146a 5340     		eors	r3, r3, r2
 3268 146c 3B73     		strb	r3, [r7, #12]
 3269 146e 3B7B     		ldrb	r3, [r7, #12]	@ zero_extendqisi2
 3270 1470 1846     		mov	r0, r3
 3271 1472 FFF7FEFF 		bl	galois_mul2
 3272 1476 0346     		mov	r3, r0
 3273 1478 3B73     		strb	r3, [r7, #12]
 3274 147a 7B68     		ldr	r3, [r7, #4]
 3275 147c 0133     		adds	r3, r3, #1
 3276 147e 7A68     		ldr	r2, [r7, #4]
 3277 1480 0132     		adds	r2, r2, #1
 3278 1482 1178     		ldrb	r1, [r2]	@ zero_extendqisi2
 3279 1484 3A7B     		ldrb	r2, [r7, #12]
 3280 1486 4A40     		eors	r2, r2, r1
 3281 1488 D1B2     		uxtb	r1, r2
 3282 148a BA7B     		ldrb	r2, [r7, #14]
 3283 148c 4A40     		eors	r2, r2, r1
 3284 148e D2B2     		uxtb	r2, r2
 3285 1490 1A70     		strb	r2, [r3]
 296:build/openmote-cc2538_armgcc/bsp/boards/common/aes_ecb.c ****         buf3 = state[2] ^ state[3]; buf3 = galois_mul2(buf3); state[2] = state[2] ^ buf3 ^ buf1;
 3286              		.loc 1 296 0 discriminator 2
 3287 1492 7B68     		ldr	r3, [r7, #4]
 3288 1494 0233     		adds	r3, r3, #2
 3289 1496 1A78     		ldrb	r2, [r3]	@ zero_extendqisi2
 3290 1498 7B68     		ldr	r3, [r7, #4]
 3291 149a 0333     		adds	r3, r3, #3
 3292 149c 1B78     		ldrb	r3, [r3]	@ zero_extendqisi2
 3293 149e 5340     		eors	r3, r3, r2
 3294 14a0 3B73     		strb	r3, [r7, #12]
 3295 14a2 3B7B     		ldrb	r3, [r7, #12]	@ zero_extendqisi2
 3296 14a4 1846     		mov	r0, r3
 3297 14a6 FFF7FEFF 		bl	galois_mul2
 3298 14aa 0346     		mov	r3, r0
 3299 14ac 3B73     		strb	r3, [r7, #12]
 3300 14ae 7B68     		ldr	r3, [r7, #4]
 3301 14b0 0233     		adds	r3, r3, #2
 3302 14b2 7A68     		ldr	r2, [r7, #4]
 3303 14b4 0232     		adds	r2, r2, #2
 3304 14b6 1178     		ldrb	r1, [r2]	@ zero_extendqisi2
 3305 14b8 3A7B     		ldrb	r2, [r7, #12]
 3306 14ba 4A40     		eors	r2, r2, r1
 3307 14bc D1B2     		uxtb	r1, r2
 3308 14be BA7B     		ldrb	r2, [r7, #14]
 3309 14c0 4A40     		eors	r2, r2, r1
 3310 14c2 D2B2     		uxtb	r2, r2
 3311 14c4 1A70     		strb	r2, [r3]
 297:build/openmote-cc2538_armgcc/bsp/boards/common/aes_ecb.c ****         buf3 = state[3] ^ buf2;     buf3 = galois_mul2(buf3); state[3] = state[3] ^ buf3 ^ buf1;
 3312              		.loc 1 297 0 discriminator 2
 3313 14c6 7B68     		ldr	r3, [r7, #4]
 3314 14c8 0333     		adds	r3, r3, #3
 3315 14ca 1A78     		ldrb	r2, [r3]	@ zero_extendqisi2
 3316 14cc 7B7B     		ldrb	r3, [r7, #13]
 3317 14ce 5340     		eors	r3, r3, r2
 3318 14d0 3B73     		strb	r3, [r7, #12]
 3319 14d2 3B7B     		ldrb	r3, [r7, #12]	@ zero_extendqisi2
 3320 14d4 1846     		mov	r0, r3
 3321 14d6 FFF7FEFF 		bl	galois_mul2
 3322 14da 0346     		mov	r3, r0
 3323 14dc 3B73     		strb	r3, [r7, #12]
 3324 14de 7B68     		ldr	r3, [r7, #4]
 3325 14e0 0333     		adds	r3, r3, #3
 3326 14e2 7A68     		ldr	r2, [r7, #4]
 3327 14e4 0332     		adds	r2, r2, #3
 3328 14e6 1178     		ldrb	r1, [r2]	@ zero_extendqisi2
 3329 14e8 3A7B     		ldrb	r2, [r7, #12]
 3330 14ea 4A40     		eors	r2, r2, r1
 3331 14ec D1B2     		uxtb	r1, r2
 3332 14ee BA7B     		ldrb	r2, [r7, #14]
 3333 14f0 4A40     		eors	r2, r2, r1
 3334 14f2 D2B2     		uxtb	r2, r2
 3335 14f4 1A70     		strb	r2, [r3]
 298:build/openmote-cc2538_armgcc/bsp/boards/common/aes_ecb.c ****         // col2
 299:build/openmote-cc2538_armgcc/bsp/boards/common/aes_ecb.c ****         buf1 = state[4] ^ state[5] ^ state[6] ^ state[7];
 3336              		.loc 1 299 0 discriminator 2
 3337 14f6 7B68     		ldr	r3, [r7, #4]
 3338 14f8 0433     		adds	r3, r3, #4
 3339 14fa 1A78     		ldrb	r2, [r3]	@ zero_extendqisi2
 3340 14fc 7B68     		ldr	r3, [r7, #4]
 3341 14fe 0533     		adds	r3, r3, #5
 3342 1500 1B78     		ldrb	r3, [r3]	@ zero_extendqisi2
 3343 1502 5340     		eors	r3, r3, r2
 3344 1504 DAB2     		uxtb	r2, r3
 3345 1506 7B68     		ldr	r3, [r7, #4]
 3346 1508 0633     		adds	r3, r3, #6
 3347 150a 1B78     		ldrb	r3, [r3]	@ zero_extendqisi2
 3348 150c 5340     		eors	r3, r3, r2
 3349 150e DAB2     		uxtb	r2, r3
 3350 1510 7B68     		ldr	r3, [r7, #4]
 3351 1512 0733     		adds	r3, r3, #7
 3352 1514 1B78     		ldrb	r3, [r3]	@ zero_extendqisi2
 3353 1516 5340     		eors	r3, r3, r2
 3354 1518 BB73     		strb	r3, [r7, #14]
 300:build/openmote-cc2538_armgcc/bsp/boards/common/aes_ecb.c ****         buf2 = state[4];
 3355              		.loc 1 300 0 discriminator 2
 3356 151a 7B68     		ldr	r3, [r7, #4]
 3357 151c 1B79     		ldrb	r3, [r3, #4]
 3358 151e 7B73     		strb	r3, [r7, #13]
 301:build/openmote-cc2538_armgcc/bsp/boards/common/aes_ecb.c ****         buf3 = state[4] ^ state[5]; buf3 = galois_mul2(buf3); state[4] = state[4] ^ buf3 ^ buf1;
 3359              		.loc 1 301 0 discriminator 2
 3360 1520 7B68     		ldr	r3, [r7, #4]
 3361 1522 0433     		adds	r3, r3, #4
 3362 1524 1A78     		ldrb	r2, [r3]	@ zero_extendqisi2
 3363 1526 7B68     		ldr	r3, [r7, #4]
 3364 1528 0533     		adds	r3, r3, #5
 3365 152a 1B78     		ldrb	r3, [r3]	@ zero_extendqisi2
 3366 152c 5340     		eors	r3, r3, r2
 3367 152e 3B73     		strb	r3, [r7, #12]
 3368 1530 3B7B     		ldrb	r3, [r7, #12]	@ zero_extendqisi2
 3369 1532 1846     		mov	r0, r3
 3370 1534 FFF7FEFF 		bl	galois_mul2
 3371 1538 0346     		mov	r3, r0
 3372 153a 3B73     		strb	r3, [r7, #12]
 3373 153c 7B68     		ldr	r3, [r7, #4]
 3374 153e 0433     		adds	r3, r3, #4
 3375 1540 7A68     		ldr	r2, [r7, #4]
 3376 1542 0432     		adds	r2, r2, #4
 3377 1544 1178     		ldrb	r1, [r2]	@ zero_extendqisi2
 3378 1546 3A7B     		ldrb	r2, [r7, #12]
 3379 1548 4A40     		eors	r2, r2, r1
 3380 154a D1B2     		uxtb	r1, r2
 3381 154c BA7B     		ldrb	r2, [r7, #14]
 3382 154e 4A40     		eors	r2, r2, r1
 3383 1550 D2B2     		uxtb	r2, r2
 3384 1552 1A70     		strb	r2, [r3]
 302:build/openmote-cc2538_armgcc/bsp/boards/common/aes_ecb.c ****         buf3 = state[5] ^ state[6]; buf3 = galois_mul2(buf3); state[5] = state[5] ^ buf3 ^ buf1;
 3385              		.loc 1 302 0 discriminator 2
 3386 1554 7B68     		ldr	r3, [r7, #4]
 3387 1556 0533     		adds	r3, r3, #5
 3388 1558 1A78     		ldrb	r2, [r3]	@ zero_extendqisi2
 3389 155a 7B68     		ldr	r3, [r7, #4]
 3390 155c 0633     		adds	r3, r3, #6
 3391 155e 1B78     		ldrb	r3, [r3]	@ zero_extendqisi2
 3392 1560 5340     		eors	r3, r3, r2
 3393 1562 3B73     		strb	r3, [r7, #12]
 3394 1564 3B7B     		ldrb	r3, [r7, #12]	@ zero_extendqisi2
 3395 1566 1846     		mov	r0, r3
 3396 1568 FFF7FEFF 		bl	galois_mul2
 3397 156c 0346     		mov	r3, r0
 3398 156e 3B73     		strb	r3, [r7, #12]
 3399 1570 7B68     		ldr	r3, [r7, #4]
 3400 1572 0533     		adds	r3, r3, #5
 3401 1574 7A68     		ldr	r2, [r7, #4]
 3402 1576 0532     		adds	r2, r2, #5
 3403 1578 1178     		ldrb	r1, [r2]	@ zero_extendqisi2
 3404 157a 3A7B     		ldrb	r2, [r7, #12]
 3405 157c 4A40     		eors	r2, r2, r1
 3406 157e D1B2     		uxtb	r1, r2
 3407 1580 BA7B     		ldrb	r2, [r7, #14]
 3408 1582 4A40     		eors	r2, r2, r1
 3409 1584 D2B2     		uxtb	r2, r2
 3410 1586 1A70     		strb	r2, [r3]
 303:build/openmote-cc2538_armgcc/bsp/boards/common/aes_ecb.c ****         buf3 = state[6] ^ state[7]; buf3 = galois_mul2(buf3); state[6] = state[6] ^ buf3 ^ buf1;
 3411              		.loc 1 303 0 discriminator 2
 3412 1588 7B68     		ldr	r3, [r7, #4]
 3413 158a 0633     		adds	r3, r3, #6
 3414 158c 1A78     		ldrb	r2, [r3]	@ zero_extendqisi2
 3415 158e 7B68     		ldr	r3, [r7, #4]
 3416 1590 0733     		adds	r3, r3, #7
 3417 1592 1B78     		ldrb	r3, [r3]	@ zero_extendqisi2
 3418 1594 5340     		eors	r3, r3, r2
 3419 1596 3B73     		strb	r3, [r7, #12]
 3420 1598 3B7B     		ldrb	r3, [r7, #12]	@ zero_extendqisi2
 3421 159a 1846     		mov	r0, r3
 3422 159c FFF7FEFF 		bl	galois_mul2
 3423 15a0 0346     		mov	r3, r0
 3424 15a2 3B73     		strb	r3, [r7, #12]
 3425 15a4 7B68     		ldr	r3, [r7, #4]
 3426 15a6 0633     		adds	r3, r3, #6
 3427 15a8 7A68     		ldr	r2, [r7, #4]
 3428 15aa 0632     		adds	r2, r2, #6
 3429 15ac 1178     		ldrb	r1, [r2]	@ zero_extendqisi2
 3430 15ae 3A7B     		ldrb	r2, [r7, #12]
 3431 15b0 4A40     		eors	r2, r2, r1
 3432 15b2 D1B2     		uxtb	r1, r2
 3433 15b4 BA7B     		ldrb	r2, [r7, #14]
 3434 15b6 4A40     		eors	r2, r2, r1
 3435 15b8 D2B2     		uxtb	r2, r2
 3436 15ba 1A70     		strb	r2, [r3]
 304:build/openmote-cc2538_armgcc/bsp/boards/common/aes_ecb.c ****         buf3 = state[7] ^ buf2;     buf3 = galois_mul2(buf3); state[7] = state[7] ^ buf3 ^ buf1;
 3437              		.loc 1 304 0 discriminator 2
 3438 15bc 7B68     		ldr	r3, [r7, #4]
 3439 15be 0733     		adds	r3, r3, #7
 3440 15c0 1A78     		ldrb	r2, [r3]	@ zero_extendqisi2
 3441 15c2 7B7B     		ldrb	r3, [r7, #13]
 3442 15c4 5340     		eors	r3, r3, r2
 3443 15c6 3B73     		strb	r3, [r7, #12]
 3444 15c8 3B7B     		ldrb	r3, [r7, #12]	@ zero_extendqisi2
 3445 15ca 1846     		mov	r0, r3
 3446 15cc FFF7FEFF 		bl	galois_mul2
 3447 15d0 0346     		mov	r3, r0
 3448 15d2 3B73     		strb	r3, [r7, #12]
 3449 15d4 7B68     		ldr	r3, [r7, #4]
 3450 15d6 0733     		adds	r3, r3, #7
 3451 15d8 7A68     		ldr	r2, [r7, #4]
 3452 15da 0732     		adds	r2, r2, #7
 3453 15dc 1178     		ldrb	r1, [r2]	@ zero_extendqisi2
 3454 15de 3A7B     		ldrb	r2, [r7, #12]
 3455 15e0 4A40     		eors	r2, r2, r1
 3456 15e2 D1B2     		uxtb	r1, r2
 3457 15e4 BA7B     		ldrb	r2, [r7, #14]
 3458 15e6 4A40     		eors	r2, r2, r1
 3459 15e8 D2B2     		uxtb	r2, r2
 3460 15ea 1A70     		strb	r2, [r3]
 305:build/openmote-cc2538_armgcc/bsp/boards/common/aes_ecb.c ****         // col3
 306:build/openmote-cc2538_armgcc/bsp/boards/common/aes_ecb.c ****         buf1 = state[8] ^ state[9] ^ state[10] ^ state[11];
 3461              		.loc 1 306 0 discriminator 2
 3462 15ec 7B68     		ldr	r3, [r7, #4]
 3463 15ee 0833     		adds	r3, r3, #8
 3464 15f0 1A78     		ldrb	r2, [r3]	@ zero_extendqisi2
 3465 15f2 7B68     		ldr	r3, [r7, #4]
 3466 15f4 0933     		adds	r3, r3, #9
 3467 15f6 1B78     		ldrb	r3, [r3]	@ zero_extendqisi2
 3468 15f8 5340     		eors	r3, r3, r2
 3469 15fa DAB2     		uxtb	r2, r3
 3470 15fc 7B68     		ldr	r3, [r7, #4]
 3471 15fe 0A33     		adds	r3, r3, #10
 3472 1600 1B78     		ldrb	r3, [r3]	@ zero_extendqisi2
 3473 1602 5340     		eors	r3, r3, r2
 3474 1604 DAB2     		uxtb	r2, r3
 3475 1606 7B68     		ldr	r3, [r7, #4]
 3476 1608 0B33     		adds	r3, r3, #11
 3477 160a 1B78     		ldrb	r3, [r3]	@ zero_extendqisi2
 3478 160c 5340     		eors	r3, r3, r2
 3479 160e BB73     		strb	r3, [r7, #14]
 307:build/openmote-cc2538_armgcc/bsp/boards/common/aes_ecb.c ****         buf2 = state[8];
 3480              		.loc 1 307 0 discriminator 2
 3481 1610 7B68     		ldr	r3, [r7, #4]
 3482 1612 1B7A     		ldrb	r3, [r3, #8]
 3483 1614 7B73     		strb	r3, [r7, #13]
 308:build/openmote-cc2538_armgcc/bsp/boards/common/aes_ecb.c ****         buf3 = state[8] ^ state[9];   buf3 = galois_mul2(buf3); state[8] = state[8] ^ buf3 ^ buf1;
 3484              		.loc 1 308 0 discriminator 2
 3485 1616 7B68     		ldr	r3, [r7, #4]
 3486 1618 0833     		adds	r3, r3, #8
 3487 161a 1A78     		ldrb	r2, [r3]	@ zero_extendqisi2
 3488 161c 7B68     		ldr	r3, [r7, #4]
 3489 161e 0933     		adds	r3, r3, #9
 3490 1620 1B78     		ldrb	r3, [r3]	@ zero_extendqisi2
 3491 1622 5340     		eors	r3, r3, r2
 3492 1624 3B73     		strb	r3, [r7, #12]
 3493 1626 3B7B     		ldrb	r3, [r7, #12]	@ zero_extendqisi2
 3494 1628 1846     		mov	r0, r3
 3495 162a FFF7FEFF 		bl	galois_mul2
 3496 162e 0346     		mov	r3, r0
 3497 1630 3B73     		strb	r3, [r7, #12]
 3498 1632 7B68     		ldr	r3, [r7, #4]
 3499 1634 0833     		adds	r3, r3, #8
 3500 1636 7A68     		ldr	r2, [r7, #4]
 3501 1638 0832     		adds	r2, r2, #8
 3502 163a 1178     		ldrb	r1, [r2]	@ zero_extendqisi2
 3503 163c 3A7B     		ldrb	r2, [r7, #12]
 3504 163e 4A40     		eors	r2, r2, r1
 3505 1640 D1B2     		uxtb	r1, r2
 3506 1642 BA7B     		ldrb	r2, [r7, #14]
 3507 1644 4A40     		eors	r2, r2, r1
 3508 1646 D2B2     		uxtb	r2, r2
 3509 1648 1A70     		strb	r2, [r3]
 309:build/openmote-cc2538_armgcc/bsp/boards/common/aes_ecb.c ****         buf3 = state[9] ^ state[10];  buf3 = galois_mul2(buf3); state[9] = state[9] ^ buf3 ^ buf1;
 3510              		.loc 1 309 0 discriminator 2
 3511 164a 7B68     		ldr	r3, [r7, #4]
 3512 164c 0933     		adds	r3, r3, #9
 3513 164e 1A78     		ldrb	r2, [r3]	@ zero_extendqisi2
 3514 1650 7B68     		ldr	r3, [r7, #4]
 3515 1652 0A33     		adds	r3, r3, #10
 3516 1654 1B78     		ldrb	r3, [r3]	@ zero_extendqisi2
 3517 1656 5340     		eors	r3, r3, r2
 3518 1658 3B73     		strb	r3, [r7, #12]
 3519 165a 3B7B     		ldrb	r3, [r7, #12]	@ zero_extendqisi2
 3520 165c 1846     		mov	r0, r3
 3521 165e FFF7FEFF 		bl	galois_mul2
 3522 1662 0346     		mov	r3, r0
 3523 1664 3B73     		strb	r3, [r7, #12]
 3524 1666 7B68     		ldr	r3, [r7, #4]
 3525 1668 0933     		adds	r3, r3, #9
 3526 166a 7A68     		ldr	r2, [r7, #4]
 3527 166c 0932     		adds	r2, r2, #9
 3528 166e 1178     		ldrb	r1, [r2]	@ zero_extendqisi2
 3529 1670 3A7B     		ldrb	r2, [r7, #12]
 3530 1672 4A40     		eors	r2, r2, r1
 3531 1674 D1B2     		uxtb	r1, r2
 3532 1676 BA7B     		ldrb	r2, [r7, #14]
 3533 1678 4A40     		eors	r2, r2, r1
 3534 167a D2B2     		uxtb	r2, r2
 3535 167c 1A70     		strb	r2, [r3]
 310:build/openmote-cc2538_armgcc/bsp/boards/common/aes_ecb.c ****         buf3 = state[10] ^ state[11]; buf3 = galois_mul2(buf3); state[10] = state[10] ^ buf3 ^ buf1
 3536              		.loc 1 310 0 discriminator 2
 3537 167e 7B68     		ldr	r3, [r7, #4]
 3538 1680 0A33     		adds	r3, r3, #10
 3539 1682 1A78     		ldrb	r2, [r3]	@ zero_extendqisi2
 3540 1684 7B68     		ldr	r3, [r7, #4]
 3541 1686 0B33     		adds	r3, r3, #11
 3542 1688 1B78     		ldrb	r3, [r3]	@ zero_extendqisi2
 3543 168a 5340     		eors	r3, r3, r2
 3544 168c 3B73     		strb	r3, [r7, #12]
 3545 168e 3B7B     		ldrb	r3, [r7, #12]	@ zero_extendqisi2
 3546 1690 1846     		mov	r0, r3
 3547 1692 FFF7FEFF 		bl	galois_mul2
 3548 1696 0346     		mov	r3, r0
 3549 1698 3B73     		strb	r3, [r7, #12]
 3550 169a 7B68     		ldr	r3, [r7, #4]
 3551 169c 0A33     		adds	r3, r3, #10
 3552 169e 7A68     		ldr	r2, [r7, #4]
 3553 16a0 0A32     		adds	r2, r2, #10
 3554 16a2 1178     		ldrb	r1, [r2]	@ zero_extendqisi2
 3555 16a4 3A7B     		ldrb	r2, [r7, #12]
 3556 16a6 4A40     		eors	r2, r2, r1
 3557 16a8 D1B2     		uxtb	r1, r2
 3558 16aa BA7B     		ldrb	r2, [r7, #14]
 3559 16ac 4A40     		eors	r2, r2, r1
 3560 16ae D2B2     		uxtb	r2, r2
 3561 16b0 1A70     		strb	r2, [r3]
 311:build/openmote-cc2538_armgcc/bsp/boards/common/aes_ecb.c ****         buf3 = state[11] ^ buf2;      buf3 = galois_mul2(buf3); state[11] = state[11] ^ buf3 ^ buf1
 3562              		.loc 1 311 0 discriminator 2
 3563 16b2 7B68     		ldr	r3, [r7, #4]
 3564 16b4 0B33     		adds	r3, r3, #11
 3565 16b6 1A78     		ldrb	r2, [r3]	@ zero_extendqisi2
 3566 16b8 7B7B     		ldrb	r3, [r7, #13]
 3567 16ba 5340     		eors	r3, r3, r2
 3568 16bc 3B73     		strb	r3, [r7, #12]
 3569 16be 3B7B     		ldrb	r3, [r7, #12]	@ zero_extendqisi2
 3570 16c0 1846     		mov	r0, r3
 3571 16c2 FFF7FEFF 		bl	galois_mul2
 3572 16c6 0346     		mov	r3, r0
 3573 16c8 3B73     		strb	r3, [r7, #12]
 3574 16ca 7B68     		ldr	r3, [r7, #4]
 3575 16cc 0B33     		adds	r3, r3, #11
 3576 16ce 7A68     		ldr	r2, [r7, #4]
 3577 16d0 0B32     		adds	r2, r2, #11
 3578 16d2 1178     		ldrb	r1, [r2]	@ zero_extendqisi2
 3579 16d4 3A7B     		ldrb	r2, [r7, #12]
 3580 16d6 4A40     		eors	r2, r2, r1
 3581 16d8 D1B2     		uxtb	r1, r2
 3582 16da BA7B     		ldrb	r2, [r7, #14]
 3583 16dc 4A40     		eors	r2, r2, r1
 3584 16de D2B2     		uxtb	r2, r2
 3585 16e0 1A70     		strb	r2, [r3]
 312:build/openmote-cc2538_armgcc/bsp/boards/common/aes_ecb.c ****         // col4
 313:build/openmote-cc2538_armgcc/bsp/boards/common/aes_ecb.c ****         buf1 = state[12] ^ state[13] ^ state[14] ^ state[15];
 3586              		.loc 1 313 0 discriminator 2
 3587 16e2 7B68     		ldr	r3, [r7, #4]
 3588 16e4 0C33     		adds	r3, r3, #12
 3589 16e6 1A78     		ldrb	r2, [r3]	@ zero_extendqisi2
 3590 16e8 7B68     		ldr	r3, [r7, #4]
 3591 16ea 0D33     		adds	r3, r3, #13
 3592 16ec 1B78     		ldrb	r3, [r3]	@ zero_extendqisi2
 3593 16ee 5340     		eors	r3, r3, r2
 3594 16f0 DAB2     		uxtb	r2, r3
 3595 16f2 7B68     		ldr	r3, [r7, #4]
 3596 16f4 0E33     		adds	r3, r3, #14
 3597 16f6 1B78     		ldrb	r3, [r3]	@ zero_extendqisi2
 3598 16f8 5340     		eors	r3, r3, r2
 3599 16fa DAB2     		uxtb	r2, r3
 3600 16fc 7B68     		ldr	r3, [r7, #4]
 3601 16fe 0F33     		adds	r3, r3, #15
 3602 1700 1B78     		ldrb	r3, [r3]	@ zero_extendqisi2
 3603 1702 5340     		eors	r3, r3, r2
 3604 1704 BB73     		strb	r3, [r7, #14]
 314:build/openmote-cc2538_armgcc/bsp/boards/common/aes_ecb.c ****         buf2 = state[12];
 3605              		.loc 1 314 0 discriminator 2
 3606 1706 7B68     		ldr	r3, [r7, #4]
 3607 1708 1B7B     		ldrb	r3, [r3, #12]
 3608 170a 7B73     		strb	r3, [r7, #13]
 315:build/openmote-cc2538_armgcc/bsp/boards/common/aes_ecb.c ****         buf3 = state[12] ^ state[13]; buf3 = galois_mul2(buf3); state[12] = state[12] ^ buf3 ^ buf1
 3609              		.loc 1 315 0 discriminator 2
 3610 170c 7B68     		ldr	r3, [r7, #4]
 3611 170e 0C33     		adds	r3, r3, #12
 3612 1710 1A78     		ldrb	r2, [r3]	@ zero_extendqisi2
 3613 1712 7B68     		ldr	r3, [r7, #4]
 3614 1714 0D33     		adds	r3, r3, #13
 3615 1716 1B78     		ldrb	r3, [r3]	@ zero_extendqisi2
 3616 1718 5340     		eors	r3, r3, r2
 3617 171a 3B73     		strb	r3, [r7, #12]
 3618 171c 3B7B     		ldrb	r3, [r7, #12]	@ zero_extendqisi2
 3619 171e 1846     		mov	r0, r3
 3620 1720 FFF7FEFF 		bl	galois_mul2
 3621 1724 0346     		mov	r3, r0
 3622 1726 3B73     		strb	r3, [r7, #12]
 3623 1728 7B68     		ldr	r3, [r7, #4]
 3624 172a 0C33     		adds	r3, r3, #12
 3625 172c 7A68     		ldr	r2, [r7, #4]
 3626 172e 0C32     		adds	r2, r2, #12
 3627 1730 1178     		ldrb	r1, [r2]	@ zero_extendqisi2
 3628 1732 3A7B     		ldrb	r2, [r7, #12]
 3629 1734 4A40     		eors	r2, r2, r1
 3630 1736 D1B2     		uxtb	r1, r2
 3631 1738 BA7B     		ldrb	r2, [r7, #14]
 3632 173a 4A40     		eors	r2, r2, r1
 3633 173c D2B2     		uxtb	r2, r2
 3634 173e 1A70     		strb	r2, [r3]
 316:build/openmote-cc2538_armgcc/bsp/boards/common/aes_ecb.c ****         buf3 = state[13] ^ state[14]; buf3 = galois_mul2(buf3); state[13] = state[13] ^ buf3 ^ buf1
 3635              		.loc 1 316 0 discriminator 2
 3636 1740 7B68     		ldr	r3, [r7, #4]
 3637 1742 0D33     		adds	r3, r3, #13
 3638 1744 1A78     		ldrb	r2, [r3]	@ zero_extendqisi2
 3639 1746 7B68     		ldr	r3, [r7, #4]
 3640 1748 0E33     		adds	r3, r3, #14
 3641 174a 1B78     		ldrb	r3, [r3]	@ zero_extendqisi2
 3642 174c 5340     		eors	r3, r3, r2
 3643 174e 3B73     		strb	r3, [r7, #12]
 3644 1750 3B7B     		ldrb	r3, [r7, #12]	@ zero_extendqisi2
 3645 1752 1846     		mov	r0, r3
 3646 1754 FFF7FEFF 		bl	galois_mul2
 3647 1758 0346     		mov	r3, r0
 3648 175a 3B73     		strb	r3, [r7, #12]
 3649 175c 7B68     		ldr	r3, [r7, #4]
 3650 175e 0D33     		adds	r3, r3, #13
 3651 1760 7A68     		ldr	r2, [r7, #4]
 3652 1762 0D32     		adds	r2, r2, #13
 3653 1764 1178     		ldrb	r1, [r2]	@ zero_extendqisi2
 3654 1766 3A7B     		ldrb	r2, [r7, #12]
 3655 1768 4A40     		eors	r2, r2, r1
 3656 176a D1B2     		uxtb	r1, r2
 3657 176c BA7B     		ldrb	r2, [r7, #14]
 3658 176e 4A40     		eors	r2, r2, r1
 3659 1770 D2B2     		uxtb	r2, r2
 3660 1772 1A70     		strb	r2, [r3]
 317:build/openmote-cc2538_armgcc/bsp/boards/common/aes_ecb.c ****         buf3 = state[14] ^ state[15]; buf3 = galois_mul2(buf3); state[14] = state[14] ^ buf3 ^ buf1
 3661              		.loc 1 317 0 discriminator 2
 3662 1774 7B68     		ldr	r3, [r7, #4]
 3663 1776 0E33     		adds	r3, r3, #14
 3664 1778 1A78     		ldrb	r2, [r3]	@ zero_extendqisi2
 3665 177a 7B68     		ldr	r3, [r7, #4]
 3666 177c 0F33     		adds	r3, r3, #15
 3667 177e 1B78     		ldrb	r3, [r3]	@ zero_extendqisi2
 3668 1780 5340     		eors	r3, r3, r2
 3669 1782 3B73     		strb	r3, [r7, #12]
 3670 1784 3B7B     		ldrb	r3, [r7, #12]	@ zero_extendqisi2
 3671 1786 1846     		mov	r0, r3
 3672 1788 FFF7FEFF 		bl	galois_mul2
 3673 178c 0346     		mov	r3, r0
 3674 178e 3B73     		strb	r3, [r7, #12]
 3675 1790 7B68     		ldr	r3, [r7, #4]
 3676 1792 0E33     		adds	r3, r3, #14
 3677 1794 7A68     		ldr	r2, [r7, #4]
 3678 1796 0E32     		adds	r2, r2, #14
 3679 1798 1178     		ldrb	r1, [r2]	@ zero_extendqisi2
 3680 179a 3A7B     		ldrb	r2, [r7, #12]
 3681 179c 4A40     		eors	r2, r2, r1
 3682 179e D1B2     		uxtb	r1, r2
 3683 17a0 BA7B     		ldrb	r2, [r7, #14]
 3684 17a2 4A40     		eors	r2, r2, r1
 3685 17a4 D2B2     		uxtb	r2, r2
 3686 17a6 1A70     		strb	r2, [r3]
 318:build/openmote-cc2538_armgcc/bsp/boards/common/aes_ecb.c ****         buf3 = state[15] ^ buf2;      buf3 = galois_mul2(buf3); state[15] = state[15] ^ buf3 ^ buf1
 3687              		.loc 1 318 0 discriminator 2
 3688 17a8 7B68     		ldr	r3, [r7, #4]
 3689 17aa 0F33     		adds	r3, r3, #15
 3690 17ac 1A78     		ldrb	r2, [r3]	@ zero_extendqisi2
 3691 17ae 7B7B     		ldrb	r3, [r7, #13]
 3692 17b0 5340     		eors	r3, r3, r2
 3693 17b2 3B73     		strb	r3, [r7, #12]
 3694 17b4 3B7B     		ldrb	r3, [r7, #12]	@ zero_extendqisi2
 3695 17b6 1846     		mov	r0, r3
 3696 17b8 FFF7FEFF 		bl	galois_mul2
 3697 17bc 0346     		mov	r3, r0
 3698 17be 3B73     		strb	r3, [r7, #12]
 3699 17c0 7B68     		ldr	r3, [r7, #4]
 3700 17c2 0F33     		adds	r3, r3, #15
 3701 17c4 7A68     		ldr	r2, [r7, #4]
 3702 17c6 0F32     		adds	r2, r2, #15
 3703 17c8 1178     		ldrb	r1, [r2]	@ zero_extendqisi2
 3704 17ca 3A7B     		ldrb	r2, [r7, #12]
 3705 17cc 4A40     		eors	r2, r2, r1
 3706 17ce D1B2     		uxtb	r1, r2
 3707 17d0 BA7B     		ldrb	r2, [r7, #14]
 3708 17d2 4A40     		eors	r2, r2, r1
 3709 17d4 D2B2     		uxtb	r2, r2
 3710 17d6 1A70     		strb	r2, [r3]
 319:build/openmote-cc2538_armgcc/bsp/boards/common/aes_ecb.c **** 
 320:build/openmote-cc2538_armgcc/bsp/boards/common/aes_ecb.c ****         // addroundkey, rsbox and shiftrows
 321:build/openmote-cc2538_armgcc/bsp/boards/common/aes_ecb.c ****         // row 0
 322:build/openmote-cc2538_armgcc/bsp/boards/common/aes_ecb.c ****         state[0] = rsbox[state[0]] ^ expandedKey[(round * 16)];
 3711              		.loc 1 322 0 discriminator 2
 3712 17d8 7B68     		ldr	r3, [r7, #4]
 3713 17da 1B78     		ldrb	r3, [r3]	@ zero_extendqisi2
 3714 17dc 1A46     		mov	r2, r3
 3715 17de 40F20003 		movw	r3, #:lower16:rsbox
 3716 17e2 C0F20003 		movt	r3, #:upper16:rsbox
 3717 17e6 9A5C     		ldrb	r2, [r3, r2]	@ zero_extendqisi2
 3718 17e8 97F90F30 		ldrsb	r3, [r7, #15]
 3719 17ec 1B01     		lsls	r3, r3, #4
 3720 17ee 3968     		ldr	r1, [r7]
 3721 17f0 0B44     		add	r3, r3, r1
 3722 17f2 1B78     		ldrb	r3, [r3]	@ zero_extendqisi2
 3723 17f4 5340     		eors	r3, r3, r2
 3724 17f6 DAB2     		uxtb	r2, r3
 3725 17f8 7B68     		ldr	r3, [r7, #4]
 3726 17fa 1A70     		strb	r2, [r3]
 323:build/openmote-cc2538_armgcc/bsp/boards/common/aes_ecb.c ****         state[4] = rsbox[state[4]] ^ expandedKey[(round * 16) + 4];
 3727              		.loc 1 323 0 discriminator 2
 3728 17fc 7B68     		ldr	r3, [r7, #4]
 3729 17fe 1A1D     		adds	r2, r3, #4
 3730 1800 7B68     		ldr	r3, [r7, #4]
 3731 1802 0433     		adds	r3, r3, #4
 3732 1804 1B78     		ldrb	r3, [r3]	@ zero_extendqisi2
 3733 1806 1946     		mov	r1, r3
 3734 1808 40F20003 		movw	r3, #:lower16:rsbox
 3735 180c C0F20003 		movt	r3, #:upper16:rsbox
 3736 1810 595C     		ldrb	r1, [r3, r1]	@ zero_extendqisi2
 3737 1812 97F90F30 		ldrsb	r3, [r7, #15]
 3738 1816 1B01     		lsls	r3, r3, #4
 3739 1818 0433     		adds	r3, r3, #4
 3740 181a 3868     		ldr	r0, [r7]
 3741 181c 0344     		add	r3, r3, r0
 3742 181e 1B78     		ldrb	r3, [r3]	@ zero_extendqisi2
 3743 1820 4B40     		eors	r3, r3, r1
 3744 1822 DBB2     		uxtb	r3, r3
 3745 1824 1370     		strb	r3, [r2]
 324:build/openmote-cc2538_armgcc/bsp/boards/common/aes_ecb.c ****         state[8] = rsbox[state[8]] ^ expandedKey[(round * 16) + 8];
 3746              		.loc 1 324 0 discriminator 2
 3747 1826 7B68     		ldr	r3, [r7, #4]
 3748 1828 03F10802 		add	r2, r3, #8
 3749 182c 7B68     		ldr	r3, [r7, #4]
 3750 182e 0833     		adds	r3, r3, #8
 3751 1830 1B78     		ldrb	r3, [r3]	@ zero_extendqisi2
 3752 1832 1946     		mov	r1, r3
 3753 1834 40F20003 		movw	r3, #:lower16:rsbox
 3754 1838 C0F20003 		movt	r3, #:upper16:rsbox
 3755 183c 595C     		ldrb	r1, [r3, r1]	@ zero_extendqisi2
 3756 183e 97F90F30 		ldrsb	r3, [r7, #15]
 3757 1842 1B01     		lsls	r3, r3, #4
 3758 1844 0833     		adds	r3, r3, #8
 3759 1846 3868     		ldr	r0, [r7]
 3760 1848 0344     		add	r3, r3, r0
 3761 184a 1B78     		ldrb	r3, [r3]	@ zero_extendqisi2
 3762 184c 4B40     		eors	r3, r3, r1
 3763 184e DBB2     		uxtb	r3, r3
 3764 1850 1370     		strb	r3, [r2]
 325:build/openmote-cc2538_armgcc/bsp/boards/common/aes_ecb.c ****         state[12] = rsbox[state[12]] ^ expandedKey[(round * 16) + 12];
 3765              		.loc 1 325 0 discriminator 2
 3766 1852 7B68     		ldr	r3, [r7, #4]
 3767 1854 03F10C02 		add	r2, r3, #12
 3768 1858 7B68     		ldr	r3, [r7, #4]
 3769 185a 0C33     		adds	r3, r3, #12
 3770 185c 1B78     		ldrb	r3, [r3]	@ zero_extendqisi2
 3771 185e 1946     		mov	r1, r3
 3772 1860 40F20003 		movw	r3, #:lower16:rsbox
 3773 1864 C0F20003 		movt	r3, #:upper16:rsbox
 3774 1868 595C     		ldrb	r1, [r3, r1]	@ zero_extendqisi2
 3775 186a 97F90F30 		ldrsb	r3, [r7, #15]
 3776 186e 1B01     		lsls	r3, r3, #4
 3777 1870 0C33     		adds	r3, r3, #12
 3778 1872 3868     		ldr	r0, [r7]
 3779 1874 0344     		add	r3, r3, r0
 3780 1876 1B78     		ldrb	r3, [r3]	@ zero_extendqisi2
 3781 1878 4B40     		eors	r3, r3, r1
 3782 187a DBB2     		uxtb	r3, r3
 3783 187c 1370     		strb	r3, [r2]
 326:build/openmote-cc2538_armgcc/bsp/boards/common/aes_ecb.c ****         // row 1
 327:build/openmote-cc2538_armgcc/bsp/boards/common/aes_ecb.c ****         buf1 = rsbox[state[13]] ^ expandedKey[(round * 16) + 1];
 3784              		.loc 1 327 0 discriminator 2
 3785 187e 7B68     		ldr	r3, [r7, #4]
 3786 1880 0D33     		adds	r3, r3, #13
 3787 1882 1B78     		ldrb	r3, [r3]	@ zero_extendqisi2
 3788 1884 1A46     		mov	r2, r3
 3789 1886 40F20003 		movw	r3, #:lower16:rsbox
 3790 188a C0F20003 		movt	r3, #:upper16:rsbox
 3791 188e 9A5C     		ldrb	r2, [r3, r2]	@ zero_extendqisi2
 3792 1890 97F90F30 		ldrsb	r3, [r7, #15]
 3793 1894 1B01     		lsls	r3, r3, #4
 3794 1896 0133     		adds	r3, r3, #1
 3795 1898 3968     		ldr	r1, [r7]
 3796 189a 0B44     		add	r3, r3, r1
 3797 189c 1B78     		ldrb	r3, [r3]	@ zero_extendqisi2
 3798 189e 5340     		eors	r3, r3, r2
 3799 18a0 BB73     		strb	r3, [r7, #14]
 328:build/openmote-cc2538_armgcc/bsp/boards/common/aes_ecb.c ****         state[13] = rsbox[state[9]] ^ expandedKey[(round * 16) + 13];
 3800              		.loc 1 328 0 discriminator 2
 3801 18a2 7B68     		ldr	r3, [r7, #4]
 3802 18a4 03F10D02 		add	r2, r3, #13
 3803 18a8 7B68     		ldr	r3, [r7, #4]
 3804 18aa 0933     		adds	r3, r3, #9
 3805 18ac 1B78     		ldrb	r3, [r3]	@ zero_extendqisi2
 3806 18ae 1946     		mov	r1, r3
 3807 18b0 40F20003 		movw	r3, #:lower16:rsbox
 3808 18b4 C0F20003 		movt	r3, #:upper16:rsbox
 3809 18b8 595C     		ldrb	r1, [r3, r1]	@ zero_extendqisi2
 3810 18ba 97F90F30 		ldrsb	r3, [r7, #15]
 3811 18be 1B01     		lsls	r3, r3, #4
 3812 18c0 0D33     		adds	r3, r3, #13
 3813 18c2 3868     		ldr	r0, [r7]
 3814 18c4 0344     		add	r3, r3, r0
 3815 18c6 1B78     		ldrb	r3, [r3]	@ zero_extendqisi2
 3816 18c8 4B40     		eors	r3, r3, r1
 3817 18ca DBB2     		uxtb	r3, r3
 3818 18cc 1370     		strb	r3, [r2]
 329:build/openmote-cc2538_armgcc/bsp/boards/common/aes_ecb.c ****         state[9] = rsbox[state[5]] ^ expandedKey[(round * 16) + 9];
 3819              		.loc 1 329 0 discriminator 2
 3820 18ce 7B68     		ldr	r3, [r7, #4]
 3821 18d0 03F10902 		add	r2, r3, #9
 3822 18d4 7B68     		ldr	r3, [r7, #4]
 3823 18d6 0533     		adds	r3, r3, #5
 3824 18d8 1B78     		ldrb	r3, [r3]	@ zero_extendqisi2
 3825 18da 1946     		mov	r1, r3
 3826 18dc 40F20003 		movw	r3, #:lower16:rsbox
 3827 18e0 C0F20003 		movt	r3, #:upper16:rsbox
 3828 18e4 595C     		ldrb	r1, [r3, r1]	@ zero_extendqisi2
 3829 18e6 97F90F30 		ldrsb	r3, [r7, #15]
 3830 18ea 1B01     		lsls	r3, r3, #4
 3831 18ec 0933     		adds	r3, r3, #9
 3832 18ee 3868     		ldr	r0, [r7]
 3833 18f0 0344     		add	r3, r3, r0
 3834 18f2 1B78     		ldrb	r3, [r3]	@ zero_extendqisi2
 3835 18f4 4B40     		eors	r3, r3, r1
 3836 18f6 DBB2     		uxtb	r3, r3
 3837 18f8 1370     		strb	r3, [r2]
 330:build/openmote-cc2538_armgcc/bsp/boards/common/aes_ecb.c ****         state[5] = rsbox[state[1]] ^ expandedKey[(round * 16) + 5];
 3838              		.loc 1 330 0 discriminator 2
 3839 18fa 7B68     		ldr	r3, [r7, #4]
 3840 18fc 5A1D     		adds	r2, r3, #5
 3841 18fe 7B68     		ldr	r3, [r7, #4]
 3842 1900 0133     		adds	r3, r3, #1
 3843 1902 1B78     		ldrb	r3, [r3]	@ zero_extendqisi2
 3844 1904 1946     		mov	r1, r3
 3845 1906 40F20003 		movw	r3, #:lower16:rsbox
 3846 190a C0F20003 		movt	r3, #:upper16:rsbox
 3847 190e 595C     		ldrb	r1, [r3, r1]	@ zero_extendqisi2
 3848 1910 97F90F30 		ldrsb	r3, [r7, #15]
 3849 1914 1B01     		lsls	r3, r3, #4
 3850 1916 0533     		adds	r3, r3, #5
 3851 1918 3868     		ldr	r0, [r7]
 3852 191a 0344     		add	r3, r3, r0
 3853 191c 1B78     		ldrb	r3, [r3]	@ zero_extendqisi2
 3854 191e 4B40     		eors	r3, r3, r1
 3855 1920 DBB2     		uxtb	r3, r3
 3856 1922 1370     		strb	r3, [r2]
 331:build/openmote-cc2538_armgcc/bsp/boards/common/aes_ecb.c ****         state[1] = buf1;
 3857              		.loc 1 331 0 discriminator 2
 3858 1924 7B68     		ldr	r3, [r7, #4]
 3859 1926 0133     		adds	r3, r3, #1
 3860 1928 BA7B     		ldrb	r2, [r7, #14]
 3861 192a 1A70     		strb	r2, [r3]
 332:build/openmote-cc2538_armgcc/bsp/boards/common/aes_ecb.c ****         // row 2
 333:build/openmote-cc2538_armgcc/bsp/boards/common/aes_ecb.c ****         buf1 = rsbox[state[2]] ^ expandedKey[(round * 16) + 10];
 3862              		.loc 1 333 0 discriminator 2
 3863 192c 7B68     		ldr	r3, [r7, #4]
 3864 192e 0233     		adds	r3, r3, #2
 3865 1930 1B78     		ldrb	r3, [r3]	@ zero_extendqisi2
 3866 1932 1A46     		mov	r2, r3
 3867 1934 40F20003 		movw	r3, #:lower16:rsbox
 3868 1938 C0F20003 		movt	r3, #:upper16:rsbox
 3869 193c 9A5C     		ldrb	r2, [r3, r2]	@ zero_extendqisi2
 3870 193e 97F90F30 		ldrsb	r3, [r7, #15]
 3871 1942 1B01     		lsls	r3, r3, #4
 3872 1944 0A33     		adds	r3, r3, #10
 3873 1946 3968     		ldr	r1, [r7]
 3874 1948 0B44     		add	r3, r3, r1
 3875 194a 1B78     		ldrb	r3, [r3]	@ zero_extendqisi2
 3876 194c 5340     		eors	r3, r3, r2
 3877 194e BB73     		strb	r3, [r7, #14]
 334:build/openmote-cc2538_armgcc/bsp/boards/common/aes_ecb.c ****         buf2 = rsbox[state[6]] ^ expandedKey[(round * 16) + 14];
 3878              		.loc 1 334 0 discriminator 2
 3879 1950 7B68     		ldr	r3, [r7, #4]
 3880 1952 0633     		adds	r3, r3, #6
 3881 1954 1B78     		ldrb	r3, [r3]	@ zero_extendqisi2
 3882 1956 1A46     		mov	r2, r3
 3883 1958 40F20003 		movw	r3, #:lower16:rsbox
 3884 195c C0F20003 		movt	r3, #:upper16:rsbox
 3885 1960 9A5C     		ldrb	r2, [r3, r2]	@ zero_extendqisi2
 3886 1962 97F90F30 		ldrsb	r3, [r7, #15]
 3887 1966 1B01     		lsls	r3, r3, #4
 3888 1968 0E33     		adds	r3, r3, #14
 3889 196a 3968     		ldr	r1, [r7]
 3890 196c 0B44     		add	r3, r3, r1
 3891 196e 1B78     		ldrb	r3, [r3]	@ zero_extendqisi2
 3892 1970 5340     		eors	r3, r3, r2
 3893 1972 7B73     		strb	r3, [r7, #13]
 335:build/openmote-cc2538_armgcc/bsp/boards/common/aes_ecb.c ****         state[2] = rsbox[state[10]] ^ expandedKey[(round * 16) + 2];
 3894              		.loc 1 335 0 discriminator 2
 3895 1974 7B68     		ldr	r3, [r7, #4]
 3896 1976 9A1C     		adds	r2, r3, #2
 3897 1978 7B68     		ldr	r3, [r7, #4]
 3898 197a 0A33     		adds	r3, r3, #10
 3899 197c 1B78     		ldrb	r3, [r3]	@ zero_extendqisi2
 3900 197e 1946     		mov	r1, r3
 3901 1980 40F20003 		movw	r3, #:lower16:rsbox
 3902 1984 C0F20003 		movt	r3, #:upper16:rsbox
 3903 1988 595C     		ldrb	r1, [r3, r1]	@ zero_extendqisi2
 3904 198a 97F90F30 		ldrsb	r3, [r7, #15]
 3905 198e 1B01     		lsls	r3, r3, #4
 3906 1990 0233     		adds	r3, r3, #2
 3907 1992 3868     		ldr	r0, [r7]
 3908 1994 0344     		add	r3, r3, r0
 3909 1996 1B78     		ldrb	r3, [r3]	@ zero_extendqisi2
 3910 1998 4B40     		eors	r3, r3, r1
 3911 199a DBB2     		uxtb	r3, r3
 3912 199c 1370     		strb	r3, [r2]
 336:build/openmote-cc2538_armgcc/bsp/boards/common/aes_ecb.c ****         state[6] = rsbox[state[14]] ^ expandedKey[(round * 16) + 6];
 3913              		.loc 1 336 0 discriminator 2
 3914 199e 7B68     		ldr	r3, [r7, #4]
 3915 19a0 9A1D     		adds	r2, r3, #6
 3916 19a2 7B68     		ldr	r3, [r7, #4]
 3917 19a4 0E33     		adds	r3, r3, #14
 3918 19a6 1B78     		ldrb	r3, [r3]	@ zero_extendqisi2
 3919 19a8 1946     		mov	r1, r3
 3920 19aa 40F20003 		movw	r3, #:lower16:rsbox
 3921 19ae C0F20003 		movt	r3, #:upper16:rsbox
 3922 19b2 595C     		ldrb	r1, [r3, r1]	@ zero_extendqisi2
 3923 19b4 97F90F30 		ldrsb	r3, [r7, #15]
 3924 19b8 1B01     		lsls	r3, r3, #4
 3925 19ba 0633     		adds	r3, r3, #6
 3926 19bc 3868     		ldr	r0, [r7]
 3927 19be 0344     		add	r3, r3, r0
 3928 19c0 1B78     		ldrb	r3, [r3]	@ zero_extendqisi2
 3929 19c2 4B40     		eors	r3, r3, r1
 3930 19c4 DBB2     		uxtb	r3, r3
 3931 19c6 1370     		strb	r3, [r2]
 337:build/openmote-cc2538_armgcc/bsp/boards/common/aes_ecb.c ****         state[10] = buf1;
 3932              		.loc 1 337 0 discriminator 2
 3933 19c8 7B68     		ldr	r3, [r7, #4]
 3934 19ca 0A33     		adds	r3, r3, #10
 3935 19cc BA7B     		ldrb	r2, [r7, #14]
 3936 19ce 1A70     		strb	r2, [r3]
 338:build/openmote-cc2538_armgcc/bsp/boards/common/aes_ecb.c ****         state[14] = buf2;
 3937              		.loc 1 338 0 discriminator 2
 3938 19d0 7B68     		ldr	r3, [r7, #4]
 3939 19d2 0E33     		adds	r3, r3, #14
 3940 19d4 7A7B     		ldrb	r2, [r7, #13]
 3941 19d6 1A70     		strb	r2, [r3]
 339:build/openmote-cc2538_armgcc/bsp/boards/common/aes_ecb.c ****         // row 3
 340:build/openmote-cc2538_armgcc/bsp/boards/common/aes_ecb.c ****         buf1 = rsbox[state[3]] ^ expandedKey[(round * 16) + 15];
 3942              		.loc 1 340 0 discriminator 2
 3943 19d8 7B68     		ldr	r3, [r7, #4]
 3944 19da 0333     		adds	r3, r3, #3
 3945 19dc 1B78     		ldrb	r3, [r3]	@ zero_extendqisi2
 3946 19de 1A46     		mov	r2, r3
 3947 19e0 40F20003 		movw	r3, #:lower16:rsbox
 3948 19e4 C0F20003 		movt	r3, #:upper16:rsbox
 3949 19e8 9A5C     		ldrb	r2, [r3, r2]	@ zero_extendqisi2
 3950 19ea 97F90F30 		ldrsb	r3, [r7, #15]
 3951 19ee 1B01     		lsls	r3, r3, #4
 3952 19f0 0F33     		adds	r3, r3, #15
 3953 19f2 3968     		ldr	r1, [r7]
 3954 19f4 0B44     		add	r3, r3, r1
 3955 19f6 1B78     		ldrb	r3, [r3]	@ zero_extendqisi2
 3956 19f8 5340     		eors	r3, r3, r2
 3957 19fa BB73     		strb	r3, [r7, #14]
 341:build/openmote-cc2538_armgcc/bsp/boards/common/aes_ecb.c ****         state[3] = rsbox[state[7]] ^ expandedKey[(round * 16) + 3];
 3958              		.loc 1 341 0 discriminator 2
 3959 19fc 7B68     		ldr	r3, [r7, #4]
 3960 19fe DA1C     		adds	r2, r3, #3
 3961 1a00 7B68     		ldr	r3, [r7, #4]
 3962 1a02 0733     		adds	r3, r3, #7
 3963 1a04 1B78     		ldrb	r3, [r3]	@ zero_extendqisi2
 3964 1a06 1946     		mov	r1, r3
 3965 1a08 40F20003 		movw	r3, #:lower16:rsbox
 3966 1a0c C0F20003 		movt	r3, #:upper16:rsbox
 3967 1a10 595C     		ldrb	r1, [r3, r1]	@ zero_extendqisi2
 3968 1a12 97F90F30 		ldrsb	r3, [r7, #15]
 3969 1a16 1B01     		lsls	r3, r3, #4
 3970 1a18 0333     		adds	r3, r3, #3
 3971 1a1a 3868     		ldr	r0, [r7]
 3972 1a1c 0344     		add	r3, r3, r0
 3973 1a1e 1B78     		ldrb	r3, [r3]	@ zero_extendqisi2
 3974 1a20 4B40     		eors	r3, r3, r1
 3975 1a22 DBB2     		uxtb	r3, r3
 3976 1a24 1370     		strb	r3, [r2]
 342:build/openmote-cc2538_armgcc/bsp/boards/common/aes_ecb.c ****         state[7] = rsbox[state[11]] ^ expandedKey[(round * 16) + 7];
 3977              		.loc 1 342 0 discriminator 2
 3978 1a26 7B68     		ldr	r3, [r7, #4]
 3979 1a28 DA1D     		adds	r2, r3, #7
 3980 1a2a 7B68     		ldr	r3, [r7, #4]
 3981 1a2c 0B33     		adds	r3, r3, #11
 3982 1a2e 1B78     		ldrb	r3, [r3]	@ zero_extendqisi2
 3983 1a30 1946     		mov	r1, r3
 3984 1a32 40F20003 		movw	r3, #:lower16:rsbox
 3985 1a36 C0F20003 		movt	r3, #:upper16:rsbox
 3986 1a3a 595C     		ldrb	r1, [r3, r1]	@ zero_extendqisi2
 3987 1a3c 97F90F30 		ldrsb	r3, [r7, #15]
 3988 1a40 1B01     		lsls	r3, r3, #4
 3989 1a42 0733     		adds	r3, r3, #7
 3990 1a44 3868     		ldr	r0, [r7]
 3991 1a46 0344     		add	r3, r3, r0
 3992 1a48 1B78     		ldrb	r3, [r3]	@ zero_extendqisi2
 3993 1a4a 4B40     		eors	r3, r3, r1
 3994 1a4c DBB2     		uxtb	r3, r3
 3995 1a4e 1370     		strb	r3, [r2]
 343:build/openmote-cc2538_armgcc/bsp/boards/common/aes_ecb.c ****         state[11] = rsbox[state[15]] ^ expandedKey[(round * 16) + 11];
 3996              		.loc 1 343 0 discriminator 2
 3997 1a50 7B68     		ldr	r3, [r7, #4]
 3998 1a52 03F10B02 		add	r2, r3, #11
 3999 1a56 7B68     		ldr	r3, [r7, #4]
 4000 1a58 0F33     		adds	r3, r3, #15
 4001 1a5a 1B78     		ldrb	r3, [r3]	@ zero_extendqisi2
 4002 1a5c 1946     		mov	r1, r3
 4003 1a5e 40F20003 		movw	r3, #:lower16:rsbox
 4004 1a62 C0F20003 		movt	r3, #:upper16:rsbox
 4005 1a66 595C     		ldrb	r1, [r3, r1]	@ zero_extendqisi2
 4006 1a68 97F90F30 		ldrsb	r3, [r7, #15]
 4007 1a6c 1B01     		lsls	r3, r3, #4
 4008 1a6e 0B33     		adds	r3, r3, #11
 4009 1a70 3868     		ldr	r0, [r7]
 4010 1a72 0344     		add	r3, r3, r0
 4011 1a74 1B78     		ldrb	r3, [r3]	@ zero_extendqisi2
 4012 1a76 4B40     		eors	r3, r3, r1
 4013 1a78 DBB2     		uxtb	r3, r3
 4014 1a7a 1370     		strb	r3, [r2]
 344:build/openmote-cc2538_armgcc/bsp/boards/common/aes_ecb.c ****         state[15] = buf1;
 4015              		.loc 1 344 0 discriminator 2
 4016 1a7c 7B68     		ldr	r3, [r7, #4]
 4017 1a7e 0F33     		adds	r3, r3, #15
 4018 1a80 BA7B     		ldrb	r2, [r7, #14]
 4019 1a82 1A70     		strb	r2, [r3]
 272:build/openmote-cc2538_armgcc/bsp/boards/common/aes_ecb.c ****         // barreto
 4020              		.loc 1 272 0 discriminator 2
 4021 1a84 FB7B     		ldrb	r3, [r7, #15]	@ zero_extendqisi2
 4022 1a86 013B     		subs	r3, r3, #1
 4023 1a88 FB73     		strb	r3, [r7, #15]
 4024              	.L13:
 272:build/openmote-cc2538_armgcc/bsp/boards/common/aes_ecb.c ****         // barreto
 4025              		.loc 1 272 0 is_stmt 0 discriminator 1
 4026 1a8a 97F90F30 		ldrsb	r3, [r7, #15]
 4027 1a8e 002B     		cmp	r3, #0
 4028 1a90 BFF6A5AB 		bge	.L14
 345:build/openmote-cc2538_armgcc/bsp/boards/common/aes_ecb.c ****     }
 346:build/openmote-cc2538_armgcc/bsp/boards/common/aes_ecb.c **** 
 347:build/openmote-cc2538_armgcc/bsp/boards/common/aes_ecb.c **** 
 348:build/openmote-cc2538_armgcc/bsp/boards/common/aes_ecb.c **** }
 4029              		.loc 1 348 0 is_stmt 1
 4030 1a94 1037     		adds	r7, r7, #16
 4031 1a96 BD46     		mov	sp, r7
 4032              		@ sp needed
 4033 1a98 80BD     		pop	{r7, pc}
 4034              		.cfi_endproc
 4035              	.LFE3:
 4037 1a9a 00BF     		.align	2
 4038              		.global	aes_ecb_enc
 4039              		.thumb
 4040              		.thumb_func
 4042              	aes_ecb_enc:
 4043              	.LFB4:
 349:build/openmote-cc2538_armgcc/bsp/boards/common/aes_ecb.c **** /**
 350:build/openmote-cc2538_armgcc/bsp/boards/common/aes_ecb.c **** \brief Basic AES encryption of a single 16-octet block.
 351:build/openmote-cc2538_armgcc/bsp/boards/common/aes_ecb.c **** \param[in,out] buffer Single block plaintext. Will be overwritten by ciphertext.
 352:build/openmote-cc2538_armgcc/bsp/boards/common/aes_ecb.c **** \param[in] key Buffer containing the secret key (16 octets).
 353:build/openmote-cc2538_armgcc/bsp/boards/common/aes_ecb.c **** 
 354:build/openmote-cc2538_armgcc/bsp/boards/common/aes_ecb.c **** \returns E_SUCCESS when the encryption was successful. 
 355:build/openmote-cc2538_armgcc/bsp/boards/common/aes_ecb.c **** */
 356:build/openmote-cc2538_armgcc/bsp/boards/common/aes_ecb.c **** owerror_t aes_ecb_enc(uint8_t buffer[16], uint8_t key[16])
 357:build/openmote-cc2538_armgcc/bsp/boards/common/aes_ecb.c **** {
 4044              		.loc 1 357 0
 4045              		.cfi_startproc
 4046              		@ args = 0, pretend = 0, frame = 184
 4047              		@ frame_needed = 1, uses_anonymous_args = 0
 4048 1a9c 80B5     		push	{r7, lr}
 4049              		.cfi_def_cfa_offset 8
 4050              		.cfi_offset 7, -8
 4051              		.cfi_offset 14, -4
 4052 1a9e AEB0     		sub	sp, sp, #184
 4053              		.cfi_def_cfa_offset 192
 4054 1aa0 00AF     		add	r7, sp, #0
 4055              		.cfi_def_cfa_register 7
 4056 1aa2 7860     		str	r0, [r7, #4]
 4057 1aa4 3960     		str	r1, [r7]
 358:build/openmote-cc2538_armgcc/bsp/boards/common/aes_ecb.c ****     uint8_t expandedKey[176];
 359:build/openmote-cc2538_armgcc/bsp/boards/common/aes_ecb.c **** 
 360:build/openmote-cc2538_armgcc/bsp/boards/common/aes_ecb.c ****     expandKey(expandedKey, key);       // expand the key into 176 bytes
 4058              		.loc 1 360 0
 4059 1aa6 07F10803 		add	r3, r7, #8
 4060 1aaa 1846     		mov	r0, r3
 4061 1aac 3968     		ldr	r1, [r7]
 4062 1aae FFF7FEFF 		bl	expandKey
 361:build/openmote-cc2538_armgcc/bsp/boards/common/aes_ecb.c ****     aes_encr(buffer, expandedKey);
 4063              		.loc 1 361 0
 4064 1ab2 07F10803 		add	r3, r7, #8
 4065 1ab6 7868     		ldr	r0, [r7, #4]
 4066 1ab8 1946     		mov	r1, r3
 4067 1aba FFF7FEFF 		bl	aes_encr
 362:build/openmote-cc2538_armgcc/bsp/boards/common/aes_ecb.c **** 
 363:build/openmote-cc2538_armgcc/bsp/boards/common/aes_ecb.c ****     return E_SUCCESS;
 4068              		.loc 1 363 0
 4069 1abe 0023     		movs	r3, #0
 364:build/openmote-cc2538_armgcc/bsp/boards/common/aes_ecb.c **** }
 4070              		.loc 1 364 0
 4071 1ac0 1846     		mov	r0, r3
 4072 1ac2 B837     		adds	r7, r7, #184
 4073 1ac4 BD46     		mov	sp, r7
 4074              		@ sp needed
 4075 1ac6 80BD     		pop	{r7, pc}
 4076              		.cfi_endproc
 4077              	.LFE4:
 4079              	.Letext0:
 4080              		.file 2 "/usr/include/newlib/machine/_default_types.h"
 4081              		.file 3 "/usr/include/newlib/stdint.h"
 4082              		.file 4 "inc/opendefs.h"
 4083              		.file 5 "bsp/boards/openmote-cc2538/board_info.h"